 collector

 Timestamp is 568f4776 (Fri Jan 08 13:21:58 2016)

 Preferred load address is 00400000

 Start         Length     Name                   Class
 0001:00000000 00127855H .text                   CODE
 0001:00127860 00001233H .text$x                 CODE
 0001:00128aa0 000010c0H .text$yc                CODE
 0001:00129b60 00001084H .text$yd                CODE
 0002:00000000 00000104H .CRT$XCA                DATA
 0002:00000104 00000104H .CRT$XCC                DATA
 0002:00000208 00000113H .CRT$XCU                DATA
 0002:0000031c 00000104H .CRT$XCZ                DATA
 0002:00000420 00000104H .CRT$XIA                DATA
 0002:00000524 00000118H .CRT$XIC                DATA
 0002:0000063c 00000104H .CRT$XIY                DATA
 0002:00000740 00000104H .CRT$XIZ                DATA
 0002:00000844 00000104H .CRT$XPA                DATA
 0002:00000948 00000109H .CRT$XPX                DATA
 0002:00000a54 00000104H .CRT$XPXA               DATA
 0002:00000b58 00000104H .CRT$XPZ                DATA
 0002:00000c5c 00000104H .CRT$XTA                DATA
 0002:00000d60 00000104H .CRT$XTZ                DATA
 0002:00000e70 00028fcdH .rdata                  DATA
 0002:00029e40 00000175H .rdata$debug            DATA
 0002:00029fb8 000006b8H .rdata$r                DATA
 0002:0002a670 00000148H .rdata$sxdata           DATA
 0002:0002a7b8 00000104H .rtc$IAA                DATA
 0002:0002a8bc 000001dcH .rtc$IMZ                DATA
 0002:0002aa98 00000104H .rtc$IZZ                DATA
 0002:0002ab9c 00000104H .rtc$TAA                DATA
 0002:0002aca0 000001dcH .rtc$TMZ                DATA
 0002:0002ae7c 00000104H .rtc$TZZ                DATA
 0002:0002af80 00001621H .xdata$x                DATA
 0002:0002c5a1 00000000H .edata                  DATA
 0003:00000000 0000382dH .data                   DATA
 0003:00003840 000022b0H .bss                    DATA
 0004:00000000 0000003cH .idata$2                DATA
 0004:0000003c 00000014H .idata$3                DATA
 0004:00000050 000002fcH .idata$4                DATA
 0004:0000034c 000002fcH .idata$5                DATA
 0004:00000648 00000b68H .idata$6                DATA
 0005:00000000 00000169H .rsrc$01                DATA
 0005:00000170 00000a99H .rsrc$02                DATA

  Address         Publics by Value              Rva+Base       Lib:Object

 0000:00000000       __except_list              00000000     <absolute>
 0000:0000000f       ___safe_se_handler_count   0000000f     <absolute>
 0000:00000000       ___ImageBase               00400000     <linker-defined>
 0001:00004100       ?protobuf_ShutdownFile_aggregator_2eproto@aggregator@@YAXXZ 00405100 f   aggregator.pb.obj
 0001:00004bd0       ?protobuf_AddDesc_aggregator_2eproto_impl@aggregator@@YAXXZ 00405bd0 f   aggregator.pb.obj
 0001:00005670       ?protobuf_AddDesc_aggregator_2eproto@aggregator@@YAXXZ 00406670 f   aggregator.pb.obj
 0001:000056a0       ?GoogleOnceInit@protobuf@google@@YAXPAHP6AXXZ@Z 004066a0 f i aggregator.pb.obj
 0001:00005750       ??0FunctionClosure0@internal@protobuf@google@@QAE@P6AXXZ_N@Z 00406750 f i aggregator.pb.obj
 0001:000057b0       ??0Closure@protobuf@google@@QAE@XZ 004067b0 f i aggregator.pb.obj
 0001:000057e0       ??_EClosure@protobuf@google@@UAEPAXI@Z 004067e0 f i aggregator.pb.obj
 0001:000057e0       ??_GClosure@protobuf@google@@UAEPAXI@Z 004067e0 f i aggregator.pb.obj
 0001:00005830       ?Run@FunctionClosure0@internal@protobuf@google@@UAEXXZ 00406830 f i aggregator.pb.obj
 0001:000058e0       ??_GFunctionClosure0@internal@protobuf@google@@UAEPAXI@Z 004068e0 f i aggregator.pb.obj
 0001:000058e0       ??_EFunctionClosure0@internal@protobuf@google@@UAEPAXI@Z 004068e0 f i aggregator.pb.obj
 0001:00005930       ?Acquire_Load@internal@protobuf@google@@YAHPDH@Z 00406930 f i aggregator.pb.obj
 0001:00005950       ??0FileID@aggregator@@QAE@XZ 00406950 f   aggregator.pb.obj
 0001:000059a0       ??0MessageLite@protobuf@google@@QAE@XZ 004069a0 f i aggregator.pb.obj
 0001:000059d0       ??_GMessageLite@protobuf@google@@UAEPAXI@Z 004069d0 f i aggregator.pb.obj
 0001:000059d0       ??_EMessageLite@protobuf@google@@UAEPAXI@Z 004069d0 f i aggregator.pb.obj
 0001:00005a20       ?GetCachedSize@FileID@aggregator@@UBEHXZ 00406a20 f i aggregator.pb.obj
 0001:00005a40       ??_EFileID@aggregator@@UAEPAXI@Z 00406a40 f i aggregator.pb.obj
 0001:00005a40       ??_GFileID@aggregator@@UAEPAXI@Z 00406a40 f i aggregator.pb.obj
 0001:00005a90       ?InitAsDefaultInstance@FileID@aggregator@@AAEXXZ 00406a90 f   aggregator.pb.obj
 0001:00005ab0       ??0FileID@aggregator@@QAE@ABV01@@Z 00406ab0 f   aggregator.pb.obj
 0001:00005b10       ?SharedCtor@FileID@aggregator@@AAEXXZ 00406b10 f   aggregator.pb.obj
 0001:00005b70       ??1FileID@aggregator@@UAE@XZ 00406b70 f   aggregator.pb.obj
 0001:00005bc0       ?SharedDtor@FileID@aggregator@@AAEXXZ 00406bc0 f   aggregator.pb.obj
 0001:00005bf0       ?SetCachedSize@FileID@aggregator@@ABEXH@Z 00406bf0 f   aggregator.pb.obj
 0001:00005c20       ?default_instance@FileID@aggregator@@SAABV12@XZ 00406c20 f   aggregator.pb.obj
 0001:00005c40       ?New@FileID@aggregator@@UBEPAV12@XZ 00406c40 f   aggregator.pb.obj
 0001:00005cb0       ?Clear@FileID@aggregator@@UAEXXZ 00406cb0 f   aggregator.pb.obj
 0001:00005d10       ?MergePartialFromCodedStream@FileID@aggregator@@UAE_NPAVCodedInputStream@io@protobuf@google@@@Z 00406d10 f   aggregator.pb.obj
 0001:00005e30       ?ReadTag@CodedInputStream@io@protobuf@google@@QAEIXZ 00406e30 f i aggregator.pb.obj
 0001:00005ec0       ?ExpectAtEnd@CodedInputStream@io@protobuf@google@@QAE_NXZ 00406ec0 f i aggregator.pb.obj
 0001:00005f20       ?Advance@CodedInputStream@io@protobuf@google@@AAEXH@Z 00406f20 f i aggregator.pb.obj
 0001:00005f50       ?set_has_id@FileID@aggregator@@AAEXXZ 00406f50 f i aggregator.pb.obj
 0001:00005f80       ?GetTagWireType@WireFormatLite@internal@protobuf@google@@SA?AW4WireType@1234@I@Z 00406f80 f i aggregator.pb.obj
 0001:00005f90       ?GetTagFieldNumber@WireFormatLite@internal@protobuf@google@@SAHI@Z 00406f90 f i aggregator.pb.obj
 0001:00005fa0       ??$ReadPrimitive@I$0N@@WireFormatLite@internal@protobuf@google@@SA_NPAVCodedInputStream@io@23@PAI@Z 00406fa0 f i aggregator.pb.obj
 0001:00005fc0       ?ReadVarint32@CodedInputStream@io@protobuf@google@@QAE_NPAI@Z 00406fc0 f i aggregator.pb.obj
 0001:00006040       ?SerializeWithCachedSizes@FileID@aggregator@@UBEXPAVCodedOutputStream@io@protobuf@google@@@Z 00407040 f   aggregator.pb.obj
 0001:000060a0       ?has_id@FileID@aggregator@@QBE_NXZ 004070a0 f i aggregator.pb.obj
 0001:000060d0       ?id@FileID@aggregator@@QBEIXZ 004070d0 f i aggregator.pb.obj
 0001:000060f0       ?ByteSize@FileID@aggregator@@UBEHXZ 004070f0 f   aggregator.pb.obj
 0001:00006180       ?UInt32Size@WireFormatLite@internal@protobuf@google@@SAHI@Z 00407180 f i aggregator.pb.obj
 0001:000061a0       ?VarintSize32@CodedOutputStream@io@protobuf@google@@SAHI@Z 004071a0 f i aggregator.pb.obj
 0001:000061e0       ?CheckTypeAndMergeFrom@FileID@aggregator@@UAEXABVMessageLite@protobuf@google@@@Z 004071e0 f   aggregator.pb.obj
 0001:00006220       ?MergeFrom@FileID@aggregator@@QAEXABV12@@Z 00407220 f   aggregator.pb.obj
 0001:00006300       ?set_id@FileID@aggregator@@QAEXI@Z 00407300 f i aggregator.pb.obj
 0001:00006340       ?CopyFrom@FileID@aggregator@@QAEXABV12@@Z 00407340 f   aggregator.pb.obj
 0001:000063a0       ?IsInitialized@FileID@aggregator@@UBE_NXZ 004073a0 f   aggregator.pb.obj
 0001:000063d0       ?Swap@FileID@aggregator@@QAEXPAV12@@Z 004073d0 f   aggregator.pb.obj
 0001:00006460       ?GetTypeName@FileID@aggregator@@UBE?AV?$basic_string@DU?$char_traits@D@std@@V?$allocator@D@2@@std@@XZ 00407460 f   aggregator.pb.obj
 0001:000064a0       ??0CheckSumRequest@aggregator@@QAE@XZ 004074a0 f   aggregator.pb.obj
 0001:000064f0       ?GetCachedSize@CheckSumRequest@aggregator@@UBEHXZ 004074f0 f i aggregator.pb.obj
 0001:00006510       ??_GCheckSumRequest@aggregator@@UAEPAXI@Z 00407510 f i aggregator.pb.obj
 0001:00006510       ??_ECheckSumRequest@aggregator@@UAEPAXI@Z 00407510 f i aggregator.pb.obj
 0001:00006560       ?InitAsDefaultInstance@CheckSumRequest@aggregator@@AAEXXZ 00407560 f   aggregator.pb.obj
 0001:00006590       ?internal_default_instance@FileID@aggregator@@SAPBV12@XZ 00407590 f i aggregator.pb.obj
 0001:000065a0       ??0CheckSumRequest@aggregator@@QAE@ABV01@@Z 004075a0 f   aggregator.pb.obj
 0001:00006600       ?SharedCtor@CheckSumRequest@aggregator@@AAEXXZ 00407600 f   aggregator.pb.obj
 0001:00006670       ??1CheckSumRequest@aggregator@@UAE@XZ 00407670 f   aggregator.pb.obj
 0001:000066c0       ?SharedDtor@CheckSumRequest@aggregator@@AAEXXZ 004076c0 f   aggregator.pb.obj
 0001:00006750       ?SetCachedSize@CheckSumRequest@aggregator@@ABEXH@Z 00407750 f   aggregator.pb.obj
 0001:00006780       ?default_instance@CheckSumRequest@aggregator@@SAABV12@XZ 00407780 f   aggregator.pb.obj
 0001:000067a0       ?New@CheckSumRequest@aggregator@@UBEPAV12@XZ 004077a0 f   aggregator.pb.obj
 0001:00006810       ?Clear@CheckSumRequest@aggregator@@UAEXXZ 00407810 f   aggregator.pb.obj
 0001:000068b0       ?has_id@CheckSumRequest@aggregator@@QBE_NXZ 004078b0 f i aggregator.pb.obj
 0001:000068e0       ?MergePartialFromCodedStream@CheckSumRequest@aggregator@@UAE_NPAVCodedInputStream@io@protobuf@google@@@Z 004078e0 f   aggregator.pb.obj
 0001:00006b00       ?ExpectTag@CodedInputStream@io@protobuf@google@@QAE_NI@Z 00407b00 f i aggregator.pb.obj
 0001:00006bf0       ?BufferSize@CodedInputStream@io@protobuf@google@@ABEHXZ 00407bf0 f i aggregator.pb.obj
 0001:00006c20       ?mutable_id@CheckSumRequest@aggregator@@QAEPAVFileID@2@XZ 00407c20 f i aggregator.pb.obj
 0001:00006cb0       ?set_has_id@CheckSumRequest@aggregator@@AAEXXZ 00407cb0 f i aggregator.pb.obj
 0001:00006ce0       ?set_has_fb_cs_pos@CheckSumRequest@aggregator@@AAEXXZ 00407ce0 f i aggregator.pb.obj
 0001:00006d10       ?set_has_fb_cs_count@CheckSumRequest@aggregator@@AAEXXZ 00407d10 f i aggregator.pb.obj
 0001:00006d40       ?SerializeWithCachedSizes@CheckSumRequest@aggregator@@UBEXPAVCodedOutputStream@io@protobuf@google@@@Z 00407d40 f   aggregator.pb.obj
 0001:00006e00       ?id@CheckSumRequest@aggregator@@QBEABVFileID@2@XZ 00407e00 f i aggregator.pb.obj
 0001:00006e70       ?has_fb_cs_pos@CheckSumRequest@aggregator@@QBE_NXZ 00407e70 f i aggregator.pb.obj
 0001:00006ea0       ?fb_cs_pos@CheckSumRequest@aggregator@@QBEIXZ 00407ea0 f i aggregator.pb.obj
 0001:00006ec0       ?has_fb_cs_count@CheckSumRequest@aggregator@@QBE_NXZ 00407ec0 f i aggregator.pb.obj
 0001:00006ef0       ?fb_cs_count@CheckSumRequest@aggregator@@QBEIXZ 00407ef0 f i aggregator.pb.obj
 0001:00006f10       ?ByteSize@CheckSumRequest@aggregator@@UBEHXZ 00407f10 f   aggregator.pb.obj
 0001:00007010       ?CheckTypeAndMergeFrom@CheckSumRequest@aggregator@@UAEXABVMessageLite@protobuf@google@@@Z 00408010 f   aggregator.pb.obj
 0001:00007050       ?MergeFrom@CheckSumRequest@aggregator@@QAEXABV12@@Z 00408050 f   aggregator.pb.obj
 0001:00007190       ?set_fb_cs_pos@CheckSumRequest@aggregator@@QAEXI@Z 00408190 f i aggregator.pb.obj
 0001:000071d0       ?set_fb_cs_count@CheckSumRequest@aggregator@@QAEXI@Z 004081d0 f i aggregator.pb.obj
 0001:00007210       ?CopyFrom@CheckSumRequest@aggregator@@QAEXABV12@@Z 00408210 f   aggregator.pb.obj
 0001:00007270       ?IsInitialized@CheckSumRequest@aggregator@@UBE_NXZ 00408270 f   aggregator.pb.obj
 0001:00007310       ?Swap@CheckSumRequest@aggregator@@QAEXPAV12@@Z 00408310 f   aggregator.pb.obj
 0001:000073d0       ?GetTypeName@CheckSumRequest@aggregator@@UBE?AV?$basic_string@DU?$char_traits@D@std@@V?$allocator@D@2@@std@@XZ 004083d0 f   aggregator.pb.obj
 0001:00007410       ??0CheckSumResponse@aggregator@@QAE@XZ 00408410 f   aggregator.pb.obj
 0001:00007460       ?GetCachedSize@CheckSumResponse@aggregator@@UBEHXZ 00408460 f i aggregator.pb.obj
 0001:00007480       ??_ECheckSumResponse@aggregator@@UAEPAXI@Z 00408480 f i aggregator.pb.obj
 0001:00007480       ??_GCheckSumResponse@aggregator@@UAEPAXI@Z 00408480 f i aggregator.pb.obj
 0001:000074d0       ?InitAsDefaultInstance@CheckSumResponse@aggregator@@AAEXXZ 004084d0 f   aggregator.pb.obj
 0001:00007500       ??0CheckSumResponse@aggregator@@QAE@ABV01@@Z 00408500 f   aggregator.pb.obj
 0001:00007560       ?SharedCtor@CheckSumResponse@aggregator@@AAEXXZ 00408560 f   aggregator.pb.obj
 0001:000075e0       ??1CheckSumResponse@aggregator@@UAE@XZ 004085e0 f   aggregator.pb.obj
 0001:00007630       ?SharedDtor@CheckSumResponse@aggregator@@AAEXXZ 00408630 f   aggregator.pb.obj
 0001:00007710       ??_G?$basic_string@DU?$char_traits@D@std@@V?$allocator@D@2@@std@@QAEPAXI@Z 00408710 f i aggregator.pb.obj
 0001:00007760       ?SetCachedSize@CheckSumResponse@aggregator@@ABEXH@Z 00408760 f   aggregator.pb.obj
 0001:00007790       ?default_instance@CheckSumResponse@aggregator@@SAABV12@XZ 00408790 f   aggregator.pb.obj
 0001:000077b0       ?New@CheckSumResponse@aggregator@@UBEPAV12@XZ 004087b0 f   aggregator.pb.obj
 0001:00007820       ?Clear@CheckSumResponse@aggregator@@UAEXXZ 00408820 f   aggregator.pb.obj
 0001:000078e0       ?has_id@CheckSumResponse@aggregator@@QBE_NXZ 004088e0 f i aggregator.pb.obj
 0001:00007910       ?has_fb_cs_data@CheckSumResponse@aggregator@@QBE_NXZ 00408910 f i aggregator.pb.obj
 0001:00007940       ?MergePartialFromCodedStream@CheckSumResponse@aggregator@@UAE_NPAVCodedInputStream@io@protobuf@google@@@Z 00408940 f   aggregator.pb.obj
 0001:00007be0       ?mutable_id@CheckSumResponse@aggregator@@QAEPAVFileID@2@XZ 00408be0 f i aggregator.pb.obj
 0001:00007c70       ?set_has_id@CheckSumResponse@aggregator@@AAEXXZ 00408c70 f i aggregator.pb.obj
 0001:00007ca0       ?set_has_fb_cs_pos@CheckSumResponse@aggregator@@AAEXXZ 00408ca0 f i aggregator.pb.obj
 0001:00007cd0       ?set_has_fb_cs_count@CheckSumResponse@aggregator@@AAEXXZ 00408cd0 f i aggregator.pb.obj
 0001:00007d00       ?mutable_fb_cs_data@CheckSumResponse@aggregator@@QAEPAV?$basic_string@DU?$char_traits@D@std@@V?$allocator@D@2@@std@@XZ 00408d00 f i aggregator.pb.obj
 0001:00007da0       ?set_has_fb_cs_data@CheckSumResponse@aggregator@@AAEXXZ 00408da0 f i aggregator.pb.obj
 0001:00007dd0       ?SerializeWithCachedSizes@CheckSumResponse@aggregator@@UBEXPAVCodedOutputStream@io@protobuf@google@@@Z 00408dd0 f   aggregator.pb.obj
 0001:00007ec0       ?id@CheckSumResponse@aggregator@@QBEABVFileID@2@XZ 00408ec0 f i aggregator.pb.obj
 0001:00007f30       ?has_fb_cs_pos@CheckSumResponse@aggregator@@QBE_NXZ 00408f30 f i aggregator.pb.obj
 0001:00007f60       ?fb_cs_pos@CheckSumResponse@aggregator@@QBEIXZ 00408f60 f i aggregator.pb.obj
 0001:00007f80       ?has_fb_cs_count@CheckSumResponse@aggregator@@QBE_NXZ 00408f80 f i aggregator.pb.obj
 0001:00007fb0       ?fb_cs_count@CheckSumResponse@aggregator@@QBEIXZ 00408fb0 f i aggregator.pb.obj
 0001:00007fd0       ?fb_cs_data@CheckSumResponse@aggregator@@QBEABV?$basic_string@DU?$char_traits@D@std@@V?$allocator@D@2@@std@@XZ 00408fd0 f i aggregator.pb.obj
 0001:00007ff0       ?ByteSize@CheckSumResponse@aggregator@@UBEHXZ 00408ff0 f   aggregator.pb.obj
 0001:00008120       ?BytesSize@WireFormatLite@internal@protobuf@google@@SAHABV?$basic_string@DU?$char_traits@D@std@@V?$allocator@D@2@@std@@@Z 00409120 f i aggregator.pb.obj
 0001:00008160       ?CheckTypeAndMergeFrom@CheckSumResponse@aggregator@@UAEXABVMessageLite@protobuf@google@@@Z 00409160 f   aggregator.pb.obj
 0001:000081a0       ?MergeFrom@CheckSumResponse@aggregator@@QAEXABV12@@Z 004091a0 f   aggregator.pb.obj
 0001:00008310       ?set_fb_cs_pos@CheckSumResponse@aggregator@@QAEXI@Z 00409310 f i aggregator.pb.obj
 0001:00008350       ?set_fb_cs_count@CheckSumResponse@aggregator@@QAEXI@Z 00409350 f i aggregator.pb.obj
 0001:00008390       ?set_fb_cs_data@CheckSumResponse@aggregator@@QAEXABV?$basic_string@DU?$char_traits@D@std@@V?$allocator@D@2@@std@@@Z 00409390 f i aggregator.pb.obj
 0001:00008440       ?CopyFrom@CheckSumResponse@aggregator@@QAEXABV12@@Z 00409440 f   aggregator.pb.obj
 0001:000084a0       ?IsInitialized@CheckSumResponse@aggregator@@UBE_NXZ 004094a0 f   aggregator.pb.obj
 0001:00008540       ?Swap@CheckSumResponse@aggregator@@QAEXPAV12@@Z 00409540 f   aggregator.pb.obj
 0001:00008620       ?GetTypeName@CheckSumResponse@aggregator@@UBE?AV?$basic_string@DU?$char_traits@D@std@@V?$allocator@D@2@@std@@XZ 00409620 f   aggregator.pb.obj
 0001:00008660       ??0LogRequest@aggregator@@QAE@XZ 00409660 f   aggregator.pb.obj
 0001:000086b0       ?GetCachedSize@LogRequest@aggregator@@UBEHXZ 004096b0 f i aggregator.pb.obj
 0001:000086d0       ??_ELogRequest@aggregator@@UAEPAXI@Z 004096d0 f i aggregator.pb.obj
 0001:000086d0       ??_GLogRequest@aggregator@@UAEPAXI@Z 004096d0 f i aggregator.pb.obj
 0001:00008720       ?InitAsDefaultInstance@LogRequest@aggregator@@AAEXXZ 00409720 f   aggregator.pb.obj
 0001:00008740       ??0LogRequest@aggregator@@QAE@ABV01@@Z 00409740 f   aggregator.pb.obj
 0001:000087a0       ?SharedCtor@LogRequest@aggregator@@AAEXXZ 004097a0 f   aggregator.pb.obj
 0001:00008810       ??1LogRequest@aggregator@@UAE@XZ 00409810 f   aggregator.pb.obj
 0001:00008860       ?SharedDtor@LogRequest@aggregator@@AAEXXZ 00409860 f   aggregator.pb.obj
 0001:00008930       ?SetCachedSize@LogRequest@aggregator@@ABEXH@Z 00409930 f   aggregator.pb.obj
 0001:00008960       ?default_instance@LogRequest@aggregator@@SAABV12@XZ 00409960 f   aggregator.pb.obj
 0001:00008980       ?New@LogRequest@aggregator@@UBEPAV12@XZ 00409980 f   aggregator.pb.obj
 0001:000089f0       ?Clear@LogRequest@aggregator@@UAEXXZ 004099f0 f   aggregator.pb.obj
 0001:00008ab0       ?has_data@LogRequest@aggregator@@QBE_NXZ 00409ab0 f i aggregator.pb.obj
 0001:00008ae0       ?has_content@LogRequest@aggregator@@QBE_NXZ 00409ae0 f i aggregator.pb.obj
 0001:00008b10       ?MergePartialFromCodedStream@LogRequest@aggregator@@UAE_NPAVCodedInputStream@io@protobuf@google@@@Z 00409b10 f   aggregator.pb.obj
 0001:00008d20       ?set_has_type@LogRequest@aggregator@@AAEXXZ 00409d20 f i aggregator.pb.obj
 0001:00008d50       ?mutable_data@LogRequest@aggregator@@QAEPAV?$basic_string@DU?$char_traits@D@std@@V?$allocator@D@2@@std@@XZ 00409d50 f i aggregator.pb.obj
 0001:00008df0       ?set_has_data@LogRequest@aggregator@@AAEXXZ 00409df0 f i aggregator.pb.obj
 0001:00008e20       ?mutable_content@LogRequest@aggregator@@QAEPAV?$basic_string@DU?$char_traits@D@std@@V?$allocator@D@2@@std@@XZ 00409e20 f i aggregator.pb.obj
 0001:00008ec0       ?set_has_content@LogRequest@aggregator@@AAEXXZ 00409ec0 f i aggregator.pb.obj
 0001:00008ef0       ?SerializeWithCachedSizes@LogRequest@aggregator@@UBEXPAVCodedOutputStream@io@protobuf@google@@@Z 00409ef0 f   aggregator.pb.obj
 0001:00008fb0       ?has_type@LogRequest@aggregator@@QBE_NXZ 00409fb0 f i aggregator.pb.obj
 0001:00008fe0       ?type@LogRequest@aggregator@@QBEIXZ 00409fe0 f i aggregator.pb.obj
 0001:00009000       ?data@LogRequest@aggregator@@QBEABV?$basic_string@DU?$char_traits@D@std@@V?$allocator@D@2@@std@@XZ 0040a000 f i aggregator.pb.obj
 0001:00009020       ?content@LogRequest@aggregator@@QBEABV?$basic_string@DU?$char_traits@D@std@@V?$allocator@D@2@@std@@XZ 0040a020 f i aggregator.pb.obj
 0001:00009040       ?ByteSize@LogRequest@aggregator@@UBEHXZ 0040a040 f   aggregator.pb.obj
 0001:00009140       ?StringSize@WireFormatLite@internal@protobuf@google@@SAHABV?$basic_string@DU?$char_traits@D@std@@V?$allocator@D@2@@std@@@Z 0040a140 f i aggregator.pb.obj
 0001:00009180       ?CheckTypeAndMergeFrom@LogRequest@aggregator@@UAEXABVMessageLite@protobuf@google@@@Z 0040a180 f   aggregator.pb.obj
 0001:000091c0       ?MergeFrom@LogRequest@aggregator@@QAEXABV12@@Z 0040a1c0 f   aggregator.pb.obj
 0001:000092f0       ?set_type@LogRequest@aggregator@@QAEXI@Z 0040a2f0 f i aggregator.pb.obj
 0001:00009330       ?set_data@LogRequest@aggregator@@QAEXABV?$basic_string@DU?$char_traits@D@std@@V?$allocator@D@2@@std@@@Z 0040a330 f i aggregator.pb.obj
 0001:000093e0       ?set_content@LogRequest@aggregator@@QAEXABV?$basic_string@DU?$char_traits@D@std@@V?$allocator@D@2@@std@@@Z 0040a3e0 f i aggregator.pb.obj
 0001:00009490       ?CopyFrom@LogRequest@aggregator@@QAEXABV12@@Z 0040a490 f   aggregator.pb.obj
 0001:000094f0       ?IsInitialized@LogRequest@aggregator@@UBE_NXZ 0040a4f0 f   aggregator.pb.obj
 0001:00009520       ?Swap@LogRequest@aggregator@@QAEXPAV12@@Z 0040a520 f   aggregator.pb.obj
 0001:000095e0       ?GetTypeName@LogRequest@aggregator@@UBE?AV?$basic_string@DU?$char_traits@D@std@@V?$allocator@D@2@@std@@XZ 0040a5e0 f   aggregator.pb.obj
 0001:00009620       ??0LogResponse@aggregator@@QAE@XZ 0040a620 f   aggregator.pb.obj
 0001:00009670       ?GetCachedSize@LogResponse@aggregator@@UBEHXZ 0040a670 f i aggregator.pb.obj
 0001:00009690       ??_ELogResponse@aggregator@@UAEPAXI@Z 0040a690 f i aggregator.pb.obj
 0001:00009690       ??_GLogResponse@aggregator@@UAEPAXI@Z 0040a690 f i aggregator.pb.obj
 0001:000096e0       ?InitAsDefaultInstance@LogResponse@aggregator@@AAEXXZ 0040a6e0 f   aggregator.pb.obj
 0001:00009700       ??0LogResponse@aggregator@@QAE@ABV01@@Z 0040a700 f   aggregator.pb.obj
 0001:00009760       ?SharedCtor@LogResponse@aggregator@@AAEXXZ 0040a760 f   aggregator.pb.obj
 0001:000097b0       ??1LogResponse@aggregator@@UAE@XZ 0040a7b0 f   aggregator.pb.obj
 0001:00009800       ?SharedDtor@LogResponse@aggregator@@AAEXXZ 0040a800 f   aggregator.pb.obj
 0001:00009830       ?SetCachedSize@LogResponse@aggregator@@ABEXH@Z 0040a830 f   aggregator.pb.obj
 0001:00009860       ?default_instance@LogResponse@aggregator@@SAABV12@XZ 0040a860 f   aggregator.pb.obj
 0001:00009880       ?New@LogResponse@aggregator@@UBEPAV12@XZ 0040a880 f   aggregator.pb.obj
 0001:000098f0       ?Clear@LogResponse@aggregator@@UAEXXZ 0040a8f0 f   aggregator.pb.obj
 0001:00009930       ?MergePartialFromCodedStream@LogResponse@aggregator@@UAE_NPAVCodedInputStream@io@protobuf@google@@@Z 0040a930 f   aggregator.pb.obj
 0001:000099c0       ?SerializeWithCachedSizes@LogResponse@aggregator@@UBEXPAVCodedOutputStream@io@protobuf@google@@@Z 0040a9c0 f   aggregator.pb.obj
 0001:000099e0       ?ByteSize@LogResponse@aggregator@@UBEHXZ 0040a9e0 f   aggregator.pb.obj
 0001:00009a20       ?CheckTypeAndMergeFrom@LogResponse@aggregator@@UAEXABVMessageLite@protobuf@google@@@Z 0040aa20 f   aggregator.pb.obj
 0001:00009a60       ?MergeFrom@LogResponse@aggregator@@QAEXABV12@@Z 0040aa60 f   aggregator.pb.obj
 0001:00009b10       ?CopyFrom@LogResponse@aggregator@@QAEXABV12@@Z 0040ab10 f   aggregator.pb.obj
 0001:00009b70       ?IsInitialized@LogResponse@aggregator@@UBE_NXZ 0040ab70 f   aggregator.pb.obj
 0001:00009b90       ?Swap@LogResponse@aggregator@@QAEXPAV12@@Z 0040ab90 f   aggregator.pb.obj
 0001:00009be0       ?GetTypeName@LogResponse@aggregator@@UBE?AV?$basic_string@DU?$char_traits@D@std@@V?$allocator@D@2@@std@@XZ 0040abe0 f   aggregator.pb.obj
 0001:00009c20       ??0FileRequest_File@aggregator@@QAE@XZ 0040ac20 f   aggregator.pb.obj
 0001:00009c70       ?GetCachedSize@FileRequest_File@aggregator@@UBEHXZ 0040ac70 f i aggregator.pb.obj
 0001:00009c90       ??_EFileRequest_File@aggregator@@UAEPAXI@Z 0040ac90 f i aggregator.pb.obj
 0001:00009c90       ??_GFileRequest_File@aggregator@@UAEPAXI@Z 0040ac90 f i aggregator.pb.obj
 0001:00009ce0       ?InitAsDefaultInstance@FileRequest_File@aggregator@@AAEXXZ 0040ace0 f   aggregator.pb.obj
 0001:00009d00       ??0FileRequest_File@aggregator@@QAE@ABV01@@Z 0040ad00 f   aggregator.pb.obj
 0001:00009d60       ?SharedCtor@FileRequest_File@aggregator@@AAEXXZ 0040ad60 f   aggregator.pb.obj
 0001:00009de0       ??1FileRequest_File@aggregator@@UAE@XZ 0040ade0 f   aggregator.pb.obj
 0001:00009e30       ?SharedDtor@FileRequest_File@aggregator@@AAEXXZ 0040ae30 f   aggregator.pb.obj
 0001:00009f00       ?SetCachedSize@FileRequest_File@aggregator@@ABEXH@Z 0040af00 f   aggregator.pb.obj
 0001:00009f30       ?default_instance@FileRequest_File@aggregator@@SAABV12@XZ 0040af30 f   aggregator.pb.obj
 0001:00009f50       ?New@FileRequest_File@aggregator@@UBEPAV12@XZ 0040af50 f   aggregator.pb.obj
 0001:00009fc0       ?Clear@FileRequest_File@aggregator@@UAEXXZ 0040afc0 f   aggregator.pb.obj
 0001:0000a080       ?has_dir@FileRequest_File@aggregator@@QBE_NXZ 0040b080 f i aggregator.pb.obj
 0001:0000a0b0       ?has_name@FileRequest_File@aggregator@@QBE_NXZ 0040b0b0 f i aggregator.pb.obj
 0001:0000a0e0       ?MergePartialFromCodedStream@FileRequest_File@aggregator@@UAE_NPAVCodedInputStream@io@protobuf@google@@@Z 0040b0e0 f   aggregator.pb.obj
 0001:0000a2f0       ?mutable_dir@FileRequest_File@aggregator@@QAEPAV?$basic_string@DU?$char_traits@D@std@@V?$allocator@D@2@@std@@XZ 0040b2f0 f i aggregator.pb.obj
 0001:0000a390       ?set_has_dir@FileRequest_File@aggregator@@AAEXXZ 0040b390 f i aggregator.pb.obj
 0001:0000a3c0       ?mutable_name@FileRequest_File@aggregator@@QAEPAV?$basic_string@DU?$char_traits@D@std@@V?$allocator@D@2@@std@@XZ 0040b3c0 f i aggregator.pb.obj
 0001:0000a460       ?set_has_name@FileRequest_File@aggregator@@AAEXXZ 0040b460 f i aggregator.pb.obj
 0001:0000a490       ?set_has_ctime@FileRequest_File@aggregator@@AAEXXZ 0040b490 f i aggregator.pb.obj
 0001:0000a4c0       ??$ReadPrimitive@_K$03@WireFormatLite@internal@protobuf@google@@SA_NPAVCodedInputStream@io@23@PA_K@Z 0040b4c0 f i aggregator.pb.obj
 0001:0000a4e0       ?ReadVarint64@CodedInputStream@io@protobuf@google@@QAE_NPA_K@Z 0040b4e0 f i aggregator.pb.obj
 0001:0000a570       ?SerializeWithCachedSizes@FileRequest_File@aggregator@@UBEXPAVCodedOutputStream@io@protobuf@google@@@Z 0040b570 f   aggregator.pb.obj
 0001:0000a630       ?dir@FileRequest_File@aggregator@@QBEABV?$basic_string@DU?$char_traits@D@std@@V?$allocator@D@2@@std@@XZ 0040b630 f i aggregator.pb.obj
 0001:0000a650       ?name@FileRequest_File@aggregator@@QBEABV?$basic_string@DU?$char_traits@D@std@@V?$allocator@D@2@@std@@XZ 0040b650 f i aggregator.pb.obj
 0001:0000a670       ?has_ctime@FileRequest_File@aggregator@@QBE_NXZ 0040b670 f i aggregator.pb.obj
 0001:0000a6a0       ?ctime@FileRequest_File@aggregator@@QBE_KXZ 0040b6a0 f i aggregator.pb.obj
 0001:0000a6d0       ?ByteSize@FileRequest_File@aggregator@@UBEHXZ 0040b6d0 f   aggregator.pb.obj
 0001:0000a7d0       ?UInt64Size@WireFormatLite@internal@protobuf@google@@SAH_K@Z 0040b7d0 f i aggregator.pb.obj
 0001:0000a800       ?CheckTypeAndMergeFrom@FileRequest_File@aggregator@@UAEXABVMessageLite@protobuf@google@@@Z 0040b800 f   aggregator.pb.obj
 0001:0000a840       ?MergeFrom@FileRequest_File@aggregator@@QAEXABV12@@Z 0040b840 f   aggregator.pb.obj
 0001:0000a970       ?set_dir@FileRequest_File@aggregator@@QAEXABV?$basic_string@DU?$char_traits@D@std@@V?$allocator@D@2@@std@@@Z 0040b970 f i aggregator.pb.obj
 0001:0000aa20       ?set_name@FileRequest_File@aggregator@@QAEXABV?$basic_string@DU?$char_traits@D@std@@V?$allocator@D@2@@std@@@Z 0040ba20 f i aggregator.pb.obj
 0001:0000aad0       ?set_ctime@FileRequest_File@aggregator@@QAEX_K@Z 0040bad0 f i aggregator.pb.obj
 0001:0000ab20       ?CopyFrom@FileRequest_File@aggregator@@QAEXABV12@@Z 0040bb20 f   aggregator.pb.obj
 0001:0000ab80       ?IsInitialized@FileRequest_File@aggregator@@UBE_NXZ 0040bb80 f   aggregator.pb.obj
 0001:0000abb0       ?Swap@FileRequest_File@aggregator@@QAEXPAV12@@Z 0040bbb0 f   aggregator.pb.obj
 0001:0000ac70       ?GetTypeName@FileRequest_File@aggregator@@UBE?AV?$basic_string@DU?$char_traits@D@std@@V?$allocator@D@2@@std@@XZ 0040bc70 f   aggregator.pb.obj
 0001:0000acb0       ??0FileRequest@aggregator@@QAE@XZ 0040bcb0 f   aggregator.pb.obj
 0001:0000ad10       ?GetCachedSize@FileRequest@aggregator@@UBEHXZ 0040bd10 f i aggregator.pb.obj
 0001:0000ad30       ??_EFileRequest@aggregator@@UAEPAXI@Z 0040bd30 f i aggregator.pb.obj
 0001:0000ad30       ??_GFileRequest@aggregator@@UAEPAXI@Z 0040bd30 f i aggregator.pb.obj
 0001:0000ad80       ?InitAsDefaultInstance@FileRequest@aggregator@@AAEXXZ 0040bd80 f   aggregator.pb.obj
 0001:0000ada0       ??0FileRequest@aggregator@@QAE@ABV01@@Z 0040bda0 f   aggregator.pb.obj
 0001:0000ae10       ?SharedCtor@FileRequest@aggregator@@AAEXXZ 0040be10 f   aggregator.pb.obj
 0001:0000ae60       ??1FileRequest@aggregator@@UAE@XZ 0040be60 f   aggregator.pb.obj
 0001:0000aeb0       ?SharedDtor@FileRequest@aggregator@@AAEXXZ 0040beb0 f   aggregator.pb.obj
 0001:0000aee0       ?SetCachedSize@FileRequest@aggregator@@ABEXH@Z 0040bee0 f   aggregator.pb.obj
 0001:0000af10       ?default_instance@FileRequest@aggregator@@SAABV12@XZ 0040bf10 f   aggregator.pb.obj
 0001:0000af30       ?New@FileRequest@aggregator@@UBEPAV12@XZ 0040bf30 f   aggregator.pb.obj
 0001:0000afa0       ?Clear@FileRequest@aggregator@@UAEXXZ 0040bfa0 f   aggregator.pb.obj
 0001:0000aff0       ?MergePartialFromCodedStream@FileRequest@aggregator@@UAE_NPAVCodedInputStream@io@protobuf@google@@@Z 0040bff0 f   aggregator.pb.obj
 0001:0000b130       ?add_file@FileRequest@aggregator@@QAEPAVFileRequest_File@2@XZ 0040c130 f i aggregator.pb.obj
 0001:0000b160       ?SerializeWithCachedSizes@FileRequest@aggregator@@UBEXPAVCodedOutputStream@io@protobuf@google@@@Z 0040c160 f   aggregator.pb.obj
 0001:0000b1e0       ?file_size@FileRequest@aggregator@@QBEHXZ 0040c1e0 f i aggregator.pb.obj
 0001:0000b210       ?file@FileRequest@aggregator@@QBEABVFileRequest_File@2@H@Z 0040c210 f i aggregator.pb.obj
 0001:0000b250       ?ByteSize@FileRequest@aggregator@@UBEHXZ 0040c250 f   aggregator.pb.obj
 0001:0000b300       ?CheckTypeAndMergeFrom@FileRequest@aggregator@@UAEXABVMessageLite@protobuf@google@@@Z 0040c300 f   aggregator.pb.obj
 0001:0000b340       ?MergeFrom@FileRequest@aggregator@@QAEXABV12@@Z 0040c340 f   aggregator.pb.obj
 0001:0000b400       ?CopyFrom@FileRequest@aggregator@@QAEXABV12@@Z 0040c400 f   aggregator.pb.obj
 0001:0000b460       ?IsInitialized@FileRequest@aggregator@@UBE_NXZ 0040c460 f   aggregator.pb.obj
 0001:0000b510       ?Swap@FileRequest@aggregator@@QAEXPAV12@@Z 0040c510 f   aggregator.pb.obj
 0001:0000b590       ?GetTypeName@FileRequest@aggregator@@UBE?AV?$basic_string@DU?$char_traits@D@std@@V?$allocator@D@2@@std@@XZ 0040c590 f   aggregator.pb.obj
 0001:0000b5d0       ??0FileResponse_File@aggregator@@QAE@XZ 0040c5d0 f   aggregator.pb.obj
 0001:0000b620       ?GetCachedSize@FileResponse_File@aggregator@@UBEHXZ 0040c620 f i aggregator.pb.obj
 0001:0000b640       ??_EFileResponse_File@aggregator@@UAEPAXI@Z 0040c640 f i aggregator.pb.obj
 0001:0000b640       ??_GFileResponse_File@aggregator@@UAEPAXI@Z 0040c640 f i aggregator.pb.obj
 0001:0000b690       ?InitAsDefaultInstance@FileResponse_File@aggregator@@AAEXXZ 0040c690 f   aggregator.pb.obj
 0001:0000b6c0       ??0FileResponse_File@aggregator@@QAE@ABV01@@Z 0040c6c0 f   aggregator.pb.obj
 0001:0000b720       ?SharedCtor@FileResponse_File@aggregator@@AAEXXZ 0040c720 f   aggregator.pb.obj
 0001:0000b790       ??1FileResponse_File@aggregator@@UAE@XZ 0040c790 f   aggregator.pb.obj
 0001:0000b7e0       ?SharedDtor@FileResponse_File@aggregator@@AAEXXZ 0040c7e0 f   aggregator.pb.obj
 0001:0000b900       ?SetCachedSize@FileResponse_File@aggregator@@ABEXH@Z 0040c900 f   aggregator.pb.obj
 0001:0000b930       ?default_instance@FileResponse_File@aggregator@@SAABV12@XZ 0040c930 f   aggregator.pb.obj
 0001:0000b950       ?New@FileResponse_File@aggregator@@UBEPAV12@XZ 0040c950 f   aggregator.pb.obj
 0001:0000b9c0       ?Clear@FileResponse_File@aggregator@@UAEXXZ 0040c9c0 f   aggregator.pb.obj
 0001:0000baa0       ?has_id@FileResponse_File@aggregator@@QBE_NXZ 0040caa0 f i aggregator.pb.obj
 0001:0000bad0       ?has_dir@FileResponse_File@aggregator@@QBE_NXZ 0040cad0 f i aggregator.pb.obj
 0001:0000bb00       ?has_name@FileResponse_File@aggregator@@QBE_NXZ 0040cb00 f i aggregator.pb.obj
 0001:0000bb30       ?MergePartialFromCodedStream@FileResponse_File@aggregator@@UAE_NPAVCodedInputStream@io@protobuf@google@@@Z 0040cb30 f   aggregator.pb.obj
 0001:0000bd40       ?mutable_id@FileResponse_File@aggregator@@QAEPAVFileID@2@XZ 0040cd40 f i aggregator.pb.obj
 0001:0000bdd0       ?set_has_id@FileResponse_File@aggregator@@AAEXXZ 0040cdd0 f i aggregator.pb.obj
 0001:0000be00       ?mutable_dir@FileResponse_File@aggregator@@QAEPAV?$basic_string@DU?$char_traits@D@std@@V?$allocator@D@2@@std@@XZ 0040ce00 f i aggregator.pb.obj
 0001:0000bea0       ?set_has_dir@FileResponse_File@aggregator@@AAEXXZ 0040cea0 f i aggregator.pb.obj
 0001:0000bed0       ?mutable_name@FileResponse_File@aggregator@@QAEPAV?$basic_string@DU?$char_traits@D@std@@V?$allocator@D@2@@std@@XZ 0040ced0 f i aggregator.pb.obj
 0001:0000bf70       ?set_has_name@FileResponse_File@aggregator@@AAEXXZ 0040cf70 f i aggregator.pb.obj
 0001:0000bfa0       ?SerializeWithCachedSizes@FileResponse_File@aggregator@@UBEXPAVCodedOutputStream@io@protobuf@google@@@Z 0040cfa0 f   aggregator.pb.obj
 0001:0000c060       ?id@FileResponse_File@aggregator@@QBEABVFileID@2@XZ 0040d060 f i aggregator.pb.obj
 0001:0000c0d0       ?dir@FileResponse_File@aggregator@@QBEABV?$basic_string@DU?$char_traits@D@std@@V?$allocator@D@2@@std@@XZ 0040d0d0 f i aggregator.pb.obj
 0001:0000c0f0       ?name@FileResponse_File@aggregator@@QBEABV?$basic_string@DU?$char_traits@D@std@@V?$allocator@D@2@@std@@XZ 0040d0f0 f i aggregator.pb.obj
 0001:0000c110       ?ByteSize@FileResponse_File@aggregator@@UBEHXZ 0040d110 f   aggregator.pb.obj
 0001:0000c210       ?CheckTypeAndMergeFrom@FileResponse_File@aggregator@@UAEXABVMessageLite@protobuf@google@@@Z 0040d210 f   aggregator.pb.obj
 0001:0000c250       ?MergeFrom@FileResponse_File@aggregator@@QAEXABV12@@Z 0040d250 f   aggregator.pb.obj
 0001:0000c390       ?set_dir@FileResponse_File@aggregator@@QAEXABV?$basic_string@DU?$char_traits@D@std@@V?$allocator@D@2@@std@@@Z 0040d390 f i aggregator.pb.obj
 0001:0000c440       ?set_name@FileResponse_File@aggregator@@QAEXABV?$basic_string@DU?$char_traits@D@std@@V?$allocator@D@2@@std@@@Z 0040d440 f i aggregator.pb.obj
 0001:0000c4f0       ?CopyFrom@FileResponse_File@aggregator@@QAEXABV12@@Z 0040d4f0 f   aggregator.pb.obj
 0001:0000c550       ?IsInitialized@FileResponse_File@aggregator@@UBE_NXZ 0040d550 f   aggregator.pb.obj
 0001:0000c5f0       ?Swap@FileResponse_File@aggregator@@QAEXPAV12@@Z 0040d5f0 f   aggregator.pb.obj
 0001:0000c6b0       ?GetTypeName@FileResponse_File@aggregator@@UBE?AV?$basic_string@DU?$char_traits@D@std@@V?$allocator@D@2@@std@@XZ 0040d6b0 f   aggregator.pb.obj
 0001:0000c6f0       ??0FileResponse@aggregator@@QAE@XZ 0040d6f0 f   aggregator.pb.obj
 0001:0000c750       ?GetCachedSize@FileResponse@aggregator@@UBEHXZ 0040d750 f i aggregator.pb.obj
 0001:0000c770       ??_GFileResponse@aggregator@@UAEPAXI@Z 0040d770 f i aggregator.pb.obj
 0001:0000c770       ??_EFileResponse@aggregator@@UAEPAXI@Z 0040d770 f i aggregator.pb.obj
 0001:0000c7c0       ?InitAsDefaultInstance@FileResponse@aggregator@@AAEXXZ 0040d7c0 f   aggregator.pb.obj
 0001:0000c7e0       ??0FileResponse@aggregator@@QAE@ABV01@@Z 0040d7e0 f   aggregator.pb.obj
 0001:0000c850       ?SharedCtor@FileResponse@aggregator@@AAEXXZ 0040d850 f   aggregator.pb.obj
 0001:0000c8a0       ??1FileResponse@aggregator@@UAE@XZ 0040d8a0 f   aggregator.pb.obj
 0001:0000c8f0       ?SharedDtor@FileResponse@aggregator@@AAEXXZ 0040d8f0 f   aggregator.pb.obj
 0001:0000c920       ?SetCachedSize@FileResponse@aggregator@@ABEXH@Z 0040d920 f   aggregator.pb.obj
 0001:0000c950       ?default_instance@FileResponse@aggregator@@SAABV12@XZ 0040d950 f   aggregator.pb.obj
 0001:0000c970       ?New@FileResponse@aggregator@@UBEPAV12@XZ 0040d970 f   aggregator.pb.obj
 0001:0000c9e0       ?Clear@FileResponse@aggregator@@UAEXXZ 0040d9e0 f   aggregator.pb.obj
 0001:0000ca30       ?MergePartialFromCodedStream@FileResponse@aggregator@@UAE_NPAVCodedInputStream@io@protobuf@google@@@Z 0040da30 f   aggregator.pb.obj
 0001:0000cb70       ?add_file@FileResponse@aggregator@@QAEPAVFileResponse_File@2@XZ 0040db70 f i aggregator.pb.obj
 0001:0000cba0       ?SerializeWithCachedSizes@FileResponse@aggregator@@UBEXPAVCodedOutputStream@io@protobuf@google@@@Z 0040dba0 f   aggregator.pb.obj
 0001:0000cc20       ?file_size@FileResponse@aggregator@@QBEHXZ 0040dc20 f i aggregator.pb.obj
 0001:0000cc50       ?file@FileResponse@aggregator@@QBEABVFileResponse_File@2@H@Z 0040dc50 f i aggregator.pb.obj
 0001:0000cc90       ?ByteSize@FileResponse@aggregator@@UBEHXZ 0040dc90 f   aggregator.pb.obj
 0001:0000cd40       ?CheckTypeAndMergeFrom@FileResponse@aggregator@@UAEXABVMessageLite@protobuf@google@@@Z 0040dd40 f   aggregator.pb.obj
 0001:0000cd80       ?MergeFrom@FileResponse@aggregator@@QAEXABV12@@Z 0040dd80 f   aggregator.pb.obj
 0001:0000ce40       ?CopyFrom@FileResponse@aggregator@@QAEXABV12@@Z 0040de40 f   aggregator.pb.obj
 0001:0000cea0       ?IsInitialized@FileResponse@aggregator@@UBE_NXZ 0040dea0 f   aggregator.pb.obj
 0001:0000cf50       ?Swap@FileResponse@aggregator@@QAEXPAV12@@Z 0040df50 f   aggregator.pb.obj
 0001:0000cfd0       ?GetTypeName@FileResponse@aggregator@@UBE?AV?$basic_string@DU?$char_traits@D@std@@V?$allocator@D@2@@std@@XZ 0040dfd0 f   aggregator.pb.obj
 0001:0000d010       ?FileDataRequest_FileData_EncodeType_IsValid@aggregator@@YA_NH@Z 0040e010 f   aggregator.pb.obj
 0001:0000d050       ??0FileDataRequest_FileData@aggregator@@QAE@XZ 0040e050 f   aggregator.pb.obj
 0001:0000d0a0       ?GetCachedSize@FileDataRequest_FileData@aggregator@@UBEHXZ 0040e0a0 f i aggregator.pb.obj
 0001:0000d0c0       ??_EFileDataRequest_FileData@aggregator@@UAEPAXI@Z 0040e0c0 f i aggregator.pb.obj
 0001:0000d0c0       ??_GFileDataRequest_FileData@aggregator@@UAEPAXI@Z 0040e0c0 f i aggregator.pb.obj
 0001:0000d110       ?InitAsDefaultInstance@FileDataRequest_FileData@aggregator@@AAEXXZ 0040e110 f   aggregator.pb.obj
 0001:0000d140       ??0FileDataRequest_FileData@aggregator@@QAE@ABV01@@Z 0040e140 f   aggregator.pb.obj
 0001:0000d1a0       ?SharedCtor@FileDataRequest_FileData@aggregator@@AAEXXZ 0040e1a0 f   aggregator.pb.obj
 0001:0000d230       ??1FileDataRequest_FileData@aggregator@@UAE@XZ 0040e230 f   aggregator.pb.obj
 0001:0000d280       ?SharedDtor@FileDataRequest_FileData@aggregator@@AAEXXZ 0040e280 f   aggregator.pb.obj
 0001:0000d360       ?SetCachedSize@FileDataRequest_FileData@aggregator@@ABEXH@Z 0040e360 f   aggregator.pb.obj
 0001:0000d390       ?default_instance@FileDataRequest_FileData@aggregator@@SAABV12@XZ 0040e390 f   aggregator.pb.obj
 0001:0000d3b0       ?New@FileDataRequest_FileData@aggregator@@UBEPAV12@XZ 0040e3b0 f   aggregator.pb.obj
 0001:0000d420       ?Clear@FileDataRequest_FileData@aggregator@@UAEXXZ 0040e420 f   aggregator.pb.obj
 0001:0000d500       ?has_id@FileDataRequest_FileData@aggregator@@QBE_NXZ 0040e500 f i aggregator.pb.obj
 0001:0000d530       ?has_data@FileDataRequest_FileData@aggregator@@QBE_NXZ 0040e530 f i aggregator.pb.obj
 0001:0000d560       ?MergePartialFromCodedStream@FileDataRequest_FileData@aggregator@@UAE_NPAVCodedInputStream@io@protobuf@google@@@Z 0040e560 f   aggregator.pb.obj
 0001:0000d8d0       ?mutable_id@FileDataRequest_FileData@aggregator@@QAEPAVFileID@2@XZ 0040e8d0 f i aggregator.pb.obj
 0001:0000d960       ?set_has_id@FileDataRequest_FileData@aggregator@@AAEXXZ 0040e960 f i aggregator.pb.obj
 0001:0000d990       ?set_has_pos@FileDataRequest_FileData@aggregator@@AAEXXZ 0040e990 f i aggregator.pb.obj
 0001:0000d9c0       ?set_encode@FileDataRequest_FileData@aggregator@@QAEXW4FileDataRequest_FileData_EncodeType@2@@Z 0040e9c0 f i aggregator.pb.obj
 0001:0000da90       ?set_has_encode@FileDataRequest_FileData@aggregator@@AAEXXZ 0040ea90 f i aggregator.pb.obj
 0001:0000dac0       ?set_has_org_len@FileDataRequest_FileData@aggregator@@AAEXXZ 0040eac0 f i aggregator.pb.obj
 0001:0000daf0       ?mutable_data@FileDataRequest_FileData@aggregator@@QAEPAV?$basic_string@DU?$char_traits@D@std@@V?$allocator@D@2@@std@@XZ 0040eaf0 f i aggregator.pb.obj
 0001:0000db90       ?set_has_data@FileDataRequest_FileData@aggregator@@AAEXXZ 0040eb90 f i aggregator.pb.obj
 0001:0000dbc0       ??$ReadPrimitive@H$0O@@WireFormatLite@internal@protobuf@google@@SA_NPAVCodedInputStream@io@23@PAH@Z 0040ebc0 f i aggregator.pb.obj
 0001:0000dc60       ?SerializeWithCachedSizes@FileDataRequest_FileData@aggregator@@UBEXPAVCodedOutputStream@io@protobuf@google@@@Z 0040ec60 f   aggregator.pb.obj
 0001:0000dd80       ?id@FileDataRequest_FileData@aggregator@@QBEABVFileID@2@XZ 0040ed80 f i aggregator.pb.obj
 0001:0000ddf0       ?has_pos@FileDataRequest_FileData@aggregator@@QBE_NXZ 0040edf0 f i aggregator.pb.obj
 0001:0000de20       ?pos@FileDataRequest_FileData@aggregator@@QBE_KXZ 0040ee20 f i aggregator.pb.obj
 0001:0000de50       ?has_encode@FileDataRequest_FileData@aggregator@@QBE_NXZ 0040ee50 f i aggregator.pb.obj
 0001:0000de80       ?encode@FileDataRequest_FileData@aggregator@@QBE?AW4FileDataRequest_FileData_EncodeType@2@XZ 0040ee80 f i aggregator.pb.obj
 0001:0000dea0       ?has_org_len@FileDataRequest_FileData@aggregator@@QBE_NXZ 0040eea0 f i aggregator.pb.obj
 0001:0000ded0       ?org_len@FileDataRequest_FileData@aggregator@@QBEIXZ 0040eed0 f i aggregator.pb.obj
 0001:0000def0       ?data@FileDataRequest_FileData@aggregator@@QBEABV?$basic_string@DU?$char_traits@D@std@@V?$allocator@D@2@@std@@XZ 0040eef0 f i aggregator.pb.obj
 0001:0000df10       ?ByteSize@FileDataRequest_FileData@aggregator@@UBEHXZ 0040ef10 f   aggregator.pb.obj
 0001:0000e080       ?EnumSize@WireFormatLite@internal@protobuf@google@@SAHH@Z 0040f080 f i aggregator.pb.obj
 0001:0000e0a0       ?VarintSize32SignExtended@CodedOutputStream@io@protobuf@google@@SAHH@Z 0040f0a0 f i aggregator.pb.obj
 0001:0000e0d0       ?CheckTypeAndMergeFrom@FileDataRequest_FileData@aggregator@@UAEXABVMessageLite@protobuf@google@@@Z 0040f0d0 f   aggregator.pb.obj
 0001:0000e110       ?MergeFrom@FileDataRequest_FileData@aggregator@@QAEXABV12@@Z 0040f110 f   aggregator.pb.obj
 0001:0000e2a0       ?set_pos@FileDataRequest_FileData@aggregator@@QAEX_K@Z 0040f2a0 f i aggregator.pb.obj
 0001:0000e2f0       ?set_org_len@FileDataRequest_FileData@aggregator@@QAEXI@Z 0040f2f0 f i aggregator.pb.obj
 0001:0000e330       ?set_data@FileDataRequest_FileData@aggregator@@QAEXABV?$basic_string@DU?$char_traits@D@std@@V?$allocator@D@2@@std@@@Z 0040f330 f i aggregator.pb.obj
 0001:0000e3e0       ?CopyFrom@FileDataRequest_FileData@aggregator@@QAEXABV12@@Z 0040f3e0 f   aggregator.pb.obj
 0001:0000e440       ?IsInitialized@FileDataRequest_FileData@aggregator@@UBE_NXZ 0040f440 f   aggregator.pb.obj
 0001:0000e4e0       ?Swap@FileDataRequest_FileData@aggregator@@QAEXPAV12@@Z 0040f4e0 f   aggregator.pb.obj
 0001:0000e5e0       ?GetTypeName@FileDataRequest_FileData@aggregator@@UBE?AV?$basic_string@DU?$char_traits@D@std@@V?$allocator@D@2@@std@@XZ 0040f5e0 f   aggregator.pb.obj
 0001:0000e620       ??0FileDataRequest@aggregator@@QAE@XZ 0040f620 f   aggregator.pb.obj
 0001:0000e680       ?GetCachedSize@FileDataRequest@aggregator@@UBEHXZ 0040f680 f i aggregator.pb.obj
 0001:0000e6a0       ??_EFileDataRequest@aggregator@@UAEPAXI@Z 0040f6a0 f i aggregator.pb.obj
 0001:0000e6a0       ??_GFileDataRequest@aggregator@@UAEPAXI@Z 0040f6a0 f i aggregator.pb.obj
 0001:0000e6f0       ?InitAsDefaultInstance@FileDataRequest@aggregator@@AAEXXZ 0040f6f0 f   aggregator.pb.obj
 0001:0000e710       ??0FileDataRequest@aggregator@@QAE@ABV01@@Z 0040f710 f   aggregator.pb.obj
 0001:0000e780       ?SharedCtor@FileDataRequest@aggregator@@AAEXXZ 0040f780 f   aggregator.pb.obj
 0001:0000e7d0       ??1FileDataRequest@aggregator@@UAE@XZ 0040f7d0 f   aggregator.pb.obj
 0001:0000e820       ?SharedDtor@FileDataRequest@aggregator@@AAEXXZ 0040f820 f   aggregator.pb.obj
 0001:0000e850       ?SetCachedSize@FileDataRequest@aggregator@@ABEXH@Z 0040f850 f   aggregator.pb.obj
 0001:0000e880       ?default_instance@FileDataRequest@aggregator@@SAABV12@XZ 0040f880 f   aggregator.pb.obj
 0001:0000e8a0       ?New@FileDataRequest@aggregator@@UBEPAV12@XZ 0040f8a0 f   aggregator.pb.obj
 0001:0000e910       ?Clear@FileDataRequest@aggregator@@UAEXXZ 0040f910 f   aggregator.pb.obj
 0001:0000e960       ?MergePartialFromCodedStream@FileDataRequest@aggregator@@UAE_NPAVCodedInputStream@io@protobuf@google@@@Z 0040f960 f   aggregator.pb.obj
 0001:0000eaa0       ?add_filedata@FileDataRequest@aggregator@@QAEPAVFileDataRequest_FileData@2@XZ 0040faa0 f i aggregator.pb.obj
 0001:0000ead0       ?SerializeWithCachedSizes@FileDataRequest@aggregator@@UBEXPAVCodedOutputStream@io@protobuf@google@@@Z 0040fad0 f   aggregator.pb.obj
 0001:0000eb50       ?filedata_size@FileDataRequest@aggregator@@QBEHXZ 0040fb50 f i aggregator.pb.obj
 0001:0000eb80       ?filedata@FileDataRequest@aggregator@@QBEABVFileDataRequest_FileData@2@H@Z 0040fb80 f i aggregator.pb.obj
 0001:0000ebc0       ?ByteSize@FileDataRequest@aggregator@@UBEHXZ 0040fbc0 f   aggregator.pb.obj
 0001:0000ec70       ?CheckTypeAndMergeFrom@FileDataRequest@aggregator@@UAEXABVMessageLite@protobuf@google@@@Z 0040fc70 f   aggregator.pb.obj
 0001:0000ecb0       ?MergeFrom@FileDataRequest@aggregator@@QAEXABV12@@Z 0040fcb0 f   aggregator.pb.obj
 0001:0000ed70       ?CopyFrom@FileDataRequest@aggregator@@QAEXABV12@@Z 0040fd70 f   aggregator.pb.obj
 0001:0000edd0       ?IsInitialized@FileDataRequest@aggregator@@UBE_NXZ 0040fdd0 f   aggregator.pb.obj
 0001:0000ee80       ?Swap@FileDataRequest@aggregator@@QAEXPAV12@@Z 0040fe80 f   aggregator.pb.obj
 0001:0000ef00       ?GetTypeName@FileDataRequest@aggregator@@UBE?AV?$basic_string@DU?$char_traits@D@std@@V?$allocator@D@2@@std@@XZ 0040ff00 f   aggregator.pb.obj
 0001:0000ef40       ?FileDataResponse_FileData_FileStatus_IsValid@aggregator@@YA_NH@Z 0040ff40 f   aggregator.pb.obj
 0001:0000ef80       ??0FileDataResponse_FileData@aggregator@@QAE@XZ 0040ff80 f   aggregator.pb.obj
 0001:0000efd0       ?GetCachedSize@FileDataResponse_FileData@aggregator@@UBEHXZ 0040ffd0 f i aggregator.pb.obj
 0001:0000eff0       ??_EFileDataResponse_FileData@aggregator@@UAEPAXI@Z 0040fff0 f i aggregator.pb.obj
 0001:0000eff0       ??_GFileDataResponse_FileData@aggregator@@UAEPAXI@Z 0040fff0 f i aggregator.pb.obj
 0001:0000f040       ?InitAsDefaultInstance@FileDataResponse_FileData@aggregator@@AAEXXZ 00410040 f   aggregator.pb.obj
 0001:0000f070       ??0FileDataResponse_FileData@aggregator@@QAE@ABV01@@Z 00410070 f   aggregator.pb.obj
 0001:0000f0d0       ?SharedCtor@FileDataResponse_FileData@aggregator@@AAEXXZ 004100d0 f   aggregator.pb.obj
 0001:0000f160       ??1FileDataResponse_FileData@aggregator@@UAE@XZ 00410160 f   aggregator.pb.obj
 0001:0000f1b0       ?SharedDtor@FileDataResponse_FileData@aggregator@@AAEXXZ 004101b0 f   aggregator.pb.obj
 0001:0000f290       ?SetCachedSize@FileDataResponse_FileData@aggregator@@ABEXH@Z 00410290 f   aggregator.pb.obj
 0001:0000f2c0       ?default_instance@FileDataResponse_FileData@aggregator@@SAABV12@XZ 004102c0 f   aggregator.pb.obj
 0001:0000f2e0       ?New@FileDataResponse_FileData@aggregator@@UBEPAV12@XZ 004102e0 f   aggregator.pb.obj
 0001:0000f350       ?Clear@FileDataResponse_FileData@aggregator@@UAEXXZ 00410350 f   aggregator.pb.obj
 0001:0000f420       ?has_id@FileDataResponse_FileData@aggregator@@QBE_NXZ 00410420 f i aggregator.pb.obj
 0001:0000f450       ?has_checksum@FileDataResponse_FileData@aggregator@@QBE_NXZ 00410450 f i aggregator.pb.obj
 0001:0000f480       ?MergePartialFromCodedStream@FileDataResponse_FileData@aggregator@@UAE_NPAVCodedInputStream@io@protobuf@google@@@Z 00410480 f   aggregator.pb.obj
 0001:0000f770       ?mutable_id@FileDataResponse_FileData@aggregator@@QAEPAVFileID@2@XZ 00410770 f i aggregator.pb.obj
 0001:0000f800       ?set_has_id@FileDataResponse_FileData@aggregator@@AAEXXZ 00410800 f i aggregator.pb.obj
 0001:0000f830       ?set_has_size@FileDataResponse_FileData@aggregator@@AAEXXZ 00410830 f i aggregator.pb.obj
 0001:0000f860       ?set_status@FileDataResponse_FileData@aggregator@@QAEXW4FileDataResponse_FileData_FileStatus@2@@Z 00410860 f i aggregator.pb.obj
 0001:0000f930       ?set_has_status@FileDataResponse_FileData@aggregator@@AAEXXZ 00410930 f i aggregator.pb.obj
 0001:0000f960       ?mutable_checksum@FileDataResponse_FileData@aggregator@@QAEPAV?$basic_string@DU?$char_traits@D@std@@V?$allocator@D@2@@std@@XZ 00410960 f i aggregator.pb.obj
 0001:0000fa00       ?set_has_checksum@FileDataResponse_FileData@aggregator@@AAEXXZ 00410a00 f i aggregator.pb.obj
 0001:0000fa30       ?SerializeWithCachedSizes@FileDataResponse_FileData@aggregator@@UBEXPAVCodedOutputStream@io@protobuf@google@@@Z 00410a30 f   aggregator.pb.obj
 0001:0000fb20       ?id@FileDataResponse_FileData@aggregator@@QBEABVFileID@2@XZ 00410b20 f i aggregator.pb.obj
 0001:0000fb90       ?has_size@FileDataResponse_FileData@aggregator@@QBE_NXZ 00410b90 f i aggregator.pb.obj
 0001:0000fbc0       ?size@FileDataResponse_FileData@aggregator@@QBE_KXZ 00410bc0 f i aggregator.pb.obj
 0001:0000fbf0       ?has_status@FileDataResponse_FileData@aggregator@@QBE_NXZ 00410bf0 f i aggregator.pb.obj
 0001:0000fc20       ?status@FileDataResponse_FileData@aggregator@@QBE?AW4FileDataResponse_FileData_FileStatus@2@XZ 00410c20 f i aggregator.pb.obj
 0001:0000fc40       ?checksum@FileDataResponse_FileData@aggregator@@QBEABV?$basic_string@DU?$char_traits@D@std@@V?$allocator@D@2@@std@@XZ 00410c40 f i aggregator.pb.obj
 0001:0000fc60       ?ByteSize@FileDataResponse_FileData@aggregator@@UBEHXZ 00410c60 f   aggregator.pb.obj
 0001:0000fd90       ?CheckTypeAndMergeFrom@FileDataResponse_FileData@aggregator@@UAEXABVMessageLite@protobuf@google@@@Z 00410d90 f   aggregator.pb.obj
 0001:0000fdd0       ?MergeFrom@FileDataResponse_FileData@aggregator@@QAEXABV12@@Z 00410dd0 f   aggregator.pb.obj
 0001:0000ff40       ?set_size@FileDataResponse_FileData@aggregator@@QAEX_K@Z 00410f40 f i aggregator.pb.obj
 0001:0000ff90       ?set_checksum@FileDataResponse_FileData@aggregator@@QAEXABV?$basic_string@DU?$char_traits@D@std@@V?$allocator@D@2@@std@@@Z 00410f90 f i aggregator.pb.obj
 0001:00010040       ?CopyFrom@FileDataResponse_FileData@aggregator@@QAEXABV12@@Z 00411040 f   aggregator.pb.obj
 0001:000100a0       ?IsInitialized@FileDataResponse_FileData@aggregator@@UBE_NXZ 004110a0 f   aggregator.pb.obj
 0001:00010140       ?Swap@FileDataResponse_FileData@aggregator@@QAEXPAV12@@Z 00411140 f   aggregator.pb.obj
 0001:00010220       ?GetTypeName@FileDataResponse_FileData@aggregator@@UBE?AV?$basic_string@DU?$char_traits@D@std@@V?$allocator@D@2@@std@@XZ 00411220 f   aggregator.pb.obj
 0001:00010260       ??0FileDataResponse@aggregator@@QAE@XZ 00411260 f   aggregator.pb.obj
 0001:000102c0       ?GetCachedSize@FileDataResponse@aggregator@@UBEHXZ 004112c0 f i aggregator.pb.obj
 0001:000102e0       ??_EFileDataResponse@aggregator@@UAEPAXI@Z 004112e0 f i aggregator.pb.obj
 0001:000102e0       ??_GFileDataResponse@aggregator@@UAEPAXI@Z 004112e0 f i aggregator.pb.obj
 0001:00010330       ?InitAsDefaultInstance@FileDataResponse@aggregator@@AAEXXZ 00411330 f   aggregator.pb.obj
 0001:00010350       ??0FileDataResponse@aggregator@@QAE@ABV01@@Z 00411350 f   aggregator.pb.obj
 0001:000103c0       ?SharedCtor@FileDataResponse@aggregator@@AAEXXZ 004113c0 f   aggregator.pb.obj
 0001:00010410       ??1FileDataResponse@aggregator@@UAE@XZ 00411410 f   aggregator.pb.obj
 0001:00010460       ?SharedDtor@FileDataResponse@aggregator@@AAEXXZ 00411460 f   aggregator.pb.obj
 0001:00010490       ?SetCachedSize@FileDataResponse@aggregator@@ABEXH@Z 00411490 f   aggregator.pb.obj
 0001:000104c0       ?default_instance@FileDataResponse@aggregator@@SAABV12@XZ 004114c0 f   aggregator.pb.obj
 0001:000104e0       ?New@FileDataResponse@aggregator@@UBEPAV12@XZ 004114e0 f   aggregator.pb.obj
 0001:00010550       ?Clear@FileDataResponse@aggregator@@UAEXXZ 00411550 f   aggregator.pb.obj
 0001:000105a0       ?MergePartialFromCodedStream@FileDataResponse@aggregator@@UAE_NPAVCodedInputStream@io@protobuf@google@@@Z 004115a0 f   aggregator.pb.obj
 0001:000106e0       ?add_filedata@FileDataResponse@aggregator@@QAEPAVFileDataResponse_FileData@2@XZ 004116e0 f i aggregator.pb.obj
 0001:00010710       ?SerializeWithCachedSizes@FileDataResponse@aggregator@@UBEXPAVCodedOutputStream@io@protobuf@google@@@Z 00411710 f   aggregator.pb.obj
 0001:00010790       ?filedata_size@FileDataResponse@aggregator@@QBEHXZ 00411790 f i aggregator.pb.obj
 0001:000107c0       ?filedata@FileDataResponse@aggregator@@QBEABVFileDataResponse_FileData@2@H@Z 004117c0 f i aggregator.pb.obj
 0001:00010800       ?ByteSize@FileDataResponse@aggregator@@UBEHXZ 00411800 f   aggregator.pb.obj
 0001:000108b0       ?CheckTypeAndMergeFrom@FileDataResponse@aggregator@@UAEXABVMessageLite@protobuf@google@@@Z 004118b0 f   aggregator.pb.obj
 0001:000108f0       ?MergeFrom@FileDataResponse@aggregator@@QAEXABV12@@Z 004118f0 f   aggregator.pb.obj
 0001:000109b0       ?CopyFrom@FileDataResponse@aggregator@@QAEXABV12@@Z 004119b0 f   aggregator.pb.obj
 0001:00010a10       ?IsInitialized@FileDataResponse@aggregator@@UBE_NXZ 00411a10 f   aggregator.pb.obj
 0001:00010ac0       ?Swap@FileDataResponse@aggregator@@QAEXPAV12@@Z 00411ac0 f   aggregator.pb.obj
 0001:00010b40       ?GetTypeName@FileDataResponse@aggregator@@UBE?AV?$basic_string@DU?$char_traits@D@std@@V?$allocator@D@2@@std@@XZ 00411b40 f   aggregator.pb.obj
 0001:00010b80       ??0CollectorFileRequest@aggregator@@QAE@XZ 00411b80 f   aggregator.pb.obj
 0001:00010bd0       ?GetCachedSize@CollectorFileRequest@aggregator@@UBEHXZ 00411bd0 f i aggregator.pb.obj
 0001:00010bf0       ??_GCollectorFileRequest@aggregator@@UAEPAXI@Z 00411bf0 f i aggregator.pb.obj
 0001:00010bf0       ??_ECollectorFileRequest@aggregator@@UAEPAXI@Z 00411bf0 f i aggregator.pb.obj
 0001:00010c40       ?InitAsDefaultInstance@CollectorFileRequest@aggregator@@AAEXXZ 00411c40 f   aggregator.pb.obj
 0001:00010c60       ??0CollectorFileRequest@aggregator@@QAE@ABV01@@Z 00411c60 f   aggregator.pb.obj
 0001:00010cc0       ?SharedCtor@CollectorFileRequest@aggregator@@AAEXXZ 00411cc0 f   aggregator.pb.obj
 0001:00010d10       ??1CollectorFileRequest@aggregator@@UAE@XZ 00411d10 f   aggregator.pb.obj
 0001:00010d60       ?SharedDtor@CollectorFileRequest@aggregator@@AAEXXZ 00411d60 f   aggregator.pb.obj
 0001:00010d90       ?SetCachedSize@CollectorFileRequest@aggregator@@ABEXH@Z 00411d90 f   aggregator.pb.obj
 0001:00010dc0       ?default_instance@CollectorFileRequest@aggregator@@SAABV12@XZ 00411dc0 f   aggregator.pb.obj
 0001:00010de0       ?New@CollectorFileRequest@aggregator@@UBEPAV12@XZ 00411de0 f   aggregator.pb.obj
 0001:00010e50       ?Clear@CollectorFileRequest@aggregator@@UAEXXZ 00411e50 f   aggregator.pb.obj
 0001:00010e90       ?MergePartialFromCodedStream@CollectorFileRequest@aggregator@@UAE_NPAVCodedInputStream@io@protobuf@google@@@Z 00411e90 f   aggregator.pb.obj
 0001:00010f20       ?SerializeWithCachedSizes@CollectorFileRequest@aggregator@@UBEXPAVCodedOutputStream@io@protobuf@google@@@Z 00411f20 f   aggregator.pb.obj
 0001:00010f40       ?ByteSize@CollectorFileRequest@aggregator@@UBEHXZ 00411f40 f   aggregator.pb.obj
 0001:00010f80       ?CheckTypeAndMergeFrom@CollectorFileRequest@aggregator@@UAEXABVMessageLite@protobuf@google@@@Z 00411f80 f   aggregator.pb.obj
 0001:00010fc0       ?MergeFrom@CollectorFileRequest@aggregator@@QAEXABV12@@Z 00411fc0 f   aggregator.pb.obj
 0001:00011070       ?CopyFrom@CollectorFileRequest@aggregator@@QAEXABV12@@Z 00412070 f   aggregator.pb.obj
 0001:000110d0       ?IsInitialized@CollectorFileRequest@aggregator@@UBE_NXZ 004120d0 f   aggregator.pb.obj
 0001:000110f0       ?Swap@CollectorFileRequest@aggregator@@QAEXPAV12@@Z 004120f0 f   aggregator.pb.obj
 0001:00011140       ?GetTypeName@CollectorFileRequest@aggregator@@UBE?AV?$basic_string@DU?$char_traits@D@std@@V?$allocator@D@2@@std@@XZ 00412140 f   aggregator.pb.obj
 0001:00011180       ??0CollectorFileResponse_File@aggregator@@QAE@XZ 00412180 f   aggregator.pb.obj
 0001:000111d0       ?GetCachedSize@CollectorFileResponse_File@aggregator@@UBEHXZ 004121d0 f i aggregator.pb.obj
 0001:000111f0       ??_GCollectorFileResponse_File@aggregator@@UAEPAXI@Z 004121f0 f i aggregator.pb.obj
 0001:000111f0       ??_ECollectorFileResponse_File@aggregator@@UAEPAXI@Z 004121f0 f i aggregator.pb.obj
 0001:00011240       ?InitAsDefaultInstance@CollectorFileResponse_File@aggregator@@AAEXXZ 00412240 f   aggregator.pb.obj
 0001:00011270       ??0CollectorFileResponse_File@aggregator@@QAE@ABV01@@Z 00412270 f   aggregator.pb.obj
 0001:000112d0       ?SharedCtor@CollectorFileResponse_File@aggregator@@AAEXXZ 004122d0 f   aggregator.pb.obj
 0001:00011360       ??1CollectorFileResponse_File@aggregator@@UAE@XZ 00412360 f   aggregator.pb.obj
 0001:000113b0       ?SharedDtor@CollectorFileResponse_File@aggregator@@AAEXXZ 004123b0 f   aggregator.pb.obj
 0001:000114d0       ?SetCachedSize@CollectorFileResponse_File@aggregator@@ABEXH@Z 004124d0 f   aggregator.pb.obj
 0001:00011500       ?default_instance@CollectorFileResponse_File@aggregator@@SAABV12@XZ 00412500 f   aggregator.pb.obj
 0001:00011520       ?New@CollectorFileResponse_File@aggregator@@UBEPAV12@XZ 00412520 f   aggregator.pb.obj
 0001:00011590       ?Clear@CollectorFileResponse_File@aggregator@@UAEXXZ 00412590 f   aggregator.pb.obj
 0001:00011690       ?has_id@CollectorFileResponse_File@aggregator@@QBE_NXZ 00412690 f i aggregator.pb.obj
 0001:000116c0       ?has_dir@CollectorFileResponse_File@aggregator@@QBE_NXZ 004126c0 f i aggregator.pb.obj
 0001:000116f0       ?has_name@CollectorFileResponse_File@aggregator@@QBE_NXZ 004126f0 f i aggregator.pb.obj
 0001:00011720       ?MergePartialFromCodedStream@CollectorFileResponse_File@aggregator@@UAE_NPAVCodedInputStream@io@protobuf@google@@@Z 00412720 f   aggregator.pb.obj
 0001:00011a40       ?mutable_id@CollectorFileResponse_File@aggregator@@QAEPAVFileID@2@XZ 00412a40 f i aggregator.pb.obj
 0001:00011ad0       ?set_has_id@CollectorFileResponse_File@aggregator@@AAEXXZ 00412ad0 f i aggregator.pb.obj
 0001:00011b00       ?set_has_pos@CollectorFileResponse_File@aggregator@@AAEXXZ 00412b00 f i aggregator.pb.obj
 0001:00011b30       ?set_has_finish@CollectorFileResponse_File@aggregator@@AAEXXZ 00412b30 f i aggregator.pb.obj
 0001:00011b60       ?mutable_dir@CollectorFileResponse_File@aggregator@@QAEPAV?$basic_string@DU?$char_traits@D@std@@V?$allocator@D@2@@std@@XZ 00412b60 f i aggregator.pb.obj
 0001:00011c00       ?set_has_dir@CollectorFileResponse_File@aggregator@@AAEXXZ 00412c00 f i aggregator.pb.obj
 0001:00011c30       ?mutable_name@CollectorFileResponse_File@aggregator@@QAEPAV?$basic_string@DU?$char_traits@D@std@@V?$allocator@D@2@@std@@XZ 00412c30 f i aggregator.pb.obj
 0001:00011cd0       ?set_has_name@CollectorFileResponse_File@aggregator@@AAEXXZ 00412cd0 f i aggregator.pb.obj
 0001:00011d00       ??$ReadPrimitive@_N$07@WireFormatLite@internal@protobuf@google@@SA_NPAVCodedInputStream@io@23@PA_N@Z 00412d00 f i aggregator.pb.obj
 0001:00011da0       ?SerializeWithCachedSizes@CollectorFileResponse_File@aggregator@@UBEXPAVCodedOutputStream@io@protobuf@google@@@Z 00412da0 f   aggregator.pb.obj
 0001:00011ec0       ?id@CollectorFileResponse_File@aggregator@@QBEABVFileID@2@XZ 00412ec0 f i aggregator.pb.obj
 0001:00011f30       ?has_pos@CollectorFileResponse_File@aggregator@@QBE_NXZ 00412f30 f i aggregator.pb.obj
 0001:00011f60       ?pos@CollectorFileResponse_File@aggregator@@QBE_KXZ 00412f60 f i aggregator.pb.obj
 0001:00011f90       ?has_finish@CollectorFileResponse_File@aggregator@@QBE_NXZ 00412f90 f i aggregator.pb.obj
 0001:00011fc0       ?finish@CollectorFileResponse_File@aggregator@@QBE_NXZ 00412fc0 f i aggregator.pb.obj
 0001:00011fe0       ?dir@CollectorFileResponse_File@aggregator@@QBEABV?$basic_string@DU?$char_traits@D@std@@V?$allocator@D@2@@std@@XZ 00412fe0 f i aggregator.pb.obj
 0001:00012000       ?name@CollectorFileResponse_File@aggregator@@QBEABV?$basic_string@DU?$char_traits@D@std@@V?$allocator@D@2@@std@@XZ 00413000 f i aggregator.pb.obj
 0001:00012020       ?ByteSize@CollectorFileResponse_File@aggregator@@UBEHXZ 00413020 f   aggregator.pb.obj
 0001:00012170       ?CheckTypeAndMergeFrom@CollectorFileResponse_File@aggregator@@UAEXABVMessageLite@protobuf@google@@@Z 00413170 f   aggregator.pb.obj
 0001:000121b0       ?MergeFrom@CollectorFileResponse_File@aggregator@@QAEXABV12@@Z 004131b0 f   aggregator.pb.obj
 0001:00012340       ?set_pos@CollectorFileResponse_File@aggregator@@QAEX_K@Z 00413340 f i aggregator.pb.obj
 0001:00012390       ?set_finish@CollectorFileResponse_File@aggregator@@QAEX_N@Z 00413390 f i aggregator.pb.obj
 0001:000123d0       ?set_dir@CollectorFileResponse_File@aggregator@@QAEXABV?$basic_string@DU?$char_traits@D@std@@V?$allocator@D@2@@std@@@Z 004133d0 f i aggregator.pb.obj
 0001:00012480       ?set_name@CollectorFileResponse_File@aggregator@@QAEXABV?$basic_string@DU?$char_traits@D@std@@V?$allocator@D@2@@std@@@Z 00413480 f i aggregator.pb.obj
 0001:00012530       ?CopyFrom@CollectorFileResponse_File@aggregator@@QAEXABV12@@Z 00413530 f   aggregator.pb.obj
 0001:00012590       ?IsInitialized@CollectorFileResponse_File@aggregator@@UBE_NXZ 00413590 f   aggregator.pb.obj
 0001:00012630       ?Swap@CollectorFileResponse_File@aggregator@@QAEXPAV12@@Z 00413630 f   aggregator.pb.obj
 0001:00012730       ?GetTypeName@CollectorFileResponse_File@aggregator@@UBE?AV?$basic_string@DU?$char_traits@D@std@@V?$allocator@D@2@@std@@XZ 00413730 f   aggregator.pb.obj
 0001:00012770       ??0CollectorFileResponse@aggregator@@QAE@XZ 00413770 f   aggregator.pb.obj
 0001:000127d0       ?GetCachedSize@CollectorFileResponse@aggregator@@UBEHXZ 004137d0 f i aggregator.pb.obj
 0001:000127f0       ??_ECollectorFileResponse@aggregator@@UAEPAXI@Z 004137f0 f i aggregator.pb.obj
 0001:000127f0       ??_GCollectorFileResponse@aggregator@@UAEPAXI@Z 004137f0 f i aggregator.pb.obj
 0001:00012840       ?InitAsDefaultInstance@CollectorFileResponse@aggregator@@AAEXXZ 00413840 f   aggregator.pb.obj
 0001:00012860       ??0CollectorFileResponse@aggregator@@QAE@ABV01@@Z 00413860 f   aggregator.pb.obj
 0001:000128d0       ?SharedCtor@CollectorFileResponse@aggregator@@AAEXXZ 004138d0 f   aggregator.pb.obj
 0001:00012920       ??1CollectorFileResponse@aggregator@@UAE@XZ 00413920 f   aggregator.pb.obj
 0001:00012970       ?SharedDtor@CollectorFileResponse@aggregator@@AAEXXZ 00413970 f   aggregator.pb.obj
 0001:000129a0       ?SetCachedSize@CollectorFileResponse@aggregator@@ABEXH@Z 004139a0 f   aggregator.pb.obj
 0001:000129d0       ?default_instance@CollectorFileResponse@aggregator@@SAABV12@XZ 004139d0 f   aggregator.pb.obj
 0001:000129f0       ?New@CollectorFileResponse@aggregator@@UBEPAV12@XZ 004139f0 f   aggregator.pb.obj
 0001:00012a60       ?Clear@CollectorFileResponse@aggregator@@UAEXXZ 00413a60 f   aggregator.pb.obj
 0001:00012ab0       ?MergePartialFromCodedStream@CollectorFileResponse@aggregator@@UAE_NPAVCodedInputStream@io@protobuf@google@@@Z 00413ab0 f   aggregator.pb.obj
 0001:00012bf0       ?add_file@CollectorFileResponse@aggregator@@QAEPAVCollectorFileResponse_File@2@XZ 00413bf0 f i aggregator.pb.obj
 0001:00012c20       ?SerializeWithCachedSizes@CollectorFileResponse@aggregator@@UBEXPAVCodedOutputStream@io@protobuf@google@@@Z 00413c20 f   aggregator.pb.obj
 0001:00012ca0       ?file_size@CollectorFileResponse@aggregator@@QBEHXZ 00413ca0 f i aggregator.pb.obj
 0001:00012cd0       ?file@CollectorFileResponse@aggregator@@QBEABVCollectorFileResponse_File@2@H@Z 00413cd0 f i aggregator.pb.obj
 0001:00012d10       ?ByteSize@CollectorFileResponse@aggregator@@UBEHXZ 00413d10 f   aggregator.pb.obj
 0001:00012dc0       ?CheckTypeAndMergeFrom@CollectorFileResponse@aggregator@@UAEXABVMessageLite@protobuf@google@@@Z 00413dc0 f   aggregator.pb.obj
 0001:00012e00       ?MergeFrom@CollectorFileResponse@aggregator@@QAEXABV12@@Z 00413e00 f   aggregator.pb.obj
 0001:00012ec0       ?CopyFrom@CollectorFileResponse@aggregator@@QAEXABV12@@Z 00413ec0 f   aggregator.pb.obj
 0001:00012f20       ?IsInitialized@CollectorFileResponse@aggregator@@UBE_NXZ 00413f20 f   aggregator.pb.obj
 0001:00012fd0       ?Swap@CollectorFileResponse@aggregator@@QAEXPAV12@@Z 00413fd0 f   aggregator.pb.obj
 0001:00013050       ?GetTypeName@CollectorFileResponse@aggregator@@UBE?AV?$basic_string@DU?$char_traits@D@std@@V?$allocator@D@2@@std@@XZ 00414050 f   aggregator.pb.obj
 0001:00013090       ??0CollectRuleRequest@aggregator@@QAE@XZ 00414090 f   aggregator.pb.obj
 0001:000130e0       ?GetCachedSize@CollectRuleRequest@aggregator@@UBEHXZ 004140e0 f i aggregator.pb.obj
 0001:00013100       ??_GCollectRuleRequest@aggregator@@UAEPAXI@Z 00414100 f i aggregator.pb.obj
 0001:00013100       ??_ECollectRuleRequest@aggregator@@UAEPAXI@Z 00414100 f i aggregator.pb.obj
 0001:00013150       ?InitAsDefaultInstance@CollectRuleRequest@aggregator@@AAEXXZ 00414150 f   aggregator.pb.obj
 0001:00013170       ??0CollectRuleRequest@aggregator@@QAE@ABV01@@Z 00414170 f   aggregator.pb.obj
 0001:000131d0       ?SharedCtor@CollectRuleRequest@aggregator@@AAEXXZ 004141d0 f   aggregator.pb.obj
 0001:00013220       ??1CollectRuleRequest@aggregator@@UAE@XZ 00414220 f   aggregator.pb.obj
 0001:00013270       ?SharedDtor@CollectRuleRequest@aggregator@@AAEXXZ 00414270 f   aggregator.pb.obj
 0001:000132a0       ?SetCachedSize@CollectRuleRequest@aggregator@@ABEXH@Z 004142a0 f   aggregator.pb.obj
 0001:000132d0       ?default_instance@CollectRuleRequest@aggregator@@SAABV12@XZ 004142d0 f   aggregator.pb.obj
 0001:000132f0       ?New@CollectRuleRequest@aggregator@@UBEPAV12@XZ 004142f0 f   aggregator.pb.obj
 0001:00013360       ?Clear@CollectRuleRequest@aggregator@@UAEXXZ 00414360 f   aggregator.pb.obj
 0001:000133a0       ?MergePartialFromCodedStream@CollectRuleRequest@aggregator@@UAE_NPAVCodedInputStream@io@protobuf@google@@@Z 004143a0 f   aggregator.pb.obj
 0001:00013430       ?SerializeWithCachedSizes@CollectRuleRequest@aggregator@@UBEXPAVCodedOutputStream@io@protobuf@google@@@Z 00414430 f   aggregator.pb.obj
 0001:00013450       ?ByteSize@CollectRuleRequest@aggregator@@UBEHXZ 00414450 f   aggregator.pb.obj
 0001:00013490       ?CheckTypeAndMergeFrom@CollectRuleRequest@aggregator@@UAEXABVMessageLite@protobuf@google@@@Z 00414490 f   aggregator.pb.obj
 0001:000134d0       ?MergeFrom@CollectRuleRequest@aggregator@@QAEXABV12@@Z 004144d0 f   aggregator.pb.obj
 0001:00013580       ?CopyFrom@CollectRuleRequest@aggregator@@QAEXABV12@@Z 00414580 f   aggregator.pb.obj
 0001:000135e0       ?IsInitialized@CollectRuleRequest@aggregator@@UBE_NXZ 004145e0 f   aggregator.pb.obj
 0001:00013600       ?Swap@CollectRuleRequest@aggregator@@QAEXPAV12@@Z 00414600 f   aggregator.pb.obj
 0001:00013650       ?GetTypeName@CollectRuleRequest@aggregator@@UBE?AV?$basic_string@DU?$char_traits@D@std@@V?$allocator@D@2@@std@@XZ 00414650 f   aggregator.pb.obj
 0001:00013690       ??0CollectRuleResponse_Rule@aggregator@@QAE@XZ 00414690 f   aggregator.pb.obj
 0001:000136e0       ?GetCachedSize@CollectRuleResponse_Rule@aggregator@@UBEHXZ 004146e0 f i aggregator.pb.obj
 0001:00013700       ??_ECollectRuleResponse_Rule@aggregator@@UAEPAXI@Z 00414700 f i aggregator.pb.obj
 0001:00013700       ??_GCollectRuleResponse_Rule@aggregator@@UAEPAXI@Z 00414700 f i aggregator.pb.obj
 0001:00013750       ?InitAsDefaultInstance@CollectRuleResponse_Rule@aggregator@@AAEXXZ 00414750 f   aggregator.pb.obj
 0001:00013770       ??0CollectRuleResponse_Rule@aggregator@@QAE@ABV01@@Z 00414770 f   aggregator.pb.obj
 0001:000137d0       ?SharedCtor@CollectRuleResponse_Rule@aggregator@@AAEXXZ 004147d0 f   aggregator.pb.obj
 0001:00013840       ??1CollectRuleResponse_Rule@aggregator@@UAE@XZ 00414840 f   aggregator.pb.obj
 0001:00013890       ?SharedDtor@CollectRuleResponse_Rule@aggregator@@AAEXXZ 00414890 f   aggregator.pb.obj
 0001:000139a0       ?SetCachedSize@CollectRuleResponse_Rule@aggregator@@ABEXH@Z 004149a0 f   aggregator.pb.obj
 0001:000139d0       ?default_instance@CollectRuleResponse_Rule@aggregator@@SAABV12@XZ 004149d0 f   aggregator.pb.obj
 0001:000139f0       ?New@CollectRuleResponse_Rule@aggregator@@UBEPAV12@XZ 004149f0 f   aggregator.pb.obj
 0001:00013a60       ?Clear@CollectRuleResponse_Rule@aggregator@@UAEXXZ 00414a60 f   aggregator.pb.obj
 0001:00013b40       ?has_dir@CollectRuleResponse_Rule@aggregator@@QBE_NXZ 00414b40 f i aggregator.pb.obj
 0001:00013b70       ?has_exclude@CollectRuleResponse_Rule@aggregator@@QBE_NXZ 00414b70 f i aggregator.pb.obj
 0001:00013ba0       ?has_include@CollectRuleResponse_Rule@aggregator@@QBE_NXZ 00414ba0 f i aggregator.pb.obj
 0001:00013bd0       ?MergePartialFromCodedStream@CollectRuleResponse_Rule@aggregator@@UAE_NPAVCodedInputStream@io@protobuf@google@@@Z 00414bd0 f   aggregator.pb.obj
 0001:00013de0       ?mutable_dir@CollectRuleResponse_Rule@aggregator@@QAEPAV?$basic_string@DU?$char_traits@D@std@@V?$allocator@D@2@@std@@XZ 00414de0 f i aggregator.pb.obj
 0001:00013e80       ?set_has_dir@CollectRuleResponse_Rule@aggregator@@AAEXXZ 00414e80 f i aggregator.pb.obj
 0001:00013eb0       ?mutable_exclude@CollectRuleResponse_Rule@aggregator@@QAEPAV?$basic_string@DU?$char_traits@D@std@@V?$allocator@D@2@@std@@XZ 00414eb0 f i aggregator.pb.obj
 0001:00013f50       ?set_has_exclude@CollectRuleResponse_Rule@aggregator@@AAEXXZ 00414f50 f i aggregator.pb.obj
 0001:00013f80       ?mutable_include@CollectRuleResponse_Rule@aggregator@@QAEPAV?$basic_string@DU?$char_traits@D@std@@V?$allocator@D@2@@std@@XZ 00414f80 f i aggregator.pb.obj
 0001:00014020       ?set_has_include@CollectRuleResponse_Rule@aggregator@@AAEXXZ 00415020 f i aggregator.pb.obj
 0001:00014050       ?SerializeWithCachedSizes@CollectRuleResponse_Rule@aggregator@@UBEXPAVCodedOutputStream@io@protobuf@google@@@Z 00415050 f   aggregator.pb.obj
 0001:00014110       ?dir@CollectRuleResponse_Rule@aggregator@@QBEABV?$basic_string@DU?$char_traits@D@std@@V?$allocator@D@2@@std@@XZ 00415110 f i aggregator.pb.obj
 0001:00014130       ?exclude@CollectRuleResponse_Rule@aggregator@@QBEABV?$basic_string@DU?$char_traits@D@std@@V?$allocator@D@2@@std@@XZ 00415130 f i aggregator.pb.obj
 0001:00014150       ?include@CollectRuleResponse_Rule@aggregator@@QBEABV?$basic_string@DU?$char_traits@D@std@@V?$allocator@D@2@@std@@XZ 00415150 f i aggregator.pb.obj
 0001:00014170       ?ByteSize@CollectRuleResponse_Rule@aggregator@@UBEHXZ 00415170 f   aggregator.pb.obj
 0001:00014270       ?CheckTypeAndMergeFrom@CollectRuleResponse_Rule@aggregator@@UAEXABVMessageLite@protobuf@google@@@Z 00415270 f   aggregator.pb.obj
 0001:000142b0       ?MergeFrom@CollectRuleResponse_Rule@aggregator@@QAEXABV12@@Z 004152b0 f   aggregator.pb.obj
 0001:000143e0       ?set_dir@CollectRuleResponse_Rule@aggregator@@QAEXABV?$basic_string@DU?$char_traits@D@std@@V?$allocator@D@2@@std@@@Z 004153e0 f i aggregator.pb.obj
 0001:00014490       ?set_exclude@CollectRuleResponse_Rule@aggregator@@QAEXABV?$basic_string@DU?$char_traits@D@std@@V?$allocator@D@2@@std@@@Z 00415490 f i aggregator.pb.obj
 0001:00014540       ?set_include@CollectRuleResponse_Rule@aggregator@@QAEXABV?$basic_string@DU?$char_traits@D@std@@V?$allocator@D@2@@std@@@Z 00415540 f i aggregator.pb.obj
 0001:000145f0       ?CopyFrom@CollectRuleResponse_Rule@aggregator@@QAEXABV12@@Z 004155f0 f   aggregator.pb.obj
 0001:00014650       ?IsInitialized@CollectRuleResponse_Rule@aggregator@@UBE_NXZ 00415650 f   aggregator.pb.obj
 0001:00014680       ?Swap@CollectRuleResponse_Rule@aggregator@@QAEXPAV12@@Z 00415680 f   aggregator.pb.obj
 0001:00014740       ?GetTypeName@CollectRuleResponse_Rule@aggregator@@UBE?AV?$basic_string@DU?$char_traits@D@std@@V?$allocator@D@2@@std@@XZ 00415740 f   aggregator.pb.obj
 0001:00014780       ??0CollectRuleResponse@aggregator@@QAE@XZ 00415780 f   aggregator.pb.obj
 0001:000147e0       ?GetCachedSize@CollectRuleResponse@aggregator@@UBEHXZ 004157e0 f i aggregator.pb.obj
 0001:00014800       ??_GCollectRuleResponse@aggregator@@UAEPAXI@Z 00415800 f i aggregator.pb.obj
 0001:00014800       ??_ECollectRuleResponse@aggregator@@UAEPAXI@Z 00415800 f i aggregator.pb.obj
 0001:00014850       ?InitAsDefaultInstance@CollectRuleResponse@aggregator@@AAEXXZ 00415850 f   aggregator.pb.obj
 0001:00014870       ??0CollectRuleResponse@aggregator@@QAE@ABV01@@Z 00415870 f   aggregator.pb.obj
 0001:000148e0       ?SharedCtor@CollectRuleResponse@aggregator@@AAEXXZ 004158e0 f   aggregator.pb.obj
 0001:00014930       ??1CollectRuleResponse@aggregator@@UAE@XZ 00415930 f   aggregator.pb.obj
 0001:00014980       ?SharedDtor@CollectRuleResponse@aggregator@@AAEXXZ 00415980 f   aggregator.pb.obj
 0001:000149b0       ?SetCachedSize@CollectRuleResponse@aggregator@@ABEXH@Z 004159b0 f   aggregator.pb.obj
 0001:000149e0       ?default_instance@CollectRuleResponse@aggregator@@SAABV12@XZ 004159e0 f   aggregator.pb.obj
 0001:00014a00       ?New@CollectRuleResponse@aggregator@@UBEPAV12@XZ 00415a00 f   aggregator.pb.obj
 0001:00014a70       ?Clear@CollectRuleResponse@aggregator@@UAEXXZ 00415a70 f   aggregator.pb.obj
 0001:00014ac0       ?MergePartialFromCodedStream@CollectRuleResponse@aggregator@@UAE_NPAVCodedInputStream@io@protobuf@google@@@Z 00415ac0 f   aggregator.pb.obj
 0001:00014c00       ?add_rule@CollectRuleResponse@aggregator@@QAEPAVCollectRuleResponse_Rule@2@XZ 00415c00 f i aggregator.pb.obj
 0001:00014c30       ?SerializeWithCachedSizes@CollectRuleResponse@aggregator@@UBEXPAVCodedOutputStream@io@protobuf@google@@@Z 00415c30 f   aggregator.pb.obj
 0001:00014cb0       ?rule_size@CollectRuleResponse@aggregator@@QBEHXZ 00415cb0 f i aggregator.pb.obj
 0001:00014ce0       ?rule@CollectRuleResponse@aggregator@@QBEABVCollectRuleResponse_Rule@2@H@Z 00415ce0 f i aggregator.pb.obj
 0001:00014d20       ?ByteSize@CollectRuleResponse@aggregator@@UBEHXZ 00415d20 f   aggregator.pb.obj
 0001:00014dd0       ?CheckTypeAndMergeFrom@CollectRuleResponse@aggregator@@UAEXABVMessageLite@protobuf@google@@@Z 00415dd0 f   aggregator.pb.obj
 0001:00014e10       ?MergeFrom@CollectRuleResponse@aggregator@@QAEXABV12@@Z 00415e10 f   aggregator.pb.obj
 0001:00014ed0       ?CopyFrom@CollectRuleResponse@aggregator@@QAEXABV12@@Z 00415ed0 f   aggregator.pb.obj
 0001:00014f30       ?IsInitialized@CollectRuleResponse@aggregator@@UBE_NXZ 00415f30 f   aggregator.pb.obj
 0001:00014fe0       ?Swap@CollectRuleResponse@aggregator@@QAEXPAV12@@Z 00415fe0 f   aggregator.pb.obj
 0001:00015060       ?GetTypeName@CollectRuleResponse@aggregator@@UBE?AV?$basic_string@DU?$char_traits@D@std@@V?$allocator@D@2@@std@@XZ 00416060 f   aggregator.pb.obj
 0001:000150a0       ??0ConfigRequest@aggregator@@QAE@XZ 004160a0 f   aggregator.pb.obj
 0001:000150f0       ?GetCachedSize@ConfigRequest@aggregator@@UBEHXZ 004160f0 f i aggregator.pb.obj
 0001:00015110       ??_GConfigRequest@aggregator@@UAEPAXI@Z 00416110 f i aggregator.pb.obj
 0001:00015110       ??_EConfigRequest@aggregator@@UAEPAXI@Z 00416110 f i aggregator.pb.obj
 0001:00015160       ?InitAsDefaultInstance@ConfigRequest@aggregator@@AAEXXZ 00416160 f   aggregator.pb.obj
 0001:00015180       ??0ConfigRequest@aggregator@@QAE@ABV01@@Z 00416180 f   aggregator.pb.obj
 0001:000151e0       ?SharedCtor@ConfigRequest@aggregator@@AAEXXZ 004161e0 f   aggregator.pb.obj
 0001:00015230       ??1ConfigRequest@aggregator@@UAE@XZ 00416230 f   aggregator.pb.obj
 0001:00015280       ?SharedDtor@ConfigRequest@aggregator@@AAEXXZ 00416280 f   aggregator.pb.obj
 0001:000152b0       ?SetCachedSize@ConfigRequest@aggregator@@ABEXH@Z 004162b0 f   aggregator.pb.obj
 0001:000152e0       ?default_instance@ConfigRequest@aggregator@@SAABV12@XZ 004162e0 f   aggregator.pb.obj
 0001:00015300       ?New@ConfigRequest@aggregator@@UBEPAV12@XZ 00416300 f   aggregator.pb.obj
 0001:00015370       ?Clear@ConfigRequest@aggregator@@UAEXXZ 00416370 f   aggregator.pb.obj
 0001:000153b0       ?MergePartialFromCodedStream@ConfigRequest@aggregator@@UAE_NPAVCodedInputStream@io@protobuf@google@@@Z 004163b0 f   aggregator.pb.obj
 0001:00015440       ?SerializeWithCachedSizes@ConfigRequest@aggregator@@UBEXPAVCodedOutputStream@io@protobuf@google@@@Z 00416440 f   aggregator.pb.obj
 0001:00015460       ?ByteSize@ConfigRequest@aggregator@@UBEHXZ 00416460 f   aggregator.pb.obj
 0001:000154a0       ?CheckTypeAndMergeFrom@ConfigRequest@aggregator@@UAEXABVMessageLite@protobuf@google@@@Z 004164a0 f   aggregator.pb.obj
 0001:000154e0       ?MergeFrom@ConfigRequest@aggregator@@QAEXABV12@@Z 004164e0 f   aggregator.pb.obj
 0001:00015590       ?CopyFrom@ConfigRequest@aggregator@@QAEXABV12@@Z 00416590 f   aggregator.pb.obj
 0001:000155f0       ?IsInitialized@ConfigRequest@aggregator@@UBE_NXZ 004165f0 f   aggregator.pb.obj
 0001:00015610       ?Swap@ConfigRequest@aggregator@@QAEXPAV12@@Z 00416610 f   aggregator.pb.obj
 0001:00015660       ?GetTypeName@ConfigRequest@aggregator@@UBE?AV?$basic_string@DU?$char_traits@D@std@@V?$allocator@D@2@@std@@XZ 00416660 f   aggregator.pb.obj
 0001:000156a0       ??0ConfigResponse_Time@aggregator@@QAE@XZ 004166a0 f   aggregator.pb.obj
 0001:000156f0       ?GetCachedSize@ConfigResponse_Time@aggregator@@UBEHXZ 004166f0 f i aggregator.pb.obj
 0001:00015710       ??_EConfigResponse_Time@aggregator@@UAEPAXI@Z 00416710 f i aggregator.pb.obj
 0001:00015710       ??_GConfigResponse_Time@aggregator@@UAEPAXI@Z 00416710 f i aggregator.pb.obj
 0001:00015760       ?InitAsDefaultInstance@ConfigResponse_Time@aggregator@@AAEXXZ 00416760 f   aggregator.pb.obj
 0001:00015780       ??0ConfigResponse_Time@aggregator@@QAE@ABV01@@Z 00416780 f   aggregator.pb.obj
 0001:000157e0       ?SharedCtor@ConfigResponse_Time@aggregator@@AAEXXZ 004167e0 f   aggregator.pb.obj
 0001:00015880       ??1ConfigResponse_Time@aggregator@@UAE@XZ 00416880 f   aggregator.pb.obj
 0001:000158d0       ?SharedDtor@ConfigResponse_Time@aggregator@@AAEXXZ 004168d0 f   aggregator.pb.obj
 0001:00015900       ?SetCachedSize@ConfigResponse_Time@aggregator@@ABEXH@Z 00416900 f   aggregator.pb.obj
 0001:00015930       ?default_instance@ConfigResponse_Time@aggregator@@SAABV12@XZ 00416930 f   aggregator.pb.obj
 0001:00015950       ?New@ConfigResponse_Time@aggregator@@UBEPAV12@XZ 00416950 f   aggregator.pb.obj
 0001:000159c0       ?Clear@ConfigResponse_Time@aggregator@@UAEXXZ 004169c0 f   aggregator.pb.obj
 0001:00015a60       ?MergePartialFromCodedStream@ConfigResponse_Time@aggregator@@UAE_NPAVCodedInputStream@io@protobuf@google@@@Z 00416a60 f   aggregator.pb.obj
 0001:00015e10       ?set_has_no@ConfigResponse_Time@aggregator@@AAEXXZ 00416e10 f i aggregator.pb.obj
 0001:00015e40       ?set_has_keepalive@ConfigResponse_Time@aggregator@@AAEXXZ 00416e40 f i aggregator.pb.obj
 0001:00015e70       ?set_has_rate@ConfigResponse_Time@aggregator@@AAEXXZ 00416e70 f i aggregator.pb.obj
 0001:00015ea0       ?set_has_start@ConfigResponse_Time@aggregator@@AAEXXZ 00416ea0 f i aggregator.pb.obj
 0001:00015ed0       ?set_has_end@ConfigResponse_Time@aggregator@@AAEXXZ 00416ed0 f i aggregator.pb.obj
 0001:00015f00       ?set_has_steptime@ConfigResponse_Time@aggregator@@AAEXXZ 00416f00 f i aggregator.pb.obj
 0001:00015f30       ?SerializeWithCachedSizes@ConfigResponse_Time@aggregator@@UBEXPAVCodedOutputStream@io@protobuf@google@@@Z 00416f30 f   aggregator.pb.obj
 0001:00016080       ?has_no@ConfigResponse_Time@aggregator@@QBE_NXZ 00417080 f i aggregator.pb.obj
 0001:000160b0       ?no@ConfigResponse_Time@aggregator@@QBEIXZ 004170b0 f i aggregator.pb.obj
 0001:000160d0       ?has_keepalive@ConfigResponse_Time@aggregator@@QBE_NXZ 004170d0 f i aggregator.pb.obj
 0001:00016100       ?keepalive@ConfigResponse_Time@aggregator@@QBEIXZ 00417100 f i aggregator.pb.obj
 0001:00016120       ?has_rate@ConfigResponse_Time@aggregator@@QBE_NXZ 00417120 f i aggregator.pb.obj
 0001:00016150       ?rate@ConfigResponse_Time@aggregator@@QBEIXZ 00417150 f i aggregator.pb.obj
 0001:00016170       ?has_start@ConfigResponse_Time@aggregator@@QBE_NXZ 00417170 f i aggregator.pb.obj
 0001:000161a0       ?start@ConfigResponse_Time@aggregator@@QBEIXZ 004171a0 f i aggregator.pb.obj
 0001:000161c0       ?has_end@ConfigResponse_Time@aggregator@@QBE_NXZ 004171c0 f i aggregator.pb.obj
 0001:000161f0       ?end@ConfigResponse_Time@aggregator@@QBEIXZ 004171f0 f i aggregator.pb.obj
 0001:00016210       ?has_steptime@ConfigResponse_Time@aggregator@@QBE_NXZ 00417210 f i aggregator.pb.obj
 0001:00016240       ?steptime@ConfigResponse_Time@aggregator@@QBEIXZ 00417240 f i aggregator.pb.obj
 0001:00016260       ?ByteSize@ConfigResponse_Time@aggregator@@UBEHXZ 00417260 f   aggregator.pb.obj
 0001:00016400       ?CheckTypeAndMergeFrom@ConfigResponse_Time@aggregator@@UAEXABVMessageLite@protobuf@google@@@Z 00417400 f   aggregator.pb.obj
 0001:00016440       ?MergeFrom@ConfigResponse_Time@aggregator@@QAEXABV12@@Z 00417440 f   aggregator.pb.obj
 0001:000165f0       ?set_no@ConfigResponse_Time@aggregator@@QAEXI@Z 004175f0 f i aggregator.pb.obj
 0001:00016630       ?set_keepalive@ConfigResponse_Time@aggregator@@QAEXI@Z 00417630 f i aggregator.pb.obj
 0001:00016670       ?set_rate@ConfigResponse_Time@aggregator@@QAEXI@Z 00417670 f i aggregator.pb.obj
 0001:000166b0       ?set_start@ConfigResponse_Time@aggregator@@QAEXI@Z 004176b0 f i aggregator.pb.obj
 0001:000166f0       ?set_end@ConfigResponse_Time@aggregator@@QAEXI@Z 004176f0 f i aggregator.pb.obj
 0001:00016730       ?set_steptime@ConfigResponse_Time@aggregator@@QAEXI@Z 00417730 f i aggregator.pb.obj
 0001:00016770       ?CopyFrom@ConfigResponse_Time@aggregator@@QAEXABV12@@Z 00417770 f   aggregator.pb.obj
 0001:000167d0       ?IsInitialized@ConfigResponse_Time@aggregator@@UBE_NXZ 004177d0 f   aggregator.pb.obj
 0001:00016800       ?Swap@ConfigResponse_Time@aggregator@@QAEXPAV12@@Z 00417800 f   aggregator.pb.obj
 0001:00016910       ?GetTypeName@ConfigResponse_Time@aggregator@@UBE?AV?$basic_string@DU?$char_traits@D@std@@V?$allocator@D@2@@std@@XZ 00417910 f   aggregator.pb.obj
 0001:00016950       ??0ConfigResponse@aggregator@@QAE@XZ 00417950 f   aggregator.pb.obj
 0001:000169b0       ?GetCachedSize@ConfigResponse@aggregator@@UBEHXZ 004179b0 f i aggregator.pb.obj
 0001:000169d0       ??_GConfigResponse@aggregator@@UAEPAXI@Z 004179d0 f i aggregator.pb.obj
 0001:000169d0       ??_EConfigResponse@aggregator@@UAEPAXI@Z 004179d0 f i aggregator.pb.obj
 0001:00016a20       ?InitAsDefaultInstance@ConfigResponse@aggregator@@AAEXXZ 00417a20 f   aggregator.pb.obj
 0001:00016a40       ??0ConfigResponse@aggregator@@QAE@ABV01@@Z 00417a40 f   aggregator.pb.obj
 0001:00016ab0       ?SharedCtor@ConfigResponse@aggregator@@AAEXXZ 00417ab0 f   aggregator.pb.obj
 0001:00016b00       ??1ConfigResponse@aggregator@@UAE@XZ 00417b00 f   aggregator.pb.obj
 0001:00016b50       ?SharedDtor@ConfigResponse@aggregator@@AAEXXZ 00417b50 f   aggregator.pb.obj
 0001:00016b80       ?SetCachedSize@ConfigResponse@aggregator@@ABEXH@Z 00417b80 f   aggregator.pb.obj
 0001:00016bb0       ?default_instance@ConfigResponse@aggregator@@SAABV12@XZ 00417bb0 f   aggregator.pb.obj
 0001:00016bd0       ?New@ConfigResponse@aggregator@@UBEPAV12@XZ 00417bd0 f   aggregator.pb.obj
 0001:00016c40       ?Clear@ConfigResponse@aggregator@@UAEXXZ 00417c40 f   aggregator.pb.obj
 0001:00016c90       ?MergePartialFromCodedStream@ConfigResponse@aggregator@@UAE_NPAVCodedInputStream@io@protobuf@google@@@Z 00417c90 f   aggregator.pb.obj
 0001:00016dd0       ?add_time@ConfigResponse@aggregator@@QAEPAVConfigResponse_Time@2@XZ 00417dd0 f i aggregator.pb.obj
 0001:00016e00       ?SerializeWithCachedSizes@ConfigResponse@aggregator@@UBEXPAVCodedOutputStream@io@protobuf@google@@@Z 00417e00 f   aggregator.pb.obj
 0001:00016e80       ?time_size@ConfigResponse@aggregator@@QBEHXZ 00417e80 f i aggregator.pb.obj
 0001:00016eb0       ?time@ConfigResponse@aggregator@@QBEABVConfigResponse_Time@2@H@Z 00417eb0 f i aggregator.pb.obj
 0001:00016ef0       ?ByteSize@ConfigResponse@aggregator@@UBEHXZ 00417ef0 f   aggregator.pb.obj
 0001:00016fa0       ?CheckTypeAndMergeFrom@ConfigResponse@aggregator@@UAEXABVMessageLite@protobuf@google@@@Z 00417fa0 f   aggregator.pb.obj
 0001:00016fe0       ?MergeFrom@ConfigResponse@aggregator@@QAEXABV12@@Z 00417fe0 f   aggregator.pb.obj
 0001:000170a0       ?CopyFrom@ConfigResponse@aggregator@@QAEXABV12@@Z 004180a0 f   aggregator.pb.obj
 0001:00017100       ?IsInitialized@ConfigResponse@aggregator@@UBE_NXZ 00418100 f   aggregator.pb.obj
 0001:000171b0       ?Swap@ConfigResponse@aggregator@@QAEXPAV12@@Z 004181b0 f   aggregator.pb.obj
 0001:00017230       ?GetTypeName@ConfigResponse@aggregator@@UBE?AV?$basic_string@DU?$char_traits@D@std@@V?$allocator@D@2@@std@@XZ 00418230 f   aggregator.pb.obj
 0001:00017270       ??0LogonRequest@aggregator@@QAE@XZ 00418270 f   aggregator.pb.obj
 0001:000172c0       ?GetCachedSize@LogonRequest@aggregator@@UBEHXZ 004182c0 f i aggregator.pb.obj
 0001:000172e0       ??_GLogonRequest@aggregator@@UAEPAXI@Z 004182e0 f i aggregator.pb.obj
 0001:000172e0       ??_ELogonRequest@aggregator@@UAEPAXI@Z 004182e0 f i aggregator.pb.obj
 0001:00017330       ?InitAsDefaultInstance@LogonRequest@aggregator@@AAEXXZ 00418330 f   aggregator.pb.obj
 0001:00017350       ??0LogonRequest@aggregator@@QAE@ABV01@@Z 00418350 f   aggregator.pb.obj
 0001:000173b0       ?SharedCtor@LogonRequest@aggregator@@AAEXXZ 004183b0 f   aggregator.pb.obj
 0001:00017420       ??1LogonRequest@aggregator@@UAE@XZ 00418420 f   aggregator.pb.obj
 0001:00017470       ?SharedDtor@LogonRequest@aggregator@@AAEXXZ 00418470 f   aggregator.pb.obj
 0001:00017540       ?SetCachedSize@LogonRequest@aggregator@@ABEXH@Z 00418540 f   aggregator.pb.obj
 0001:00017570       ?default_instance@LogonRequest@aggregator@@SAABV12@XZ 00418570 f   aggregator.pb.obj
 0001:00017590       ?New@LogonRequest@aggregator@@UBEPAV12@XZ 00418590 f   aggregator.pb.obj
 0001:00017600       ?Clear@LogonRequest@aggregator@@UAEXXZ 00418600 f   aggregator.pb.obj
 0001:000176c0       ?has_name@LogonRequest@aggregator@@QBE_NXZ 004186c0 f i aggregator.pb.obj
 0001:000176f0       ?has_info@LogonRequest@aggregator@@QBE_NXZ 004186f0 f i aggregator.pb.obj
 0001:00017720       ?MergePartialFromCodedStream@LogonRequest@aggregator@@UAE_NPAVCodedInputStream@io@protobuf@google@@@Z 00418720 f   aggregator.pb.obj
 0001:00017930       ?set_has_ver@LogonRequest@aggregator@@AAEXXZ 00418930 f i aggregator.pb.obj
 0001:00017960       ?mutable_name@LogonRequest@aggregator@@QAEPAV?$basic_string@DU?$char_traits@D@std@@V?$allocator@D@2@@std@@XZ 00418960 f i aggregator.pb.obj
 0001:00017a00       ?set_has_name@LogonRequest@aggregator@@AAEXXZ 00418a00 f i aggregator.pb.obj
 0001:00017a30       ?mutable_info@LogonRequest@aggregator@@QAEPAV?$basic_string@DU?$char_traits@D@std@@V?$allocator@D@2@@std@@XZ 00418a30 f i aggregator.pb.obj
 0001:00017ad0       ?set_has_info@LogonRequest@aggregator@@AAEXXZ 00418ad0 f i aggregator.pb.obj
 0001:00017b00       ?SerializeWithCachedSizes@LogonRequest@aggregator@@UBEXPAVCodedOutputStream@io@protobuf@google@@@Z 00418b00 f   aggregator.pb.obj
 0001:00017bc0       ?has_ver@LogonRequest@aggregator@@QBE_NXZ 00418bc0 f i aggregator.pb.obj
 0001:00017bf0       ?ver@LogonRequest@aggregator@@QBEIXZ 00418bf0 f i aggregator.pb.obj
 0001:00017c10       ?name@LogonRequest@aggregator@@QBEABV?$basic_string@DU?$char_traits@D@std@@V?$allocator@D@2@@std@@XZ 00418c10 f i aggregator.pb.obj
 0001:00017c30       ?info@LogonRequest@aggregator@@QBEABV?$basic_string@DU?$char_traits@D@std@@V?$allocator@D@2@@std@@XZ 00418c30 f i aggregator.pb.obj
 0001:00017c50       ?ByteSize@LogonRequest@aggregator@@UBEHXZ 00418c50 f   aggregator.pb.obj
 0001:00017d50       ?CheckTypeAndMergeFrom@LogonRequest@aggregator@@UAEXABVMessageLite@protobuf@google@@@Z 00418d50 f   aggregator.pb.obj
 0001:00017d90       ?MergeFrom@LogonRequest@aggregator@@QAEXABV12@@Z 00418d90 f   aggregator.pb.obj
 0001:00017ec0       ?set_ver@LogonRequest@aggregator@@QAEXI@Z 00418ec0 f i aggregator.pb.obj
 0001:00017f00       ?set_name@LogonRequest@aggregator@@QAEXABV?$basic_string@DU?$char_traits@D@std@@V?$allocator@D@2@@std@@@Z 00418f00 f i aggregator.pb.obj
 0001:00017fb0       ?set_info@LogonRequest@aggregator@@QAEXABV?$basic_string@DU?$char_traits@D@std@@V?$allocator@D@2@@std@@@Z 00418fb0 f i aggregator.pb.obj
 0001:00018060       ?CopyFrom@LogonRequest@aggregator@@QAEXABV12@@Z 00419060 f   aggregator.pb.obj
 0001:000180c0       ?IsInitialized@LogonRequest@aggregator@@UBE_NXZ 004190c0 f   aggregator.pb.obj
 0001:000180f0       ?Swap@LogonRequest@aggregator@@QAEXPAV12@@Z 004190f0 f   aggregator.pb.obj
 0001:000181b0       ?GetTypeName@LogonRequest@aggregator@@UBE?AV?$basic_string@DU?$char_traits@D@std@@V?$allocator@D@2@@std@@XZ 004191b0 f   aggregator.pb.obj
 0001:000181f0       ??0LogonResponse@aggregator@@QAE@XZ 004191f0 f   aggregator.pb.obj
 0001:00018240       ?GetCachedSize@LogonResponse@aggregator@@UBEHXZ 00419240 f i aggregator.pb.obj
 0001:00018260       ??_ELogonResponse@aggregator@@UAEPAXI@Z 00419260 f i aggregator.pb.obj
 0001:00018260       ??_GLogonResponse@aggregator@@UAEPAXI@Z 00419260 f i aggregator.pb.obj
 0001:000182b0       ?InitAsDefaultInstance@LogonResponse@aggregator@@AAEXXZ 004192b0 f   aggregator.pb.obj
 0001:000182d0       ??0LogonResponse@aggregator@@QAE@ABV01@@Z 004192d0 f   aggregator.pb.obj
 0001:00018330       ?SharedCtor@LogonResponse@aggregator@@AAEXXZ 00419330 f   aggregator.pb.obj
 0001:000183a0       ??1LogonResponse@aggregator@@UAE@XZ 004193a0 f   aggregator.pb.obj
 0001:000183f0       ?SharedDtor@LogonResponse@aggregator@@AAEXXZ 004193f0 f   aggregator.pb.obj
 0001:00018470       ?SetCachedSize@LogonResponse@aggregator@@ABEXH@Z 00419470 f   aggregator.pb.obj
 0001:000184a0       ?default_instance@LogonResponse@aggregator@@SAABV12@XZ 004194a0 f   aggregator.pb.obj
 0001:000184c0       ?New@LogonResponse@aggregator@@UBEPAV12@XZ 004194c0 f   aggregator.pb.obj
 0001:00018530       ?Clear@LogonResponse@aggregator@@UAEXXZ 00419530 f   aggregator.pb.obj
 0001:000185d0       ?has_info@LogonResponse@aggregator@@QBE_NXZ 004195d0 f i aggregator.pb.obj
 0001:00018600       ?MergePartialFromCodedStream@LogonResponse@aggregator@@UAE_NPAVCodedInputStream@io@protobuf@google@@@Z 00419600 f   aggregator.pb.obj
 0001:00018790       ?set_has_session_id@LogonResponse@aggregator@@AAEXXZ 00419790 f i aggregator.pb.obj
 0001:000187c0       ?mutable_info@LogonResponse@aggregator@@QAEPAV?$basic_string@DU?$char_traits@D@std@@V?$allocator@D@2@@std@@XZ 004197c0 f i aggregator.pb.obj
 0001:00018860       ?set_has_info@LogonResponse@aggregator@@AAEXXZ 00419860 f i aggregator.pb.obj
 0001:00018890       ?SerializeWithCachedSizes@LogonResponse@aggregator@@UBEXPAVCodedOutputStream@io@protobuf@google@@@Z 00419890 f   aggregator.pb.obj
 0001:00018920       ?has_session_id@LogonResponse@aggregator@@QBE_NXZ 00419920 f i aggregator.pb.obj
 0001:00018950       ?session_id@LogonResponse@aggregator@@QBE_KXZ 00419950 f i aggregator.pb.obj
 0001:00018980       ?info@LogonResponse@aggregator@@QBEABV?$basic_string@DU?$char_traits@D@std@@V?$allocator@D@2@@std@@XZ 00419980 f i aggregator.pb.obj
 0001:000189a0       ?ByteSize@LogonResponse@aggregator@@UBEHXZ 004199a0 f   aggregator.pb.obj
 0001:00018a70       ?CheckTypeAndMergeFrom@LogonResponse@aggregator@@UAEXABVMessageLite@protobuf@google@@@Z 00419a70 f   aggregator.pb.obj
 0001:00018ab0       ?MergeFrom@LogonResponse@aggregator@@QAEXABV12@@Z 00419ab0 f   aggregator.pb.obj
 0001:00018bc0       ?set_session_id@LogonResponse@aggregator@@QAEX_K@Z 00419bc0 f i aggregator.pb.obj
 0001:00018c10       ?set_info@LogonResponse@aggregator@@QAEXABV?$basic_string@DU?$char_traits@D@std@@V?$allocator@D@2@@std@@@Z 00419c10 f i aggregator.pb.obj
 0001:00018cc0       ?CopyFrom@LogonResponse@aggregator@@QAEXABV12@@Z 00419cc0 f   aggregator.pb.obj
 0001:00018d20       ?IsInitialized@LogonResponse@aggregator@@UBE_NXZ 00419d20 f   aggregator.pb.obj
 0001:00018d50       ?Swap@LogonResponse@aggregator@@QAEXPAV12@@Z 00419d50 f   aggregator.pb.obj
 0001:00018df0       ?GetTypeName@LogonResponse@aggregator@@UBE?AV?$basic_string@DU?$char_traits@D@std@@V?$allocator@D@2@@std@@XZ 00419df0 f   aggregator.pb.obj
 0001:00018e30       ??0LogoutRequest@aggregator@@QAE@XZ 00419e30 f   aggregator.pb.obj
 0001:00018e80       ?GetCachedSize@LogoutRequest@aggregator@@UBEHXZ 00419e80 f i aggregator.pb.obj
 0001:00018ea0       ??_ELogoutRequest@aggregator@@UAEPAXI@Z 00419ea0 f i aggregator.pb.obj
 0001:00018ea0       ??_GLogoutRequest@aggregator@@UAEPAXI@Z 00419ea0 f i aggregator.pb.obj
 0001:00018ef0       ?InitAsDefaultInstance@LogoutRequest@aggregator@@AAEXXZ 00419ef0 f   aggregator.pb.obj
 0001:00018f10       ??0LogoutRequest@aggregator@@QAE@ABV01@@Z 00419f10 f   aggregator.pb.obj
 0001:00018f70       ?SharedCtor@LogoutRequest@aggregator@@AAEXXZ 00419f70 f   aggregator.pb.obj
 0001:00018fd0       ??1LogoutRequest@aggregator@@UAE@XZ 00419fd0 f   aggregator.pb.obj
 0001:00019020       ?SharedDtor@LogoutRequest@aggregator@@AAEXXZ 0041a020 f   aggregator.pb.obj
 0001:000190a0       ?SetCachedSize@LogoutRequest@aggregator@@ABEXH@Z 0041a0a0 f   aggregator.pb.obj
 0001:000190d0       ?default_instance@LogoutRequest@aggregator@@SAABV12@XZ 0041a0d0 f   aggregator.pb.obj
 0001:000190f0       ?New@LogoutRequest@aggregator@@UBEPAV12@XZ 0041a0f0 f   aggregator.pb.obj
 0001:00019160       ?Clear@LogoutRequest@aggregator@@UAEXXZ 0041a160 f   aggregator.pb.obj
 0001:000191e0       ?has_msg@LogoutRequest@aggregator@@QBE_NXZ 0041a1e0 f i aggregator.pb.obj
 0001:00019210       ?MergePartialFromCodedStream@LogoutRequest@aggregator@@UAE_NPAVCodedInputStream@io@protobuf@google@@@Z 0041a210 f   aggregator.pb.obj
 0001:00019330       ?mutable_msg@LogoutRequest@aggregator@@QAEPAV?$basic_string@DU?$char_traits@D@std@@V?$allocator@D@2@@std@@XZ 0041a330 f i aggregator.pb.obj
 0001:000193d0       ?set_has_msg@LogoutRequest@aggregator@@AAEXXZ 0041a3d0 f i aggregator.pb.obj
 0001:00019400       ?SerializeWithCachedSizes@LogoutRequest@aggregator@@UBEXPAVCodedOutputStream@io@protobuf@google@@@Z 0041a400 f   aggregator.pb.obj
 0001:00019460       ?msg@LogoutRequest@aggregator@@QBEABV?$basic_string@DU?$char_traits@D@std@@V?$allocator@D@2@@std@@XZ 0041a460 f i aggregator.pb.obj
 0001:00019480       ?ByteSize@LogoutRequest@aggregator@@UBEHXZ 0041a480 f   aggregator.pb.obj
 0001:00019510       ?CheckTypeAndMergeFrom@LogoutRequest@aggregator@@UAEXABVMessageLite@protobuf@google@@@Z 0041a510 f   aggregator.pb.obj
 0001:00019550       ?MergeFrom@LogoutRequest@aggregator@@QAEXABV12@@Z 0041a550 f   aggregator.pb.obj
 0001:00019630       ?set_msg@LogoutRequest@aggregator@@QAEXABV?$basic_string@DU?$char_traits@D@std@@V?$allocator@D@2@@std@@@Z 0041a630 f i aggregator.pb.obj
 0001:000196e0       ?CopyFrom@LogoutRequest@aggregator@@QAEXABV12@@Z 0041a6e0 f   aggregator.pb.obj
 0001:00019740       ?IsInitialized@LogoutRequest@aggregator@@UBE_NXZ 0041a740 f   aggregator.pb.obj
 0001:00019760       ?Swap@LogoutRequest@aggregator@@QAEXPAV12@@Z 0041a760 f   aggregator.pb.obj
 0001:000197f0       ?GetTypeName@LogoutRequest@aggregator@@UBE?AV?$basic_string@DU?$char_traits@D@std@@V?$allocator@D@2@@std@@XZ 0041a7f0 f   aggregator.pb.obj
 0001:00019830       ??0KeepAliveRequest@aggregator@@QAE@XZ 0041a830 f   aggregator.pb.obj
 0001:00019880       ?GetCachedSize@KeepAliveRequest@aggregator@@UBEHXZ 0041a880 f i aggregator.pb.obj
 0001:000198a0       ??_GKeepAliveRequest@aggregator@@UAEPAXI@Z 0041a8a0 f i aggregator.pb.obj
 0001:000198a0       ??_EKeepAliveRequest@aggregator@@UAEPAXI@Z 0041a8a0 f i aggregator.pb.obj
 0001:000198f0       ?InitAsDefaultInstance@KeepAliveRequest@aggregator@@AAEXXZ 0041a8f0 f   aggregator.pb.obj
 0001:00019910       ??0KeepAliveRequest@aggregator@@QAE@ABV01@@Z 0041a910 f   aggregator.pb.obj
 0001:00019970       ?SharedCtor@KeepAliveRequest@aggregator@@AAEXXZ 0041a970 f   aggregator.pb.obj
 0001:000199e0       ??1KeepAliveRequest@aggregator@@UAE@XZ 0041a9e0 f   aggregator.pb.obj
 0001:00019a30       ?SharedDtor@KeepAliveRequest@aggregator@@AAEXXZ 0041aa30 f   aggregator.pb.obj
 0001:00019ab0       ?SetCachedSize@KeepAliveRequest@aggregator@@ABEXH@Z 0041aab0 f   aggregator.pb.obj
 0001:00019ae0       ?default_instance@KeepAliveRequest@aggregator@@SAABV12@XZ 0041aae0 f   aggregator.pb.obj
 0001:00019b00       ?New@KeepAliveRequest@aggregator@@UBEPAV12@XZ 0041ab00 f   aggregator.pb.obj
 0001:00019b70       ?Clear@KeepAliveRequest@aggregator@@UAEXXZ 0041ab70 f   aggregator.pb.obj
 0001:00019c10       ?has_msg@KeepAliveRequest@aggregator@@QBE_NXZ 0041ac10 f i aggregator.pb.obj
 0001:00019c40       ?MergePartialFromCodedStream@KeepAliveRequest@aggregator@@UAE_NPAVCodedInputStream@io@protobuf@google@@@Z 0041ac40 f   aggregator.pb.obj
 0001:00019dd0       ?set_has_sync_pos@KeepAliveRequest@aggregator@@AAEXXZ 0041add0 f i aggregator.pb.obj
 0001:00019e00       ?mutable_msg@KeepAliveRequest@aggregator@@QAEPAV?$basic_string@DU?$char_traits@D@std@@V?$allocator@D@2@@std@@XZ 0041ae00 f i aggregator.pb.obj
 0001:00019ea0       ?set_has_msg@KeepAliveRequest@aggregator@@AAEXXZ 0041aea0 f i aggregator.pb.obj
 0001:00019ed0       ?SerializeWithCachedSizes@KeepAliveRequest@aggregator@@UBEXPAVCodedOutputStream@io@protobuf@google@@@Z 0041aed0 f   aggregator.pb.obj
 0001:00019f60       ?has_sync_pos@KeepAliveRequest@aggregator@@QBE_NXZ 0041af60 f i aggregator.pb.obj
 0001:00019f90       ?sync_pos@KeepAliveRequest@aggregator@@QBE_KXZ 0041af90 f i aggregator.pb.obj
 0001:00019fc0       ?msg@KeepAliveRequest@aggregator@@QBEABV?$basic_string@DU?$char_traits@D@std@@V?$allocator@D@2@@std@@XZ 0041afc0 f i aggregator.pb.obj
 0001:00019fe0       ?ByteSize@KeepAliveRequest@aggregator@@UBEHXZ 0041afe0 f   aggregator.pb.obj
 0001:0001a0b0       ?CheckTypeAndMergeFrom@KeepAliveRequest@aggregator@@UAEXABVMessageLite@protobuf@google@@@Z 0041b0b0 f   aggregator.pb.obj
 0001:0001a0f0       ?MergeFrom@KeepAliveRequest@aggregator@@QAEXABV12@@Z 0041b0f0 f   aggregator.pb.obj
 0001:0001a200       ?set_sync_pos@KeepAliveRequest@aggregator@@QAEX_K@Z 0041b200 f i aggregator.pb.obj
 0001:0001a250       ?set_msg@KeepAliveRequest@aggregator@@QAEXABV?$basic_string@DU?$char_traits@D@std@@V?$allocator@D@2@@std@@@Z 0041b250 f i aggregator.pb.obj
 0001:0001a300       ?CopyFrom@KeepAliveRequest@aggregator@@QAEXABV12@@Z 0041b300 f   aggregator.pb.obj
 0001:0001a360       ?IsInitialized@KeepAliveRequest@aggregator@@UBE_NXZ 0041b360 f   aggregator.pb.obj
 0001:0001a390       ?Swap@KeepAliveRequest@aggregator@@QAEXPAV12@@Z 0041b390 f   aggregator.pb.obj
 0001:0001a430       ?GetTypeName@KeepAliveRequest@aggregator@@UBE?AV?$basic_string@DU?$char_traits@D@std@@V?$allocator@D@2@@std@@XZ 0041b430 f   aggregator.pb.obj
 0001:0001a470       ??0KeepAliveResponse@aggregator@@QAE@XZ 0041b470 f   aggregator.pb.obj
 0001:0001a4c0       ?GetCachedSize@KeepAliveResponse@aggregator@@UBEHXZ 0041b4c0 f i aggregator.pb.obj
 0001:0001a4e0       ??_EKeepAliveResponse@aggregator@@UAEPAXI@Z 0041b4e0 f i aggregator.pb.obj
 0001:0001a4e0       ??_GKeepAliveResponse@aggregator@@UAEPAXI@Z 0041b4e0 f i aggregator.pb.obj
 0001:0001a530       ?InitAsDefaultInstance@KeepAliveResponse@aggregator@@AAEXXZ 0041b530 f   aggregator.pb.obj
 0001:0001a550       ??0KeepAliveResponse@aggregator@@QAE@ABV01@@Z 0041b550 f   aggregator.pb.obj
 0001:0001a5b0       ?SharedCtor@KeepAliveResponse@aggregator@@AAEXXZ 0041b5b0 f   aggregator.pb.obj
 0001:0001a620       ??1KeepAliveResponse@aggregator@@UAE@XZ 0041b620 f   aggregator.pb.obj
 0001:0001a670       ?SharedDtor@KeepAliveResponse@aggregator@@AAEXXZ 0041b670 f   aggregator.pb.obj
 0001:0001a6f0       ?SetCachedSize@KeepAliveResponse@aggregator@@ABEXH@Z 0041b6f0 f   aggregator.pb.obj
 0001:0001a720       ?default_instance@KeepAliveResponse@aggregator@@SAABV12@XZ 0041b720 f   aggregator.pb.obj
 0001:0001a740       ?New@KeepAliveResponse@aggregator@@UBEPAV12@XZ 0041b740 f   aggregator.pb.obj
 0001:0001a7b0       ?Clear@KeepAliveResponse@aggregator@@UAEXXZ 0041b7b0 f   aggregator.pb.obj
 0001:0001a850       ?has_msg@KeepAliveResponse@aggregator@@QBE_NXZ 0041b850 f i aggregator.pb.obj
 0001:0001a880       ?MergePartialFromCodedStream@KeepAliveResponse@aggregator@@UAE_NPAVCodedInputStream@io@protobuf@google@@@Z 0041b880 f   aggregator.pb.obj
 0001:0001aa10       ?set_has_sync_pos@KeepAliveResponse@aggregator@@AAEXXZ 0041ba10 f i aggregator.pb.obj
 0001:0001aa40       ?mutable_msg@KeepAliveResponse@aggregator@@QAEPAV?$basic_string@DU?$char_traits@D@std@@V?$allocator@D@2@@std@@XZ 0041ba40 f i aggregator.pb.obj
 0001:0001aae0       ?set_has_msg@KeepAliveResponse@aggregator@@AAEXXZ 0041bae0 f i aggregator.pb.obj
 0001:0001ab10       ?SerializeWithCachedSizes@KeepAliveResponse@aggregator@@UBEXPAVCodedOutputStream@io@protobuf@google@@@Z 0041bb10 f   aggregator.pb.obj
 0001:0001aba0       ?has_sync_pos@KeepAliveResponse@aggregator@@QBE_NXZ 0041bba0 f i aggregator.pb.obj
 0001:0001abd0       ?sync_pos@KeepAliveResponse@aggregator@@QBE_KXZ 0041bbd0 f i aggregator.pb.obj
 0001:0001ac00       ?msg@KeepAliveResponse@aggregator@@QBEABV?$basic_string@DU?$char_traits@D@std@@V?$allocator@D@2@@std@@XZ 0041bc00 f i aggregator.pb.obj
 0001:0001ac20       ?ByteSize@KeepAliveResponse@aggregator@@UBEHXZ 0041bc20 f   aggregator.pb.obj
 0001:0001acf0       ?CheckTypeAndMergeFrom@KeepAliveResponse@aggregator@@UAEXABVMessageLite@protobuf@google@@@Z 0041bcf0 f   aggregator.pb.obj
 0001:0001ad30       ?MergeFrom@KeepAliveResponse@aggregator@@QAEXABV12@@Z 0041bd30 f   aggregator.pb.obj
 0001:0001ae40       ?set_sync_pos@KeepAliveResponse@aggregator@@QAEX_K@Z 0041be40 f i aggregator.pb.obj
 0001:0001ae90       ?set_msg@KeepAliveResponse@aggregator@@QAEXABV?$basic_string@DU?$char_traits@D@std@@V?$allocator@D@2@@std@@@Z 0041be90 f i aggregator.pb.obj
 0001:0001af40       ?CopyFrom@KeepAliveResponse@aggregator@@QAEXABV12@@Z 0041bf40 f   aggregator.pb.obj
 0001:0001afa0       ?IsInitialized@KeepAliveResponse@aggregator@@UBE_NXZ 0041bfa0 f   aggregator.pb.obj
 0001:0001afd0       ?Swap@KeepAliveResponse@aggregator@@QAEXPAV12@@Z 0041bfd0 f   aggregator.pb.obj
 0001:0001b070       ?GetTypeName@KeepAliveResponse@aggregator@@UBE?AV?$basic_string@DU?$char_traits@D@std@@V?$allocator@D@2@@std@@XZ 0041c070 f   aggregator.pb.obj
 0001:0001b0b0       ?InstructResponse_EncodeType_IsValid@aggregator@@YA_NH@Z 0041c0b0 f   aggregator.pb.obj
 0001:0001b0f0       ??0InstructResponse@aggregator@@QAE@XZ 0041c0f0 f   aggregator.pb.obj
 0001:0001b140       ?GetCachedSize@InstructResponse@aggregator@@UBEHXZ 0041c140 f i aggregator.pb.obj
 0001:0001b160       ??_EInstructResponse@aggregator@@UAEPAXI@Z 0041c160 f i aggregator.pb.obj
 0001:0001b160       ??_GInstructResponse@aggregator@@UAEPAXI@Z 0041c160 f i aggregator.pb.obj
 0001:0001b1b0       ?InitAsDefaultInstance@InstructResponse@aggregator@@AAEXXZ 0041c1b0 f   aggregator.pb.obj
 0001:0001b1d0       ??0InstructResponse@aggregator@@QAE@ABV01@@Z 0041c1d0 f   aggregator.pb.obj
 0001:0001b230       ?SharedCtor@InstructResponse@aggregator@@AAEXXZ 0041c230 f   aggregator.pb.obj
 0001:0001b290       ??1InstructResponse@aggregator@@UAE@XZ 0041c290 f   aggregator.pb.obj
 0001:0001b2e0       ?SharedDtor@InstructResponse@aggregator@@AAEXXZ 0041c2e0 f   aggregator.pb.obj
 0001:0001b310       ?SetCachedSize@InstructResponse@aggregator@@ABEXH@Z 0041c310 f   aggregator.pb.obj
 0001:0001b340       ?default_instance@InstructResponse@aggregator@@SAABV12@XZ 0041c340 f   aggregator.pb.obj
 0001:0001b360       ?New@InstructResponse@aggregator@@UBEPAV12@XZ 0041c360 f   aggregator.pb.obj
 0001:0001b3d0       ?Clear@InstructResponse@aggregator@@UAEXXZ 0041c3d0 f   aggregator.pb.obj
 0001:0001b430       ?MergePartialFromCodedStream@InstructResponse@aggregator@@UAE_NPAVCodedInputStream@io@protobuf@google@@@Z 0041c430 f   aggregator.pb.obj
 0001:0001b550       ?set_has_instruction@InstructResponse@aggregator@@AAEXXZ 0041c550 f i aggregator.pb.obj
 0001:0001b580       ?SerializeWithCachedSizes@InstructResponse@aggregator@@UBEXPAVCodedOutputStream@io@protobuf@google@@@Z 0041c580 f   aggregator.pb.obj
 0001:0001b5e0       ?has_instruction@InstructResponse@aggregator@@QBE_NXZ 0041c5e0 f i aggregator.pb.obj
 0001:0001b610       ?instruction@InstructResponse@aggregator@@QBEIXZ 0041c610 f i aggregator.pb.obj
 0001:0001b630       ?ByteSize@InstructResponse@aggregator@@UBEHXZ 0041c630 f   aggregator.pb.obj
 0001:0001b6c0       ?CheckTypeAndMergeFrom@InstructResponse@aggregator@@UAEXABVMessageLite@protobuf@google@@@Z 0041c6c0 f   aggregator.pb.obj
 0001:0001b700       ?MergeFrom@InstructResponse@aggregator@@QAEXABV12@@Z 0041c700 f   aggregator.pb.obj
 0001:0001b7e0       ?set_instruction@InstructResponse@aggregator@@QAEXI@Z 0041c7e0 f i aggregator.pb.obj
 0001:0001b820       ?CopyFrom@InstructResponse@aggregator@@QAEXABV12@@Z 0041c820 f   aggregator.pb.obj
 0001:0001b880       ?IsInitialized@InstructResponse@aggregator@@UBE_NXZ 0041c880 f   aggregator.pb.obj
 0001:0001b8b0       ?Swap@InstructResponse@aggregator@@QAEXPAV12@@Z 0041c8b0 f   aggregator.pb.obj
 0001:0001b940       ?GetTypeName@InstructResponse@aggregator@@UBE?AV?$basic_string@DU?$char_traits@D@std@@V?$allocator@D@2@@std@@XZ 0041c940 f   aggregator.pb.obj
 0001:0001b980       ??0TransID@aggregator@@QAE@XZ 0041c980 f   aggregator.pb.obj
 0001:0001b9d0       ?GetCachedSize@TransID@aggregator@@UBEHXZ 0041c9d0 f i aggregator.pb.obj
 0001:0001b9f0       ??_ETransID@aggregator@@UAEPAXI@Z 0041c9f0 f i aggregator.pb.obj
 0001:0001b9f0       ??_GTransID@aggregator@@UAEPAXI@Z 0041c9f0 f i aggregator.pb.obj
 0001:0001ba40       ?InitAsDefaultInstance@TransID@aggregator@@AAEXXZ 0041ca40 f   aggregator.pb.obj
 0001:0001ba60       ??0TransID@aggregator@@QAE@ABV01@@Z 0041ca60 f   aggregator.pb.obj
 0001:0001bac0       ?SharedCtor@TransID@aggregator@@AAEXXZ 0041cac0 f   aggregator.pb.obj
 0001:0001bb20       ??1TransID@aggregator@@UAE@XZ 0041cb20 f   aggregator.pb.obj
 0001:0001bb70       ?SharedDtor@TransID@aggregator@@AAEXXZ 0041cb70 f   aggregator.pb.obj
 0001:0001bba0       ?SetCachedSize@TransID@aggregator@@ABEXH@Z 0041cba0 f   aggregator.pb.obj
 0001:0001bbd0       ?default_instance@TransID@aggregator@@SAABV12@XZ 0041cbd0 f   aggregator.pb.obj
 0001:0001bbf0       ?New@TransID@aggregator@@UBEPAV12@XZ 0041cbf0 f   aggregator.pb.obj
 0001:0001bc60       ?Clear@TransID@aggregator@@UAEXXZ 0041cc60 f   aggregator.pb.obj
 0001:0001bcc0       ?MergePartialFromCodedStream@TransID@aggregator@@UAE_NPAVCodedInputStream@io@protobuf@google@@@Z 0041ccc0 f   aggregator.pb.obj
 0001:0001bde0       ?set_has_id@TransID@aggregator@@AAEXXZ 0041cde0 f i aggregator.pb.obj
 0001:0001be10       ?SerializeWithCachedSizes@TransID@aggregator@@UBEXPAVCodedOutputStream@io@protobuf@google@@@Z 0041ce10 f   aggregator.pb.obj
 0001:0001be70       ?has_id@TransID@aggregator@@QBE_NXZ 0041ce70 f i aggregator.pb.obj
 0001:0001bea0       ?id@TransID@aggregator@@QBEIXZ 0041cea0 f i aggregator.pb.obj
 0001:0001bec0       ?ByteSize@TransID@aggregator@@UBEHXZ 0041cec0 f   aggregator.pb.obj
 0001:0001bf50       ?CheckTypeAndMergeFrom@TransID@aggregator@@UAEXABVMessageLite@protobuf@google@@@Z 0041cf50 f   aggregator.pb.obj
 0001:0001bf90       ?MergeFrom@TransID@aggregator@@QAEXABV12@@Z 0041cf90 f   aggregator.pb.obj
 0001:0001c070       ?set_id@TransID@aggregator@@QAEXI@Z 0041d070 f i aggregator.pb.obj
 0001:0001c0b0       ?CopyFrom@TransID@aggregator@@QAEXABV12@@Z 0041d0b0 f   aggregator.pb.obj
 0001:0001c110       ?IsInitialized@TransID@aggregator@@UBE_NXZ 0041d110 f   aggregator.pb.obj
 0001:0001c140       ?Swap@TransID@aggregator@@QAEXPAV12@@Z 0041d140 f   aggregator.pb.obj
 0001:0001c1d0       ?GetTypeName@TransID@aggregator@@UBE?AV?$basic_string@DU?$char_traits@D@std@@V?$allocator@D@2@@std@@XZ 0041d1d0 f   aggregator.pb.obj
 0001:0001c210       ??0CollectorRequest@aggregator@@QAE@XZ 0041d210 f   aggregator.pb.obj
 0001:0001c260       ?GetCachedSize@CollectorRequest@aggregator@@UBEHXZ 0041d260 f i aggregator.pb.obj
 0001:0001c280       ??_ECollectorRequest@aggregator@@UAEPAXI@Z 0041d280 f i aggregator.pb.obj
 0001:0001c280       ??_GCollectorRequest@aggregator@@UAEPAXI@Z 0041d280 f i aggregator.pb.obj
 0001:0001c2d0       ?InitAsDefaultInstance@CollectorRequest@aggregator@@AAEXXZ 0041d2d0 f   aggregator.pb.obj
 0001:0001c390       ?internal_default_instance@CheckSumRequest@aggregator@@SAPBV12@XZ 0041d390 f i aggregator.pb.obj
 0001:0001c3a0       ?internal_default_instance@LogRequest@aggregator@@SAPBV12@XZ 0041d3a0 f i aggregator.pb.obj
 0001:0001c3b0       ?internal_default_instance@FileRequest@aggregator@@SAPBV12@XZ 0041d3b0 f i aggregator.pb.obj
 0001:0001c3c0       ?internal_default_instance@FileDataRequest@aggregator@@SAPBV12@XZ 0041d3c0 f i aggregator.pb.obj
 0001:0001c3d0       ?internal_default_instance@CollectorFileRequest@aggregator@@SAPBV12@XZ 0041d3d0 f i aggregator.pb.obj
 0001:0001c3e0       ?internal_default_instance@CollectRuleRequest@aggregator@@SAPBV12@XZ 0041d3e0 f i aggregator.pb.obj
 0001:0001c3f0       ?internal_default_instance@ConfigRequest@aggregator@@SAPBV12@XZ 0041d3f0 f i aggregator.pb.obj
 0001:0001c400       ?internal_default_instance@LogonRequest@aggregator@@SAPBV12@XZ 0041d400 f i aggregator.pb.obj
 0001:0001c410       ?internal_default_instance@LogoutRequest@aggregator@@SAPBV12@XZ 0041d410 f i aggregator.pb.obj
 0001:0001c420       ?internal_default_instance@KeepAliveRequest@aggregator@@SAPBV12@XZ 0041d420 f i aggregator.pb.obj
 0001:0001c430       ?internal_default_instance@TransID@aggregator@@SAPBV12@XZ 0041d430 f i aggregator.pb.obj
 0001:0001c440       ??0CollectorRequest@aggregator@@QAE@ABV01@@Z 0041d440 f   aggregator.pb.obj
 0001:0001c4a0       ?SharedCtor@CollectorRequest@aggregator@@AAEXXZ 0041d4a0 f   aggregator.pb.obj
 0001:0001c590       ??1CollectorRequest@aggregator@@UAE@XZ 0041d590 f   aggregator.pb.obj
 0001:0001c5e0       ?SharedDtor@CollectorRequest@aggregator@@AAEXXZ 0041d5e0 f   aggregator.pb.obj
 0001:0001c950       ?SetCachedSize@CollectorRequest@aggregator@@ABEXH@Z 0041d950 f   aggregator.pb.obj
 0001:0001c980       ?default_instance@CollectorRequest@aggregator@@SAABV12@XZ 0041d980 f   aggregator.pb.obj
 0001:0001c9a0       ?New@CollectorRequest@aggregator@@UBEPAV12@XZ 0041d9a0 f   aggregator.pb.obj
 0001:0001ca10       ?Clear@CollectorRequest@aggregator@@UAEXXZ 0041da10 f   aggregator.pb.obj
 0001:0001cc70       ?has_trxid_request@CollectorRequest@aggregator@@QBE_NXZ 0041dc70 f i aggregator.pb.obj
 0001:0001cca0       ?has_logon_request@CollectorRequest@aggregator@@QBE_NXZ 0041dca0 f i aggregator.pb.obj
 0001:0001ccd0       ?has_logout_request@CollectorRequest@aggregator@@QBE_NXZ 0041dcd0 f i aggregator.pb.obj
 0001:0001cd00       ?has_keepalive_request@CollectorRequest@aggregator@@QBE_NXZ 0041dd00 f i aggregator.pb.obj
 0001:0001cd30       ?has_log_request@CollectorRequest@aggregator@@QBE_NXZ 0041dd30 f i aggregator.pb.obj
 0001:0001cd60       ?has_config_request@CollectorRequest@aggregator@@QBE_NXZ 0041dd60 f i aggregator.pb.obj
 0001:0001cd90       ?has_collectorfile_request@CollectorRequest@aggregator@@QBE_NXZ 0041dd90 f i aggregator.pb.obj
 0001:0001cdc0       ?has_collectrule_request@CollectorRequest@aggregator@@QBE_NXZ 0041ddc0 f i aggregator.pb.obj
 0001:0001cdf0       ?has_file_request@CollectorRequest@aggregator@@QBE_NXZ 0041ddf0 f i aggregator.pb.obj
 0001:0001ce20       ?has_filedata_request@CollectorRequest@aggregator@@QBE_NXZ 0041de20 f i aggregator.pb.obj
 0001:0001ce50       ?has_checksum_request@CollectorRequest@aggregator@@QBE_NXZ 0041de50 f i aggregator.pb.obj
 0001:0001ce80       ?MergePartialFromCodedStream@CollectorRequest@aggregator@@UAE_NPAVCodedInputStream@io@protobuf@google@@@Z 0041de80 f   aggregator.pb.obj
 0001:0001d4d0       ?set_has_session_id@CollectorRequest@aggregator@@AAEXXZ 0041e4d0 f i aggregator.pb.obj
 0001:0001d500       ?mutable_trxid_request@CollectorRequest@aggregator@@QAEPAVTransID@2@XZ 0041e500 f i aggregator.pb.obj
 0001:0001d590       ?set_has_trxid_request@CollectorRequest@aggregator@@AAEXXZ 0041e590 f i aggregator.pb.obj
 0001:0001d5c0       ?mutable_logon_request@CollectorRequest@aggregator@@QAEPAVLogonRequest@2@XZ 0041e5c0 f i aggregator.pb.obj
 0001:0001d650       ?set_has_logon_request@CollectorRequest@aggregator@@AAEXXZ 0041e650 f i aggregator.pb.obj
 0001:0001d680       ?mutable_logout_request@CollectorRequest@aggregator@@QAEPAVLogoutRequest@2@XZ 0041e680 f i aggregator.pb.obj
 0001:0001d710       ?set_has_logout_request@CollectorRequest@aggregator@@AAEXXZ 0041e710 f i aggregator.pb.obj
 0001:0001d740       ?mutable_keepalive_request@CollectorRequest@aggregator@@QAEPAVKeepAliveRequest@2@XZ 0041e740 f i aggregator.pb.obj
 0001:0001d7d0       ?set_has_keepalive_request@CollectorRequest@aggregator@@AAEXXZ 0041e7d0 f i aggregator.pb.obj
 0001:0001d800       ?mutable_log_request@CollectorRequest@aggregator@@QAEPAVLogRequest@2@XZ 0041e800 f i aggregator.pb.obj
 0001:0001d890       ?set_has_log_request@CollectorRequest@aggregator@@AAEXXZ 0041e890 f i aggregator.pb.obj
 0001:0001d8c0       ?mutable_config_request@CollectorRequest@aggregator@@QAEPAVConfigRequest@2@XZ 0041e8c0 f i aggregator.pb.obj
 0001:0001d950       ?set_has_config_request@CollectorRequest@aggregator@@AAEXXZ 0041e950 f i aggregator.pb.obj
 0001:0001d980       ?mutable_collectorfile_request@CollectorRequest@aggregator@@QAEPAVCollectorFileRequest@2@XZ 0041e980 f i aggregator.pb.obj
 0001:0001da10       ?set_has_collectorfile_request@CollectorRequest@aggregator@@AAEXXZ 0041ea10 f i aggregator.pb.obj
 0001:0001da40       ?mutable_collectrule_request@CollectorRequest@aggregator@@QAEPAVCollectRuleRequest@2@XZ 0041ea40 f i aggregator.pb.obj
 0001:0001dad0       ?set_has_collectrule_request@CollectorRequest@aggregator@@AAEXXZ 0041ead0 f i aggregator.pb.obj
 0001:0001db00       ?mutable_file_request@CollectorRequest@aggregator@@QAEPAVFileRequest@2@XZ 0041eb00 f i aggregator.pb.obj
 0001:0001db90       ?set_has_file_request@CollectorRequest@aggregator@@AAEXXZ 0041eb90 f i aggregator.pb.obj
 0001:0001dbc0       ?mutable_filedata_request@CollectorRequest@aggregator@@QAEPAVFileDataRequest@2@XZ 0041ebc0 f i aggregator.pb.obj
 0001:0001dc50       ?set_has_filedata_request@CollectorRequest@aggregator@@AAEXXZ 0041ec50 f i aggregator.pb.obj
 0001:0001dc80       ?mutable_checksum_request@CollectorRequest@aggregator@@QAEPAVCheckSumRequest@2@XZ 0041ec80 f i aggregator.pb.obj
 0001:0001dd10       ?set_has_checksum_request@CollectorRequest@aggregator@@AAEXXZ 0041ed10 f i aggregator.pb.obj
 0001:0001dd40       ?SerializeWithCachedSizes@CollectorRequest@aggregator@@UBEXPAVCodedOutputStream@io@protobuf@google@@@Z 0041ed40 f   aggregator.pb.obj
 0001:0001dfa0       ?has_session_id@CollectorRequest@aggregator@@QBE_NXZ 0041efa0 f i aggregator.pb.obj
 0001:0001dfd0       ?session_id@CollectorRequest@aggregator@@QBE_KXZ 0041efd0 f i aggregator.pb.obj
 0001:0001e000       ?trxid_request@CollectorRequest@aggregator@@QBEABVTransID@2@XZ 0041f000 f i aggregator.pb.obj
 0001:0001e070       ?logon_request@CollectorRequest@aggregator@@QBEABVLogonRequest@2@XZ 0041f070 f i aggregator.pb.obj
 0001:0001e0e0       ?logout_request@CollectorRequest@aggregator@@QBEABVLogoutRequest@2@XZ 0041f0e0 f i aggregator.pb.obj
 0001:0001e150       ?keepalive_request@CollectorRequest@aggregator@@QBEABVKeepAliveRequest@2@XZ 0041f150 f i aggregator.pb.obj
 0001:0001e1c0       ?log_request@CollectorRequest@aggregator@@QBEABVLogRequest@2@XZ 0041f1c0 f i aggregator.pb.obj
 0001:0001e230       ?config_request@CollectorRequest@aggregator@@QBEABVConfigRequest@2@XZ 0041f230 f i aggregator.pb.obj
 0001:0001e2a0       ?collectorfile_request@CollectorRequest@aggregator@@QBEABVCollectorFileRequest@2@XZ 0041f2a0 f i aggregator.pb.obj
 0001:0001e310       ?collectrule_request@CollectorRequest@aggregator@@QBEABVCollectRuleRequest@2@XZ 0041f310 f i aggregator.pb.obj
 0001:0001e380       ?file_request@CollectorRequest@aggregator@@QBEABVFileRequest@2@XZ 0041f380 f i aggregator.pb.obj
 0001:0001e3f0       ?filedata_request@CollectorRequest@aggregator@@QBEABVFileDataRequest@2@XZ 0041f3f0 f i aggregator.pb.obj
 0001:0001e460       ?checksum_request@CollectorRequest@aggregator@@QBEABVCheckSumRequest@2@XZ 0041f460 f i aggregator.pb.obj
 0001:0001e4d0       ?ByteSize@CollectorRequest@aggregator@@UBEHXZ 0041f4d0 f   aggregator.pb.obj
 0001:0001e7c0       ?CheckTypeAndMergeFrom@CollectorRequest@aggregator@@UAEXABVMessageLite@protobuf@google@@@Z 0041f7c0 f   aggregator.pb.obj
 0001:0001e800       ?MergeFrom@CollectorRequest@aggregator@@QAEXABV12@@Z 0041f800 f   aggregator.pb.obj
 0001:0001eb20       ?set_session_id@CollectorRequest@aggregator@@QAEX_K@Z 0041fb20 f i aggregator.pb.obj
 0001:0001eb70       ?CopyFrom@CollectorRequest@aggregator@@QAEXABV12@@Z 0041fb70 f   aggregator.pb.obj
 0001:0001ebd0       ?IsInitialized@CollectorRequest@aggregator@@UBE_NXZ 0041fbd0 f   aggregator.pb.obj
 0001:0001ee40       ?Swap@CollectorRequest@aggregator@@QAEXPAV12@@Z 0041fe40 f   aggregator.pb.obj
 0001:0001f000       ?GetTypeName@CollectorRequest@aggregator@@UBE?AV?$basic_string@DU?$char_traits@D@std@@V?$allocator@D@2@@std@@XZ 00420000 f   aggregator.pb.obj
 0001:0001f040       ??0AggregatorResponse@aggregator@@QAE@XZ 00420040 f   aggregator.pb.obj
 0001:0001f090       ?GetCachedSize@AggregatorResponse@aggregator@@UBEHXZ 00420090 f i aggregator.pb.obj
 0001:0001f0b0       ??_EAggregatorResponse@aggregator@@UAEPAXI@Z 004200b0 f i aggregator.pb.obj
 0001:0001f0b0       ??_GAggregatorResponse@aggregator@@UAEPAXI@Z 004200b0 f i aggregator.pb.obj
 0001:0001f100       ?InitAsDefaultInstance@AggregatorResponse@aggregator@@AAEXXZ 00420100 f   aggregator.pb.obj
 0001:0001f1c0       ?internal_default_instance@CheckSumResponse@aggregator@@SAPBV12@XZ 004201c0 f i aggregator.pb.obj
 0001:0001f1d0       ?internal_default_instance@LogResponse@aggregator@@SAPBV12@XZ 004201d0 f i aggregator.pb.obj
 0001:0001f1e0       ?internal_default_instance@FileResponse@aggregator@@SAPBV12@XZ 004201e0 f i aggregator.pb.obj
 0001:0001f1f0       ?internal_default_instance@FileDataResponse@aggregator@@SAPBV12@XZ 004201f0 f i aggregator.pb.obj
 0001:0001f200       ?internal_default_instance@CollectorFileResponse@aggregator@@SAPBV12@XZ 00420200 f i aggregator.pb.obj
 0001:0001f210       ?internal_default_instance@CollectRuleResponse@aggregator@@SAPBV12@XZ 00420210 f i aggregator.pb.obj
 0001:0001f220       ?internal_default_instance@ConfigResponse@aggregator@@SAPBV12@XZ 00420220 f i aggregator.pb.obj
 0001:0001f230       ?internal_default_instance@LogonResponse@aggregator@@SAPBV12@XZ 00420230 f i aggregator.pb.obj
 0001:0001f240       ?internal_default_instance@KeepAliveResponse@aggregator@@SAPBV12@XZ 00420240 f i aggregator.pb.obj
 0001:0001f250       ?internal_default_instance@InstructResponse@aggregator@@SAPBV12@XZ 00420250 f i aggregator.pb.obj
 0001:0001f260       ??0AggregatorResponse@aggregator@@QAE@ABV01@@Z 00420260 f   aggregator.pb.obj
 0001:0001f2c0       ?SharedCtor@AggregatorResponse@aggregator@@AAEXXZ 004202c0 f   aggregator.pb.obj
 0001:0001f3b0       ??1AggregatorResponse@aggregator@@UAE@XZ 004203b0 f   aggregator.pb.obj
 0001:0001f400       ?SharedDtor@AggregatorResponse@aggregator@@AAEXXZ 00420400 f   aggregator.pb.obj
 0001:0001f7c0       ?SetCachedSize@AggregatorResponse@aggregator@@ABEXH@Z 004207c0 f   aggregator.pb.obj
 0001:0001f7f0       ?default_instance@AggregatorResponse@aggregator@@SAABV12@XZ 004207f0 f   aggregator.pb.obj
 0001:0001f810       ?New@AggregatorResponse@aggregator@@UBEPAV12@XZ 00420810 f   aggregator.pb.obj
 0001:0001f880       ?Clear@AggregatorResponse@aggregator@@UAEXXZ 00420880 f   aggregator.pb.obj
 0001:0001fb10       ?has_error_message@AggregatorResponse@aggregator@@QBE_NXZ 00420b10 f i aggregator.pb.obj
 0001:0001fb40       ?has_trxid_response@AggregatorResponse@aggregator@@QBE_NXZ 00420b40 f i aggregator.pb.obj
 0001:0001fb70       ?has_logon_response@AggregatorResponse@aggregator@@QBE_NXZ 00420b70 f i aggregator.pb.obj
 0001:0001fba0       ?has_keepalive_response@AggregatorResponse@aggregator@@QBE_NXZ 00420ba0 f i aggregator.pb.obj
 0001:0001fbd0       ?has_log_response@AggregatorResponse@aggregator@@QBE_NXZ 00420bd0 f i aggregator.pb.obj
 0001:0001fc00       ?has_config_response@AggregatorResponse@aggregator@@QBE_NXZ 00420c00 f i aggregator.pb.obj
 0001:0001fc30       ?has_collectorfile_response@AggregatorResponse@aggregator@@QBE_NXZ 00420c30 f i aggregator.pb.obj
 0001:0001fc60       ?has_collectrule_response@AggregatorResponse@aggregator@@QBE_NXZ 00420c60 f i aggregator.pb.obj
 0001:0001fc90       ?has_file_response@AggregatorResponse@aggregator@@QBE_NXZ 00420c90 f i aggregator.pb.obj
 0001:0001fcc0       ?has_filedata_response@AggregatorResponse@aggregator@@QBE_NXZ 00420cc0 f i aggregator.pb.obj
 0001:0001fcf0       ?has_checksum_response@AggregatorResponse@aggregator@@QBE_NXZ 00420cf0 f i aggregator.pb.obj
 0001:0001fd20       ?has_instruct_response@AggregatorResponse@aggregator@@QBE_NXZ 00420d20 f i aggregator.pb.obj
 0001:0001fd50       ?MergePartialFromCodedStream@AggregatorResponse@aggregator@@UAE_NPAVCodedInputStream@io@protobuf@google@@@Z 00420d50 f   aggregator.pb.obj
 0001:00020420       ?set_has_error_code@AggregatorResponse@aggregator@@AAEXXZ 00421420 f i aggregator.pb.obj
 0001:00020450       ?mutable_error_message@AggregatorResponse@aggregator@@QAEPAV?$basic_string@DU?$char_traits@D@std@@V?$allocator@D@2@@std@@XZ 00421450 f i aggregator.pb.obj
 0001:000204f0       ?set_has_error_message@AggregatorResponse@aggregator@@AAEXXZ 004214f0 f i aggregator.pb.obj
 0001:00020520       ?mutable_trxid_response@AggregatorResponse@aggregator@@QAEPAVTransID@2@XZ 00421520 f i aggregator.pb.obj
 0001:000205b0       ?set_has_trxid_response@AggregatorResponse@aggregator@@AAEXXZ 004215b0 f i aggregator.pb.obj
 0001:000205e0       ?mutable_logon_response@AggregatorResponse@aggregator@@QAEPAVLogonResponse@2@XZ 004215e0 f i aggregator.pb.obj
 0001:00020670       ?set_has_logon_response@AggregatorResponse@aggregator@@AAEXXZ 00421670 f i aggregator.pb.obj
 0001:000206a0       ?mutable_keepalive_response@AggregatorResponse@aggregator@@QAEPAVKeepAliveResponse@2@XZ 004216a0 f i aggregator.pb.obj
 0001:00020730       ?set_has_keepalive_response@AggregatorResponse@aggregator@@AAEXXZ 00421730 f i aggregator.pb.obj
 0001:00020760       ?mutable_log_response@AggregatorResponse@aggregator@@QAEPAVLogResponse@2@XZ 00421760 f i aggregator.pb.obj
 0001:000207f0       ?set_has_log_response@AggregatorResponse@aggregator@@AAEXXZ 004217f0 f i aggregator.pb.obj
 0001:00020820       ?mutable_config_response@AggregatorResponse@aggregator@@QAEPAVConfigResponse@2@XZ 00421820 f i aggregator.pb.obj
 0001:000208b0       ?set_has_config_response@AggregatorResponse@aggregator@@AAEXXZ 004218b0 f i aggregator.pb.obj
 0001:000208e0       ?mutable_collectorfile_response@AggregatorResponse@aggregator@@QAEPAVCollectorFileResponse@2@XZ 004218e0 f i aggregator.pb.obj
 0001:00020970       ?set_has_collectorfile_response@AggregatorResponse@aggregator@@AAEXXZ 00421970 f i aggregator.pb.obj
 0001:000209a0       ?mutable_collectrule_response@AggregatorResponse@aggregator@@QAEPAVCollectRuleResponse@2@XZ 004219a0 f i aggregator.pb.obj
 0001:00020a30       ?set_has_collectrule_response@AggregatorResponse@aggregator@@AAEXXZ 00421a30 f i aggregator.pb.obj
 0001:00020a60       ?mutable_file_response@AggregatorResponse@aggregator@@QAEPAVFileResponse@2@XZ 00421a60 f i aggregator.pb.obj
 0001:00020af0       ?set_has_file_response@AggregatorResponse@aggregator@@AAEXXZ 00421af0 f i aggregator.pb.obj
 0001:00020b20       ?mutable_filedata_response@AggregatorResponse@aggregator@@QAEPAVFileDataResponse@2@XZ 00421b20 f i aggregator.pb.obj
 0001:00020bb0       ?set_has_filedata_response@AggregatorResponse@aggregator@@AAEXXZ 00421bb0 f i aggregator.pb.obj
 0001:00020be0       ?mutable_checksum_response@AggregatorResponse@aggregator@@QAEPAVCheckSumResponse@2@XZ 00421be0 f i aggregator.pb.obj
 0001:00020c70       ?set_has_checksum_response@AggregatorResponse@aggregator@@AAEXXZ 00421c70 f i aggregator.pb.obj
 0001:00020ca0       ?mutable_instruct_response@AggregatorResponse@aggregator@@QAEPAVInstructResponse@2@XZ 00421ca0 f i aggregator.pb.obj
 0001:00020d30       ?set_has_instruct_response@AggregatorResponse@aggregator@@AAEXXZ 00421d30 f i aggregator.pb.obj
 0001:00020d60       ?SerializeWithCachedSizes@AggregatorResponse@aggregator@@UBEXPAVCodedOutputStream@io@protobuf@google@@@Z 00421d60 f   aggregator.pb.obj
 0001:00020ff0       ?has_error_code@AggregatorResponse@aggregator@@QBE_NXZ 00421ff0 f i aggregator.pb.obj
 0001:00021020       ?error_code@AggregatorResponse@aggregator@@QBEIXZ 00422020 f i aggregator.pb.obj
 0001:00021040       ?error_message@AggregatorResponse@aggregator@@QBEABV?$basic_string@DU?$char_traits@D@std@@V?$allocator@D@2@@std@@XZ 00422040 f i aggregator.pb.obj
 0001:00021060       ?trxid_response@AggregatorResponse@aggregator@@QBEABVTransID@2@XZ 00422060 f i aggregator.pb.obj
 0001:000210d0       ?logon_response@AggregatorResponse@aggregator@@QBEABVLogonResponse@2@XZ 004220d0 f i aggregator.pb.obj
 0001:00021140       ?keepalive_response@AggregatorResponse@aggregator@@QBEABVKeepAliveResponse@2@XZ 00422140 f i aggregator.pb.obj
 0001:000211b0       ?log_response@AggregatorResponse@aggregator@@QBEABVLogResponse@2@XZ 004221b0 f i aggregator.pb.obj
 0001:00021220       ?config_response@AggregatorResponse@aggregator@@QBEABVConfigResponse@2@XZ 00422220 f i aggregator.pb.obj
 0001:00021290       ?collectorfile_response@AggregatorResponse@aggregator@@QBEABVCollectorFileResponse@2@XZ 00422290 f i aggregator.pb.obj
 0001:00021300       ?collectrule_response@AggregatorResponse@aggregator@@QBEABVCollectRuleResponse@2@XZ 00422300 f i aggregator.pb.obj
 0001:00021370       ?file_response@AggregatorResponse@aggregator@@QBEABVFileResponse@2@XZ 00422370 f i aggregator.pb.obj
 0001:000213e0       ?filedata_response@AggregatorResponse@aggregator@@QBEABVFileDataResponse@2@XZ 004223e0 f i aggregator.pb.obj
 0001:00021450       ?checksum_response@AggregatorResponse@aggregator@@QBEABVCheckSumResponse@2@XZ 00422450 f i aggregator.pb.obj
 0001:000214c0       ?instruct_response@AggregatorResponse@aggregator@@QBEABVInstructResponse@2@XZ 004224c0 f i aggregator.pb.obj
 0001:00021530       ?ByteSize@AggregatorResponse@aggregator@@UBEHXZ 00422530 f   aggregator.pb.obj
 0001:00021850       ?CheckTypeAndMergeFrom@AggregatorResponse@aggregator@@UAEXABVMessageLite@protobuf@google@@@Z 00422850 f   aggregator.pb.obj
 0001:00021890       ?MergeFrom@AggregatorResponse@aggregator@@QAEXABV12@@Z 00422890 f   aggregator.pb.obj
 0001:00021bd0       ?set_error_code@AggregatorResponse@aggregator@@QAEXI@Z 00422bd0 f i aggregator.pb.obj
 0001:00021c10       ?set_error_message@AggregatorResponse@aggregator@@QAEXABV?$basic_string@DU?$char_traits@D@std@@V?$allocator@D@2@@std@@@Z 00422c10 f i aggregator.pb.obj
 0001:00021cc0       ?CopyFrom@AggregatorResponse@aggregator@@QAEXABV12@@Z 00422cc0 f   aggregator.pb.obj
 0001:00021d20       ?IsInitialized@AggregatorResponse@aggregator@@UBE_NXZ 00422d20 f   aggregator.pb.obj
 0001:00022070       ?Swap@AggregatorResponse@aggregator@@QAEXPAV12@@Z 00423070 f   aggregator.pb.obj
 0001:00022250       ?GetTypeName@AggregatorResponse@aggregator@@UBE?AV?$basic_string@DU?$char_traits@D@std@@V?$allocator@D@2@@std@@XZ 00423250 f   aggregator.pb.obj
 0001:00022290       ??0?$basic_string@DU?$char_traits@D@std@@V?$allocator@D@2@@std@@QAE@XZ 00423290 f i aggregator.pb.obj
 0001:000222f0       ??0?$basic_string@DU?$char_traits@D@std@@V?$allocator@D@2@@std@@QAE@PBD@Z 004232f0 f i aggregator.pb.obj
 0001:00022360       ??1?$basic_string@DU?$char_traits@D@std@@V?$allocator@D@2@@std@@QAE@XZ 00423360 f i aggregator.pb.obj
 0001:000223a0       ?assign@?$basic_string@DU?$char_traits@D@std@@V?$allocator@D@2@@std@@QAEAAV12@ABV12@@Z 004233a0 f i aggregator.pb.obj
 0001:000223e0       ?assign@?$basic_string@DU?$char_traits@D@std@@V?$allocator@D@2@@std@@QAEAAV12@PBD@Z 004233e0 f i aggregator.pb.obj
 0001:00022430       ?length@?$char_traits@D@std@@SAIPBD@Z 00423430 f i aggregator.pb.obj
 0001:00022450       ?assign@?$basic_string@DU?$char_traits@D@std@@V?$allocator@D@2@@std@@QAEAAV12@PBDI@Z 00423450 f i aggregator.pb.obj
 0001:00022510       ?clear@?$basic_string@DU?$char_traits@D@std@@V?$allocator@D@2@@std@@QAEXXZ 00423510 f i aggregator.pb.obj
 0001:00022580       ?size@?$basic_string@DU?$char_traits@D@std@@V?$allocator@D@2@@std@@QBEIXZ 00423580 f i aggregator.pb.obj
 0001:000225a0       ?allocate@?$_DebugHeapAllocator@D@std@@QAAPADIPBX@Z 004235a0 f i aggregator.pb.obj
 0001:00022640       ?_Raise@exception@stdext@@QBEXXZ 00423640 f i aggregator.pb.obj
 0001:000226c0       ??0bad_alloc@stdext@@QAE@PBD@Z 004236c0 f i aggregator.pb.obj
 0001:00022710       ??0exception@stdext@@QAE@PBDH@Z 00423710 f i aggregator.pb.obj
 0001:00022750       ?what@exception@stdext@@UBEPBDXZ 00423750 f i aggregator.pb.obj
 0001:00022770       ?_Doraise@exception@stdext@@MBEXXZ 00423770 f i aggregator.pb.obj
 0001:00022790       ??_Gexception@stdext@@UAEPAXI@Z 00423790 f i aggregator.pb.obj
 0001:00022790       ??_Eexception@stdext@@UAEPAXI@Z 00423790 f i aggregator.pb.obj
 0001:000227e0       ??1exception@stdext@@UAE@XZ 004237e0 f i aggregator.pb.obj
 0001:00022810       ??1bad_alloc@stdext@@UAE@XZ 00423810 f i aggregator.pb.obj
 0001:00022850       ?_Doraise@bad_alloc@stdext@@MBEXXZ 00423850 f i aggregator.pb.obj
 0001:00022890       ??_Ebad_alloc@stdext@@UAEPAXI@Z 00423890 f i aggregator.pb.obj
 0001:00022890       ??_Gbad_alloc@stdext@@UAEPAXI@Z 00423890 f i aggregator.pb.obj
 0001:000228e0       ?allocate@?$_DebugHeapAllocator@D@std@@QAEPADI@Z 004238e0 f i aggregator.pb.obj
 0001:00022980       ?deallocate@?$_DebugHeapAllocator@D@std@@QAEXPADI@Z 00423980 f i aggregator.pb.obj
 0001:000229c0       ??1?$_String_val@DV?$allocator@D@std@@@std@@QAE@XZ 004239c0 f i aggregator.pb.obj
 0001:000229f0       ??1?$_String_iterator@DU?$char_traits@D@std@@V?$allocator@D@2@@std@@QAE@XZ 004239f0 f i aggregator.pb.obj
 0001:00022a20       ??0?$_DebugHeapAllocator@D@std@@QAE@XZ 00423a20 f i aggregator.pb.obj
 0001:00022a50       ??1_String_base@std@@QAE@XZ 00423a50 f i aggregator.pb.obj
 0001:00022a80       ??1_Container_base@std@@QAE@XZ 00423a80 f i aggregator.pb.obj
 0001:00022ab0       ?_Orphan_all@_Container_base@std@@QBEXXZ 00423ab0 f i aggregator.pb.obj
 0001:00022b80       ??1?$_String_const_iterator@DU?$char_traits@D@std@@V?$allocator@D@2@@std@@QAE@XZ 00423b80 f i aggregator.pb.obj
 0001:00022bb0       ??1?$_Ranit_base@DHPBDABDV_Iterator_base@std@@@std@@QAE@XZ 00423bb0 f i aggregator.pb.obj
 0001:00022be0       ??1_Iterator_base@std@@QAE@XZ 00423be0 f i aggregator.pb.obj
 0001:00022c70       ?_Orphan_me@_Iterator_base@std@@QAEXXZ 00423c70 f i aggregator.pb.obj
 0001:00022d30       ?assign@?$basic_string@DU?$char_traits@D@std@@V?$allocator@D@2@@std@@QAEAAV12@ABV12@II@Z 00423d30 f i aggregator.pb.obj
 0001:00022e40       ?erase@?$basic_string@DU?$char_traits@D@std@@V?$allocator@D@2@@std@@QAE?AV?$_String_iterator@DU?$char_traits@D@std@@V?$allocator@D@2@@2@V32@0@Z 00423e40 f i aggregator.pb.obj
 0001:00022f40       ?begin@?$basic_string@DU?$char_traits@D@std@@V?$allocator@D@2@@std@@QAE?AV?$_String_iterator@DU?$char_traits@D@std@@V?$allocator@D@2@@2@XZ 00423f40 f i aggregator.pb.obj
 0001:00022f90       ?end@?$basic_string@DU?$char_traits@D@std@@V?$allocator@D@2@@std@@QAE?AV?$_String_iterator@DU?$char_traits@D@std@@V?$allocator@D@2@@2@XZ 00423f90 f i aggregator.pb.obj
 0001:00022fe0       ?_Eos@?$basic_string@DU?$char_traits@D@std@@V?$allocator@D@2@@std@@IAEXI@Z 00423fe0 f i aggregator.pb.obj
 0001:00023040       ?assign@?$char_traits@D@std@@SAXAADABD@Z 00424040 f i aggregator.pb.obj
 0001:00023060       ?_Grow@?$basic_string@DU?$char_traits@D@std@@V?$allocator@D@2@@std@@IAE_NI_N@Z 00424060 f i aggregator.pb.obj
 0001:00023140       ?_Inside@?$basic_string@DU?$char_traits@D@std@@V?$allocator@D@2@@std@@IAE_NPBD@Z 00424140 f i aggregator.pb.obj
 0001:000231c0       ?_Tidy@?$basic_string@DU?$char_traits@D@std@@V?$allocator@D@2@@std@@IAEX_NI@Z 004241c0 f i aggregator.pb.obj
 0001:00023280       ?_Myptr@?$basic_string@DU?$char_traits@D@std@@V?$allocator@D@2@@std@@IAEPADXZ 00424280 f i aggregator.pb.obj
 0001:000232d0       ?_Myptr@?$basic_string@DU?$char_traits@D@std@@V?$allocator@D@2@@std@@IBEPBDXZ 004242d0 f i aggregator.pb.obj
 0001:00023320       ??0?$_String_val@DV?$allocator@D@std@@@std@@IAE@V?$allocator@D@1@@Z 00424320 f i aggregator.pb.obj
 0001:00023370       ??0?$allocator@D@std@@QAE@XZ 00424370 f i aggregator.pb.obj
 0001:00023390       ??0?$_String_const_iterator@DU?$char_traits@D@std@@V?$allocator@D@2@@std@@QAE@ABV01@@Z 00424390 f i aggregator.pb.obj
 0001:000233e0       ??0_String_base@std@@QAE@XZ 004243e0 f i aggregator.pb.obj
 0001:00023410       ??0_Container_base@std@@QAE@XZ 00424410 f i aggregator.pb.obj
 0001:00023440       ??0?$_DebugHeapAllocator@D@std@@QAE@ABV01@@Z 00424440 f i aggregator.pb.obj
 0001:00023480       ??0?$_Ranit_base@DHPBDABDV_Iterator_base@std@@@std@@QAE@ABU01@@Z 00424480 f i aggregator.pb.obj
 0001:000234c0       ??0_Iterator_base@std@@QAE@ABV01@@Z 004244c0 f i aggregator.pb.obj
 0001:00023510       ??4_Iterator_base@std@@QAEAAV01@ABV01@@Z 00424510 f i aggregator.pb.obj
 0001:000235d0       ?_Adopt@_Iterator_base@std@@QAEXPBV_Container_base@2@@Z 004245d0 f i aggregator.pb.obj
 0001:000236a0       ?erase@?$basic_string@DU?$char_traits@D@std@@V?$allocator@D@2@@std@@QAEAAV12@II@Z 004246a0 f i aggregator.pb.obj
 0001:00023780       ?max_size@?$basic_string@DU?$char_traits@D@std@@V?$allocator@D@2@@std@@QBEIXZ 00424780 f i aggregator.pb.obj
 0001:000237f0       ?_Copy@?$basic_string@DU?$char_traits@D@std@@V?$allocator@D@2@@std@@IAEXII@Z 004247f0 f i aggregator.pb.obj
 0001:00023970       ?_Pdif@?$basic_string@DU?$char_traits@D@std@@V?$allocator@D@2@@std@@KAIV?$_String_const_iterator@DU?$char_traits@D@std@@V?$allocator@D@2@@2@0@Z 00424970 f i aggregator.pb.obj
 0001:000239e0       ??0?$allocator@D@std@@QAE@ABV01@@Z 004249e0 f i aggregator.pb.obj
 0001:00023a00       ?deallocate@?$allocator@D@std@@QAEXPADI@Z 00424a00 f i aggregator.pb.obj
 0001:00023a40       ??0?$_String_iterator@DU?$char_traits@D@std@@V?$allocator@D@2@@std@@QAE@PADPBV_Container_base@1@@Z 00424a40 f i aggregator.pb.obj
 0001:00023a80       ?allocate@?$allocator@D@std@@QAEPADI@Z 00424a80 f i aggregator.pb.obj
 0001:00023ac0       ?max_size@?$allocator@D@std@@QBEIXZ 00424ac0 f i aggregator.pb.obj
 0001:00023b20       ??0?$_String_const_iterator@DU?$char_traits@D@std@@V?$allocator@D@2@@std@@QAE@PBDPBV_Container_base@1@@Z 00424b20 f i aggregator.pb.obj
 0001:00023bf0       ??G?$_String_const_iterator@DU?$char_traits@D@std@@V?$allocator@D@2@@std@@QBEHABV01@@Z 00424bf0 f i aggregator.pb.obj
 0001:00023c40       ??0?$_Ranit_base@DHPBDABDV_Iterator_base@std@@@std@@QAE@XZ 00424c40 f i aggregator.pb.obj
 0001:00023c70       ??0_Iterator_base@std@@QAE@XZ 00424c70 f i aggregator.pb.obj
 0001:00023cb0       ?_Compat@?$_String_const_iterator@DU?$char_traits@D@std@@V?$allocator@D@2@@std@@QBEXABV12@@Z 00424cb0 f i aggregator.pb.obj
 0001:00023d60       ??$_Debug_pointer@D@std@@YAXPBDPB_WI@Z 00424d60 f i aggregator.pb.obj
 0001:00023d90       ??0?$RepeatedPtrField@VFileRequest_File@aggregator@@@protobuf@google@@QAE@XZ 00424d90 f i aggregator.pb.obj
 0001:00023dc0       ??0RepeatedPtrFieldBase@internal@protobuf@google@@IAE@XZ 00424dc0 f i aggregator.pb.obj
 0001:00023e10       ??1?$RepeatedPtrField@VFileRequest_File@aggregator@@@protobuf@google@@QAE@XZ 00424e10 f i aggregator.pb.obj
 0001:00023e40       ?size@?$RepeatedPtrField@VFileRequest_File@aggregator@@@protobuf@google@@QBEHXZ 00424e40 f i aggregator.pb.obj
 0001:00023e70       ?size@RepeatedPtrFieldBase@internal@protobuf@google@@IBEHXZ 00424e70 f i aggregator.pb.obj
 0001:00023e90       ?Get@?$RepeatedPtrField@VFileRequest_File@aggregator@@@protobuf@google@@QBEABVFileRequest_File@aggregator@@H@Z 00424e90 f i aggregator.pb.obj
 0001:00023ed0       ?Add@?$RepeatedPtrField@VFileRequest_File@aggregator@@@protobuf@google@@QAEPAVFileRequest_File@aggregator@@XZ 00424ed0 f i aggregator.pb.obj
 0001:00023f00       ?Clear@?$RepeatedPtrField@VFileRequest_File@aggregator@@@protobuf@google@@QAEXXZ 00424f00 f i aggregator.pb.obj
 0001:00023f30       ?MergeFrom@?$RepeatedPtrField@VFileRequest_File@aggregator@@@protobuf@google@@QAEXABV123@@Z 00424f30 f i aggregator.pb.obj
 0001:00023f70       ?Swap@?$RepeatedPtrField@VFileRequest_File@aggregator@@@protobuf@google@@QAEXPAV123@@Z 00424f70 f i aggregator.pb.obj
 0001:00023fb0       ??0?$RepeatedPtrField@VFileResponse_File@aggregator@@@protobuf@google@@QAE@XZ 00424fb0 f i aggregator.pb.obj
 0001:00023fe0       ??1?$RepeatedPtrField@VFileResponse_File@aggregator@@@protobuf@google@@QAE@XZ 00424fe0 f i aggregator.pb.obj
 0001:00024010       ?size@?$RepeatedPtrField@VFileResponse_File@aggregator@@@protobuf@google@@QBEHXZ 00425010 f i aggregator.pb.obj
 0001:00024040       ?Get@?$RepeatedPtrField@VFileResponse_File@aggregator@@@protobuf@google@@QBEABVFileResponse_File@aggregator@@H@Z 00425040 f i aggregator.pb.obj
 0001:00024080       ?Add@?$RepeatedPtrField@VFileResponse_File@aggregator@@@protobuf@google@@QAEPAVFileResponse_File@aggregator@@XZ 00425080 f i aggregator.pb.obj
 0001:000240b0       ?Clear@?$RepeatedPtrField@VFileResponse_File@aggregator@@@protobuf@google@@QAEXXZ 004250b0 f i aggregator.pb.obj
 0001:000240e0       ?MergeFrom@?$RepeatedPtrField@VFileResponse_File@aggregator@@@protobuf@google@@QAEXABV123@@Z 004250e0 f i aggregator.pb.obj
 0001:00024120       ?Swap@?$RepeatedPtrField@VFileResponse_File@aggregator@@@protobuf@google@@QAEXPAV123@@Z 00425120 f i aggregator.pb.obj
 0001:00024160       ??0?$RepeatedPtrField@VFileDataRequest_FileData@aggregator@@@protobuf@google@@QAE@XZ 00425160 f i aggregator.pb.obj
 0001:00024190       ??1?$RepeatedPtrField@VFileDataRequest_FileData@aggregator@@@protobuf@google@@QAE@XZ 00425190 f i aggregator.pb.obj
 0001:000241c0       ?size@?$RepeatedPtrField@VFileDataRequest_FileData@aggregator@@@protobuf@google@@QBEHXZ 004251c0 f i aggregator.pb.obj
 0001:000241f0       ?Get@?$RepeatedPtrField@VFileDataRequest_FileData@aggregator@@@protobuf@google@@QBEABVFileDataRequest_FileData@aggregator@@H@Z 004251f0 f i aggregator.pb.obj
 0001:00024230       ?Add@?$RepeatedPtrField@VFileDataRequest_FileData@aggregator@@@protobuf@google@@QAEPAVFileDataRequest_FileData@aggregator@@XZ 00425230 f i aggregator.pb.obj
 0001:00024260       ?Clear@?$RepeatedPtrField@VFileDataRequest_FileData@aggregator@@@protobuf@google@@QAEXXZ 00425260 f i aggregator.pb.obj
 0001:00024290       ?MergeFrom@?$RepeatedPtrField@VFileDataRequest_FileData@aggregator@@@protobuf@google@@QAEXABV123@@Z 00425290 f i aggregator.pb.obj
 0001:000242d0       ?Swap@?$RepeatedPtrField@VFileDataRequest_FileData@aggregator@@@protobuf@google@@QAEXPAV123@@Z 004252d0 f i aggregator.pb.obj
 0001:00024310       ??0?$RepeatedPtrField@VFileDataResponse_FileData@aggregator@@@protobuf@google@@QAE@XZ 00425310 f i aggregator.pb.obj
 0001:00024340       ??1?$RepeatedPtrField@VFileDataResponse_FileData@aggregator@@@protobuf@google@@QAE@XZ 00425340 f i aggregator.pb.obj
 0001:00024370       ?size@?$RepeatedPtrField@VFileDataResponse_FileData@aggregator@@@protobuf@google@@QBEHXZ 00425370 f i aggregator.pb.obj
 0001:000243a0       ?Get@?$RepeatedPtrField@VFileDataResponse_FileData@aggregator@@@protobuf@google@@QBEABVFileDataResponse_FileData@aggregator@@H@Z 004253a0 f i aggregator.pb.obj
 0001:000243e0       ?Add@?$RepeatedPtrField@VFileDataResponse_FileData@aggregator@@@protobuf@google@@QAEPAVFileDataResponse_FileData@aggregator@@XZ 004253e0 f i aggregator.pb.obj
 0001:00024410       ?Clear@?$RepeatedPtrField@VFileDataResponse_FileData@aggregator@@@protobuf@google@@QAEXXZ 00425410 f i aggregator.pb.obj
 0001:00024440       ?MergeFrom@?$RepeatedPtrField@VFileDataResponse_FileData@aggregator@@@protobuf@google@@QAEXABV123@@Z 00425440 f i aggregator.pb.obj
 0001:00024480       ?Swap@?$RepeatedPtrField@VFileDataResponse_FileData@aggregator@@@protobuf@google@@QAEXPAV123@@Z 00425480 f i aggregator.pb.obj
 0001:000244c0       ??0?$RepeatedPtrField@VCollectorFileResponse_File@aggregator@@@protobuf@google@@QAE@XZ 004254c0 f i aggregator.pb.obj
 0001:000244f0       ??1?$RepeatedPtrField@VCollectorFileResponse_File@aggregator@@@protobuf@google@@QAE@XZ 004254f0 f i aggregator.pb.obj
 0001:00024520       ?size@?$RepeatedPtrField@VCollectorFileResponse_File@aggregator@@@protobuf@google@@QBEHXZ 00425520 f i aggregator.pb.obj
 0001:00024550       ?Get@?$RepeatedPtrField@VCollectorFileResponse_File@aggregator@@@protobuf@google@@QBEABVCollectorFileResponse_File@aggregator@@H@Z 00425550 f i aggregator.pb.obj
 0001:00024590       ?Add@?$RepeatedPtrField@VCollectorFileResponse_File@aggregator@@@protobuf@google@@QAEPAVCollectorFileResponse_File@aggregator@@XZ 00425590 f i aggregator.pb.obj
 0001:000245c0       ?Clear@?$RepeatedPtrField@VCollectorFileResponse_File@aggregator@@@protobuf@google@@QAEXXZ 004255c0 f i aggregator.pb.obj
 0001:000245f0       ?MergeFrom@?$RepeatedPtrField@VCollectorFileResponse_File@aggregator@@@protobuf@google@@QAEXABV123@@Z 004255f0 f i aggregator.pb.obj
 0001:00024630       ?Swap@?$RepeatedPtrField@VCollectorFileResponse_File@aggregator@@@protobuf@google@@QAEXPAV123@@Z 00425630 f i aggregator.pb.obj
 0001:00024670       ??0?$RepeatedPtrField@VCollectRuleResponse_Rule@aggregator@@@protobuf@google@@QAE@XZ 00425670 f i aggregator.pb.obj
 0001:000246a0       ??1?$RepeatedPtrField@VCollectRuleResponse_Rule@aggregator@@@protobuf@google@@QAE@XZ 004256a0 f i aggregator.pb.obj
 0001:000246d0       ?size@?$RepeatedPtrField@VCollectRuleResponse_Rule@aggregator@@@protobuf@google@@QBEHXZ 004256d0 f i aggregator.pb.obj
 0001:00024700       ?Get@?$RepeatedPtrField@VCollectRuleResponse_Rule@aggregator@@@protobuf@google@@QBEABVCollectRuleResponse_Rule@aggregator@@H@Z 00425700 f i aggregator.pb.obj
 0001:00024740       ?Add@?$RepeatedPtrField@VCollectRuleResponse_Rule@aggregator@@@protobuf@google@@QAEPAVCollectRuleResponse_Rule@aggregator@@XZ 00425740 f i aggregator.pb.obj
 0001:00024770       ?Clear@?$RepeatedPtrField@VCollectRuleResponse_Rule@aggregator@@@protobuf@google@@QAEXXZ 00425770 f i aggregator.pb.obj
 0001:000247a0       ?MergeFrom@?$RepeatedPtrField@VCollectRuleResponse_Rule@aggregator@@@protobuf@google@@QAEXABV123@@Z 004257a0 f i aggregator.pb.obj
 0001:000247e0       ?Swap@?$RepeatedPtrField@VCollectRuleResponse_Rule@aggregator@@@protobuf@google@@QAEXPAV123@@Z 004257e0 f i aggregator.pb.obj
 0001:00024820       ??0?$RepeatedPtrField@VConfigResponse_Time@aggregator@@@protobuf@google@@QAE@XZ 00425820 f i aggregator.pb.obj
 0001:00024850       ??1?$RepeatedPtrField@VConfigResponse_Time@aggregator@@@protobuf@google@@QAE@XZ 00425850 f i aggregator.pb.obj
 0001:00024880       ?size@?$RepeatedPtrField@VConfigResponse_Time@aggregator@@@protobuf@google@@QBEHXZ 00425880 f i aggregator.pb.obj
 0001:000248b0       ?Get@?$RepeatedPtrField@VConfigResponse_Time@aggregator@@@protobuf@google@@QBEABVConfigResponse_Time@aggregator@@H@Z 004258b0 f i aggregator.pb.obj
 0001:000248f0       ?Add@?$RepeatedPtrField@VConfigResponse_Time@aggregator@@@protobuf@google@@QAEPAVConfigResponse_Time@aggregator@@XZ 004258f0 f i aggregator.pb.obj
 0001:00024920       ?Clear@?$RepeatedPtrField@VConfigResponse_Time@aggregator@@@protobuf@google@@QAEXXZ 00425920 f i aggregator.pb.obj
 0001:00024950       ?MergeFrom@?$RepeatedPtrField@VConfigResponse_Time@aggregator@@@protobuf@google@@QAEXABV123@@Z 00425950 f i aggregator.pb.obj
 0001:00024990       ?Swap@?$RepeatedPtrField@VConfigResponse_Time@aggregator@@@protobuf@google@@QAEXPAV123@@Z 00425990 f i aggregator.pb.obj
 0001:000249d0       ??$down_cast@PBVFileID@aggregator@@$$CBVMessageLite@protobuf@google@@@internal@protobuf@google@@YAPBVFileID@aggregator@@PBVMessageLite@12@@Z 004259d0 f i aggregator.pb.obj
 0001:00024a10       ??$swap@I@std@@YAXAAI0@Z   00425a10 f i aggregator.pb.obj
 0001:00024a50       ??$swap@H@std@@YAXAAH0@Z   00425a50 f i aggregator.pb.obj
 0001:00024a90       ??$ReadMessageNoVirtual@VFileID@aggregator@@@WireFormatLite@internal@protobuf@google@@SA_NPAVCodedInputStream@io@23@PAVFileID@aggregator@@@Z 00425a90 f i aggregator.pb.obj
 0001:00024b90       ?ConsumedEntireMessage@CodedInputStream@io@protobuf@google@@QAE_NXZ 00425b90 f i aggregator.pb.obj
 0001:00024bb0       ?IncrementRecursionDepth@CodedInputStream@io@protobuf@google@@QAE_NXZ 00425bb0 f i aggregator.pb.obj
 0001:00024bf0       ?DecrementRecursionDepth@CodedInputStream@io@protobuf@google@@QAEXXZ 00425bf0 f i aggregator.pb.obj
 0001:00024c30       ??$MessageSizeNoVirtual@VFileID@aggregator@@@WireFormatLite@internal@protobuf@google@@SAHABVFileID@aggregator@@@Z 00425c30 f i aggregator.pb.obj
 0001:00024c70       ??$down_cast@PBVCheckSumRequest@aggregator@@$$CBVMessageLite@protobuf@google@@@internal@protobuf@google@@YAPBVCheckSumRequest@aggregator@@PBVMessageLite@12@@Z 00425c70 f i aggregator.pb.obj
 0001:00024cb0       ??$swap@PAVFileID@aggregator@@@std@@YAXAAPAVFileID@aggregator@@0@Z 00425cb0 f i aggregator.pb.obj
 0001:00024cf0       ??$down_cast@PBVCheckSumResponse@aggregator@@$$CBVMessageLite@protobuf@google@@@internal@protobuf@google@@YAPBVCheckSumResponse@aggregator@@PBVMessageLite@12@@Z 00425cf0 f i aggregator.pb.obj
 0001:00024d30       ??$swap@PAV?$basic_string@DU?$char_traits@D@std@@V?$allocator@D@2@@std@@@std@@YAXAAPAV?$basic_string@DU?$char_traits@D@std@@V?$allocator@D@2@@0@0@Z 00425d30 f i aggregator.pb.obj
 0001:00024d70       ??$down_cast@PBVLogRequest@aggregator@@$$CBVMessageLite@protobuf@google@@@internal@protobuf@google@@YAPBVLogRequest@aggregator@@PBVMessageLite@12@@Z 00425d70 f i aggregator.pb.obj
 0001:00024db0       ??$down_cast@PBVLogResponse@aggregator@@$$CBVMessageLite@protobuf@google@@@internal@protobuf@google@@YAPBVLogResponse@aggregator@@PBVMessageLite@12@@Z 00425db0 f i aggregator.pb.obj
 0001:00024df0       ??$down_cast@PBVFileRequest_File@aggregator@@$$CBVMessageLite@protobuf@google@@@internal@protobuf@google@@YAPBVFileRequest_File@aggregator@@PBVMessageLite@12@@Z 00425df0 f i aggregator.pb.obj
 0001:00024e30       ??$swap@_K@std@@YAXAA_K0@Z 00425e30 f i aggregator.pb.obj
 0001:00024e90       ??$ReadGroupNoVirtual@VFileRequest_File@aggregator@@@WireFormatLite@internal@protobuf@google@@SA_NHPAVCodedInputStream@io@23@PAVFileRequest_File@aggregator@@@Z 00425e90 f i aggregator.pb.obj
 0001:00024f10       ?LastTagWas@CodedInputStream@io@protobuf@google@@QAE_NI@Z 00425f10 f i aggregator.pb.obj
 0001:00024f40       ?MakeTag@WireFormatLite@internal@protobuf@google@@SAIHW4WireType@1234@@Z 00425f40 f i aggregator.pb.obj
 0001:00024f60       ??$GroupSizeNoVirtual@VFileRequest_File@aggregator@@@WireFormatLite@internal@protobuf@google@@SAHABVFileRequest_File@aggregator@@@Z 00425f60 f i aggregator.pb.obj
 0001:00024f80       ??$down_cast@PBVFileRequest@aggregator@@$$CBVMessageLite@protobuf@google@@@internal@protobuf@google@@YAPBVFileRequest@aggregator@@PBVMessageLite@12@@Z 00425f80 f i aggregator.pb.obj
 0001:00024fc0       ??$down_cast@PBVFileResponse_File@aggregator@@$$CBVMessageLite@protobuf@google@@@internal@protobuf@google@@YAPBVFileResponse_File@aggregator@@PBVMessageLite@12@@Z 00425fc0 f i aggregator.pb.obj
 0001:00025000       ??$ReadGroupNoVirtual@VFileResponse_File@aggregator@@@WireFormatLite@internal@protobuf@google@@SA_NHPAVCodedInputStream@io@23@PAVFileResponse_File@aggregator@@@Z 00426000 f i aggregator.pb.obj
 0001:00025080       ??$GroupSizeNoVirtual@VFileResponse_File@aggregator@@@WireFormatLite@internal@protobuf@google@@SAHABVFileResponse_File@aggregator@@@Z 00426080 f i aggregator.pb.obj
 0001:000250a0       ??$down_cast@PBVFileResponse@aggregator@@$$CBVMessageLite@protobuf@google@@@internal@protobuf@google@@YAPBVFileResponse@aggregator@@PBVMessageLite@12@@Z 004260a0 f i aggregator.pb.obj
 0001:000250e0       ??$down_cast@PBVFileDataRequest_FileData@aggregator@@$$CBVMessageLite@protobuf@google@@@internal@protobuf@google@@YAPBVFileDataRequest_FileData@aggregator@@PBVMessageLite@12@@Z 004260e0 f i aggregator.pb.obj
 0001:00025120       ??$ReadGroupNoVirtual@VFileDataRequest_FileData@aggregator@@@WireFormatLite@internal@protobuf@google@@SA_NHPAVCodedInputStream@io@23@PAVFileDataRequest_FileData@aggregator@@@Z 00426120 f i aggregator.pb.obj
 0001:000251a0       ??$GroupSizeNoVirtual@VFileDataRequest_FileData@aggregator@@@WireFormatLite@internal@protobuf@google@@SAHABVFileDataRequest_FileData@aggregator@@@Z 004261a0 f i aggregator.pb.obj
 0001:000251c0       ??$down_cast@PBVFileDataRequest@aggregator@@$$CBVMessageLite@protobuf@google@@@internal@protobuf@google@@YAPBVFileDataRequest@aggregator@@PBVMessageLite@12@@Z 004261c0 f i aggregator.pb.obj
 0001:00025200       ??$down_cast@PBVFileDataResponse_FileData@aggregator@@$$CBVMessageLite@protobuf@google@@@internal@protobuf@google@@YAPBVFileDataResponse_FileData@aggregator@@PBVMessageLite@12@@Z 00426200 f i aggregator.pb.obj
 0001:00025240       ??$ReadGroupNoVirtual@VFileDataResponse_FileData@aggregator@@@WireFormatLite@internal@protobuf@google@@SA_NHPAVCodedInputStream@io@23@PAVFileDataResponse_FileData@aggregator@@@Z 00426240 f i aggregator.pb.obj
 0001:000252c0       ??$GroupSizeNoVirtual@VFileDataResponse_FileData@aggregator@@@WireFormatLite@internal@protobuf@google@@SAHABVFileDataResponse_FileData@aggregator@@@Z 004262c0 f i aggregator.pb.obj
 0001:000252e0       ??$down_cast@PBVFileDataResponse@aggregator@@$$CBVMessageLite@protobuf@google@@@internal@protobuf@google@@YAPBVFileDataResponse@aggregator@@PBVMessageLite@12@@Z 004262e0 f i aggregator.pb.obj
 0001:00025320       ??$down_cast@PBVCollectorFileRequest@aggregator@@$$CBVMessageLite@protobuf@google@@@internal@protobuf@google@@YAPBVCollectorFileRequest@aggregator@@PBVMessageLite@12@@Z 00426320 f i aggregator.pb.obj
 0001:00025360       ??$down_cast@PBVCollectorFileResponse_File@aggregator@@$$CBVMessageLite@protobuf@google@@@internal@protobuf@google@@YAPBVCollectorFileResponse_File@aggregator@@PBVMessageLite@12@@Z 00426360 f i aggregator.pb.obj
 0001:000253a0       ??$swap@_N@std@@YAXAA_N0@Z 004263a0 f i aggregator.pb.obj
 0001:000253e0       ??$ReadGroupNoVirtual@VCollectorFileResponse_File@aggregator@@@WireFormatLite@internal@protobuf@google@@SA_NHPAVCodedInputStream@io@23@PAVCollectorFileResponse_File@aggregator@@@Z 004263e0 f i aggregator.pb.obj
 0001:00025460       ??$GroupSizeNoVirtual@VCollectorFileResponse_File@aggregator@@@WireFormatLite@internal@protobuf@google@@SAHABVCollectorFileResponse_File@aggregator@@@Z 00426460 f i aggregator.pb.obj
 0001:00025480       ??$down_cast@PBVCollectorFileResponse@aggregator@@$$CBVMessageLite@protobuf@google@@@internal@protobuf@google@@YAPBVCollectorFileResponse@aggregator@@PBVMessageLite@12@@Z 00426480 f i aggregator.pb.obj
 0001:000254c0       ??$down_cast@PBVCollectRuleRequest@aggregator@@$$CBVMessageLite@protobuf@google@@@internal@protobuf@google@@YAPBVCollectRuleRequest@aggregator@@PBVMessageLite@12@@Z 004264c0 f i aggregator.pb.obj
 0001:00025500       ??$down_cast@PBVCollectRuleResponse_Rule@aggregator@@$$CBVMessageLite@protobuf@google@@@internal@protobuf@google@@YAPBVCollectRuleResponse_Rule@aggregator@@PBVMessageLite@12@@Z 00426500 f i aggregator.pb.obj
 0001:00025540       ??$ReadGroupNoVirtual@VCollectRuleResponse_Rule@aggregator@@@WireFormatLite@internal@protobuf@google@@SA_NHPAVCodedInputStream@io@23@PAVCollectRuleResponse_Rule@aggregator@@@Z 00426540 f i aggregator.pb.obj
 0001:000255c0       ??$GroupSizeNoVirtual@VCollectRuleResponse_Rule@aggregator@@@WireFormatLite@internal@protobuf@google@@SAHABVCollectRuleResponse_Rule@aggregator@@@Z 004265c0 f i aggregator.pb.obj
 0001:000255e0       ??$down_cast@PBVCollectRuleResponse@aggregator@@$$CBVMessageLite@protobuf@google@@@internal@protobuf@google@@YAPBVCollectRuleResponse@aggregator@@PBVMessageLite@12@@Z 004265e0 f i aggregator.pb.obj
 0001:00025620       ??$down_cast@PBVConfigRequest@aggregator@@$$CBVMessageLite@protobuf@google@@@internal@protobuf@google@@YAPBVConfigRequest@aggregator@@PBVMessageLite@12@@Z 00426620 f i aggregator.pb.obj
 0001:00025660       ??$down_cast@PBVConfigResponse_Time@aggregator@@$$CBVMessageLite@protobuf@google@@@internal@protobuf@google@@YAPBVConfigResponse_Time@aggregator@@PBVMessageLite@12@@Z 00426660 f i aggregator.pb.obj
 0001:000256a0       ??$ReadGroupNoVirtual@VConfigResponse_Time@aggregator@@@WireFormatLite@internal@protobuf@google@@SA_NHPAVCodedInputStream@io@23@PAVConfigResponse_Time@aggregator@@@Z 004266a0 f i aggregator.pb.obj
 0001:00025720       ??$GroupSizeNoVirtual@VConfigResponse_Time@aggregator@@@WireFormatLite@internal@protobuf@google@@SAHABVConfigResponse_Time@aggregator@@@Z 00426720 f i aggregator.pb.obj
 0001:00025740       ??$down_cast@PBVConfigResponse@aggregator@@$$CBVMessageLite@protobuf@google@@@internal@protobuf@google@@YAPBVConfigResponse@aggregator@@PBVMessageLite@12@@Z 00426740 f i aggregator.pb.obj
 0001:00025780       ??$down_cast@PBVLogonRequest@aggregator@@$$CBVMessageLite@protobuf@google@@@internal@protobuf@google@@YAPBVLogonRequest@aggregator@@PBVMessageLite@12@@Z 00426780 f i aggregator.pb.obj
 0001:000257c0       ??$down_cast@PBVLogonResponse@aggregator@@$$CBVMessageLite@protobuf@google@@@internal@protobuf@google@@YAPBVLogonResponse@aggregator@@PBVMessageLite@12@@Z 004267c0 f i aggregator.pb.obj
 0001:00025800       ??$down_cast@PBVLogoutRequest@aggregator@@$$CBVMessageLite@protobuf@google@@@internal@protobuf@google@@YAPBVLogoutRequest@aggregator@@PBVMessageLite@12@@Z 00426800 f i aggregator.pb.obj
 0001:00025840       ??$down_cast@PBVKeepAliveRequest@aggregator@@$$CBVMessageLite@protobuf@google@@@internal@protobuf@google@@YAPBVKeepAliveRequest@aggregator@@PBVMessageLite@12@@Z 00426840 f i aggregator.pb.obj
 0001:00025880       ??$down_cast@PBVKeepAliveResponse@aggregator@@$$CBVMessageLite@protobuf@google@@@internal@protobuf@google@@YAPBVKeepAliveResponse@aggregator@@PBVMessageLite@12@@Z 00426880 f i aggregator.pb.obj
 0001:000258c0       ??$down_cast@PBVInstructResponse@aggregator@@$$CBVMessageLite@protobuf@google@@@internal@protobuf@google@@YAPBVInstructResponse@aggregator@@PBVMessageLite@12@@Z 004268c0 f i aggregator.pb.obj
 0001:00025900       ??$down_cast@PBVTransID@aggregator@@$$CBVMessageLite@protobuf@google@@@internal@protobuf@google@@YAPBVTransID@aggregator@@PBVMessageLite@12@@Z 00426900 f i aggregator.pb.obj
 0001:00025940       ??$ReadMessageNoVirtual@VTransID@aggregator@@@WireFormatLite@internal@protobuf@google@@SA_NPAVCodedInputStream@io@23@PAVTransID@aggregator@@@Z 00426940 f i aggregator.pb.obj
 0001:00025a40       ??$ReadMessageNoVirtual@VLogonRequest@aggregator@@@WireFormatLite@internal@protobuf@google@@SA_NPAVCodedInputStream@io@23@PAVLogonRequest@aggregator@@@Z 00426a40 f i aggregator.pb.obj
 0001:00025b40       ??$ReadMessageNoVirtual@VLogoutRequest@aggregator@@@WireFormatLite@internal@protobuf@google@@SA_NPAVCodedInputStream@io@23@PAVLogoutRequest@aggregator@@@Z 00426b40 f i aggregator.pb.obj
 0001:00025c40       ??$ReadMessageNoVirtual@VKeepAliveRequest@aggregator@@@WireFormatLite@internal@protobuf@google@@SA_NPAVCodedInputStream@io@23@PAVKeepAliveRequest@aggregator@@@Z 00426c40 f i aggregator.pb.obj
 0001:00025d40       ??$ReadMessageNoVirtual@VLogRequest@aggregator@@@WireFormatLite@internal@protobuf@google@@SA_NPAVCodedInputStream@io@23@PAVLogRequest@aggregator@@@Z 00426d40 f i aggregator.pb.obj
 0001:00025e40       ??$ReadMessageNoVirtual@VConfigRequest@aggregator@@@WireFormatLite@internal@protobuf@google@@SA_NPAVCodedInputStream@io@23@PAVConfigRequest@aggregator@@@Z 00426e40 f i aggregator.pb.obj
 0001:00025f40       ??$ReadMessageNoVirtual@VCollectorFileRequest@aggregator@@@WireFormatLite@internal@protobuf@google@@SA_NPAVCodedInputStream@io@23@PAVCollectorFileRequest@aggregator@@@Z 00426f40 f i aggregator.pb.obj
 0001:00026040       ??$ReadMessageNoVirtual@VCollectRuleRequest@aggregator@@@WireFormatLite@internal@protobuf@google@@SA_NPAVCodedInputStream@io@23@PAVCollectRuleRequest@aggregator@@@Z 00427040 f i aggregator.pb.obj
 0001:00026140       ??$ReadMessageNoVirtual@VFileRequest@aggregator@@@WireFormatLite@internal@protobuf@google@@SA_NPAVCodedInputStream@io@23@PAVFileRequest@aggregator@@@Z 00427140 f i aggregator.pb.obj
 0001:00026240       ??$ReadMessageNoVirtual@VFileDataRequest@aggregator@@@WireFormatLite@internal@protobuf@google@@SA_NPAVCodedInputStream@io@23@PAVFileDataRequest@aggregator@@@Z 00427240 f i aggregator.pb.obj
 0001:00026340       ??$ReadMessageNoVirtual@VCheckSumRequest@aggregator@@@WireFormatLite@internal@protobuf@google@@SA_NPAVCodedInputStream@io@23@PAVCheckSumRequest@aggregator@@@Z 00427340 f i aggregator.pb.obj
 0001:00026440       ??$MessageSizeNoVirtual@VTransID@aggregator@@@WireFormatLite@internal@protobuf@google@@SAHABVTransID@aggregator@@@Z 00427440 f i aggregator.pb.obj
 0001:00026480       ??$MessageSizeNoVirtual@VLogonRequest@aggregator@@@WireFormatLite@internal@protobuf@google@@SAHABVLogonRequest@aggregator@@@Z 00427480 f i aggregator.pb.obj
 0001:000264c0       ??$MessageSizeNoVirtual@VLogoutRequest@aggregator@@@WireFormatLite@internal@protobuf@google@@SAHABVLogoutRequest@aggregator@@@Z 004274c0 f i aggregator.pb.obj
 0001:00026500       ??$MessageSizeNoVirtual@VKeepAliveRequest@aggregator@@@WireFormatLite@internal@protobuf@google@@SAHABVKeepAliveRequest@aggregator@@@Z 00427500 f i aggregator.pb.obj
 0001:00026540       ??$MessageSizeNoVirtual@VLogRequest@aggregator@@@WireFormatLite@internal@protobuf@google@@SAHABVLogRequest@aggregator@@@Z 00427540 f i aggregator.pb.obj
 0001:00026580       ??$MessageSizeNoVirtual@VConfigRequest@aggregator@@@WireFormatLite@internal@protobuf@google@@SAHABVConfigRequest@aggregator@@@Z 00427580 f i aggregator.pb.obj
 0001:000265c0       ??$MessageSizeNoVirtual@VCollectorFileRequest@aggregator@@@WireFormatLite@internal@protobuf@google@@SAHABVCollectorFileRequest@aggregator@@@Z 004275c0 f i aggregator.pb.obj
 0001:00026600       ??$MessageSizeNoVirtual@VCollectRuleRequest@aggregator@@@WireFormatLite@internal@protobuf@google@@SAHABVCollectRuleRequest@aggregator@@@Z 00427600 f i aggregator.pb.obj
 0001:00026640       ??$MessageSizeNoVirtual@VFileRequest@aggregator@@@WireFormatLite@internal@protobuf@google@@SAHABVFileRequest@aggregator@@@Z 00427640 f i aggregator.pb.obj
 0001:00026680       ??$MessageSizeNoVirtual@VFileDataRequest@aggregator@@@WireFormatLite@internal@protobuf@google@@SAHABVFileDataRequest@aggregator@@@Z 00427680 f i aggregator.pb.obj
 0001:000266c0       ??$MessageSizeNoVirtual@VCheckSumRequest@aggregator@@@WireFormatLite@internal@protobuf@google@@SAHABVCheckSumRequest@aggregator@@@Z 004276c0 f i aggregator.pb.obj
 0001:00026700       ??$down_cast@PBVCollectorRequest@aggregator@@$$CBVMessageLite@protobuf@google@@@internal@protobuf@google@@YAPBVCollectorRequest@aggregator@@PBVMessageLite@12@@Z 00427700 f i aggregator.pb.obj
 0001:00026740       ??$swap@PAVTransID@aggregator@@@std@@YAXAAPAVTransID@aggregator@@0@Z 00427740 f i aggregator.pb.obj
 0001:00026780       ??$swap@PAVLogonRequest@aggregator@@@std@@YAXAAPAVLogonRequest@aggregator@@0@Z 00427780 f i aggregator.pb.obj
 0001:000267c0       ??$swap@PAVLogoutRequest@aggregator@@@std@@YAXAAPAVLogoutRequest@aggregator@@0@Z 004277c0 f i aggregator.pb.obj
 0001:00026800       ??$swap@PAVKeepAliveRequest@aggregator@@@std@@YAXAAPAVKeepAliveRequest@aggregator@@0@Z 00427800 f i aggregator.pb.obj
 0001:00026840       ??$swap@PAVLogRequest@aggregator@@@std@@YAXAAPAVLogRequest@aggregator@@0@Z 00427840 f i aggregator.pb.obj
 0001:00026880       ??$swap@PAVConfigRequest@aggregator@@@std@@YAXAAPAVConfigRequest@aggregator@@0@Z 00427880 f i aggregator.pb.obj
 0001:000268c0       ??$swap@PAVCollectorFileRequest@aggregator@@@std@@YAXAAPAVCollectorFileRequest@aggregator@@0@Z 004278c0 f i aggregator.pb.obj
 0001:00026900       ??$swap@PAVCollectRuleRequest@aggregator@@@std@@YAXAAPAVCollectRuleRequest@aggregator@@0@Z 00427900 f i aggregator.pb.obj
 0001:00026940       ??$swap@PAVFileRequest@aggregator@@@std@@YAXAAPAVFileRequest@aggregator@@0@Z 00427940 f i aggregator.pb.obj
 0001:00026980       ??$swap@PAVFileDataRequest@aggregator@@@std@@YAXAAPAVFileDataRequest@aggregator@@0@Z 00427980 f i aggregator.pb.obj
 0001:000269c0       ??$swap@PAVCheckSumRequest@aggregator@@@std@@YAXAAPAVCheckSumRequest@aggregator@@0@Z 004279c0 f i aggregator.pb.obj
 0001:00026a00       ??$ReadMessageNoVirtual@VLogonResponse@aggregator@@@WireFormatLite@internal@protobuf@google@@SA_NPAVCodedInputStream@io@23@PAVLogonResponse@aggregator@@@Z 00427a00 f i aggregator.pb.obj
 0001:00026b00       ??$ReadMessageNoVirtual@VKeepAliveResponse@aggregator@@@WireFormatLite@internal@protobuf@google@@SA_NPAVCodedInputStream@io@23@PAVKeepAliveResponse@aggregator@@@Z 00427b00 f i aggregator.pb.obj
 0001:00026c00       ??$ReadMessageNoVirtual@VLogResponse@aggregator@@@WireFormatLite@internal@protobuf@google@@SA_NPAVCodedInputStream@io@23@PAVLogResponse@aggregator@@@Z 00427c00 f i aggregator.pb.obj
 0001:00026d00       ??$ReadMessageNoVirtual@VConfigResponse@aggregator@@@WireFormatLite@internal@protobuf@google@@SA_NPAVCodedInputStream@io@23@PAVConfigResponse@aggregator@@@Z 00427d00 f i aggregator.pb.obj
 0001:00026e00       ??$ReadMessageNoVirtual@VCollectorFileResponse@aggregator@@@WireFormatLite@internal@protobuf@google@@SA_NPAVCodedInputStream@io@23@PAVCollectorFileResponse@aggregator@@@Z 00427e00 f i aggregator.pb.obj
 0001:00026f00       ??$ReadMessageNoVirtual@VCollectRuleResponse@aggregator@@@WireFormatLite@internal@protobuf@google@@SA_NPAVCodedInputStream@io@23@PAVCollectRuleResponse@aggregator@@@Z 00427f00 f i aggregator.pb.obj
 0001:00027000       ??$ReadMessageNoVirtual@VFileResponse@aggregator@@@WireFormatLite@internal@protobuf@google@@SA_NPAVCodedInputStream@io@23@PAVFileResponse@aggregator@@@Z 00428000 f i aggregator.pb.obj
 0001:00027100       ??$ReadMessageNoVirtual@VFileDataResponse@aggregator@@@WireFormatLite@internal@protobuf@google@@SA_NPAVCodedInputStream@io@23@PAVFileDataResponse@aggregator@@@Z 00428100 f i aggregator.pb.obj
 0001:00027200       ??$ReadMessageNoVirtual@VCheckSumResponse@aggregator@@@WireFormatLite@internal@protobuf@google@@SA_NPAVCodedInputStream@io@23@PAVCheckSumResponse@aggregator@@@Z 00428200 f i aggregator.pb.obj
 0001:00027300       ??$ReadMessageNoVirtual@VInstructResponse@aggregator@@@WireFormatLite@internal@protobuf@google@@SA_NPAVCodedInputStream@io@23@PAVInstructResponse@aggregator@@@Z 00428300 f i aggregator.pb.obj
 0001:00027400       ??$MessageSizeNoVirtual@VLogonResponse@aggregator@@@WireFormatLite@internal@protobuf@google@@SAHABVLogonResponse@aggregator@@@Z 00428400 f i aggregator.pb.obj
 0001:00027440       ??$MessageSizeNoVirtual@VKeepAliveResponse@aggregator@@@WireFormatLite@internal@protobuf@google@@SAHABVKeepAliveResponse@aggregator@@@Z 00428440 f i aggregator.pb.obj
 0001:00027480       ??$MessageSizeNoVirtual@VLogResponse@aggregator@@@WireFormatLite@internal@protobuf@google@@SAHABVLogResponse@aggregator@@@Z 00428480 f i aggregator.pb.obj
 0001:000274c0       ??$MessageSizeNoVirtual@VConfigResponse@aggregator@@@WireFormatLite@internal@protobuf@google@@SAHABVConfigResponse@aggregator@@@Z 004284c0 f i aggregator.pb.obj
 0001:00027500       ??$MessageSizeNoVirtual@VCollectorFileResponse@aggregator@@@WireFormatLite@internal@protobuf@google@@SAHABVCollectorFileResponse@aggregator@@@Z 00428500 f i aggregator.pb.obj
 0001:00027540       ??$MessageSizeNoVirtual@VCollectRuleResponse@aggregator@@@WireFormatLite@internal@protobuf@google@@SAHABVCollectRuleResponse@aggregator@@@Z 00428540 f i aggregator.pb.obj
 0001:00027580       ??$MessageSizeNoVirtual@VFileResponse@aggregator@@@WireFormatLite@internal@protobuf@google@@SAHABVFileResponse@aggregator@@@Z 00428580 f i aggregator.pb.obj
 0001:000275c0       ??$MessageSizeNoVirtual@VFileDataResponse@aggregator@@@WireFormatLite@internal@protobuf@google@@SAHABVFileDataResponse@aggregator@@@Z 004285c0 f i aggregator.pb.obj
 0001:00027600       ??$MessageSizeNoVirtual@VCheckSumResponse@aggregator@@@WireFormatLite@internal@protobuf@google@@SAHABVCheckSumResponse@aggregator@@@Z 00428600 f i aggregator.pb.obj
 0001:00027640       ??$MessageSizeNoVirtual@VInstructResponse@aggregator@@@WireFormatLite@internal@protobuf@google@@SAHABVInstructResponse@aggregator@@@Z 00428640 f i aggregator.pb.obj
 0001:00027680       ??$down_cast@PBVAggregatorResponse@aggregator@@$$CBVMessageLite@protobuf@google@@@internal@protobuf@google@@YAPBVAggregatorResponse@aggregator@@PBVMessageLite@12@@Z 00428680 f i aggregator.pb.obj
 0001:000276c0       ??$swap@PAVLogonResponse@aggregator@@@std@@YAXAAPAVLogonResponse@aggregator@@0@Z 004286c0 f i aggregator.pb.obj
 0001:00027700       ??$swap@PAVKeepAliveResponse@aggregator@@@std@@YAXAAPAVKeepAliveResponse@aggregator@@0@Z 00428700 f i aggregator.pb.obj
 0001:00027740       ??$swap@PAVLogResponse@aggregator@@@std@@YAXAAPAVLogResponse@aggregator@@0@Z 00428740 f i aggregator.pb.obj
 0001:00027780       ??$swap@PAVConfigResponse@aggregator@@@std@@YAXAAPAVConfigResponse@aggregator@@0@Z 00428780 f i aggregator.pb.obj
 0001:000277c0       ??$swap@PAVCollectorFileResponse@aggregator@@@std@@YAXAAPAVCollectorFileResponse@aggregator@@0@Z 004287c0 f i aggregator.pb.obj
 0001:00027800       ??$swap@PAVCollectRuleResponse@aggregator@@@std@@YAXAAPAVCollectRuleResponse@aggregator@@0@Z 00428800 f i aggregator.pb.obj
 0001:00027840       ??$swap@PAVFileResponse@aggregator@@@std@@YAXAAPAVFileResponse@aggregator@@0@Z 00428840 f i aggregator.pb.obj
 0001:00027880       ??$swap@PAVFileDataResponse@aggregator@@@std@@YAXAAPAVFileDataResponse@aggregator@@0@Z 00428880 f i aggregator.pb.obj
 0001:000278c0       ??$swap@PAVCheckSumResponse@aggregator@@@std@@YAXAAPAVCheckSumResponse@aggregator@@0@Z 004288c0 f i aggregator.pb.obj
 0001:00027900       ??$swap@PAVInstructResponse@aggregator@@@std@@YAXAAPAVInstructResponse@aggregator@@0@Z 00428900 f i aggregator.pb.obj
 0001:00027940       ??$copy_s@U?$char_traits@D@std@@@_Traits_helper@std@@YAPADPADIPBDI@Z 00428940 f i aggregator.pb.obj
 0001:00027990       ??$_DebugHeapDelete@X@std@@YAXPAX@Z 00428990 f i aggregator.pb.obj
 0001:000279c0       ??$move_s@U?$char_traits@D@std@@@_Traits_helper@std@@YAPADPADIPBDI@Z 004289c0 f i aggregator.pb.obj
 0001:00027a10       ??$_Allocate@D@std@@YAPADIPAD@Z 00428a10 f i aggregator.pb.obj
 0001:00027a90       ??$Destroy@VTypeHandler@?$RepeatedPtrField@VFileRequest_File@aggregator@@@protobuf@google@@@RepeatedPtrFieldBase@internal@protobuf@google@@IAEXXZ 00428a90 f i aggregator.pb.obj
 0001:00027b40       ??$Get@VTypeHandler@?$RepeatedPtrField@VFileRequest_File@aggregator@@@protobuf@google@@@RepeatedPtrFieldBase@internal@protobuf@google@@IBEABVFileRequest_File@aggregator@@H@Z 00428b40 f i aggregator.pb.obj
 0001:00027c10       ??$Add@VTypeHandler@?$RepeatedPtrField@VFileRequest_File@aggregator@@@protobuf@google@@@RepeatedPtrFieldBase@internal@protobuf@google@@IAEPAVFileRequest_File@aggregator@@XZ 00428c10 f i aggregator.pb.obj
 0001:00027d10       ??$Clear@VTypeHandler@?$RepeatedPtrField@VFileRequest_File@aggregator@@@protobuf@google@@@RepeatedPtrFieldBase@internal@protobuf@google@@IAEXXZ 00428d10 f i aggregator.pb.obj
 0001:00027da0       ??$MergeFrom@VTypeHandler@?$RepeatedPtrField@VFileRequest_File@aggregator@@@protobuf@google@@@RepeatedPtrFieldBase@internal@protobuf@google@@IAEXABV0123@@Z 00428da0 f i aggregator.pb.obj
 0001:00027e40       ??$Destroy@VTypeHandler@?$RepeatedPtrField@VFileResponse_File@aggregator@@@protobuf@google@@@RepeatedPtrFieldBase@internal@protobuf@google@@IAEXXZ 00428e40 f i aggregator.pb.obj
 0001:00027ef0       ??$Get@VTypeHandler@?$RepeatedPtrField@VFileResponse_File@aggregator@@@protobuf@google@@@RepeatedPtrFieldBase@internal@protobuf@google@@IBEABVFileResponse_File@aggregator@@H@Z 00428ef0 f i aggregator.pb.obj
 0001:00027fc0       ??$Add@VTypeHandler@?$RepeatedPtrField@VFileResponse_File@aggregator@@@protobuf@google@@@RepeatedPtrFieldBase@internal@protobuf@google@@IAEPAVFileResponse_File@aggregator@@XZ 00428fc0 f i aggregator.pb.obj
 0001:000280c0       ??$Clear@VTypeHandler@?$RepeatedPtrField@VFileResponse_File@aggregator@@@protobuf@google@@@RepeatedPtrFieldBase@internal@protobuf@google@@IAEXXZ 004290c0 f i aggregator.pb.obj
 0001:00028150       ??$MergeFrom@VTypeHandler@?$RepeatedPtrField@VFileResponse_File@aggregator@@@protobuf@google@@@RepeatedPtrFieldBase@internal@protobuf@google@@IAEXABV0123@@Z 00429150 f i aggregator.pb.obj
 0001:000281f0       ??$Destroy@VTypeHandler@?$RepeatedPtrField@VFileDataRequest_FileData@aggregator@@@protobuf@google@@@RepeatedPtrFieldBase@internal@protobuf@google@@IAEXXZ 004291f0 f i aggregator.pb.obj
 0001:000282a0       ??$Get@VTypeHandler@?$RepeatedPtrField@VFileDataRequest_FileData@aggregator@@@protobuf@google@@@RepeatedPtrFieldBase@internal@protobuf@google@@IBEABVFileDataRequest_FileData@aggregator@@H@Z 004292a0 f i aggregator.pb.obj
 0001:00028370       ??$Add@VTypeHandler@?$RepeatedPtrField@VFileDataRequest_FileData@aggregator@@@protobuf@google@@@RepeatedPtrFieldBase@internal@protobuf@google@@IAEPAVFileDataRequest_FileData@aggregator@@XZ 00429370 f i aggregator.pb.obj
 0001:00028470       ??$Clear@VTypeHandler@?$RepeatedPtrField@VFileDataRequest_FileData@aggregator@@@protobuf@google@@@RepeatedPtrFieldBase@internal@protobuf@google@@IAEXXZ 00429470 f i aggregator.pb.obj
 0001:00028500       ??$MergeFrom@VTypeHandler@?$RepeatedPtrField@VFileDataRequest_FileData@aggregator@@@protobuf@google@@@RepeatedPtrFieldBase@internal@protobuf@google@@IAEXABV0123@@Z 00429500 f i aggregator.pb.obj
 0001:000285a0       ??$Destroy@VTypeHandler@?$RepeatedPtrField@VFileDataResponse_FileData@aggregator@@@protobuf@google@@@RepeatedPtrFieldBase@internal@protobuf@google@@IAEXXZ 004295a0 f i aggregator.pb.obj
 0001:00028650       ??$Get@VTypeHandler@?$RepeatedPtrField@VFileDataResponse_FileData@aggregator@@@protobuf@google@@@RepeatedPtrFieldBase@internal@protobuf@google@@IBEABVFileDataResponse_FileData@aggregator@@H@Z 00429650 f i aggregator.pb.obj
 0001:00028720       ??$Add@VTypeHandler@?$RepeatedPtrField@VFileDataResponse_FileData@aggregator@@@protobuf@google@@@RepeatedPtrFieldBase@internal@protobuf@google@@IAEPAVFileDataResponse_FileData@aggregator@@XZ 00429720 f i aggregator.pb.obj
 0001:00028820       ??$Clear@VTypeHandler@?$RepeatedPtrField@VFileDataResponse_FileData@aggregator@@@protobuf@google@@@RepeatedPtrFieldBase@internal@protobuf@google@@IAEXXZ 00429820 f i aggregator.pb.obj
 0001:000288b0       ??$MergeFrom@VTypeHandler@?$RepeatedPtrField@VFileDataResponse_FileData@aggregator@@@protobuf@google@@@RepeatedPtrFieldBase@internal@protobuf@google@@IAEXABV0123@@Z 004298b0 f i aggregator.pb.obj
 0001:00028950       ??$Destroy@VTypeHandler@?$RepeatedPtrField@VCollectorFileResponse_File@aggregator@@@protobuf@google@@@RepeatedPtrFieldBase@internal@protobuf@google@@IAEXXZ 00429950 f i aggregator.pb.obj
 0001:00028a00       ??$Get@VTypeHandler@?$RepeatedPtrField@VCollectorFileResponse_File@aggregator@@@protobuf@google@@@RepeatedPtrFieldBase@internal@protobuf@google@@IBEABVCollectorFileResponse_File@aggregator@@H@Z 00429a00 f i aggregator.pb.obj
 0001:00028ad0       ??$Add@VTypeHandler@?$RepeatedPtrField@VCollectorFileResponse_File@aggregator@@@protobuf@google@@@RepeatedPtrFieldBase@internal@protobuf@google@@IAEPAVCollectorFileResponse_File@aggregator@@XZ 00429ad0 f i aggregator.pb.obj
 0001:00028bd0       ??$Clear@VTypeHandler@?$RepeatedPtrField@VCollectorFileResponse_File@aggregator@@@protobuf@google@@@RepeatedPtrFieldBase@internal@protobuf@google@@IAEXXZ 00429bd0 f i aggregator.pb.obj
 0001:00028c60       ??$MergeFrom@VTypeHandler@?$RepeatedPtrField@VCollectorFileResponse_File@aggregator@@@protobuf@google@@@RepeatedPtrFieldBase@internal@protobuf@google@@IAEXABV0123@@Z 00429c60 f i aggregator.pb.obj
 0001:00028d00       ??$Destroy@VTypeHandler@?$RepeatedPtrField@VCollectRuleResponse_Rule@aggregator@@@protobuf@google@@@RepeatedPtrFieldBase@internal@protobuf@google@@IAEXXZ 00429d00 f i aggregator.pb.obj
 0001:00028db0       ??$Get@VTypeHandler@?$RepeatedPtrField@VCollectRuleResponse_Rule@aggregator@@@protobuf@google@@@RepeatedPtrFieldBase@internal@protobuf@google@@IBEABVCollectRuleResponse_Rule@aggregator@@H@Z 00429db0 f i aggregator.pb.obj
 0001:00028e80       ??$Add@VTypeHandler@?$RepeatedPtrField@VCollectRuleResponse_Rule@aggregator@@@protobuf@google@@@RepeatedPtrFieldBase@internal@protobuf@google@@IAEPAVCollectRuleResponse_Rule@aggregator@@XZ 00429e80 f i aggregator.pb.obj
 0001:00028f80       ??$Clear@VTypeHandler@?$RepeatedPtrField@VCollectRuleResponse_Rule@aggregator@@@protobuf@google@@@RepeatedPtrFieldBase@internal@protobuf@google@@IAEXXZ 00429f80 f i aggregator.pb.obj
 0001:00029010       ??$MergeFrom@VTypeHandler@?$RepeatedPtrField@VCollectRuleResponse_Rule@aggregator@@@protobuf@google@@@RepeatedPtrFieldBase@internal@protobuf@google@@IAEXABV0123@@Z 0042a010 f i aggregator.pb.obj
 0001:000290b0       ??$Destroy@VTypeHandler@?$RepeatedPtrField@VConfigResponse_Time@aggregator@@@protobuf@google@@@RepeatedPtrFieldBase@internal@protobuf@google@@IAEXXZ 0042a0b0 f i aggregator.pb.obj
 0001:00029160       ??$Get@VTypeHandler@?$RepeatedPtrField@VConfigResponse_Time@aggregator@@@protobuf@google@@@RepeatedPtrFieldBase@internal@protobuf@google@@IBEABVConfigResponse_Time@aggregator@@H@Z 0042a160 f i aggregator.pb.obj
 0001:00029230       ??$Add@VTypeHandler@?$RepeatedPtrField@VConfigResponse_Time@aggregator@@@protobuf@google@@@RepeatedPtrFieldBase@internal@protobuf@google@@IAEPAVConfigResponse_Time@aggregator@@XZ 0042a230 f i aggregator.pb.obj
 0001:00029330       ??$Clear@VTypeHandler@?$RepeatedPtrField@VConfigResponse_Time@aggregator@@@protobuf@google@@@RepeatedPtrFieldBase@internal@protobuf@google@@IAEXXZ 0042a330 f i aggregator.pb.obj
 0001:000293c0       ??$MergeFrom@VTypeHandler@?$RepeatedPtrField@VConfigResponse_Time@aggregator@@@protobuf@google@@@RepeatedPtrFieldBase@internal@protobuf@google@@IAEXABV0123@@Z 0042a3c0 f i aggregator.pb.obj
 0001:00029460       ??$implicit_cast@PBVMessageLite@protobuf@google@@PBVFileID@aggregator@@@internal@protobuf@google@@YAPBVMessageLite@12@ABQBVFileID@aggregator@@@Z 0042a460 f i aggregator.pb.obj
 0001:00029470       ??$implicit_cast@PBVMessageLite@protobuf@google@@PBVCheckSumRequest@aggregator@@@internal@protobuf@google@@YAPBVMessageLite@12@ABQBVCheckSumRequest@aggregator@@@Z 0042a470 f i aggregator.pb.obj
 0001:00029480       ??$implicit_cast@PBVMessageLite@protobuf@google@@PBVCheckSumResponse@aggregator@@@internal@protobuf@google@@YAPBVMessageLite@12@ABQBVCheckSumResponse@aggregator@@@Z 0042a480 f i aggregator.pb.obj
 0001:00029490       ??$implicit_cast@PBVMessageLite@protobuf@google@@PBVLogRequest@aggregator@@@internal@protobuf@google@@YAPBVMessageLite@12@ABQBVLogRequest@aggregator@@@Z 0042a490 f i aggregator.pb.obj
 0001:000294a0       ??$implicit_cast@PBVMessageLite@protobuf@google@@PBVLogResponse@aggregator@@@internal@protobuf@google@@YAPBVMessageLite@12@ABQBVLogResponse@aggregator@@@Z 0042a4a0 f i aggregator.pb.obj
 0001:000294b0       ??$implicit_cast@PBVMessageLite@protobuf@google@@PBVFileRequest_File@aggregator@@@internal@protobuf@google@@YAPBVMessageLite@12@ABQBVFileRequest_File@aggregator@@@Z 0042a4b0 f i aggregator.pb.obj
 0001:000294c0       ??$implicit_cast@PBVMessageLite@protobuf@google@@PBVFileRequest@aggregator@@@internal@protobuf@google@@YAPBVMessageLite@12@ABQBVFileRequest@aggregator@@@Z 0042a4c0 f i aggregator.pb.obj
 0001:000294d0       ??$implicit_cast@PBVMessageLite@protobuf@google@@PBVFileResponse_File@aggregator@@@internal@protobuf@google@@YAPBVMessageLite@12@ABQBVFileResponse_File@aggregator@@@Z 0042a4d0 f i aggregator.pb.obj
 0001:000294e0       ??$implicit_cast@PBVMessageLite@protobuf@google@@PBVFileResponse@aggregator@@@internal@protobuf@google@@YAPBVMessageLite@12@ABQBVFileResponse@aggregator@@@Z 0042a4e0 f i aggregator.pb.obj
 0001:000294f0       ??$implicit_cast@PBVMessageLite@protobuf@google@@PBVFileDataRequest_FileData@aggregator@@@internal@protobuf@google@@YAPBVMessageLite@12@ABQBVFileDataRequest_FileData@aggregator@@@Z 0042a4f0 f i aggregator.pb.obj
 0001:00029500       ??$implicit_cast@PBVMessageLite@protobuf@google@@PBVFileDataRequest@aggregator@@@internal@protobuf@google@@YAPBVMessageLite@12@ABQBVFileDataRequest@aggregator@@@Z 0042a500 f i aggregator.pb.obj
 0001:00029510       ??$implicit_cast@PBVMessageLite@protobuf@google@@PBVFileDataResponse_FileData@aggregator@@@internal@protobuf@google@@YAPBVMessageLite@12@ABQBVFileDataResponse_FileData@aggregator@@@Z 0042a510 f i aggregator.pb.obj
 0001:00029520       ??$implicit_cast@PBVMessageLite@protobuf@google@@PBVFileDataResponse@aggregator@@@internal@protobuf@google@@YAPBVMessageLite@12@ABQBVFileDataResponse@aggregator@@@Z 0042a520 f i aggregator.pb.obj
 0001:00029530       ??$implicit_cast@PBVMessageLite@protobuf@google@@PBVCollectorFileRequest@aggregator@@@internal@protobuf@google@@YAPBVMessageLite@12@ABQBVCollectorFileRequest@aggregator@@@Z 0042a530 f i aggregator.pb.obj
 0001:00029540       ??$implicit_cast@PBVMessageLite@protobuf@google@@PBVCollectorFileResponse_File@aggregator@@@internal@protobuf@google@@YAPBVMessageLite@12@ABQBVCollectorFileResponse_File@aggregator@@@Z 0042a540 f i aggregator.pb.obj
 0001:00029550       ??$implicit_cast@PBVMessageLite@protobuf@google@@PBVCollectorFileResponse@aggregator@@@internal@protobuf@google@@YAPBVMessageLite@12@ABQBVCollectorFileResponse@aggregator@@@Z 0042a550 f i aggregator.pb.obj
 0001:00029560       ??$implicit_cast@PBVMessageLite@protobuf@google@@PBVCollectRuleRequest@aggregator@@@internal@protobuf@google@@YAPBVMessageLite@12@ABQBVCollectRuleRequest@aggregator@@@Z 0042a560 f i aggregator.pb.obj
 0001:00029570       ??$implicit_cast@PBVMessageLite@protobuf@google@@PBVCollectRuleResponse_Rule@aggregator@@@internal@protobuf@google@@YAPBVMessageLite@12@ABQBVCollectRuleResponse_Rule@aggregator@@@Z 0042a570 f i aggregator.pb.obj
 0001:00029580       ??$implicit_cast@PBVMessageLite@protobuf@google@@PBVCollectRuleResponse@aggregator@@@internal@protobuf@google@@YAPBVMessageLite@12@ABQBVCollectRuleResponse@aggregator@@@Z 0042a580 f i aggregator.pb.obj
 0001:00029590       ??$implicit_cast@PBVMessageLite@protobuf@google@@PBVConfigRequest@aggregator@@@internal@protobuf@google@@YAPBVMessageLite@12@ABQBVConfigRequest@aggregator@@@Z 0042a590 f i aggregator.pb.obj
 0001:000295a0       ??$implicit_cast@PBVMessageLite@protobuf@google@@PBVConfigResponse_Time@aggregator@@@internal@protobuf@google@@YAPBVMessageLite@12@ABQBVConfigResponse_Time@aggregator@@@Z 0042a5a0 f i aggregator.pb.obj
 0001:000295b0       ??$implicit_cast@PBVMessageLite@protobuf@google@@PBVConfigResponse@aggregator@@@internal@protobuf@google@@YAPBVMessageLite@12@ABQBVConfigResponse@aggregator@@@Z 0042a5b0 f i aggregator.pb.obj
 0001:000295c0       ??$implicit_cast@PBVMessageLite@protobuf@google@@PBVLogonRequest@aggregator@@@internal@protobuf@google@@YAPBVMessageLite@12@ABQBVLogonRequest@aggregator@@@Z 0042a5c0 f i aggregator.pb.obj
 0001:000295d0       ??$implicit_cast@PBVMessageLite@protobuf@google@@PBVLogonResponse@aggregator@@@internal@protobuf@google@@YAPBVMessageLite@12@ABQBVLogonResponse@aggregator@@@Z 0042a5d0 f i aggregator.pb.obj
 0001:000295e0       ??$implicit_cast@PBVMessageLite@protobuf@google@@PBVLogoutRequest@aggregator@@@internal@protobuf@google@@YAPBVMessageLite@12@ABQBVLogoutRequest@aggregator@@@Z 0042a5e0 f i aggregator.pb.obj
 0001:000295f0       ??$implicit_cast@PBVMessageLite@protobuf@google@@PBVKeepAliveRequest@aggregator@@@internal@protobuf@google@@YAPBVMessageLite@12@ABQBVKeepAliveRequest@aggregator@@@Z 0042a5f0 f i aggregator.pb.obj
 0001:00029600       ??$implicit_cast@PBVMessageLite@protobuf@google@@PBVKeepAliveResponse@aggregator@@@internal@protobuf@google@@YAPBVMessageLite@12@ABQBVKeepAliveResponse@aggregator@@@Z 0042a600 f i aggregator.pb.obj
 0001:00029610       ??$implicit_cast@PBVMessageLite@protobuf@google@@PBVInstructResponse@aggregator@@@internal@protobuf@google@@YAPBVMessageLite@12@ABQBVInstructResponse@aggregator@@@Z 0042a610 f i aggregator.pb.obj
 0001:00029620       ??$implicit_cast@PBVMessageLite@protobuf@google@@PBVTransID@aggregator@@@internal@protobuf@google@@YAPBVMessageLite@12@ABQBVTransID@aggregator@@@Z 0042a620 f i aggregator.pb.obj
 0001:00029630       ??$implicit_cast@PBVMessageLite@protobuf@google@@PBVCollectorRequest@aggregator@@@internal@protobuf@google@@YAPBVMessageLite@12@ABQBVCollectorRequest@aggregator@@@Z 0042a630 f i aggregator.pb.obj
 0001:00029640       ??$implicit_cast@PBVMessageLite@protobuf@google@@PBVAggregatorResponse@aggregator@@@internal@protobuf@google@@YAPBVMessageLite@12@ABQBVAggregatorResponse@aggregator@@@Z 0042a640 f i aggregator.pb.obj
 0001:00029650       ??$_Char_traits_cat@U?$char_traits@D@std@@@std@@YA?AU_Secure_char_traits_tag@0@XZ 0042a650 f i aggregator.pb.obj
 0001:000296c0       ??$copy_s@U?$char_traits@D@std@@@_Traits_helper@std@@YAPADPADIPBDIU_Secure_char_traits_tag@1@@Z 0042a6c0 f i aggregator.pb.obj
 0001:000296f0       ?_Copy_s@?$char_traits@D@std@@SAPADPADIPBDI@Z 0042a6f0 f i aggregator.pb.obj
 0001:00029720       ??$move_s@U?$char_traits@D@std@@@_Traits_helper@std@@YAPADPADIPBDIU_Secure_char_traits_tag@1@@Z 0042a720 f i aggregator.pb.obj
 0001:00029750       ?_Move_s@?$char_traits@D@std@@SAPADPADIPBDI@Z 0042a750 f i aggregator.pb.obj
 0001:00029780       ?New@?$GenericTypeHandler@VFileRequest_File@aggregator@@@internal@protobuf@google@@SAPAVFileRequest_File@aggregator@@XZ 0042a780 f i aggregator.pb.obj
 0001:000297e0       ?Delete@?$GenericTypeHandler@VFileRequest_File@aggregator@@@internal@protobuf@google@@SAXPAVFileRequest_File@aggregator@@@Z 0042a7e0 f i aggregator.pb.obj
 0001:00029860       ?Clear@?$GenericTypeHandler@VFileRequest_File@aggregator@@@internal@protobuf@google@@SAXPAVFileRequest_File@aggregator@@@Z 0042a860 f i aggregator.pb.obj
 0001:00029890       ?Merge@?$GenericTypeHandler@VFileRequest_File@aggregator@@@internal@protobuf@google@@SAXABVFileRequest_File@aggregator@@PAV56@@Z 0042a890 f i aggregator.pb.obj
 0001:000298b0       ?New@?$GenericTypeHandler@VFileResponse_File@aggregator@@@internal@protobuf@google@@SAPAVFileResponse_File@aggregator@@XZ 0042a8b0 f i aggregator.pb.obj
 0001:00029910       ?Delete@?$GenericTypeHandler@VFileResponse_File@aggregator@@@internal@protobuf@google@@SAXPAVFileResponse_File@aggregator@@@Z 0042a910 f i aggregator.pb.obj
 0001:00029990       ?Clear@?$GenericTypeHandler@VFileResponse_File@aggregator@@@internal@protobuf@google@@SAXPAVFileResponse_File@aggregator@@@Z 0042a990 f i aggregator.pb.obj
 0001:000299c0       ?Merge@?$GenericTypeHandler@VFileResponse_File@aggregator@@@internal@protobuf@google@@SAXABVFileResponse_File@aggregator@@PAV56@@Z 0042a9c0 f i aggregator.pb.obj
 0001:000299e0       ?New@?$GenericTypeHandler@VFileDataRequest_FileData@aggregator@@@internal@protobuf@google@@SAPAVFileDataRequest_FileData@aggregator@@XZ 0042a9e0 f i aggregator.pb.obj
 0001:00029a40       ?Delete@?$GenericTypeHandler@VFileDataRequest_FileData@aggregator@@@internal@protobuf@google@@SAXPAVFileDataRequest_FileData@aggregator@@@Z 0042aa40 f i aggregator.pb.obj
 0001:00029ac0       ?Clear@?$GenericTypeHandler@VFileDataRequest_FileData@aggregator@@@internal@protobuf@google@@SAXPAVFileDataRequest_FileData@aggregator@@@Z 0042aac0 f i aggregator.pb.obj
 0001:00029af0       ?Merge@?$GenericTypeHandler@VFileDataRequest_FileData@aggregator@@@internal@protobuf@google@@SAXABVFileDataRequest_FileData@aggregator@@PAV56@@Z 0042aaf0 f i aggregator.pb.obj
 0001:00029b10       ?New@?$GenericTypeHandler@VFileDataResponse_FileData@aggregator@@@internal@protobuf@google@@SAPAVFileDataResponse_FileData@aggregator@@XZ 0042ab10 f i aggregator.pb.obj
 0001:00029b70       ?Delete@?$GenericTypeHandler@VFileDataResponse_FileData@aggregator@@@internal@protobuf@google@@SAXPAVFileDataResponse_FileData@aggregator@@@Z 0042ab70 f i aggregator.pb.obj
 0001:00029bf0       ?Clear@?$GenericTypeHandler@VFileDataResponse_FileData@aggregator@@@internal@protobuf@google@@SAXPAVFileDataResponse_FileData@aggregator@@@Z 0042abf0 f i aggregator.pb.obj
 0001:00029c20       ?Merge@?$GenericTypeHandler@VFileDataResponse_FileData@aggregator@@@internal@protobuf@google@@SAXABVFileDataResponse_FileData@aggregator@@PAV56@@Z 0042ac20 f i aggregator.pb.obj
 0001:00029c40       ?New@?$GenericTypeHandler@VCollectorFileResponse_File@aggregator@@@internal@protobuf@google@@SAPAVCollectorFileResponse_File@aggregator@@XZ 0042ac40 f i aggregator.pb.obj
 0001:00029ca0       ?Delete@?$GenericTypeHandler@VCollectorFileResponse_File@aggregator@@@internal@protobuf@google@@SAXPAVCollectorFileResponse_File@aggregator@@@Z 0042aca0 f i aggregator.pb.obj
 0001:00029d20       ?Clear@?$GenericTypeHandler@VCollectorFileResponse_File@aggregator@@@internal@protobuf@google@@SAXPAVCollectorFileResponse_File@aggregator@@@Z 0042ad20 f i aggregator.pb.obj
 0001:00029d50       ?Merge@?$GenericTypeHandler@VCollectorFileResponse_File@aggregator@@@internal@protobuf@google@@SAXABVCollectorFileResponse_File@aggregator@@PAV56@@Z 0042ad50 f i aggregator.pb.obj
 0001:00029d70       ?New@?$GenericTypeHandler@VCollectRuleResponse_Rule@aggregator@@@internal@protobuf@google@@SAPAVCollectRuleResponse_Rule@aggregator@@XZ 0042ad70 f i aggregator.pb.obj
 0001:00029dd0       ?Delete@?$GenericTypeHandler@VCollectRuleResponse_Rule@aggregator@@@internal@protobuf@google@@SAXPAVCollectRuleResponse_Rule@aggregator@@@Z 0042add0 f i aggregator.pb.obj
 0001:00029e50       ?Clear@?$GenericTypeHandler@VCollectRuleResponse_Rule@aggregator@@@internal@protobuf@google@@SAXPAVCollectRuleResponse_Rule@aggregator@@@Z 0042ae50 f i aggregator.pb.obj
 0001:00029e80       ?Merge@?$GenericTypeHandler@VCollectRuleResponse_Rule@aggregator@@@internal@protobuf@google@@SAXABVCollectRuleResponse_Rule@aggregator@@PAV56@@Z 0042ae80 f i aggregator.pb.obj
 0001:00029ea0       ?New@?$GenericTypeHandler@VConfigResponse_Time@aggregator@@@internal@protobuf@google@@SAPAVConfigResponse_Time@aggregator@@XZ 0042aea0 f i aggregator.pb.obj
 0001:00029f00       ?Delete@?$GenericTypeHandler@VConfigResponse_Time@aggregator@@@internal@protobuf@google@@SAXPAVConfigResponse_Time@aggregator@@@Z 0042af00 f i aggregator.pb.obj
 0001:00029f80       ?Clear@?$GenericTypeHandler@VConfigResponse_Time@aggregator@@@internal@protobuf@google@@SAXPAVConfigResponse_Time@aggregator@@@Z 0042af80 f i aggregator.pb.obj
 0001:00029fb0       ?Merge@?$GenericTypeHandler@VConfigResponse_Time@aggregator@@@internal@protobuf@google@@SAXABVConfigResponse_Time@aggregator@@PAV56@@Z 0042afb0 f i aggregator.pb.obj
 0001:00029fd0       ??$cast@VTypeHandler@?$RepeatedPtrField@VFileRequest_File@aggregator@@@protobuf@google@@@RepeatedPtrFieldBase@internal@protobuf@google@@CAPAVFileRequest_File@aggregator@@PAX@Z 0042afd0 f i aggregator.pb.obj
 0001:00029fe0       ??$cast@VTypeHandler@?$RepeatedPtrField@VFileResponse_File@aggregator@@@protobuf@google@@@RepeatedPtrFieldBase@internal@protobuf@google@@CAPAVFileResponse_File@aggregator@@PAX@Z 0042afe0 f i aggregator.pb.obj
 0001:00029ff0       ??$cast@VTypeHandler@?$RepeatedPtrField@VFileDataRequest_FileData@aggregator@@@protobuf@google@@@RepeatedPtrFieldBase@internal@protobuf@google@@CAPAVFileDataRequest_FileData@aggregator@@PAX@Z 0042aff0 f i aggregator.pb.obj
 0001:0002a000       ??$cast@VTypeHandler@?$RepeatedPtrField@VFileDataResponse_FileData@aggregator@@@protobuf@google@@@RepeatedPtrFieldBase@internal@protobuf@google@@CAPAVFileDataResponse_FileData@aggregator@@PAX@Z 0042b000 f i aggregator.pb.obj
 0001:0002a010       ??$cast@VTypeHandler@?$RepeatedPtrField@VCollectorFileResponse_File@aggregator@@@protobuf@google@@@RepeatedPtrFieldBase@internal@protobuf@google@@CAPAVCollectorFileResponse_File@aggregator@@PAX@Z 0042b010 f i aggregator.pb.obj
 0001:0002a020       ??$cast@VTypeHandler@?$RepeatedPtrField@VCollectRuleResponse_Rule@aggregator@@@protobuf@google@@@RepeatedPtrFieldBase@internal@protobuf@google@@CAPAVCollectRuleResponse_Rule@aggregator@@PAX@Z 0042b020 f i aggregator.pb.obj
 0001:0002a030       ??$cast@VTypeHandler@?$RepeatedPtrField@VConfigResponse_Time@aggregator@@@protobuf@google@@@RepeatedPtrFieldBase@internal@protobuf@google@@CAPAVConfigResponse_Time@aggregator@@PAX@Z 0042b030 f i aggregator.pb.obj
 0001:0002a040       ??0CollectorConfig@collector@tls@@QAE@PBD@Z 0042b040 f   collector_config.obj
 0001:0002a080       ??1CollectorConfig@collector@tls@@QAE@XZ 0042b080 f   collector_config.obj
 0001:0002a0b0       ?defaultConfig@CollectorConfig@collector@tls@@AAEXXZ 0042b0b0 f   collector_config.obj
 0001:0002a0d0       ?SetConfigResponse@CollectorConfig@collector@tls@@QAEXABVConfigResponse@aggregator@@PAUIHostContext@53@@Z 0042b0d0 f   collector_config.obj
 0001:0002a380       ?didCollectFile@CollectorConfig@collector@tls@@QAEIIPAI000@Z 0042b380 f   collector_config.obj
 0001:0002a5f0       ??1?$_Iterator@$00@?$list@UConfigTime@CollectorConfig@collector@tls@@V?$allocator@UConfigTime@CollectorConfig@collector@tls@@@std@@@std@@QAE@XZ 0042b5f0 f i collector_config.obj
 0001:0002a620       ??4?$_Iterator@$00@?$list@UConfigTime@CollectorConfig@collector@tls@@V?$allocator@UConfigTime@CollectorConfig@collector@tls@@@std@@@std@@QAEAAV012@ABV012@@Z 0042b620 f i collector_config.obj
 0001:0002a660       ??1?$_Const_iterator@$00@?$list@UConfigTime@CollectorConfig@collector@tls@@V?$allocator@UConfigTime@CollectorConfig@collector@tls@@@std@@@std@@QAE@XZ 0042b660 f i collector_config.obj
 0001:0002a690       ??4?$_Const_iterator@$00@?$list@UConfigTime@CollectorConfig@collector@tls@@V?$allocator@UConfigTime@CollectorConfig@collector@tls@@@std@@@std@@QAEAAV012@ABV012@@Z 0042b690 f i collector_config.obj
 0001:0002a6e0       ??1?$_Bidit@UConfigTime@CollectorConfig@collector@tls@@HPBU1234@ABU1234@@std@@QAE@XZ 0042b6e0 f i collector_config.obj
 0001:0002a710       ??4?$_Bidit@UConfigTime@CollectorConfig@collector@tls@@HPBU1234@ABU1234@@std@@QAEAAU01@ABU01@@Z 0042b710 f i collector_config.obj
 0001:0002a750       ??0?$list@UConfigTime@CollectorConfig@collector@tls@@V?$allocator@UConfigTime@CollectorConfig@collector@tls@@@std@@@std@@QAE@XZ 0042b750 f i collector_config.obj
 0001:0002a7c0       ??1?$list@UConfigTime@CollectorConfig@collector@tls@@V?$allocator@UConfigTime@CollectorConfig@collector@tls@@@std@@@std@@QAE@XZ 0042b7c0 f i collector_config.obj
 0001:0002a800       ?begin@?$list@UConfigTime@CollectorConfig@collector@tls@@V?$allocator@UConfigTime@CollectorConfig@collector@tls@@@std@@@std@@QAE?AV?$_Iterator@$00@12@XZ 0042b800 f i collector_config.obj
 0001:0002a850       ?end@?$list@UConfigTime@CollectorConfig@collector@tls@@V?$allocator@UConfigTime@CollectorConfig@collector@tls@@@std@@@std@@QAE?AV?$_Iterator@$00@12@XZ 0042b850 f i collector_config.obj
 0001:0002a8a0       ?push_back@?$list@UConfigTime@CollectorConfig@collector@tls@@V?$allocator@UConfigTime@CollectorConfig@collector@tls@@@std@@@std@@QAEXABUConfigTime@CollectorConfig@collector@tls@@@Z 0042b8a0 f i collector_config.obj
 0001:0002a8f0       ?clear@?$list@UConfigTime@CollectorConfig@collector@tls@@V?$allocator@UConfigTime@CollectorConfig@collector@tls@@@std@@@std@@QAEXXZ 0042b8f0 f i collector_config.obj
 0001:0002a9f0       ?sort@?$list@UConfigTime@CollectorConfig@collector@tls@@V?$allocator@UConfigTime@CollectorConfig@collector@tls@@@std@@@std@@QAEXXZ 0042b9f0 f i collector_config.obj
 0001:0002ad30       ??0?$_Iterator@$00@?$list@UConfigTime@CollectorConfig@collector@tls@@V?$allocator@UConfigTime@CollectorConfig@collector@tls@@@std@@@std@@QAE@XZ 0042bd30 f i collector_config.obj
 0001:0002ad60       ??D?$_Iterator@$00@?$list@UConfigTime@CollectorConfig@collector@tls@@V?$allocator@UConfigTime@CollectorConfig@collector@tls@@@std@@@std@@QBEAAUConfigTime@CollectorConfig@collector@tls@@XZ 0042bd60 f i collector_config.obj
 0001:0002ad90       ??E?$_Iterator@$00@?$list@UConfigTime@CollectorConfig@collector@tls@@V?$allocator@UConfigTime@CollectorConfig@collector@tls@@@std@@@std@@QAEAAV012@XZ 0042bd90 f i collector_config.obj
 0001:0002adc0       ??9?$_Const_iterator@$00@?$list@UConfigTime@CollectorConfig@collector@tls@@V?$allocator@UConfigTime@CollectorConfig@collector@tls@@@std@@@std@@QBE_NABV012@@Z 0042bdc0 f i collector_config.obj
 0001:0002ae10       ??1?$_List_val@UConfigTime@CollectorConfig@collector@tls@@V?$allocator@UConfigTime@CollectorConfig@collector@tls@@@std@@@std@@QAE@XZ 0042be10 f i collector_config.obj
 0001:0002ae40       ??_H@YGXPAXIHP6EPAX0@Z@Z   0042be40 f i collector_config.obj
 0001:0002ae90       ??_I@YGXPAXIHP6EX0@Z@Z     0042be90 f i collector_config.obj
 0001:0002aef0       ??0?$_Iterator@$00@?$list@UConfigTime@CollectorConfig@collector@tls@@V?$allocator@UConfigTime@CollectorConfig@collector@tls@@@std@@@std@@QAE@ABV012@@Z 0042bef0 f i collector_config.obj
 0001:0002af30       ??1?$_List_ptr@UConfigTime@CollectorConfig@collector@tls@@V?$allocator@UConfigTime@CollectorConfig@collector@tls@@@std@@@std@@QAE@XZ 0042bf30 f i collector_config.obj
 0001:0002af60       ??0?$_Const_iterator@$00@?$list@UConfigTime@CollectorConfig@collector@tls@@V?$allocator@UConfigTime@CollectorConfig@collector@tls@@@std@@@std@@QAE@ABV012@@Z 0042bf60 f i collector_config.obj
 0001:0002afb0       ??1?$_List_nod@UConfigTime@CollectorConfig@collector@tls@@V?$allocator@UConfigTime@CollectorConfig@collector@tls@@@std@@@std@@QAE@XZ 0042bfb0 f i collector_config.obj
 0001:0002afe0       ??0?$_Bidit@UConfigTime@CollectorConfig@collector@tls@@HPBU1234@ABU1234@@std@@QAE@ABU01@@Z 0042bfe0 f i collector_config.obj
 0001:0002b020       ?_Nextnode@?$list@UConfigTime@CollectorConfig@collector@tls@@V?$allocator@UConfigTime@CollectorConfig@collector@tls@@@std@@@std@@KAAAPAU_Node@?$_List_nod@UConfigTime@CollectorConfig@collector@tls@@V?$allocator@UConfigTime@CollectorConfig@collector@tls@@@std@@@2@PAU342@@Z 0042c020 f i collector_config.obj
 0001:0002b030       ?_Prevnode@?$list@UConfigTime@CollectorConfig@collector@tls@@V?$allocator@UConfigTime@CollectorConfig@collector@tls@@@std@@@std@@KAAAPAU_Node@?$_List_nod@UConfigTime@CollectorConfig@collector@tls@@V?$allocator@UConfigTime@CollectorConfig@collector@tls@@@std@@@2@PAU342@@Z 0042c030 f i collector_config.obj
 0001:0002b040       ??0?$list@UConfigTime@CollectorConfig@collector@tls@@V?$allocator@UConfigTime@CollectorConfig@collector@tls@@@std@@@std@@QAE@ABV?$allocator@UConfigTime@CollectorConfig@collector@tls@@@1@@Z 0042c040 f i collector_config.obj
 0001:0002b0b0       ?empty@?$list@UConfigTime@CollectorConfig@collector@tls@@V?$allocator@UConfigTime@CollectorConfig@collector@tls@@@std@@@std@@QBE_NXZ 0042c0b0 f i collector_config.obj
 0001:0002b0e0       ?_Insert@?$list@UConfigTime@CollectorConfig@collector@tls@@V?$allocator@UConfigTime@CollectorConfig@collector@tls@@@std@@@std@@QAEXV?$_Iterator@$00@12@ABUConfigTime@CollectorConfig@collector@tls@@@Z 0042c0e0 f i collector_config.obj
 0001:0002b1d0       ?swap@?$list@UConfigTime@CollectorConfig@collector@tls@@V?$allocator@UConfigTime@CollectorConfig@collector@tls@@@std@@@std@@QAEXAAV12@@Z 0042c1d0 f i collector_config.obj
 0001:0002b330       ?_Swap_all@_Container_base@std@@QBEXAAV12@@Z 0042c330 f i collector_config.obj
 0001:0002b450       ?splice@?$list@UConfigTime@CollectorConfig@collector@tls@@V?$allocator@UConfigTime@CollectorConfig@collector@tls@@@std@@@std@@QAEXV?$_Iterator@$00@12@AAV12@@Z 0042c450 f i collector_config.obj
 0001:0002b500       ?merge@?$list@UConfigTime@CollectorConfig@collector@tls@@V?$allocator@UConfigTime@CollectorConfig@collector@tls@@@std@@@std@@QAEXAAV12@@Z 0042c500 f i collector_config.obj
 0001:0002b820       ?_Splice@?$list@UConfigTime@CollectorConfig@collector@tls@@V?$allocator@UConfigTime@CollectorConfig@collector@tls@@@std@@@std@@QAEXV?$_Iterator@$00@12@AAV12@00I_N@Z 0042c820 f i collector_config.obj
 0001:0002bb60       ?_Buynode@?$list@UConfigTime@CollectorConfig@collector@tls@@V?$allocator@UConfigTime@CollectorConfig@collector@tls@@@std@@@std@@IAEPAU_Node@?$_List_nod@UConfigTime@CollectorConfig@collector@tls@@V?$allocator@UConfigTime@CollectorConfig@collector@tls@@@std@@@2@XZ 0042cb60 f i collector_config.obj
 0001:0002bc80       ?_Tidy@?$list@UConfigTime@CollectorConfig@collector@tls@@V?$allocator@UConfigTime@CollectorConfig@collector@tls@@@std@@@std@@IAEXXZ 0042cc80 f i collector_config.obj
 0001:0002bd20       ?_Orphan_ptr@?$list@UConfigTime@CollectorConfig@collector@tls@@V?$allocator@UConfigTime@CollectorConfig@collector@tls@@@std@@@std@@IBEXAAV12@PAU_Node@?$_List_nod@UConfigTime@CollectorConfig@collector@tls@@V?$allocator@UConfigTime@CollectorConfig@collector@tls@@@std@@@2@@Z 0042cd20 f i collector_config.obj
 0001:0002be20       ??0?$_List_val@UConfigTime@CollectorConfig@collector@tls@@V?$allocator@UConfigTime@CollectorConfig@collector@tls@@@std@@@std@@QAE@V?$allocator@UConfigTime@CollectorConfig@collector@tls@@@1@@Z 0042ce20 f i collector_config.obj
 0001:0002be80       ??0?$allocator@UConfigTime@CollectorConfig@collector@tls@@@std@@QAE@XZ 0042ce80 f i collector_config.obj
 0001:0002bea0       ?deallocate@?$allocator@U_Node@?$_List_nod@UConfigTime@CollectorConfig@collector@tls@@V?$allocator@UConfigTime@CollectorConfig@collector@tls@@@std@@@std@@@std@@QAEXPAU_Node@?$_List_nod@UConfigTime@CollectorConfig@collector@tls@@V?$allocator@UConfigTime@CollectorConfig@collector@tls@@@std@@@2@I@Z 0042cea0 f i collector_config.obj
 0001:0002bee0       ?destroy@?$allocator@U_Node@?$_List_nod@UConfigTime@CollectorConfig@collector@tls@@V?$allocator@UConfigTime@CollectorConfig@collector@tls@@@std@@@std@@@std@@QAEXPAU_Node@?$_List_nod@UConfigTime@CollectorConfig@collector@tls@@V?$allocator@UConfigTime@CollectorConfig@collector@tls@@@std@@@2@@Z 0042cee0 f i collector_config.obj
 0001:0002bf20       ??0?$_Iterator@$00@?$list@UConfigTime@CollectorConfig@collector@tls@@V?$allocator@UConfigTime@CollectorConfig@collector@tls@@@std@@@std@@QAE@PAU_Node@?$_List_nod@UConfigTime@CollectorConfig@collector@tls@@V?$allocator@UConfigTime@CollectorConfig@collector@tls@@@std@@@2@PBV12@@Z 0042cf20 f i collector_config.obj
 0001:0002bf60       ??0?$_Const_iterator@$00@?$list@UConfigTime@CollectorConfig@collector@tls@@V?$allocator@UConfigTime@CollectorConfig@collector@tls@@@std@@@std@@QAE@XZ 0042cf60 f i collector_config.obj
 0001:0002bfa0       ??D?$_Const_iterator@$00@?$list@UConfigTime@CollectorConfig@collector@tls@@V?$allocator@UConfigTime@CollectorConfig@collector@tls@@@std@@@std@@QBEABUConfigTime@CollectorConfig@collector@tls@@XZ 0042cfa0 f i collector_config.obj
 0001:0002c070       ??E?$_Const_iterator@$00@?$list@UConfigTime@CollectorConfig@collector@tls@@V?$allocator@UConfigTime@CollectorConfig@collector@tls@@@std@@@std@@QAEAAV012@XZ 0042d070 f i collector_config.obj
 0001:0002c150       ??8?$_Const_iterator@$00@?$list@UConfigTime@CollectorConfig@collector@tls@@V?$allocator@UConfigTime@CollectorConfig@collector@tls@@@std@@@std@@QBE_NABV012@@Z 0042d150 f i collector_config.obj
 0001:0002c1a0       ??0?$_Bidit@UConfigTime@CollectorConfig@collector@tls@@HPBU1234@ABU1234@@std@@QAE@XZ 0042d1a0 f i collector_config.obj
 0001:0002c1d0       ?_Myval@?$list@UConfigTime@CollectorConfig@collector@tls@@V?$allocator@UConfigTime@CollectorConfig@collector@tls@@@std@@@std@@KAAAUConfigTime@CollectorConfig@collector@tls@@PAU_Node@?$_List_nod@UConfigTime@CollectorConfig@collector@tls@@V?$allocator@UConfigTime@CollectorConfig@collector@tls@@@std@@@2@@Z 0042d1d0 f i collector_config.obj
 0001:0002c1e0       ?erase@?$list@UConfigTime@CollectorConfig@collector@tls@@V?$allocator@UConfigTime@CollectorConfig@collector@tls@@@std@@@std@@QAE?AV?$_Iterator@$00@12@V312@0@Z 0042d1e0 f i collector_config.obj
 0001:0002c390       ?splice@?$list@UConfigTime@CollectorConfig@collector@tls@@V?$allocator@UConfigTime@CollectorConfig@collector@tls@@@std@@@std@@QAEXV?$_Iterator@$00@12@AAV12@00@Z 0042d390 f i collector_config.obj
 0001:0002c5c0       ?_Buynode@?$list@UConfigTime@CollectorConfig@collector@tls@@V?$allocator@UConfigTime@CollectorConfig@collector@tls@@@std@@@std@@IAEPAU_Node@?$_List_nod@UConfigTime@CollectorConfig@collector@tls@@V?$allocator@UConfigTime@CollectorConfig@collector@tls@@@std@@@2@PAU342@0ABUConfigTime@CollectorConfig@collector@tls@@@Z 0042d5c0 f i collector_config.obj
 0001:0002c700       ?_Incsize@?$list@UConfigTime@CollectorConfig@collector@tls@@V?$allocator@UConfigTime@CollectorConfig@collector@tls@@@std@@@std@@IAEXI@Z 0042d700 f i collector_config.obj
 0001:0002c7a0       ??0length_error@std@@QAE@ABV?$basic_string@DU?$char_traits@D@std@@V?$allocator@D@2@@1@@Z 0042d7a0 f i collector_config.obj
 0001:0002c7f0       ??0logic_error@std@@QAE@ABV?$basic_string@DU?$char_traits@D@std@@V?$allocator@D@2@@1@@Z 0042d7f0 f i collector_config.obj
 0001:0002c850       ?what@logic_error@std@@UBEPBDXZ 0042d850 f i collector_config.obj
 0001:0002c880       ?_Doraise@logic_error@std@@MBEXXZ 0042d880 f i collector_config.obj
 0001:0002c8c0       ??_Glogic_error@std@@UAEPAXI@Z 0042d8c0 f i collector_config.obj
 0001:0002c8c0       ??_Elogic_error@std@@UAEPAXI@Z 0042d8c0 f i collector_config.obj
 0001:0002c910       ??1logic_error@std@@UAE@XZ 0042d910 f i collector_config.obj
 0001:0002c960       ??1length_error@std@@UAE@XZ 0042d960 f i collector_config.obj
 0001:0002c9a0       ?_Doraise@length_error@std@@MBEXXZ 0042d9a0 f i collector_config.obj
 0001:0002c9e0       ??_Glength_error@std@@UAEPAXI@Z 0042d9e0 f i collector_config.obj
 0001:0002c9e0       ??_Elength_error@std@@UAEPAXI@Z 0042d9e0 f i collector_config.obj
 0001:0002ca30       ??0?$basic_string@DU?$char_traits@D@std@@V?$allocator@D@2@@std@@QAE@ABV01@@Z 0042da30 f i collector_config.obj
 0001:0002caa0       ?c_str@?$basic_string@DU?$char_traits@D@std@@V?$allocator@D@2@@std@@QBEPBDXZ 0042daa0 f i collector_config.obj
 0001:0002cad0       ??0?$_String_val@DV?$allocator@D@std@@@std@@QAE@ABV01@@Z 0042dad0 f i collector_config.obj
 0001:0002cb30       ??0?$_List_ptr@UConfigTime@CollectorConfig@collector@tls@@V?$allocator@UConfigTime@CollectorConfig@collector@tls@@@std@@@std@@IAE@V?$allocator@UConfigTime@CollectorConfig@collector@tls@@@1@@Z 0042db30 f i collector_config.obj
 0001:0002cb90       ??0?$allocator@UConfigTime@CollectorConfig@collector@tls@@@std@@QAE@ABV01@@Z 0042db90 f i collector_config.obj
 0001:0002cbb0       ?allocate@?$allocator@U_Node@?$_List_nod@UConfigTime@CollectorConfig@collector@tls@@V?$allocator@UConfigTime@CollectorConfig@collector@tls@@@std@@@std@@@std@@QAEPAU_Node@?$_List_nod@UConfigTime@CollectorConfig@collector@tls@@V?$allocator@UConfigTime@CollectorConfig@collector@tls@@@std@@@2@I@Z 0042dbb0 f i collector_config.obj
 0001:0002cbf0       ?construct@?$allocator@PAU_Node@?$_List_nod@UConfigTime@CollectorConfig@collector@tls@@V?$allocator@UConfigTime@CollectorConfig@collector@tls@@@std@@@std@@@std@@QAEXPAPAU_Node@?$_List_nod@UConfigTime@CollectorConfig@collector@tls@@V?$allocator@UConfigTime@CollectorConfig@collector@tls@@@std@@@2@ABQAU342@@Z 0042dbf0 f i collector_config.obj
 0001:0002cc30       ?destroy@?$allocator@PAU_Node@?$_List_nod@UConfigTime@CollectorConfig@collector@tls@@V?$allocator@UConfigTime@CollectorConfig@collector@tls@@@std@@@std@@@std@@QAEXPAPAU_Node@?$_List_nod@UConfigTime@CollectorConfig@collector@tls@@V?$allocator@UConfigTime@CollectorConfig@collector@tls@@@std@@@2@@Z 0042dc30 f i collector_config.obj
 0001:0002cc70       ??E?$_Iterator@$00@?$list@UConfigTime@CollectorConfig@collector@tls@@V?$allocator@UConfigTime@CollectorConfig@collector@tls@@@std@@@std@@QAE?AV012@H@Z 0042dc70 f i collector_config.obj
 0001:0002cd20       ??0?$_Const_iterator@$00@?$list@UConfigTime@CollectorConfig@collector@tls@@V?$allocator@UConfigTime@CollectorConfig@collector@tls@@@std@@@std@@QAE@PAU_Node@?$_List_nod@UConfigTime@CollectorConfig@collector@tls@@V?$allocator@UConfigTime@CollectorConfig@collector@tls@@@std@@@2@PBV12@@Z 0042dd20 f i collector_config.obj
 0001:0002cd70       ?_Mynode@?$_Const_iterator@$00@?$list@UConfigTime@CollectorConfig@collector@tls@@V?$allocator@UConfigTime@CollectorConfig@collector@tls@@@std@@@std@@QBEPAU_Node@?$_List_nod@UConfigTime@CollectorConfig@collector@tls@@V?$allocator@UConfigTime@CollectorConfig@collector@tls@@@std@@@3@XZ 0042dd70 f i collector_config.obj
 0001:0002cd90       ?_Compat@?$_Const_iterator@$00@?$list@UConfigTime@CollectorConfig@collector@tls@@V?$allocator@UConfigTime@CollectorConfig@collector@tls@@@std@@@std@@QBEXABV123@@Z 0042dd90 f i collector_config.obj
 0001:0002ce50       ?max_size@?$list@UConfigTime@CollectorConfig@collector@tls@@V?$allocator@UConfigTime@CollectorConfig@collector@tls@@@std@@@std@@QBEIXZ 0042de50 f i collector_config.obj
 0001:0002ce80       ?erase@?$list@UConfigTime@CollectorConfig@collector@tls@@V?$allocator@UConfigTime@CollectorConfig@collector@tls@@@std@@@std@@QAE?AV?$_Iterator@$00@12@V312@@Z 0042de80 f i collector_config.obj
 0001:0002d000       ??0?$_List_nod@UConfigTime@CollectorConfig@collector@tls@@V?$allocator@UConfigTime@CollectorConfig@collector@tls@@@std@@@std@@IAE@V?$allocator@UConfigTime@CollectorConfig@collector@tls@@@1@@Z 0042e000 f i collector_config.obj
 0001:0002d050       ?construct@?$allocator@UConfigTime@CollectorConfig@collector@tls@@@std@@QAEXPAUConfigTime@CollectorConfig@collector@tls@@ABU3456@@Z 0042e050 f i collector_config.obj
 0001:0002d090       ?max_size@?$allocator@UConfigTime@CollectorConfig@collector@tls@@@std@@QBEIXZ 0042e090 f i collector_config.obj
 0001:0002d0f0       ??$?8UConfigTime@CollectorConfig@collector@tls@@U0123@@std@@YA_NABV?$allocator@UConfigTime@CollectorConfig@collector@tls@@@0@0@Z 0042e0f0 f i collector_config.obj
 0001:0002d100       ??$swap@PAU_Node@?$_List_nod@UConfigTime@CollectorConfig@collector@tls@@V?$allocator@UConfigTime@CollectorConfig@collector@tls@@@std@@@std@@@std@@YAXAAPAU_Node@?$_List_nod@UConfigTime@CollectorConfig@collector@tls@@V?$allocator@UConfigTime@CollectorConfig@collector@tls@@@std@@@0@0@Z 0042e100 f i collector_config.obj
 0001:0002d140       ??$_Debug_order@V?$_Iterator@$00@?$list@UConfigTime@CollectorConfig@collector@tls@@V?$allocator@UConfigTime@CollectorConfig@collector@tls@@@std@@@std@@@std@@YAXV?$_Iterator@$00@?$list@UConfigTime@CollectorConfig@collector@tls@@V?$allocator@UConfigTime@CollectorConfig@collector@tls@@@std@@@0@0PB_WI@Z 0042e140 f i collector_config.obj
 0001:0002d210       ??$_Debug_lt@UConfigTime@CollectorConfig@collector@tls@@U1234@@std@@YA_NAAUConfigTime@CollectorConfig@collector@tls@@0PB_WI@Z 0042e210 f i collector_config.obj
 0001:0002d280       ??MConfigTime@CollectorConfig@collector@tls@@QAE_NABU0123@@Z 0042e280 f i collector_config.obj
 0001:0002d2b0       ??$insert@V?$_Iterator@$00@?$list@UConfigTime@CollectorConfig@collector@tls@@V?$allocator@UConfigTime@CollectorConfig@collector@tls@@@std@@@std@@@?$list@UConfigTime@CollectorConfig@collector@tls@@V?$allocator@UConfigTime@CollectorConfig@collector@tls@@@std@@@std@@QAEXV?$_Iterator@$00@01@00@Z 0042e2b0 f i collector_config.obj
 0001:0002d360       ??$_Destroy@U_Node@?$_List_nod@UConfigTime@CollectorConfig@collector@tls@@V?$allocator@UConfigTime@CollectorConfig@collector@tls@@@std@@@std@@@std@@YAXPAU_Node@?$_List_nod@UConfigTime@CollectorConfig@collector@tls@@V?$allocator@UConfigTime@CollectorConfig@collector@tls@@@std@@@0@@Z 0042e360 f i collector_config.obj
 0001:0002d370       ??$_Distance@V?$_Iterator@$00@?$list@UConfigTime@CollectorConfig@collector@tls@@V?$allocator@UConfigTime@CollectorConfig@collector@tls@@@std@@@std@@I@std@@YAXV?$_Iterator@$00@?$list@UConfigTime@CollectorConfig@collector@tls@@V?$allocator@UConfigTime@CollectorConfig@collector@tls@@@std@@@0@0AAI@Z 0042e370 f i collector_config.obj
 0001:0002d410       ??$?0UConfigTime@CollectorConfig@collector@tls@@@?$allocator@PAU_Node@?$_List_nod@UConfigTime@CollectorConfig@collector@tls@@V?$allocator@UConfigTime@CollectorConfig@collector@tls@@@std@@@std@@@std@@QAE@ABV?$allocator@UConfigTime@CollectorConfig@collector@tls@@@1@@Z 0042e410 f i collector_config.obj
 0001:0002d430       ??$_Allocate@U_Node@?$_List_nod@UConfigTime@CollectorConfig@collector@tls@@V?$allocator@UConfigTime@CollectorConfig@collector@tls@@@std@@@std@@@std@@YAPAU_Node@?$_List_nod@UConfigTime@CollectorConfig@collector@tls@@V?$allocator@UConfigTime@CollectorConfig@collector@tls@@@std@@@0@IPAU120@@Z 0042e430 f i collector_config.obj
 0001:0002d4b0       ??$_Construct@PAU_Node@?$_List_nod@UConfigTime@CollectorConfig@collector@tls@@V?$allocator@UConfigTime@CollectorConfig@collector@tls@@@std@@@std@@PAU123@@std@@YAXPAPAU_Node@?$_List_nod@UConfigTime@CollectorConfig@collector@tls@@V?$allocator@UConfigTime@CollectorConfig@collector@tls@@@std@@@0@ABQAU120@@Z 0042e4b0 f i collector_config.obj
 0001:0002d530       ??2@YAPAXIPAX@Z            0042e530 f i collector_config.obj
 0001:0002d540       ??$_Destroy@PAU_Node@?$_List_nod@UConfigTime@CollectorConfig@collector@tls@@V?$allocator@UConfigTime@CollectorConfig@collector@tls@@@std@@@std@@@std@@YAXPAPAU_Node@?$_List_nod@UConfigTime@CollectorConfig@collector@tls@@V?$allocator@UConfigTime@CollectorConfig@collector@tls@@@std@@@0@@Z 0042e540 f i collector_config.obj
 0001:0002d550       ??$?0UConfigTime@CollectorConfig@collector@tls@@@?$allocator@U_Node@?$_List_nod@UConfigTime@CollectorConfig@collector@tls@@V?$allocator@UConfigTime@CollectorConfig@collector@tls@@@std@@@std@@@std@@QAE@ABV?$allocator@UConfigTime@CollectorConfig@collector@tls@@@1@@Z 0042e550 f i collector_config.obj
 0001:0002d570       ??$_Construct@UConfigTime@CollectorConfig@collector@tls@@U1234@@std@@YAXPAUConfigTime@CollectorConfig@collector@tls@@ABU1234@@Z 0042e570 f i collector_config.obj
 0001:0002d610       ??$_Debug_range@V?$_Iterator@$00@?$list@UConfigTime@CollectorConfig@collector@tls@@V?$allocator@UConfigTime@CollectorConfig@collector@tls@@@std@@@std@@@std@@YAXV?$_Iterator@$00@?$list@UConfigTime@CollectorConfig@collector@tls@@V?$allocator@UConfigTime@CollectorConfig@collector@tls@@@std@@@0@0PB_WI@Z 0042e610 f i collector_config.obj
 0001:0002d6b0       ??$_Iter_cat@V?$_Iterator@$00@?$list@UConfigTime@CollectorConfig@collector@tls@@V?$allocator@UConfigTime@CollectorConfig@collector@tls@@@std@@@std@@@std@@YA?AUbidirectional_iterator_tag@0@ABV?$_Iterator@$00@?$list@UConfigTime@CollectorConfig@collector@tls@@V?$allocator@UConfigTime@CollectorConfig@collector@tls@@@std@@@0@@Z 0042e6b0 f i collector_config.obj
 0001:0002d710       ??$_Debug_order2@V?$_Iterator@$00@?$list@UConfigTime@CollectorConfig@collector@tls@@V?$allocator@UConfigTime@CollectorConfig@collector@tls@@@std@@@std@@@std@@YAXV?$_Iterator@$00@?$list@UConfigTime@CollectorConfig@collector@tls@@V?$allocator@UConfigTime@CollectorConfig@collector@tls@@@std@@@0@0PB_WIUforward_iterator_tag@0@@Z 0042e710 f i collector_config.obj
 0001:0002d840       ??$_Insert@V?$_Iterator@$00@?$list@UConfigTime@CollectorConfig@collector@tls@@V?$allocator@UConfigTime@CollectorConfig@collector@tls@@@std@@@std@@@?$list@UConfigTime@CollectorConfig@collector@tls@@V?$allocator@UConfigTime@CollectorConfig@collector@tls@@@std@@@std@@QAEXV?$_Iterator@$00@01@00Uforward_iterator_tag@1@@Z 0042e840 f i collector_config.obj
 0001:0002da30       ??$_Distance2@V?$_Iterator@$00@?$list@UConfigTime@CollectorConfig@collector@tls@@V?$allocator@UConfigTime@CollectorConfig@collector@tls@@@std@@@std@@I@std@@YAXV?$_Iterator@$00@?$list@UConfigTime@CollectorConfig@collector@tls@@V?$allocator@UConfigTime@CollectorConfig@collector@tls@@@std@@@0@0AAIUbidirectional_iterator_tag@0@@Z 0042ea30 f i collector_config.obj
 0001:0002da90       ??F?$_Iterator@$00@?$list@UConfigTime@CollectorConfig@collector@tls@@V?$allocator@UConfigTime@CollectorConfig@collector@tls@@@std@@@std@@QAEAAV012@XZ 0042ea90 f i collector_config.obj
 0001:0002dac0       ??F?$_Const_iterator@$00@?$list@UConfigTime@CollectorConfig@collector@tls@@V?$allocator@UConfigTime@CollectorConfig@collector@tls@@@std@@@std@@QAEAAV012@XZ 0042eac0 f i collector_config.obj
 0001:0002dba0       ??$_Debug_range2@V?$_Iterator@$00@?$list@UConfigTime@CollectorConfig@collector@tls@@V?$allocator@UConfigTime@CollectorConfig@collector@tls@@@std@@@std@@@std@@YAXV?$_Iterator@$00@?$list@UConfigTime@CollectorConfig@collector@tls@@V?$allocator@UConfigTime@CollectorConfig@collector@tls@@@std@@@0@0PB_WIUinput_iterator_tag@0@@Z 0042eba0 f i collector_config.obj
 0001:0002dbd0       ??$_Debug_get_cont@V?$_Iterator@$00@?$list@UConfigTime@CollectorConfig@collector@tls@@V?$allocator@UConfigTime@CollectorConfig@collector@tls@@@std@@@std@@@std@@YAPBV_Container_base@0@ABV?$_Iterator@$00@?$list@UConfigTime@CollectorConfig@collector@tls@@V?$allocator@UConfigTime@CollectorConfig@collector@tls@@@std@@@0@@Z 0042ebd0 f i collector_config.obj
 0001:0002dbe0       ?lockFile@@YAIXZ           0042ebe0 f   launcher.obj
 0001:0002dc80       ?unlockFile@@YAXXZ         0042ec80 f   launcher.obj
 0001:0002dce0       ?StartServiceA@@YA?AW4rc_e@@PAUIInterrupt@aggregator@tls@@PBD@Z 0042ece0 f   launcher.obj
 0001:0002dff0       ?ctrl_handler@@YAXH@Z      0042eff0 f   launcher.obj
 0001:0002e020       ?Interrupt@InterruptImpl@collector@tls@@QAEXIPBD@Z 0042f020 f i launcher.obj
 0001:0002e060       _main                      0042f060 f   launcher.obj
 0001:0002e200       ??0?$AutoRelease@PAVLogCollectorImpl@collector@tls@@@tls@@QAE@PAVLogCollectorImpl@collector@1@@Z 0042f200 f i launcher.obj
 0001:0002e230       ??1?$AutoRelease@PAVLogCollectorImpl@collector@tls@@@tls@@QAE@XZ 0042f230 f i launcher.obj
 0001:0002e260       ??C?$AutoRelease@PAVLogCollectorImpl@collector@tls@@@tls@@QAEPAVLogCollectorImpl@collector@1@XZ 0042f260 f i launcher.obj
 0001:0002e280       ??B?$AutoRelease@PAVLogCollectorImpl@collector@tls@@@tls@@QAEPAVLogCollectorImpl@collector@1@XZ 0042f280 f i launcher.obj
 0001:0002e2a0       ?Release@?$AutoRelease@PAVLogCollectorImpl@collector@tls@@@tls@@QAEXXZ 0042f2a0 f i launcher.obj
 0001:0002e2f0       ?Release@LogCollectorImpl@collector@tls@@QAEXXZ 0042f2f0 f i launcher.obj
 0001:0002e360       ??_GLogCollectorImpl@collector@tls@@QAEPAXI@Z 0042f360 f i launcher.obj
 0001:0002e3b0       ??0InterruptImpl@collector@tls@@QAE@I@Z 0042f3b0 f i launcher.obj
 0001:0002e420       ?didInterrupt@InterruptImpl@collector@tls@@UAEIXZ 0042f420 f i launcher.obj
 0001:0002e440       ?InterruptNO@InterruptImpl@collector@tls@@UAEIXZ 0042f440 f i launcher.obj
 0001:0002e460       ?InterruptInfo@InterruptImpl@collector@tls@@UBEPBDXZ 0042f460 f i launcher.obj
 0001:0002e480       ??0IInterrupt@aggregator@tls@@QAE@XZ 0042f480 f i launcher.obj
 0001:0002e4b0       ?packetProc@LogCollectorImpl@collector@tls@@AAE?AW4rc_e@@IIPBE@Z 0042f4b0 f   packet_proc.obj
 0001:0002e780       ?UpdateTime@TimeControl@base@tls@@QAEXXZ 0042f780 f i packet_proc.obj
 0001:0002e7b0       ?getResponse@LogCollectorImpl@collector@tls@@AAEPAVRequestAndResponse@23@I@Z 0042f7b0 f i packet_proc.obj
 0001:0002e7e0       ?GetAggregatorResponse@RequestAndResponse@collector@tls@@QAEAAVAggregatorResponse@aggregator@@XZ 0042f7e0 f i packet_proc.obj
 0001:0002e800       ?packetProcLogon@LogCollectorImpl@collector@tls@@AAE?AW4rc_e@@PAVRequestAndResponse@23@@Z 0042f800 f   packet_proc.obj
 0001:0002e8d0       ?setAggregator@LogCollectorImpl@collector@tls@@AAEXPBD@Z 0042f8d0 f i packet_proc.obj
 0001:0002e930       ?GetLogonResponse@RequestAndResponse@collector@tls@@QAEABVLogonResponse@aggregator@@XZ 0042f930 f i packet_proc.obj
 0001:0002e960       ?SetSessionID@RequestAndResponse@collector@tls@@QAEX_K@Z 0042f960 f i packet_proc.obj
 0001:0002e9a0       ?packetProcLogout@LogCollectorImpl@collector@tls@@AAE?AW4rc_e@@PAVRequestAndResponse@23@@Z 0042f9a0 f   packet_proc.obj
 0001:0002e9e0       ?setLogon@LogCollectorImpl@collector@tls@@AAEXI@Z 0042f9e0 f i packet_proc.obj
 0001:0002ea50       ?packetProcKeepAlive@LogCollectorImpl@collector@tls@@AAE?AW4rc_e@@PAVRequestAndResponse@23@@Z 0042fa50 f   packet_proc.obj
 0001:0002eab0       ?GetKeepAliveResponse@RequestAndResponse@collector@tls@@QAEABVKeepAliveResponse@aggregator@@XZ 0042fab0 f i packet_proc.obj
 0001:0002eae0       ?packetProcLog@LogCollectorImpl@collector@tls@@AAE?AW4rc_e@@PAVRequestAndResponse@23@@Z 0042fae0 f   packet_proc.obj
 0001:0002eb00       ?packetProcConfig@LogCollectorImpl@collector@tls@@AAE?AW4rc_e@@PAVRequestAndResponse@23@@Z 0042fb00 f   packet_proc.obj
 0001:0002eba0       ?getCollectorConfig@LogCollectorImpl@collector@tls@@AAEAAVCollectorConfig@23@XZ 0042fba0 f i packet_proc.obj
 0001:0002ebc0       ?GetConfigResponse@RequestAndResponse@collector@tls@@QAEABVConfigResponse@aggregator@@XZ 0042fbc0 f i packet_proc.obj
 0001:0002ebf0       ?packetProcCheckSum@LogCollectorImpl@collector@tls@@AAE?AW4rc_e@@PAVRequestAndResponse@23@@Z 0042fbf0 f   packet_proc.obj
 0001:0002ec10       ?packetProcCollectorFile@LogCollectorImpl@collector@tls@@AAE?AW4rc_e@@PAVRequestAndResponse@23@@Z 0042fc10 f   packet_proc.obj
 0001:0002ed40       ?GetCollectorFileResponse@RequestAndResponse@collector@tls@@QAEABVCollectorFileResponse@aggregator@@XZ 0042fd40 f i packet_proc.obj
 0001:0002ed70       ?packetProcCollectRule@LogCollectorImpl@collector@tls@@AAE?AW4rc_e@@PAVRequestAndResponse@23@@Z 0042fd70 f   packet_proc.obj
 0001:0002ee80       ?GetCollectRuleResponse@RequestAndResponse@collector@tls@@QAEABVCollectRuleResponse@aggregator@@XZ 0042fe80 f i packet_proc.obj
 0001:0002eeb0       ?packetProcInstruct@LogCollectorImpl@collector@tls@@AAE?AW4rc_e@@PAVRequestAndResponse@23@@Z 0042feb0 f   packet_proc.obj
 0001:0002efa0       ?GetInstructResponse@RequestAndResponse@collector@tls@@QAEABVInstructResponse@aggregator@@XZ 0042ffa0 f i packet_proc.obj
 0001:0002efd0       ?packetProcFile@LogCollectorImpl@collector@tls@@AAE?AW4rc_e@@PAVRequestAndResponse@23@@Z 0042ffd0 f   packet_proc.obj
 0001:0002f0e0       ?GetFileResponse@RequestAndResponse@collector@tls@@QAEABVFileResponse@aggregator@@XZ 004300e0 f i packet_proc.obj
 0001:0002f110       ?packetProcFileData@LogCollectorImpl@collector@tls@@AAE?AW4rc_e@@PAVRequestAndResponse@23@@Z 00430110 f   packet_proc.obj
 0001:0002f230       ?GetFileDataResponse@RequestAndResponse@collector@tls@@QAEABVFileDataResponse@aggregator@@XZ 00430230 f i packet_proc.obj
 0001:0002f260       ?reqLogon@LogCollectorImpl@collector@tls@@AAE?AW4rc_e@@XZ 00430260 f   packet_proc.obj
 0001:0002f360       ?getRequest@LogCollectorImpl@collector@tls@@AAEPAVRequestAndResponse@23@I@Z 00430360 f i packet_proc.obj
 0001:0002f390       ?set_name@LogonRequest@aggregator@@QAEXPBD@Z 00430390 f i packet_proc.obj
 0001:0002f440       ?GetLogonRequest@RequestAndResponse@collector@tls@@QAEPAVLogonRequest@aggregator@@XZ 00430440 f i packet_proc.obj
 0001:0002f470       ?SerializeRequest@RequestAndResponse@collector@tls@@QAE?AW4rc_e@@XZ 00430470 f i packet_proc.obj
 0001:0002f5f0       ?GetRequestData@RequestAndResponse@collector@tls@@QAEPBEXZ 004305f0 f i packet_proc.obj
 0001:0002f650       ?GetRequestSize@RequestAndResponse@collector@tls@@QAE?BIXZ 00430650 f i packet_proc.obj
 0001:0002f6b0       ?reqLogout@LogCollectorImpl@collector@tls@@AAE?AW4rc_e@@PBD@Z 004306b0 f   packet_proc.obj
 0001:0002f7a0       ?set_msg@LogoutRequest@aggregator@@QAEXPBD@Z 004307a0 f i packet_proc.obj
 0001:0002f850       ?GetLogoutRequest@RequestAndResponse@collector@tls@@QAEPAVLogoutRequest@aggregator@@XZ 00430850 f i packet_proc.obj
 0001:0002f880       ?reqKeepAlive@LogCollectorImpl@collector@tls@@AAE?AW4rc_e@@XZ 00430880 f   packet_proc.obj
 0001:0002f9a0       ?GetKeepAliveRequest@RequestAndResponse@collector@tls@@QAEPAVKeepAliveRequest@aggregator@@XZ 004309a0 f i packet_proc.obj
 0001:0002f9d0       ?reqLog@LogCollectorImpl@collector@tls@@AAE?AW4rc_e@@IPBDPAEI@Z 004309d0 f   packet_proc.obj
 0001:0002fb10       ?set_data@LogRequest@aggregator@@QAEXPBD@Z 00430b10 f i packet_proc.obj
 0001:0002fbc0       ?set_content@LogRequest@aggregator@@QAEXPBXI@Z 00430bc0 f i packet_proc.obj
 0001:0002fc70       ?GetLogRequest@RequestAndResponse@collector@tls@@QAEPAVLogRequest@aggregator@@XZ 00430c70 f i packet_proc.obj
 0001:0002fca0       ?reqAllConfig@LogCollectorImpl@collector@tls@@AAE?AW4rc_e@@XZ 00430ca0 f   packet_proc.obj
 0001:0002fd40       ?reqConfig@LogCollectorImpl@collector@tls@@AAE?AW4rc_e@@I@Z 00430d40 f   packet_proc.obj
 0001:0002fe30       ?GetConfigRequest@RequestAndResponse@collector@tls@@QAEPAVConfigRequest@aggregator@@XZ 00430e30 f i packet_proc.obj
 0001:0002fe60       ?reqCollectorFile@LogCollectorImpl@collector@tls@@AAE?AW4rc_e@@I@Z 00430e60 f   packet_proc.obj
 0001:0002ff50       ?GetCollectorFileRequest@RequestAndResponse@collector@tls@@QAEPAVCollectorFileRequest@aggregator@@XZ 00430f50 f i packet_proc.obj
 0001:0002ff80       ?reqCollectRule@LogCollectorImpl@collector@tls@@AAE?AW4rc_e@@I@Z 00430f80 f   packet_proc.obj
 0001:00030070       ?GetCollectRuleRequest@RequestAndResponse@collector@tls@@QAEPAVCollectRuleRequest@aggregator@@XZ 00431070 f i packet_proc.obj
 0001:000300a0       ?reqFile@LogCollectorImpl@collector@tls@@AAE?AW4rc_e@@PBD0_K@Z 004310a0 f   packet_proc.obj
 0001:00030360       ?set_dir@FileRequest_File@aggregator@@QAEXPBD@Z 00431360 f i packet_proc.obj
 0001:00030410       ?set_name@FileRequest_File@aggregator@@QAEXPBD@Z 00431410 f i packet_proc.obj
 0001:000304c0       ?GetFileRequest@RequestAndResponse@collector@tls@@QAEPAVFileRequest@aggregator@@XZ 004314c0 f i packet_proc.obj
 0001:000304f0       ?reqFileData@LogCollectorImpl@collector@tls@@AAE?AW4rc_e@@I_JPAEI@Z 004314f0 f   packet_proc.obj
 0001:00030970       ?set_data@FileDataRequest_FileData@aggregator@@QAEXPBXI@Z 00431970 f i packet_proc.obj
 0001:00030a20       ?GetFileDataRequest@RequestAndResponse@collector@tls@@QAEPAVFileDataRequest@aggregator@@XZ 00431a20 f i packet_proc.obj
 0001:00030a50       ?reqCheckSum@LogCollectorImpl@collector@tls@@AAE?AW4rc_e@@III@Z 00431a50 f   packet_proc.obj
 0001:00030b80       ?GetCheckSumRequest@RequestAndResponse@collector@tls@@QAEPAVCheckSumRequest@aggregator@@XZ 00431b80 f i packet_proc.obj
 0001:00030bb0       ?checkSumFile@LogCollectorImpl@collector@tls@@AAEXI@Z 00431bb0 f   packet_proc.obj
 0001:00030bd0       ?idle@LogCollectorImpl@collector@tls@@AAE?AW4rc_e@@XZ 00431bd0 f   packet_proc.obj
 0001:00030c40       ?didLogon@LogCollectorImpl@collector@tls@@AAEIXZ 00431c40 f i packet_proc.obj
 0001:00030c60       ?collectFile@LogCollectorImpl@collector@tls@@AAE?AW4rc_e@@I@Z 00431c60 f   packet_proc.obj
 0001:000310b0       ?GetIdleTime@TimeControl@base@tls@@QAEII@Z 004320b0 f i packet_proc.obj
 0001:00031120       ?SetTimeOut@TimeControl@base@tls@@QAEXI@Z 00432120 f i packet_proc.obj
 0001:00031150       ?GetTimeOut@TimeControl@base@tls@@QBEIXZ 00432150 f i packet_proc.obj
 0001:00031170       ?initRequestAndResponse@LogCollectorImpl@collector@tls@@AAE?AW4rc_e@@XZ 00432170 f   packet_proc.obj
 0001:000311d0       ?CreateInstance@RequestAndResponse@collector@tls@@SAPAV123@I@Z 004321d0 f i packet_proc.obj
 0001:00031240       ??0RequestAndResponse@collector@tls@@AAE@I@Z 00432240 f i packet_proc.obj
 0001:000312d0       ?releaseRequestAndResponse@LogCollectorImpl@collector@tls@@AAEXXZ 004322d0 f   packet_proc.obj
 0001:00031320       ?Release@RequestAndResponse@collector@tls@@QAEXXZ 00432320 f i packet_proc.obj
 0001:00031390       ??_GRequestAndResponse@collector@tls@@AAEPAXI@Z 00432390 f i packet_proc.obj
 0001:000313e0       ??1RequestAndResponse@collector@tls@@AAE@XZ 004323e0 f i packet_proc.obj
 0001:00031440       ?empty@?$queue@PAUIFileNode@aggregator@tls@@V?$deque@PAUIFileNode@aggregator@tls@@V?$allocator@PAUIFileNode@aggregator@tls@@@std@@@std@@@std@@QBE_NXZ 00432440 f i packet_proc.obj
 0001:00031470       ??C?$AutoRelease@PAVICoder@coder@tls@@@tls@@QAEPAVICoder@coder@1@XZ 00432470 f i packet_proc.obj
 0001:00031490       ??C?$AutoRelease@PAVMemoryNodeStd@base@tls@@@tls@@QAEPAVMemoryNodeStd@base@1@XZ 00432490 f i packet_proc.obj
 0001:000314b0       ??C?$AutoRelease@PAUIHostContext@aggregator@tls@@@tls@@QAEPAUIHostContext@aggregator@1@XZ 004324b0 f i packet_proc.obj
 0001:000314d0       ??B?$AutoRelease@PAUIHostContext@aggregator@tls@@@tls@@QAEPAUIHostContext@aggregator@1@XZ 004324d0 f i packet_proc.obj
 0001:000314f0       ??C?$AutoRelease@PAUINetHandler@aggregator@tls@@@tls@@QAEPAUINetHandler@aggregator@1@XZ 004324f0 f i packet_proc.obj
 0001:00031510       ??B?$AutoRelease@PAUINetHandler@aggregator@tls@@@tls@@QAEPAUINetHandler@aggregator@1@XZ 00432510 f i packet_proc.obj
 0001:00031530       ?empty@?$deque@PAUIFileNode@aggregator@tls@@V?$allocator@PAUIFileNode@aggregator@tls@@@std@@@std@@QBE_NXZ 00432530 f i packet_proc.obj
 0001:00031560       ??1ForceShutdown@?A0x012c5183@collector@tls@@QAE@XZ 00432560 f i packet_proc.obj
 0001:00031590       ?tick@micro_time@base@tls@@SA_KXZ 00432590 f   base_static:time_util.obj
 0001:00031630       ?set_start@micro_time@base@tls@@SAX_K@Z 00432630 f   base_static:time_util.obj
 0001:00031710       ?to_second@micro_time@base@tls@@SA?B_K_K@Z 00432710 f i base_static:time_util.obj
 0001:00031730       ?format_with_ymd@micro_time@base@tls@@SAPBDPAD_K@Z 00432730 f   base_static:time_util.obj
 0001:000319c0       ?to_millisecond@micro_time@base@tls@@SA?B_K_K@Z 004329c0 f i base_static:time_util.obj
 0001:00031a00       ?format@micro_time@base@tls@@SAPBDPAD_K@Z 00432a00 f   base_static:time_util.obj
 0001:00031bd0       ?now@DayTime@base@tls@@SAIXZ 00432bd0 f   base_static:time_util.obj
 0001:00031c10       ?to_localtime@DayTime@base@tls@@SAIIIIIII@Z 00432c10 f   base_static:time_util.obj
 0001:00031cc0       ?get_localtime@DayTime@base@tls@@SAIPAI00000I@Z 00432cc0 f   base_static:time_util.obj
 0001:00031da0       ?to_string@DayTime@base@tls@@SAII@Z 00432da0 f   base_static:time_util.obj
 0001:00031e40       ?to_string@DayTime@base@tls@@SAI_K@Z 00432e40 f   base_static:time_util.obj
 0001:00031f10       ?to_time@DayTime@base@tls@@SAII@Z 00432f10 f   base_static:time_util.obj
 0001:00031f80       ?day_sec@DayTime@base@tls@@SAII@Z 00432f80 f   base_static:time_util.obj
 0001:00032020       ?SetNameInternal@base@tls@@YAXIPBD@Z 00433020 f   base_static:thread.obj
 0001:00032110       ?ThreadFunc@base@tls@@YGKPAX@Z 00433110 f   base_static:thread.obj
 0001:000321c0       ?CreateThreadInternal@?A0x50004a8d@base@tls@@YAIIPAUThreadParams@23@PAPAX@Z 004331c0 f   base_static:thread.obj
 0001:00032270       ?JoinThreadInternal@?A0x50004a8d@base@tls@@YAXPAX@Z 00433270 f   base_static:thread.obj
 0001:000322c0       ?Start@Thread@base@tls@@QAEIPAV123@PAX@Z 004332c0 f   base_static:thread.obj
 0001:000323a0       ??0ThreadParams@base@tls@@QAE@PAVThread@12@0PAX@Z 004333a0 f i base_static:thread.obj
 0001:000323f0       ??1ThreadParams@base@tls@@QAE@XZ 004333f0 f i base_static:thread.obj
 0001:00032420       ?Start@Thread@base@tls@@QAEIPAX@Z 00433420 f   base_static:thread.obj
 0001:000324f0       ?Stop@Thread@base@tls@@QAEXXZ 004334f0 f   base_static:thread.obj
 0001:00032540       ?Init@Thread@base@tls@@QAEIXZ 00433540 f   base_static:thread.obj
 0001:00032590       ?Name@Thread@base@tls@@QBEPBDXZ 00433590 f i base_static:thread.obj
 0001:000325b0       ?DeInit@Thread@base@tls@@QAEXXZ 004335b0 f   base_static:thread.obj
 0001:000325d0       ??0Thread@base@tls@@QAE@PBD@Z 004335d0 f   base_static:thread.obj
 0001:00032660       ?ThreadMain@Thread@base@tls@@UAEXPAX@Z 00433660 f i base_static:thread.obj
 0001:00032680       ??1Thread@base@tls@@QAE@XZ 00433680 f   base_static:thread.obj
 0001:000326b0       ?sleep@Thread@base@tls@@SAXI@Z 004336b0 f   base_static:thread.obj
 0001:000326e0       ??0WaitableEvent@base@tls@@QAE@II@Z 004336e0 f   base_static:waitable_event.obj
 0001:00032740       ??1WaitableEvent@base@tls@@QAE@XZ 00433740 f   base_static:waitable_event.obj
 0001:00032780       ?Reset@WaitableEvent@base@tls@@QAEXXZ 00433780 f   base_static:waitable_event.obj
 0001:000327c0       ?Signal@WaitableEvent@base@tls@@QAEXXZ 004337c0 f   base_static:waitable_event.obj
 0001:00032800       ?IsSignaled@WaitableEvent@base@tls@@QAEIXZ 00433800 f   base_static:waitable_event.obj
 0001:00032830       ?Wait@WaitableEvent@base@tls@@QAEXXZ 00433830 f   base_static:waitable_event.obj
 0001:00032870       ?TimedWait@WaitableEvent@base@tls@@QAEII@Z 00433870 f   base_static:waitable_event.obj
 0001:000328e0       ?VerifyVersion@internal@protobuf@google@@YAXHHPBD@Z 004338e0 f   protobuf_lite:common.obj
 0001:00032a80       ?VersionString@internal@protobuf@google@@YA?AV?$basic_string@DU?$char_traits@D@std@@V?$allocator@D@2@@std@@H@Z 00433a80 f   protobuf_lite:common.obj
 0001:00032b60       ?DefaultLogHandler@internal@protobuf@google@@YAXW4LogLevel@23@PBDHABV?$basic_string@DU?$char_traits@D@std@@V?$allocator@D@2@@std@@@Z 00433b60 f   protobuf_lite:common.obj
 0001:00032bb0       ?NullLogHandler@internal@protobuf@google@@YAXW4LogLevel@23@PBDHABV?$basic_string@DU?$char_traits@D@std@@V?$allocator@D@2@@std@@@Z 00433bb0 f   protobuf_lite:common.obj
 0001:00032bc0       ?DeleteLogSilencerCount@internal@protobuf@google@@YAXXZ 00433bc0 f   protobuf_lite:common.obj
 0001:00032c20       ??_GMutex@internal@protobuf@google@@QAEPAXI@Z 00433c20 f i protobuf_lite:common.obj
 0001:00032c60       ?InitLogSilencerCount@internal@protobuf@google@@YAXXZ 00433c60 f   protobuf_lite:common.obj
 0001:00032cc0       ?InitLogSilencerCountOnce@internal@protobuf@google@@YAXXZ 00433cc0 f   protobuf_lite:common.obj
 0001:00032ce0       ??6LogMessage@internal@protobuf@google@@QAEAAV0123@ABV?$basic_string@DU?$char_traits@D@std@@V?$allocator@D@2@@std@@@Z 00433ce0 f   protobuf_lite:common.obj
 0001:00032d10       ??6LogMessage@internal@protobuf@google@@QAEAAV0123@PBD@Z 00433d10 f   protobuf_lite:common.obj
 0001:00032d40       ??6LogMessage@internal@protobuf@google@@QAEAAV0123@D@Z 00433d40 f   protobuf_lite:common.obj
 0001:00032df0       ??6LogMessage@internal@protobuf@google@@QAEAAV0123@H@Z 00433df0 f   protobuf_lite:common.obj
 0001:00032ea0       ??6LogMessage@internal@protobuf@google@@QAEAAV0123@I@Z 00433ea0 f   protobuf_lite:common.obj
 0001:00032f50       ??6LogMessage@internal@protobuf@google@@QAEAAV0123@J@Z 00433f50 f   protobuf_lite:common.obj
 0001:00033000       ??6LogMessage@internal@protobuf@google@@QAEAAV0123@K@Z 00434000 f   protobuf_lite:common.obj
 0001:000330b0       ??6LogMessage@internal@protobuf@google@@QAEAAV0123@N@Z 004340b0 f   protobuf_lite:common.obj
 0001:00033170       ??0LogMessage@internal@protobuf@google@@QAE@W4LogLevel@23@PBDH@Z 00434170 f   protobuf_lite:common.obj
 0001:000331c0       ??1LogMessage@internal@protobuf@google@@QAE@XZ 004341c0 f   protobuf_lite:common.obj
 0001:000331f0       ?Finish@LogMessage@internal@protobuf@google@@AAEXXZ 004341f0 f   protobuf_lite:common.obj
 0001:000332d0       ??0MutexLock@internal@protobuf@google@@QAE@PAVMutex@123@@Z 004342d0 f i protobuf_lite:common.obj
 0001:00033310       ??1MutexLock@internal@protobuf@google@@QAE@XZ 00434310 f i protobuf_lite:common.obj
 0001:00033340       ??4LogFinisher@internal@protobuf@google@@QAEXAAVLogMessage@123@@Z 00434340 f   protobuf_lite:common.obj
 0001:00033370       ?SetLogHandler@protobuf@google@@YAP6AXW4LogLevel@12@PBDHABV?$basic_string@DU?$char_traits@D@std@@V?$allocator@D@2@@std@@@ZP6AX01H2@Z@Z 00434370 f   protobuf_lite:common.obj
 0001:000333c0       ??0LogSilencer@protobuf@google@@QAE@XZ 004343c0 f   protobuf_lite:common.obj
 0001:00033450       ??1LogSilencer@protobuf@google@@QAE@XZ 00434450 f   protobuf_lite:common.obj
 0001:000334d0       ??1Closure@protobuf@google@@UAE@XZ 004344d0 f   protobuf_lite:common.obj
 0001:000334f0       ??1FunctionClosure0@internal@protobuf@google@@UAE@XZ 004344f0 f   protobuf_lite:common.obj
 0001:00033520       ?DoNothing@protobuf@google@@YAXXZ 00434520 f   protobuf_lite:common.obj
 0001:00033530       ??0Mutex@internal@protobuf@google@@QAE@XZ 00434530 f   protobuf_lite:common.obj
 0001:00033590       ??1Mutex@internal@protobuf@google@@QAE@XZ 00434590 f   protobuf_lite:common.obj
 0001:000335e0       ?Lock@Mutex@internal@protobuf@google@@QAEXXZ 004345e0 f   protobuf_lite:common.obj
 0001:00033630       ?Unlock@Mutex@internal@protobuf@google@@QAEXXZ 00434630 f   protobuf_lite:common.obj
 0001:00033670       ?AssertHeld@Mutex@internal@protobuf@google@@QAEXXZ 00434670 f   protobuf_lite:common.obj
 0001:00033710       ?InitShutdownFunctions@internal@protobuf@google@@YAXXZ 00434710 f   protobuf_lite:common.obj
 0001:000337a0       ?OnShutdown@internal@protobuf@google@@YAXP6AXXZ@Z 004347a0 f   protobuf_lite:common.obj
 0001:00033820       ?InitShutdownFunctionsOnce@internal@protobuf@google@@YAXXZ 00434820 f i protobuf_lite:common.obj
 0001:00033840       ?ShutdownProtobufLibrary@protobuf@google@@YAXXZ 00434840 f   protobuf_lite:common.obj
 0001:00033930       ??_G?$vector@P6AXXZV?$allocator@P6AXXZ@std@@@std@@QAEPAXI@Z 00434930 f i protobuf_lite:common.obj
 0001:00033970       ??Y?$basic_string@DU?$char_traits@D@std@@V?$allocator@D@2@@std@@QAEAAV01@ABV01@@Z 00434970 f i protobuf_lite:common.obj
 0001:000339a0       ??Y?$basic_string@DU?$char_traits@D@std@@V?$allocator@D@2@@std@@QAEAAV01@PBD@Z 004349a0 f i protobuf_lite:common.obj
 0001:000339d0       ??0?$vector@P6AXXZV?$allocator@P6AXXZ@std@@@std@@QAE@XZ 004349d0 f i protobuf_lite:common.obj
 0001:00033a20       ??1?$vector@P6AXXZV?$allocator@P6AXXZ@std@@@std@@QAE@XZ 00434a20 f i protobuf_lite:common.obj
 0001:00033a50       ?size@?$vector@P6AXXZV?$allocator@P6AXXZ@std@@@std@@QBEIXZ 00434a50 f i protobuf_lite:common.obj
 0001:00033aa0       ?at@?$vector@P6AXXZV?$allocator@P6AXXZ@std@@@std@@QAEAAP6AXXZI@Z 00434aa0 f i protobuf_lite:common.obj
 0001:00033b20       ?push_back@?$vector@P6AXXZV?$allocator@P6AXXZ@std@@@std@@QAEXABQ6AXXZ@Z 00434b20 f i protobuf_lite:common.obj
 0001:00033bc0       ??1?$_Vector_val@P6AXXZV?$allocator@P6AXXZ@std@@@std@@QAE@XZ 00434bc0 f i protobuf_lite:common.obj
 0001:00033bf0       ??1?$_Vector_iterator@P6AXXZV?$allocator@P6AXXZ@std@@@std@@QAE@XZ 00434bf0 f i protobuf_lite:common.obj
 0001:00033c20       ??1?$_Vector_const_iterator@P6AXXZV?$allocator@P6AXXZ@std@@@std@@QAE@XZ 00434c20 f i protobuf_lite:common.obj
 0001:00033c50       ??1?$_Ranit@P6AXXZHPBQ6AXXZABQ6AXXZ@std@@QAE@XZ 00434c50 f i protobuf_lite:common.obj
 0001:00033c80       ?append@?$basic_string@DU?$char_traits@D@std@@V?$allocator@D@2@@std@@QAEAAV12@ABV12@@Z 00434c80 f i protobuf_lite:common.obj
 0001:00033cc0       ?append@?$basic_string@DU?$char_traits@D@std@@V?$allocator@D@2@@std@@QAEAAV12@PBD@Z 00434cc0 f i protobuf_lite:common.obj
 0001:00033d00       ?capacity@?$vector@P6AXXZV?$allocator@P6AXXZ@std@@@std@@QBEIXZ 00434d00 f i protobuf_lite:common.obj
 0001:00033d50       ?begin@?$vector@P6AXXZV?$allocator@P6AXXZ@std@@@std@@QAE?AV?$_Vector_iterator@P6AXXZV?$allocator@P6AXXZ@std@@@2@XZ 00434d50 f i protobuf_lite:common.obj
 0001:00033d90       ?end@?$vector@P6AXXZV?$allocator@P6AXXZ@std@@@std@@QAE?AV?$_Vector_iterator@P6AXXZV?$allocator@P6AXXZ@std@@@2@XZ 00434d90 f i protobuf_lite:common.obj
 0001:00033dd0       ?insert@?$vector@P6AXXZV?$allocator@P6AXXZ@std@@@std@@QAE?AV?$_Vector_iterator@P6AXXZV?$allocator@P6AXXZ@std@@@2@V32@ABQ6AXXZ@Z 00434dd0 f i protobuf_lite:common.obj
 0001:00033ea0       ?_Buy@?$vector@P6AXXZV?$allocator@P6AXXZ@std@@@std@@IAE_NI@Z 00434ea0 f i protobuf_lite:common.obj
 0001:00033f40       ?_Tidy@?$vector@P6AXXZV?$allocator@P6AXXZ@std@@@std@@IAEXXZ 00434f40 f i protobuf_lite:common.obj
 0001:00033fd0       ?_Ufill@?$vector@P6AXXZV?$allocator@P6AXXZ@std@@@std@@IAEPAP6AXXZPAP6AXXZIABQ6AXXZ@Z 00434fd0 f i protobuf_lite:common.obj
 0001:00034020       ?_Xran@?$vector@P6AXXZV?$allocator@P6AXXZ@std@@@std@@KAXXZ 00435020 f i protobuf_lite:common.obj
 0001:00034080       ??0out_of_range@std@@QAE@ABV?$basic_string@DU?$char_traits@D@std@@V?$allocator@D@2@@1@@Z 00435080 f i protobuf_lite:common.obj
 0001:000340c0       ??1out_of_range@std@@UAE@XZ 004350c0 f i protobuf_lite:common.obj
 0001:000340f0       ?_Doraise@out_of_range@std@@MBEXXZ 004350f0 f i protobuf_lite:common.obj
 0001:00034120       ??_Eout_of_range@std@@UAEPAXI@Z 00435120 f i protobuf_lite:common.obj
 0001:00034120       ??_Gout_of_range@std@@UAEPAXI@Z 00435120 f i protobuf_lite:common.obj
 0001:00034160       ?_Orphan_range@?$vector@P6AXXZV?$allocator@P6AXXZ@std@@@std@@IBEXPAP6AXXZ0@Z 00435160 f i protobuf_lite:common.obj
 0001:00034220       ??0?$_Vector_val@P6AXXZV?$allocator@P6AXXZ@std@@@std@@IAE@V?$allocator@P6AXXZ@1@@Z 00435220 f i protobuf_lite:common.obj
 0001:00034260       ??0?$allocator@P6AXXZ@std@@QAE@XZ 00435260 f i protobuf_lite:common.obj
 0001:00034280       ??D?$_Vector_iterator@P6AXXZV?$allocator@P6AXXZ@std@@@std@@QBEAAP6AXXZXZ 00435280 f i protobuf_lite:common.obj
 0001:000342b0       ??H?$_Vector_iterator@P6AXXZV?$allocator@P6AXXZ@std@@@std@@QBE?AV01@H@Z 004352b0 f i protobuf_lite:common.obj
 0001:00034340       ??0?$_Vector_iterator@P6AXXZV?$allocator@P6AXXZ@std@@@std@@QAE@ABV01@@Z 00435340 f i protobuf_lite:common.obj
 0001:00034370       ??0?$_Vector_const_iterator@P6AXXZV?$allocator@P6AXXZ@std@@@std@@QAE@ABV01@@Z 00435370 f i protobuf_lite:common.obj
 0001:000343b0       ??0?$_Ranit@P6AXXZHPBQ6AXXZABQ6AXXZ@std@@QAE@ABU01@@Z 004353b0 f i protobuf_lite:common.obj
 0001:000343e0       ?append@?$basic_string@DU?$char_traits@D@std@@V?$allocator@D@2@@std@@QAEAAV12@ABV12@II@Z 004353e0 f i protobuf_lite:common.obj
 0001:000344d0       ?append@?$basic_string@DU?$char_traits@D@std@@V?$allocator@D@2@@std@@QAEAAV12@PBDI@Z 004354d0 f i protobuf_lite:common.obj
 0001:000345c0       ?max_size@?$vector@P6AXXZV?$allocator@P6AXXZ@std@@@std@@QBEIXZ 004355c0 f i protobuf_lite:common.obj
 0001:000345f0       ?_Destroy@?$vector@P6AXXZV?$allocator@P6AXXZ@std@@@std@@IAEXPAP6AXXZ0@Z 004355f0 f i protobuf_lite:common.obj
 0001:00034630       ?_Insert_n@?$vector@P6AXXZV?$allocator@P6AXXZ@std@@@std@@IAEXV?$_Vector_iterator@P6AXXZV?$allocator@P6AXXZ@std@@@2@IABQ6AXXZ@Z 00435630 f i protobuf_lite:common.obj
 0001:000349c0       ?_Xlen@?$vector@P6AXXZV?$allocator@P6AXXZ@std@@@std@@KAXXZ 004359c0 f i protobuf_lite:common.obj
 0001:00034a20       ??0?$allocator@P6AXXZ@std@@QAE@ABV01@@Z 00435a20 f i protobuf_lite:common.obj
 0001:00034a40       ?deallocate@?$allocator@P6AXXZ@std@@QAEXPAP6AXXZI@Z 00435a40 f i protobuf_lite:common.obj
 0001:00034a70       ?allocate@?$allocator@P6AXXZ@std@@QAEPAP6AXXZI@Z 00435a70 f i protobuf_lite:common.obj
 0001:00034aa0       ??0?$_Vector_iterator@P6AXXZV?$allocator@P6AXXZ@std@@@std@@QAE@PAP6AXXZPBV_Container_base@1@@Z 00435aa0 f i protobuf_lite:common.obj
 0001:00034ae0       ??Y?$_Vector_iterator@P6AXXZV?$allocator@P6AXXZ@std@@@std@@QAEAAV01@H@Z 00435ae0 f i protobuf_lite:common.obj
 0001:00034b10       ??G?$_Vector_iterator@P6AXXZV?$allocator@P6AXXZ@std@@@std@@QBEHABV?$_Vector_const_iterator@P6AXXZV?$allocator@P6AXXZ@std@@@1@@Z 00435b10 f i protobuf_lite:common.obj
 0001:00034b40       ??D?$_Vector_const_iterator@P6AXXZV?$allocator@P6AXXZ@std@@@std@@QBEABQ6AXXZXZ 00435b40 f i protobuf_lite:common.obj
 0001:00034be0       ?max_size@?$allocator@P6AXXZ@std@@QBEIXZ 00435be0 f i protobuf_lite:common.obj
 0001:00034c30       ??0?$_Vector_const_iterator@P6AXXZV?$allocator@P6AXXZ@std@@@std@@QAE@PAP6AXXZPBV_Container_base@1@@Z 00435c30 f i protobuf_lite:common.obj
 0001:00034cd0       ??Y?$_Vector_const_iterator@P6AXXZV?$allocator@P6AXXZ@std@@@std@@QAEAAV01@H@Z 00435cd0 f i protobuf_lite:common.obj
 0001:00034dc0       ??G?$_Vector_const_iterator@P6AXXZV?$allocator@P6AXXZ@std@@@std@@QBEHABV01@@Z 00435dc0 f i protobuf_lite:common.obj
 0001:00034e00       ??0?$_Ranit@P6AXXZHPBQ6AXXZABQ6AXXZ@std@@QAE@XZ 00435e00 f i protobuf_lite:common.obj
 0001:00034e30       ?_Compat@?$_Vector_const_iterator@P6AXXZV?$allocator@P6AXXZ@std@@@std@@QBEXABV12@@Z 00435e30 f i protobuf_lite:common.obj
 0001:00034ec0       ??$unchecked_uninitialized_fill_n@PAP6AXXZIP6AXXZV?$allocator@P6AXXZ@std@@@stdext@@YAXPAP6AXXZIABQ6AXXZAAV?$allocator@P6AXXZ@std@@@Z 00435ec0 f i protobuf_lite:common.obj
 0001:00034f20       ??$_Destroy_range@P6AXXZV?$allocator@P6AXXZ@std@@@std@@YAXPAP6AXXZ0AAV?$allocator@P6AXXZ@0@@Z 00435f20 f i protobuf_lite:common.obj
 0001:00034f70       ??$_Umove@PAP6AXXZ@?$vector@P6AXXZV?$allocator@P6AXXZ@std@@@std@@IAEPAP6AXXZPAP6AXXZ00@Z 00435f70 f i protobuf_lite:common.obj
 0001:00034fb0       ??$fill@PAP6AXXZP6AXXZ@std@@YAXPAP6AXXZ0ABQ6AXXZ@Z 00435fb0 f i protobuf_lite:common.obj
 0001:00034ff0       ??$_Unchecked_move_backward@PAP6AXXZPAP6AXXZ@stdext@@YAPAP6AXXZPAP6AXXZ00@Z 00435ff0 f i protobuf_lite:common.obj
 0001:00035070       ??$_Allocate@P6AXXZ@std@@YAPAP6AXXZIPAP6AXXZ@Z 00436070 f i protobuf_lite:common.obj
 0001:000350e0       ??$_Ptr_cat@PAP6AXXZPAP6AXXZ@std@@YA?AU_Scalar_ptr_iterator_tag@0@AAPAP6AXXZ0@Z 004360e0 f i protobuf_lite:common.obj
 0001:00035130       ??$_Uninit_fill_n@PAP6AXXZIP6AXXZV?$allocator@P6AXXZ@std@@@std@@YAXPAP6AXXZIABQ6AXXZAAV?$allocator@P6AXXZ@0@U_Scalar_ptr_iterator_tag@0@U_Range_checked_iterator_tag@0@@Z 00436130 f i protobuf_lite:common.obj
 0001:00035150       ??$_Destroy_range@P6AXXZV?$allocator@P6AXXZ@std@@@std@@YAXPAP6AXXZ0AAV?$allocator@P6AXXZ@0@U_Scalar_ptr_iterator_tag@0@@Z 00436150 f i protobuf_lite:common.obj
 0001:00035160       ??$_Unchecked_uninitialized_move@PAP6AXXZPAP6AXXZV?$allocator@P6AXXZ@std@@@stdext@@YAPAP6AXXZPAP6AXXZ00AAV?$allocator@P6AXXZ@std@@@Z 00436160 f i protobuf_lite:common.obj
 0001:000351c0       ??$_Checked_base@PAP6AXXZ@std@@YAPAP6AXXZAAPAP6AXXZ@Z 004361c0 f i protobuf_lite:common.obj
 0001:00035230       ??$_Fill@PAP6AXXZP6AXXZ@std@@YAXPAP6AXXZ0ABQ6AXXZ@Z 00436230 f i protobuf_lite:common.obj
 0001:00035280       ??$_Iter_random@PAP6AXXZPAP6AXXZ@std@@YA?AUrandom_access_iterator_tag@0@ABQAP6AXXZ0@Z 00436280 f i protobuf_lite:common.obj
 0001:000352d0       ??$_Move_cat@PAP6AXXZ@std@@YA?AU_Undefined_move_tag@0@ABQAP6AXXZ@Z 004362d0 f i protobuf_lite:common.obj
 0001:00035320       ??$_Move_backward_opt@PAP6AXXZPAP6AXXZUrandom_access_iterator_tag@std@@U_Undefined_move_tag@2@@std@@YAPAP6AXXZPAP6AXXZ00Urandom_access_iterator_tag@0@U_Undefined_move_tag@0@U_Range_checked_iterator_tag@0@@Z 00436320 f i protobuf_lite:common.obj
 0001:00035380       ??$unchecked_fill_n@PAP6AXXZIP6AXXZ@stdext@@YAXPAP6AXXZIABQ6AXXZ@Z 00436380 f i protobuf_lite:common.obj
 0001:000353d0       ??$_Uninit_move@PAP6AXXZPAP6AXXZV?$allocator@P6AXXZ@std@@U_Undefined_move_tag@2@@std@@YAPAP6AXXZPAP6AXXZ00AAV?$allocator@P6AXXZ@0@U_Undefined_move_tag@0@U_Range_checked_iterator_tag@0@@Z 004363d0 f i protobuf_lite:common.obj
 0001:00035400       ??$_Checked_base@PAP6AXXZ@std@@YAPAP6AXXZAAPAP6AXXZU_Unchanged_checked_iterator_base_type_tag@0@@Z 00436400 f i protobuf_lite:common.obj
 0001:00035410       ??$_Debug_range@PAP6AXXZ@std@@YAXPAP6AXXZ0PB_WI@Z 00436410 f i protobuf_lite:common.obj
 0001:00035460       ??$_Copy_backward_opt@PAP6AXXZPAP6AXXZUrandom_access_iterator_tag@std@@@std@@YAPAP6AXXZPAP6AXXZ00Urandom_access_iterator_tag@0@U_Scalar_ptr_iterator_tag@0@U_Range_checked_iterator_tag@0@@Z 00436460 f i protobuf_lite:common.obj
 0001:00035500       ??$_Iter_cat@PAP6AXXZ@std@@YA?AUrandom_access_iterator_tag@0@ABQAP6AXXZ@Z 00436500 f i protobuf_lite:common.obj
 0001:00035550       ??$_Fill_n@PAP6AXXZIP6AXXZ@std@@YAXPAP6AXXZIABQ6AXXZUrandom_access_iterator_tag@0@U_Range_checked_iterator_tag@0@@Z 00436550 f i protobuf_lite:common.obj
 0001:000355b0       ??$unchecked_uninitialized_copy@PAP6AXXZPAP6AXXZV?$allocator@P6AXXZ@std@@@stdext@@YAPAP6AXXZPAP6AXXZ00AAV?$allocator@P6AXXZ@std@@@Z 004365b0 f i protobuf_lite:common.obj
 0001:00035620       ??$_Debug_range2@PAP6AXXZ@std@@YAXPAP6AXXZ0PB_WIUrandom_access_iterator_tag@0@@Z 00436620 f i protobuf_lite:common.obj
 0001:00035680       ??$_Debug_pointer@P6AXXZ@std@@YAXPAP6AXXZPB_WI@Z 00436680 f i protobuf_lite:common.obj
 0001:000356b0       ??$_Fill_n@PAP6AXXZIP6AXXZ@std@@YAXPAP6AXXZIABQ6AXXZU_Range_checked_iterator_tag@0@@Z 004366b0 f i protobuf_lite:common.obj
 0001:000356e0       ??$_Uninit_copy@PAP6AXXZPAP6AXXZV?$allocator@P6AXXZ@std@@@std@@YAPAP6AXXZPAP6AXXZ00AAV?$allocator@P6AXXZ@0@U_Scalar_ptr_iterator_tag@0@U_Range_checked_iterator_tag@0@@Z 004366e0 f i protobuf_lite:common.obj
 0001:00035770       ?SchedYield@?A0x481d2c8f@protobuf@google@@YAXXZ 00436770 f   protobuf_lite:once.obj
 0001:00035790       ?GoogleOnceInitImpl@protobuf@google@@YAXPAHPAVClosure@12@@Z 00436790 f   protobuf_lite:once.obj
 0001:00035820       ?Acquire_CompareAndSwap@internal@protobuf@google@@YAHPCHHH@Z 00436820 f i protobuf_lite:once.obj
 0001:00035840       ?Release_Store@internal@protobuf@google@@YAXPCHH@Z 00436840 f i protobuf_lite:once.obj
 0001:00035850       ??1MessageLite@protobuf@google@@UAE@XZ 00436850 f   protobuf_lite:message_lite.obj
 0001:00035870       ?InitializationErrorString@MessageLite@protobuf@google@@UBE?AV?$basic_string@DU?$char_traits@D@std@@V?$allocator@D@2@@std@@XZ 00436870 f   protobuf_lite:message_lite.obj
 0001:000358a0       ?ByteSizeConsistencyError@?A0xb0468876@protobuf@google@@YAXHHH@Z 004368a0 f   protobuf_lite:message_lite.obj
 0001:000359e0       ?InitializationErrorMessage@?A0xb0468876@protobuf@google@@YA?AV?$basic_string@DU?$char_traits@D@std@@V?$allocator@D@2@@std@@PBDABVMessageLite@23@@Z 004369e0 f   protobuf_lite:message_lite.obj
 0001:00035af0       ?MergeFromCodedStream@MessageLite@protobuf@google@@QAE_NPAVCodedInputStream@io@23@@Z 00436af0 f   protobuf_lite:message_lite.obj
 0001:00035b20       ?InlineMergeFromCodedStream@?A0xb0468876@protobuf@google@@YA_NPAVCodedInputStream@io@23@PAVMessageLite@23@@Z 00436b20 f i protobuf_lite:message_lite.obj
 0001:00035be0       ?ParseFromCodedStream@MessageLite@protobuf@google@@QAE_NPAVCodedInputStream@io@23@@Z 00436be0 f   protobuf_lite:message_lite.obj
 0001:00035c10       ?InlineParseFromCodedStream@?A0xb0468876@protobuf@google@@YA_NPAVCodedInputStream@io@23@PAVMessageLite@23@@Z 00436c10 f i protobuf_lite:message_lite.obj
 0001:00035c50       ?ParsePartialFromCodedStream@MessageLite@protobuf@google@@QAE_NPAVCodedInputStream@io@23@@Z 00436c50 f   protobuf_lite:message_lite.obj
 0001:00035c80       ?InlineParsePartialFromCodedStream@?A0xb0468876@protobuf@google@@YA_NPAVCodedInputStream@io@23@PAVMessageLite@23@@Z 00436c80 f i protobuf_lite:message_lite.obj
 0001:00035cc0       ?ParseFromZeroCopyStream@MessageLite@protobuf@google@@QAE_NPAVZeroCopyInputStream@io@23@@Z 00436cc0 f   protobuf_lite:message_lite.obj
 0001:00035d70       ??0CodedInputStream@io@protobuf@google@@QAE@PAVZeroCopyInputStream@123@@Z 00436d70 f i protobuf_lite:message_lite.obj
 0001:00035e40       ??1CodedInputStream@io@protobuf@google@@QAE@XZ 00436e40 f i protobuf_lite:message_lite.obj
 0001:00035e70       ?ParsePartialFromZeroCopyStream@MessageLite@protobuf@google@@QAE_NPAVZeroCopyInputStream@io@23@@Z 00436e70 f   protobuf_lite:message_lite.obj
 0001:00035f20       ?ParseFromBoundedZeroCopyStream@MessageLite@protobuf@google@@QAE_NPAVZeroCopyInputStream@io@23@H@Z 00436f20 f   protobuf_lite:message_lite.obj
 0001:00035fe0       ?ParsePartialFromBoundedZeroCopyStream@MessageLite@protobuf@google@@QAE_NPAVZeroCopyInputStream@io@23@H@Z 00436fe0 f   protobuf_lite:message_lite.obj
 0001:000360a0       ?ParseFromString@MessageLite@protobuf@google@@QAE_NABV?$basic_string@DU?$char_traits@D@std@@V?$allocator@D@2@@std@@@Z 004370a0 f   protobuf_lite:message_lite.obj
 0001:000360e0       ?InlineParseFromArray@?A0xb0468876@protobuf@google@@YA_NPBXHPAVMessageLite@23@@Z 004370e0 f i protobuf_lite:message_lite.obj
 0001:00036190       ??0CodedInputStream@io@protobuf@google@@QAE@PBEH@Z 00437190 f i protobuf_lite:message_lite.obj
 0001:00036240       ?ParsePartialFromString@MessageLite@protobuf@google@@QAE_NABV?$basic_string@DU?$char_traits@D@std@@V?$allocator@D@2@@std@@@Z 00437240 f   protobuf_lite:message_lite.obj
 0001:00036280       ?InlineParsePartialFromArray@?A0xb0468876@protobuf@google@@YA_NPBXHPAVMessageLite@23@@Z 00437280 f i protobuf_lite:message_lite.obj
 0001:00036330       ?ParseFromArray@MessageLite@protobuf@google@@QAE_NPBXH@Z 00437330 f   protobuf_lite:message_lite.obj
 0001:00036370       ?ParsePartialFromArray@MessageLite@protobuf@google@@QAE_NPBXH@Z 00437370 f   protobuf_lite:message_lite.obj
 0001:000363b0       ?SerializeWithCachedSizesToArray@MessageLite@protobuf@google@@UBEPAEPAE@Z 004373b0 f   protobuf_lite:message_lite.obj
 0001:000364f0       ?HadError@CodedOutputStream@io@protobuf@google@@QBE_NXZ 004374f0 f i protobuf_lite:message_lite.obj
 0001:00036510       ?SerializeToCodedStream@MessageLite@protobuf@google@@QBE_NPAVCodedOutputStream@io@23@@Z 00437510 f   protobuf_lite:message_lite.obj
 0001:000365f0       ?SerializePartialToCodedStream@MessageLite@protobuf@google@@QBE_NPAVCodedOutputStream@io@23@@Z 004375f0 f   protobuf_lite:message_lite.obj
 0001:00036730       ?GetDirectBufferForNBytesAndAdvance@CodedOutputStream@io@protobuf@google@@QAEPAEH@Z 00437730 f i protobuf_lite:message_lite.obj
 0001:00036780       ?ByteCount@CodedOutputStream@io@protobuf@google@@QBEHXZ 00437780 f i protobuf_lite:message_lite.obj
 0001:000367a0       ?Advance@CodedOutputStream@io@protobuf@google@@AAEXH@Z 004377a0 f i protobuf_lite:message_lite.obj
 0001:000367e0       ?SerializeToZeroCopyStream@MessageLite@protobuf@google@@QBE_NPAVZeroCopyOutputStream@io@23@@Z 004377e0 f   protobuf_lite:message_lite.obj
 0001:00036870       ?SerializePartialToZeroCopyStream@MessageLite@protobuf@google@@QBE_NPAVZeroCopyOutputStream@io@23@@Z 00437870 f   protobuf_lite:message_lite.obj
 0001:00036900       ?AppendToString@MessageLite@protobuf@google@@QBE_NPAV?$basic_string@DU?$char_traits@D@std@@V?$allocator@D@2@@std@@@Z 00437900 f   protobuf_lite:message_lite.obj
 0001:000369e0       ?AppendPartialToString@MessageLite@protobuf@google@@QBE_NPAV?$basic_string@DU?$char_traits@D@std@@V?$allocator@D@2@@std@@@Z 004379e0 f   protobuf_lite:message_lite.obj
 0001:00036ab0       ?STLStringResizeUninitialized@protobuf@google@@YAXPAV?$basic_string@DU?$char_traits@D@std@@V?$allocator@D@2@@std@@I@Z 00437ab0 f i protobuf_lite:message_lite.obj
 0001:00036ad0       ?string_as_array@protobuf@google@@YAPADPAV?$basic_string@DU?$char_traits@D@std@@V?$allocator@D@2@@std@@@Z 00437ad0 f i protobuf_lite:message_lite.obj
 0001:00036b60       ?SerializeToString@MessageLite@protobuf@google@@QBE_NPAV?$basic_string@DU?$char_traits@D@std@@V?$allocator@D@2@@std@@@Z 00437b60 f   protobuf_lite:message_lite.obj
 0001:00036ba0       ?SerializePartialToString@MessageLite@protobuf@google@@QBE_NPAV?$basic_string@DU?$char_traits@D@std@@V?$allocator@D@2@@std@@@Z 00437ba0 f   protobuf_lite:message_lite.obj
 0001:00036be0       ?SerializeToArray@MessageLite@protobuf@google@@QBE_NPAXH@Z 00437be0 f   protobuf_lite:message_lite.obj
 0001:00036cc0       ?SerializePartialToArray@MessageLite@protobuf@google@@QBE_NPAXH@Z 00437cc0 f   protobuf_lite:message_lite.obj
 0001:00036d70       ?SerializeAsString@MessageLite@protobuf@google@@QBE?AV?$basic_string@DU?$char_traits@D@std@@V?$allocator@D@2@@std@@XZ 00437d70 f   protobuf_lite:message_lite.obj
 0001:00036e20       ?SerializePartialAsString@MessageLite@protobuf@google@@QBE?AV?$basic_string@DU?$char_traits@D@std@@V?$allocator@D@2@@std@@XZ 00437e20 f   protobuf_lite:message_lite.obj
 0001:00036ed0       ?data@?$basic_string@DU?$char_traits@D@std@@V?$allocator@D@2@@std@@QBEPBDXZ 00437ed0 f i protobuf_lite:message_lite.obj
 0001:00036f00       ?resize@?$basic_string@DU?$char_traits@D@std@@V?$allocator@D@2@@std@@QAEXI@Z 00437f00 f i protobuf_lite:message_lite.obj
 0001:00036f30       ?empty@?$basic_string@DU?$char_traits@D@std@@V?$allocator@D@2@@std@@QBE_NXZ 00437f30 f i protobuf_lite:message_lite.obj
 0001:00036f50       ??D?$_String_iterator@DU?$char_traits@D@std@@V?$allocator@D@2@@std@@QBEAADXZ 00437f50 f i protobuf_lite:message_lite.obj
 0001:00036f80       ?resize@?$basic_string@DU?$char_traits@D@std@@V?$allocator@D@2@@std@@QAEXID@Z 00437f80 f i protobuf_lite:message_lite.obj
 0001:00036fe0       ??D?$_String_const_iterator@DU?$char_traits@D@std@@V?$allocator@D@2@@std@@QBEABDXZ 00437fe0 f i protobuf_lite:message_lite.obj
 0001:00037090       ?append@?$basic_string@DU?$char_traits@D@std@@V?$allocator@D@2@@std@@QAEAAV12@ID@Z 00438090 f i protobuf_lite:message_lite.obj
 0001:00037120       ?_Chassign@?$basic_string@DU?$char_traits@D@std@@V?$allocator@D@2@@std@@IAEXIID@Z 00438120 f i protobuf_lite:message_lite.obj
 0001:00037180       ?assign@?$char_traits@D@std@@SAPADPADID@Z 00438180 f i protobuf_lite:message_lite.obj
 0001:000371b0       ?SkipField@FieldSkipper@internal@protobuf@google@@QAE_NPAVCodedInputStream@io@34@I@Z 004381b0 f   protobuf_lite:wire_format_lite.obj
 0001:000371f0       ?SkipMessage@FieldSkipper@internal@protobuf@google@@QAE_NPAVCodedInputStream@io@34@@Z 004381f0 f   protobuf_lite:wire_format_lite.obj
 0001:00037220       ?SkipUnknownEnum@FieldSkipper@internal@protobuf@google@@QAEXHH@Z 00438220 f   protobuf_lite:wire_format_lite.obj
 0001:00037260       ?SkipField@WireFormatLite@internal@protobuf@google@@SA_NPAVCodedInputStream@io@34@IPAVUnknownFieldSet@34@@Z 00438260 f   protobuf_lite:wire_format_lite.obj
 0001:000374e0       ?ReadLittleEndian32@CodedInputStream@io@protobuf@google@@QAE_NPAI@Z 004384e0 f i protobuf_lite:wire_format_lite.obj
 0001:00037540       ?ReadLittleEndian64@CodedInputStream@io@protobuf@google@@QAE_NPA_K@Z 00438540 f i protobuf_lite:wire_format_lite.obj
 0001:000375a0       ?SkipMessage@WireFormatLite@internal@protobuf@google@@SA_NPAVCodedInputStream@io@34@PAVUnknownFieldSet@34@@Z 004385a0 f   protobuf_lite:wire_format_lite.obj
 0001:00037620       ?SerializeUnknownFields@WireFormatLite@internal@protobuf@google@@SAXABVUnknownFieldSet@34@PAVCodedOutputStream@io@34@@Z 00438620 f   protobuf_lite:wire_format_lite.obj
 0001:000377e0       ?WriteString@CodedOutputStream@io@protobuf@google@@QAEXABV?$basic_string@DU?$char_traits@D@std@@V?$allocator@D@2@@std@@@Z 004387e0 f i protobuf_lite:wire_format_lite.obj
 0001:00037820       ?field_count@UnknownFieldSet@protobuf@google@@QBEHXZ 00438820 f i protobuf_lite:wire_format_lite.obj
 0001:00037870       ?field@UnknownFieldSet@protobuf@google@@QBEABVUnknownField@23@H@Z 00438870 f i protobuf_lite:wire_format_lite.obj
 0001:000378a0       ?number@UnknownField@protobuf@google@@QBEHXZ 004388a0 f i protobuf_lite:wire_format_lite.obj
 0001:000378c0       ?type@UnknownField@protobuf@google@@QBE?AW4Type@123@XZ 004388c0 f i protobuf_lite:wire_format_lite.obj
 0001:000378e0       ?varint@UnknownField@protobuf@google@@QBE_KXZ 004388e0 f i protobuf_lite:wire_format_lite.obj
 0001:00037970       ?fixed32@UnknownField@protobuf@google@@QBEIXZ 00438970 f i protobuf_lite:wire_format_lite.obj
 0001:00037a00       ?fixed64@UnknownField@protobuf@google@@QBE_KXZ 00438a00 f i protobuf_lite:wire_format_lite.obj
 0001:00037aa0       ?length_delimited@UnknownField@protobuf@google@@QBEABV?$basic_string@DU?$char_traits@D@std@@V?$allocator@D@2@@std@@XZ 00438aa0 f i protobuf_lite:wire_format_lite.obj
 0001:00037b30       ?group@UnknownField@protobuf@google@@QBEABVUnknownFieldSet@23@XZ 00438b30 f i protobuf_lite:wire_format_lite.obj
 0001:00037bc0       ?SerializeUnknownFieldsToArray@WireFormatLite@internal@protobuf@google@@SAPAEABVUnknownFieldSet@34@PAE@Z 00438bc0 f   protobuf_lite:wire_format_lite.obj
 0001:00037d40       ?WriteTagToArray@WireFormatLite@internal@protobuf@google@@SAPAEHW4WireType@1234@PAE@Z 00438d40 f i protobuf_lite:wire_format_lite.obj
 0001:00037d70       ?WriteTagToArray@CodedOutputStream@io@protobuf@google@@SAPAEIPAE@Z 00438d70 f i protobuf_lite:wire_format_lite.obj
 0001:00037de0       ?WriteInt64ToArray@WireFormatLite@internal@protobuf@google@@SAPAEH_JPAE@Z 00438de0 f i protobuf_lite:wire_format_lite.obj
 0001:00037e20       ?WriteInt64NoTagToArray@WireFormatLite@internal@protobuf@google@@SAPAE_JPAE@Z 00438e20 f i protobuf_lite:wire_format_lite.obj
 0001:00037e40       ?WriteFixed32ToArray@WireFormatLite@internal@protobuf@google@@SAPAEHIPAE@Z 00438e40 f i protobuf_lite:wire_format_lite.obj
 0001:00037e80       ?WriteFixed32NoTagToArray@WireFormatLite@internal@protobuf@google@@SAPAEIPAE@Z 00438e80 f i protobuf_lite:wire_format_lite.obj
 0001:00037ea0       ?WriteLittleEndian32ToArray@CodedOutputStream@io@protobuf@google@@SAPAEIPAE@Z 00438ea0 f i protobuf_lite:wire_format_lite.obj
 0001:00037ed0       ?WriteFixed64ToArray@WireFormatLite@internal@protobuf@google@@SAPAEH_KPAE@Z 00438ed0 f i protobuf_lite:wire_format_lite.obj
 0001:00037f10       ?WriteFixed64NoTagToArray@WireFormatLite@internal@protobuf@google@@SAPAE_KPAE@Z 00438f10 f i protobuf_lite:wire_format_lite.obj
 0001:00037f30       ?WriteLittleEndian64ToArray@CodedOutputStream@io@protobuf@google@@SAPAE_KPAE@Z 00438f30 f i protobuf_lite:wire_format_lite.obj
 0001:00037f60       ?WriteBytesToArray@WireFormatLite@internal@protobuf@google@@SAPAEHABV?$basic_string@DU?$char_traits@D@std@@V?$allocator@D@2@@std@@PAE@Z 00438f60 f i protobuf_lite:wire_format_lite.obj
 0001:00037fb0       ?WriteVarint32ToArray@CodedOutputStream@io@protobuf@google@@SAPAEIPAE@Z 00438fb0 f i protobuf_lite:wire_format_lite.obj
 0001:00037ff0       ?WriteStringToArray@CodedOutputStream@io@protobuf@google@@SAPAEABV?$basic_string@DU?$char_traits@D@std@@V?$allocator@D@2@@std@@PAE@Z 00438ff0 f i protobuf_lite:wire_format_lite.obj
 0001:00038020       ?SerializeUnknownMessageSetItems@WireFormatLite@internal@protobuf@google@@SAXABVUnknownFieldSet@34@PAVCodedOutputStream@io@34@@Z 00439020 f   protobuf_lite:wire_format_lite.obj
 0001:000380f0       ?SerializeUnknownMessageSetItemsToArray@WireFormatLite@internal@protobuf@google@@SAPAEABVUnknownFieldSet@34@PAE@Z 004390f0 f   protobuf_lite:wire_format_lite.obj
 0001:00038200       ?ComputeUnknownFieldsSize@WireFormatLite@internal@protobuf@google@@SAHABVUnknownFieldSet@34@@Z 00439200 f   protobuf_lite:wire_format_lite.obj
 0001:000383f0       ?ComputeUnknownMessageSetItemsSize@WireFormatLite@internal@protobuf@google@@SAHABVUnknownFieldSet@34@@Z 004393f0 f   protobuf_lite:wire_format_lite.obj
 0001:000384c0       ?ReadPackedEnumNoInline@WireFormatLite@internal@protobuf@google@@SA_NPAVCodedInputStream@io@34@P6A_NH@ZPAV?$RepeatedField@H@34@@Z 004394c0 f   protobuf_lite:wire_format_lite.obj
 0001:000385c0       ?WriteInt32@WireFormatLite@internal@protobuf@google@@SAXHHPAVCodedOutputStream@io@34@@Z 004395c0 f   protobuf_lite:wire_format_lite.obj
 0001:000385f0       ?WriteTag@WireFormatLite@internal@protobuf@google@@SAXHW4WireType@1234@PAVCodedOutputStream@io@34@@Z 004395f0 f i protobuf_lite:wire_format_lite.obj
 0001:00038620       ?WriteTag@CodedOutputStream@io@protobuf@google@@QAEXI@Z 00439620 f i protobuf_lite:wire_format_lite.obj
 0001:00038650       ?WriteInt32NoTag@WireFormatLite@internal@protobuf@google@@SAXHPAVCodedOutputStream@io@34@@Z 00439650 f i protobuf_lite:wire_format_lite.obj
 0001:00038670       ?WriteVarint32SignExtended@CodedOutputStream@io@protobuf@google@@QAEXH@Z 00439670 f i protobuf_lite:wire_format_lite.obj
 0001:000386b0       ?WriteInt64@WireFormatLite@internal@protobuf@google@@SAXH_JPAVCodedOutputStream@io@34@@Z 004396b0 f   protobuf_lite:wire_format_lite.obj
 0001:000386f0       ?WriteInt64NoTag@WireFormatLite@internal@protobuf@google@@SAX_JPAVCodedOutputStream@io@34@@Z 004396f0 f i protobuf_lite:wire_format_lite.obj
 0001:00038710       ?WriteUInt32@WireFormatLite@internal@protobuf@google@@SAXHIPAVCodedOutputStream@io@34@@Z 00439710 f   protobuf_lite:wire_format_lite.obj
 0001:00038740       ?WriteUInt32NoTag@WireFormatLite@internal@protobuf@google@@SAXIPAVCodedOutputStream@io@34@@Z 00439740 f i protobuf_lite:wire_format_lite.obj
 0001:00038760       ?WriteUInt64@WireFormatLite@internal@protobuf@google@@SAXH_KPAVCodedOutputStream@io@34@@Z 00439760 f   protobuf_lite:wire_format_lite.obj
 0001:000387a0       ?WriteUInt64NoTag@WireFormatLite@internal@protobuf@google@@SAX_KPAVCodedOutputStream@io@34@@Z 004397a0 f i protobuf_lite:wire_format_lite.obj
 0001:000387c0       ?WriteSInt32@WireFormatLite@internal@protobuf@google@@SAXHHPAVCodedOutputStream@io@34@@Z 004397c0 f   protobuf_lite:wire_format_lite.obj
 0001:000387f0       ?WriteSInt32NoTag@WireFormatLite@internal@protobuf@google@@SAXHPAVCodedOutputStream@io@34@@Z 004397f0 f i protobuf_lite:wire_format_lite.obj
 0001:00038820       ?ZigZagEncode32@WireFormatLite@internal@protobuf@google@@SAIH@Z 00439820 f i protobuf_lite:wire_format_lite.obj
 0001:00038840       ?WriteSInt64@WireFormatLite@internal@protobuf@google@@SAXH_JPAVCodedOutputStream@io@34@@Z 00439840 f   protobuf_lite:wire_format_lite.obj
 0001:00038880       ?WriteSInt64NoTag@WireFormatLite@internal@protobuf@google@@SAX_JPAVCodedOutputStream@io@34@@Z 00439880 f i protobuf_lite:wire_format_lite.obj
 0001:000388b0       ?ZigZagEncode64@WireFormatLite@internal@protobuf@google@@SA_K_J@Z 004398b0 f i protobuf_lite:wire_format_lite.obj
 0001:000388f0       ?WriteFixed32@WireFormatLite@internal@protobuf@google@@SAXHIPAVCodedOutputStream@io@34@@Z 004398f0 f   protobuf_lite:wire_format_lite.obj
 0001:00038920       ?WriteFixed32NoTag@WireFormatLite@internal@protobuf@google@@SAXIPAVCodedOutputStream@io@34@@Z 00439920 f i protobuf_lite:wire_format_lite.obj
 0001:00038940       ?WriteFixed64@WireFormatLite@internal@protobuf@google@@SAXH_KPAVCodedOutputStream@io@34@@Z 00439940 f   protobuf_lite:wire_format_lite.obj
 0001:00038980       ?WriteFixed64NoTag@WireFormatLite@internal@protobuf@google@@SAX_KPAVCodedOutputStream@io@34@@Z 00439980 f i protobuf_lite:wire_format_lite.obj
 0001:000389a0       ?WriteSFixed32@WireFormatLite@internal@protobuf@google@@SAXHHPAVCodedOutputStream@io@34@@Z 004399a0 f   protobuf_lite:wire_format_lite.obj
 0001:000389d0       ?WriteSFixed32NoTag@WireFormatLite@internal@protobuf@google@@SAXHPAVCodedOutputStream@io@34@@Z 004399d0 f i protobuf_lite:wire_format_lite.obj
 0001:000389f0       ?WriteSFixed64@WireFormatLite@internal@protobuf@google@@SAXH_JPAVCodedOutputStream@io@34@@Z 004399f0 f   protobuf_lite:wire_format_lite.obj
 0001:00038a30       ?WriteSFixed64NoTag@WireFormatLite@internal@protobuf@google@@SAX_JPAVCodedOutputStream@io@34@@Z 00439a30 f i protobuf_lite:wire_format_lite.obj
 0001:00038a50       ?WriteFloat@WireFormatLite@internal@protobuf@google@@SAXHMPAVCodedOutputStream@io@34@@Z 00439a50 f   protobuf_lite:wire_format_lite.obj
 0001:00038a90       ?WriteFloatNoTag@WireFormatLite@internal@protobuf@google@@SAXMPAVCodedOutputStream@io@34@@Z 00439a90 f i protobuf_lite:wire_format_lite.obj
 0001:00038ac0       ?EncodeFloat@WireFormatLite@internal@protobuf@google@@SAIM@Z 00439ac0 f i protobuf_lite:wire_format_lite.obj
 0001:00038b20       ?WriteDouble@WireFormatLite@internal@protobuf@google@@SAXHNPAVCodedOutputStream@io@34@@Z 00439b20 f   protobuf_lite:wire_format_lite.obj
 0001:00038b60       ?WriteDoubleNoTag@WireFormatLite@internal@protobuf@google@@SAXNPAVCodedOutputStream@io@34@@Z 00439b60 f i protobuf_lite:wire_format_lite.obj
 0001:00038b90       ?EncodeDouble@WireFormatLite@internal@protobuf@google@@SA_KN@Z 00439b90 f i protobuf_lite:wire_format_lite.obj
 0001:00038be0       ?WriteBool@WireFormatLite@internal@protobuf@google@@SAXH_NPAVCodedOutputStream@io@34@@Z 00439be0 f   protobuf_lite:wire_format_lite.obj
 0001:00038c10       ?WriteBoolNoTag@WireFormatLite@internal@protobuf@google@@SAX_NPAVCodedOutputStream@io@34@@Z 00439c10 f i protobuf_lite:wire_format_lite.obj
 0001:00038c30       ?WriteEnum@WireFormatLite@internal@protobuf@google@@SAXHHPAVCodedOutputStream@io@34@@Z 00439c30 f   protobuf_lite:wire_format_lite.obj
 0001:00038c60       ?WriteEnumNoTag@WireFormatLite@internal@protobuf@google@@SAXHPAVCodedOutputStream@io@34@@Z 00439c60 f i protobuf_lite:wire_format_lite.obj
 0001:00038c80       ?WriteString@WireFormatLite@internal@protobuf@google@@SAXHABV?$basic_string@DU?$char_traits@D@std@@V?$allocator@D@2@@std@@PAVCodedOutputStream@io@34@@Z 00439c80 f   protobuf_lite:wire_format_lite.obj
 0001:00038cc0       ?WriteBytes@WireFormatLite@internal@protobuf@google@@SAXHABV?$basic_string@DU?$char_traits@D@std@@V?$allocator@D@2@@std@@PAVCodedOutputStream@io@34@@Z 00439cc0 f   protobuf_lite:wire_format_lite.obj
 0001:00038d00       ?WriteGroup@WireFormatLite@internal@protobuf@google@@SAXHABVMessageLite@34@PAVCodedOutputStream@io@34@@Z 00439d00 f   protobuf_lite:wire_format_lite.obj
 0001:00038d50       ?WriteMessage@WireFormatLite@internal@protobuf@google@@SAXHABVMessageLite@34@PAVCodedOutputStream@io@34@@Z 00439d50 f   protobuf_lite:wire_format_lite.obj
 0001:00038dc0       ?WriteGroupMaybeToArray@WireFormatLite@internal@protobuf@google@@SAXHABVMessageLite@34@PAVCodedOutputStream@io@34@@Z 00439dc0 f   protobuf_lite:wire_format_lite.obj
 0001:00038ed0       ?WriteMessageMaybeToArray@WireFormatLite@internal@protobuf@google@@SAXHABVMessageLite@34@PAVCodedOutputStream@io@34@@Z 00439ed0 f   protobuf_lite:wire_format_lite.obj
 0001:00038fe0       ?ReadString@WireFormatLite@internal@protobuf@google@@SA_NPAVCodedInputStream@io@34@PAV?$basic_string@DU?$char_traits@D@std@@V?$allocator@D@2@@std@@@Z 00439fe0 f   protobuf_lite:wire_format_lite.obj
 0001:00039070       ?InternalReadStringInline@CodedInputStream@io@protobuf@google@@QAE_NPAV?$basic_string@DU?$char_traits@D@std@@V?$allocator@D@2@@std@@H@Z 0043a070 f i protobuf_lite:wire_format_lite.obj
 0001:00039100       ?ReadBytes@WireFormatLite@internal@protobuf@google@@SA_NPAVCodedInputStream@io@34@PAV?$basic_string@DU?$char_traits@D@std@@V?$allocator@D@2@@std@@@Z 0043a100 f   protobuf_lite:wire_format_lite.obj
 0001:00039180       ?size@?$vector@VUnknownField@protobuf@google@@V?$allocator@VUnknownField@protobuf@google@@@std@@@std@@QBEIXZ 0043a180 f i protobuf_lite:wire_format_lite.obj
 0001:000391d0       ??A?$vector@VUnknownField@protobuf@google@@V?$allocator@VUnknownField@protobuf@google@@@std@@@std@@QAEAAVUnknownField@protobuf@google@@I@Z 0043a1d0 f i protobuf_lite:wire_format_lite.obj
 0001:000392c0       ?Add@?$RepeatedField@H@protobuf@google@@QAEXABH@Z 0043a2c0 f i protobuf_lite:wire_format_lite.obj
 0001:00039320       ?Reserve@?$RepeatedField@H@protobuf@google@@QAEXH@Z 0043a320 f i protobuf_lite:wire_format_lite.obj
 0001:000393f0       ?MoveArray@?$RepeatedField@H@protobuf@google@@AAEXQAH0H@Z 0043a3f0 f i protobuf_lite:wire_format_lite.obj
 0001:00039430       ??$max@H@std@@YAABHABH0@Z  0043a430 f i protobuf_lite:wire_format_lite.obj
 0001:00039490       ??$_Debug_lt@HH@std@@YA_NABH0PB_WI@Z 0043a490 f i protobuf_lite:wire_format_lite.obj
 0001:000394e0       ?BackUpInputToCurrentPosition@CodedInputStream@io@protobuf@google@@AAEXXZ 0043a4e0 f   protobuf_lite:coded_stream.obj
 0001:00039580       ?PushLimit@CodedInputStream@io@protobuf@google@@QAEHH@Z 0043a580 f   protobuf_lite:coded_stream.obj
 0001:00039660       ?RecomputeBufferLimits@CodedInputStream@io@protobuf@google@@AAEXXZ 0043a660 f i protobuf_lite:coded_stream.obj
 0001:000396f0       ?PopLimit@CodedInputStream@io@protobuf@google@@QAEXH@Z 0043a6f0 f   protobuf_lite:coded_stream.obj
 0001:00039730       ?BytesUntilLimit@CodedInputStream@io@protobuf@google@@QAEHXZ 0043a730 f   protobuf_lite:coded_stream.obj
 0001:00039790       ?SetTotalBytesLimit@CodedInputStream@io@protobuf@google@@QAEXHH@Z 0043a790 f   protobuf_lite:coded_stream.obj
 0001:00039840       ?PrintTotalBytesLimitError@CodedInputStream@io@protobuf@google@@AAEXXZ 0043a840 f   protobuf_lite:coded_stream.obj
 0001:000398c0       ?Skip@CodedInputStream@io@protobuf@google@@QAE_NH@Z 0043a8c0 f   protobuf_lite:coded_stream.obj
 0001:000399f0       ?GetDirectBufferPointer@CodedInputStream@io@protobuf@google@@QAE_NPAPBXPAH@Z 0043a9f0 f   protobuf_lite:coded_stream.obj
 0001:00039a50       ?ReadRaw@CodedInputStream@io@protobuf@google@@QAE_NPAXH@Z 0043aa50 f   protobuf_lite:coded_stream.obj
 0001:00039b00       ?ReadString@CodedInputStream@io@protobuf@google@@QAE_NPAV?$basic_string@DU?$char_traits@D@std@@V?$allocator@D@2@@std@@H@Z 0043ab00 f   protobuf_lite:coded_stream.obj
 0001:00039b40       ?ReadStringFallback@CodedInputStream@io@protobuf@google@@AAE_NPAV?$basic_string@DU?$char_traits@D@std@@V?$allocator@D@2@@std@@H@Z 0043ab40 f   protobuf_lite:coded_stream.obj
 0001:00039c00       ?ReadLittleEndian32Fallback@CodedInputStream@io@protobuf@google@@AAE_NPAI@Z 0043ac00 f   protobuf_lite:coded_stream.obj
 0001:00039cb0       ?ReadLittleEndian32FromArray@CodedInputStream@io@protobuf@google@@SAPBEPBEPAI@Z 0043acb0 f i protobuf_lite:coded_stream.obj
 0001:00039ce0       ?ReadLittleEndian64Fallback@CodedInputStream@io@protobuf@google@@AAE_NPA_K@Z 0043ace0 f   protobuf_lite:coded_stream.obj
 0001:00039db0       ?ReadLittleEndian64FromArray@CodedInputStream@io@protobuf@google@@SAPBEPBEPA_K@Z 0043adb0 f i protobuf_lite:coded_stream.obj
 0001:00039de0       ?ReadVarint32Slow@CodedInputStream@io@protobuf@google@@AAE_NPAI@Z 0043ade0 f   protobuf_lite:coded_stream.obj
 0001:00039e60       ?ReadVarint32Fallback@CodedInputStream@io@protobuf@google@@AAE_NPAI@Z 0043ae60 f   protobuf_lite:coded_stream.obj
 0001:00039ef0       ?ReadVarint32FromArray@?A0x3af9153b@io@protobuf@google@@YAPBEPBEPAI@Z 0043aef0 f i protobuf_lite:coded_stream.obj
 0001:0003a060       ?ReadTagSlow@CodedInputStream@io@protobuf@google@@AAEIXZ 0043b060 f   protobuf_lite:coded_stream.obj
 0001:0003a130       ?ReadTagFallback@CodedInputStream@io@protobuf@google@@AAEIXZ 0043b130 f   protobuf_lite:coded_stream.obj
 0001:0003a220       ?ReadVarint64Slow@CodedInputStream@io@protobuf@google@@AAE_NPA_K@Z 0043b220 f   protobuf_lite:coded_stream.obj
 0001:0003a2f0       ?ReadVarint64Fallback@CodedInputStream@io@protobuf@google@@AAE_NPA_K@Z 0043b2f0 f   protobuf_lite:coded_stream.obj
 0001:0003a5c0       ?Refresh@CodedInputStream@io@protobuf@google@@AAE_NXZ 0043b5c0 f   protobuf_lite:coded_stream.obj
 0001:0003a880       ?NextNonEmpty@?A0x3af9153b@io@protobuf@google@@YA_NPAVZeroCopyInputStream@234@PAPBXPAH@Z 0043b880 f i protobuf_lite:coded_stream.obj
 0001:0003a8d0       ??0CodedOutputStream@io@protobuf@google@@QAE@PAVZeroCopyOutputStream@123@@Z 0043b8d0 f   protobuf_lite:coded_stream.obj
 0001:0003a930       ??1CodedOutputStream@io@protobuf@google@@QAE@XZ 0043b930 f   protobuf_lite:coded_stream.obj
 0001:0003a980       ?Skip@CodedOutputStream@io@protobuf@google@@QAE_NH@Z 0043b980 f   protobuf_lite:coded_stream.obj
 0001:0003a9f0       ?GetDirectBufferPointer@CodedOutputStream@io@protobuf@google@@QAE_NPAPAXPAH@Z 0043b9f0 f   protobuf_lite:coded_stream.obj
 0001:0003aa50       ?WriteRaw@CodedOutputStream@io@protobuf@google@@QAEXPBXH@Z 0043ba50 f   protobuf_lite:coded_stream.obj
 0001:0003aaf0       ?WriteRawToArray@CodedOutputStream@io@protobuf@google@@SAPAEPBXHPAE@Z 0043baf0 f   protobuf_lite:coded_stream.obj
 0001:0003ab20       ?WriteLittleEndian32@CodedOutputStream@io@protobuf@google@@QAEXI@Z 0043bb20 f   protobuf_lite:coded_stream.obj
 0001:0003abe0       ?WriteLittleEndian64@CodedOutputStream@io@protobuf@google@@QAEX_K@Z 0043bbe0 f   protobuf_lite:coded_stream.obj
 0001:0003acc0       ?WriteVarint32@CodedOutputStream@io@protobuf@google@@QAEXI@Z 0043bcc0 f   protobuf_lite:coded_stream.obj
 0001:0003add0       ?WriteVarint32FallbackToArrayInline@CodedOutputStream@io@protobuf@google@@CAPAEIPAE@Z 0043bdd0 f i protobuf_lite:coded_stream.obj
 0001:0003aec0       ?WriteVarint32FallbackToArray@CodedOutputStream@io@protobuf@google@@CAPAEIPAE@Z 0043bec0 f   protobuf_lite:coded_stream.obj
 0001:0003aee0       ?WriteVarint64@CodedOutputStream@io@protobuf@google@@QAEX_K@Z 0043bee0 f   protobuf_lite:coded_stream.obj
 0001:0003b000       ?WriteVarint64ToArrayInline@CodedOutputStream@io@protobuf@google@@CAPAE_KPAE@Z 0043c000 f i protobuf_lite:coded_stream.obj
 0001:0003b220       ?WriteVarint64ToArray@CodedOutputStream@io@protobuf@google@@SAPAE_KPAE@Z 0043c220 f   protobuf_lite:coded_stream.obj
 0001:0003b240       ?Refresh@CodedOutputStream@io@protobuf@google@@AAE_NXZ 0043c240 f   protobuf_lite:coded_stream.obj
 0001:0003b310       ?VarintSize32Fallback@CodedOutputStream@io@protobuf@google@@CAHI@Z 0043c310 f   protobuf_lite:coded_stream.obj
 0001:0003b370       ?VarintSize64@CodedOutputStream@io@protobuf@google@@SAH_K@Z 0043c370 f   protobuf_lite:coded_stream.obj
 0001:0003b470       ??$min@H@std@@YAABHABH0@Z  0043c470 f i protobuf_lite:coded_stream.obj
 0001:0003b4d0       ?Infinity@internal@protobuf@google@@YANXZ 0043c4d0 f   protobuf_lite:generated_message_util.obj
 0001:0003b4f0       ?infinity@?$numeric_limits@N@std@@SANXZ 0043c4f0 f i protobuf_lite:generated_message_util.obj
 0001:0003b500       ?NaN@internal@protobuf@google@@YANXZ 0043c500 f   protobuf_lite:generated_message_util.obj
 0001:0003b520       ?quiet_NaN@?$numeric_limits@N@std@@SANXZ 0043c520 f i protobuf_lite:generated_message_util.obj
 0001:0003b530       ?Reserve@RepeatedPtrFieldBase@internal@protobuf@google@@IAEXH@Z 0043c530 f   protobuf_lite:repeated_field.obj
 0001:0003b600       ?Swap@RepeatedPtrFieldBase@internal@protobuf@google@@IAEXPAV1234@@Z 0043c600 f   protobuf_lite:repeated_field.obj
 0001:0003b750       ?New@StringTypeHandlerBase@internal@protobuf@google@@SAPAV?$basic_string@DU?$char_traits@D@std@@V?$allocator@D@2@@std@@XZ 0043c750 f   protobuf_lite:repeated_field.obj
 0001:0003b7a0       ?Delete@StringTypeHandlerBase@internal@protobuf@google@@SAXPAV?$basic_string@DU?$char_traits@D@std@@V?$allocator@D@2@@std@@@Z 0043c7a0 f   protobuf_lite:repeated_field.obj
 0001:0003b800       ??0ArrayInputStream@io@protobuf@google@@QAE@PBXHH@Z 0043c800 f   protobuf_lite:zero_copy_stream_impl_lite.obj
 0001:0003b880       ??0ZeroCopyInputStream@io@protobuf@google@@QAE@XZ 0043c880 f i protobuf_lite:zero_copy_stream_impl_lite.obj
 0001:0003b8a0       ??_EZeroCopyInputStream@io@protobuf@google@@UAEPAXI@Z 0043c8a0 f i protobuf_lite:zero_copy_stream_impl_lite.obj
 0001:0003b8a0       ??_GZeroCopyInputStream@io@protobuf@google@@UAEPAXI@Z 0043c8a0 f i protobuf_lite:zero_copy_stream_impl_lite.obj
 0001:0003b8e0       ??_GArrayInputStream@io@protobuf@google@@UAEPAXI@Z 0043c8e0 f i protobuf_lite:zero_copy_stream_impl_lite.obj
 0001:0003b8e0       ??_EArrayInputStream@io@protobuf@google@@UAEPAXI@Z 0043c8e0 f i protobuf_lite:zero_copy_stream_impl_lite.obj
 0001:0003b920       ??1ArrayInputStream@io@protobuf@google@@UAE@XZ 0043c920 f   protobuf_lite:zero_copy_stream_impl_lite.obj
 0001:0003b950       ?Next@ArrayInputStream@io@protobuf@google@@UAE_NPAPBXPAH@Z 0043c950 f   protobuf_lite:zero_copy_stream_impl_lite.obj
 0001:0003b9f0       ?BackUp@ArrayInputStream@io@protobuf@google@@UAEXH@Z 0043c9f0 f   protobuf_lite:zero_copy_stream_impl_lite.obj
 0001:0003bb60       ?Skip@ArrayInputStream@io@protobuf@google@@UAE_NH@Z 0043cb60 f   protobuf_lite:zero_copy_stream_impl_lite.obj
 0001:0003bc20       ?ByteCount@ArrayInputStream@io@protobuf@google@@UBE_JXZ 0043cc20 f   protobuf_lite:zero_copy_stream_impl_lite.obj
 0001:0003bc40       ??0ArrayOutputStream@io@protobuf@google@@QAE@PAXHH@Z 0043cc40 f   protobuf_lite:zero_copy_stream_impl_lite.obj
 0001:0003bcc0       ??0ZeroCopyOutputStream@io@protobuf@google@@QAE@XZ 0043ccc0 f i protobuf_lite:zero_copy_stream_impl_lite.obj
 0001:0003bce0       ??_GZeroCopyOutputStream@io@protobuf@google@@UAEPAXI@Z 0043cce0 f i protobuf_lite:zero_copy_stream_impl_lite.obj
 0001:0003bce0       ??_EZeroCopyOutputStream@io@protobuf@google@@UAEPAXI@Z 0043cce0 f i protobuf_lite:zero_copy_stream_impl_lite.obj
 0001:0003bd20       ??_EArrayOutputStream@io@protobuf@google@@UAEPAXI@Z 0043cd20 f i protobuf_lite:zero_copy_stream_impl_lite.obj
 0001:0003bd20       ??_GArrayOutputStream@io@protobuf@google@@UAEPAXI@Z 0043cd20 f i protobuf_lite:zero_copy_stream_impl_lite.obj
 0001:0003bd60       ??1ArrayOutputStream@io@protobuf@google@@UAE@XZ 0043cd60 f   protobuf_lite:zero_copy_stream_impl_lite.obj
 0001:0003bd90       ?Next@ArrayOutputStream@io@protobuf@google@@UAE_NPAPAXPAH@Z 0043cd90 f   protobuf_lite:zero_copy_stream_impl_lite.obj
 0001:0003be30       ?BackUp@ArrayOutputStream@io@protobuf@google@@UAEXH@Z 0043ce30 f   protobuf_lite:zero_copy_stream_impl_lite.obj
 0001:0003bfb0       ?ByteCount@ArrayOutputStream@io@protobuf@google@@UBE_JXZ 0043cfb0 f   protobuf_lite:zero_copy_stream_impl_lite.obj
 0001:0003bfd0       ??0StringOutputStream@io@protobuf@google@@QAE@PAV?$basic_string@DU?$char_traits@D@std@@V?$allocator@D@2@@std@@@Z 0043cfd0 f   protobuf_lite:zero_copy_stream_impl_lite.obj
 0001:0003c010       ??_GStringOutputStream@io@protobuf@google@@UAEPAXI@Z 0043d010 f i protobuf_lite:zero_copy_stream_impl_lite.obj
 0001:0003c010       ??_EStringOutputStream@io@protobuf@google@@UAEPAXI@Z 0043d010 f i protobuf_lite:zero_copy_stream_impl_lite.obj
 0001:0003c050       ??1StringOutputStream@io@protobuf@google@@UAE@XZ 0043d050 f   protobuf_lite:zero_copy_stream_impl_lite.obj
 0001:0003c080       ?Next@StringOutputStream@io@protobuf@google@@UAE_NPAPAXPAH@Z 0043d080 f   protobuf_lite:zero_copy_stream_impl_lite.obj
 0001:0003c150       ?BackUp@StringOutputStream@io@protobuf@google@@UAEXH@Z 0043d150 f   protobuf_lite:zero_copy_stream_impl_lite.obj
 0001:0003c250       ?ByteCount@StringOutputStream@io@protobuf@google@@UBE_JXZ 0043d250 f   protobuf_lite:zero_copy_stream_impl_lite.obj
 0001:0003c280       ??1CopyingInputStream@io@protobuf@google@@UAE@XZ 0043d280 f   protobuf_lite:zero_copy_stream_impl_lite.obj
 0001:0003c2a0       ??_GCopyingInputStream@io@protobuf@google@@UAEPAXI@Z 0043d2a0 f i protobuf_lite:zero_copy_stream_impl_lite.obj
 0001:0003c2a0       ??_ECopyingInputStream@io@protobuf@google@@UAEPAXI@Z 0043d2a0 f i protobuf_lite:zero_copy_stream_impl_lite.obj
 0001:0003c2e0       ?Skip@CopyingInputStream@io@protobuf@google@@UAEHH@Z 0043d2e0 f   protobuf_lite:zero_copy_stream_impl_lite.obj
 0001:0003c410       ??0CopyingInputStreamAdaptor@io@protobuf@google@@QAE@PAVCopyingInputStream@123@H@Z 0043d410 f   protobuf_lite:zero_copy_stream_impl_lite.obj
 0001:0003c4c0       ??_GCopyingInputStreamAdaptor@io@protobuf@google@@UAEPAXI@Z 0043d4c0 f i protobuf_lite:zero_copy_stream_impl_lite.obj
 0001:0003c4c0       ??_ECopyingInputStreamAdaptor@io@protobuf@google@@UAEPAXI@Z 0043d4c0 f i protobuf_lite:zero_copy_stream_impl_lite.obj
 0001:0003c500       ??1CopyingInputStreamAdaptor@io@protobuf@google@@UAE@XZ 0043d500 f   protobuf_lite:zero_copy_stream_impl_lite.obj
 0001:0003c590       ?Next@CopyingInputStreamAdaptor@io@protobuf@google@@UAE_NPAPBXPAH@Z 0043d590 f   protobuf_lite:zero_copy_stream_impl_lite.obj
 0001:0003c6a0       ?BackUp@CopyingInputStreamAdaptor@io@protobuf@google@@UAEXH@Z 0043d6a0 f   protobuf_lite:zero_copy_stream_impl_lite.obj
 0001:0003c830       ?Skip@CopyingInputStreamAdaptor@io@protobuf@google@@UAE_NH@Z 0043d830 f   protobuf_lite:zero_copy_stream_impl_lite.obj
 0001:0003c940       ?ByteCount@CopyingInputStreamAdaptor@io@protobuf@google@@UBE_JXZ 0043d940 f   protobuf_lite:zero_copy_stream_impl_lite.obj
 0001:0003c970       ?AllocateBufferIfNeeded@CopyingInputStreamAdaptor@io@protobuf@google@@AAEXXZ 0043d970 f   protobuf_lite:zero_copy_stream_impl_lite.obj
 0001:0003c9d0       ?FreeBuffer@CopyingInputStreamAdaptor@io@protobuf@google@@AAEXXZ 0043d9d0 f   protobuf_lite:zero_copy_stream_impl_lite.obj
 0001:0003ca70       ??1CopyingOutputStream@io@protobuf@google@@UAE@XZ 0043da70 f   protobuf_lite:zero_copy_stream_impl_lite.obj
 0001:0003ca90       ??_GCopyingOutputStream@io@protobuf@google@@UAEPAXI@Z 0043da90 f i protobuf_lite:zero_copy_stream_impl_lite.obj
 0001:0003ca90       ??_ECopyingOutputStream@io@protobuf@google@@UAEPAXI@Z 0043da90 f i protobuf_lite:zero_copy_stream_impl_lite.obj
 0001:0003cad0       ??0CopyingOutputStreamAdaptor@io@protobuf@google@@QAE@PAVCopyingOutputStream@123@H@Z 0043dad0 f   protobuf_lite:zero_copy_stream_impl_lite.obj
 0001:0003cb70       ??_GCopyingOutputStreamAdaptor@io@protobuf@google@@UAEPAXI@Z 0043db70 f i protobuf_lite:zero_copy_stream_impl_lite.obj
 0001:0003cb70       ??_ECopyingOutputStreamAdaptor@io@protobuf@google@@UAEPAXI@Z 0043db70 f i protobuf_lite:zero_copy_stream_impl_lite.obj
 0001:0003cbb0       ??1CopyingOutputStreamAdaptor@io@protobuf@google@@UAE@XZ 0043dbb0 f   protobuf_lite:zero_copy_stream_impl_lite.obj
 0001:0003cc50       ?Flush@CopyingOutputStreamAdaptor@io@protobuf@google@@QAE_NXZ 0043dc50 f   protobuf_lite:zero_copy_stream_impl_lite.obj
 0001:0003cc80       ?Next@CopyingOutputStreamAdaptor@io@protobuf@google@@UAE_NPAPAXPAH@Z 0043dc80 f   protobuf_lite:zero_copy_stream_impl_lite.obj
 0001:0003cd00       ?BackUp@CopyingOutputStreamAdaptor@io@protobuf@google@@UAEXH@Z 0043dd00 f   protobuf_lite:zero_copy_stream_impl_lite.obj
 0001:0003ce80       ?ByteCount@CopyingOutputStreamAdaptor@io@protobuf@google@@UBE_JXZ 0043de80 f   protobuf_lite:zero_copy_stream_impl_lite.obj
 0001:0003ceb0       ?WriteBuffer@CopyingOutputStreamAdaptor@io@protobuf@google@@AAE_NXZ 0043deb0 f   protobuf_lite:zero_copy_stream_impl_lite.obj
 0001:0003cf60       ?AllocateBufferIfNeeded@CopyingOutputStreamAdaptor@io@protobuf@google@@AAEXXZ 0043df60 f   protobuf_lite:zero_copy_stream_impl_lite.obj
 0001:0003cfc0       ?FreeBuffer@CopyingOutputStreamAdaptor@io@protobuf@google@@AAEXXZ 0043dfc0 f   protobuf_lite:zero_copy_stream_impl_lite.obj
 0001:0003d000       ?capacity@?$basic_string@DU?$char_traits@D@std@@V?$allocator@D@2@@std@@QBEIXZ 0043e000 f i protobuf_lite:zero_copy_stream_impl_lite.obj
 0001:0003d020       ??0?$scoped_array@E@internal@protobuf@google@@QAE@PAE@Z 0043e020 f i protobuf_lite:zero_copy_stream_impl_lite.obj
 0001:0003d040       ??1?$scoped_array@E@internal@protobuf@google@@QAE@XZ 0043e040 f i protobuf_lite:zero_copy_stream_impl_lite.obj
 0001:0003d080       ?reset@?$scoped_array@E@internal@protobuf@google@@QAEXPAE@Z 0043e080 f i protobuf_lite:zero_copy_stream_impl_lite.obj
 0001:0003d0d0       ?get@?$scoped_array@E@internal@protobuf@google@@QBEPAEXZ 0043e0d0 f i protobuf_lite:zero_copy_stream_impl_lite.obj
 0001:0003d0f0       ??8?$scoped_array@E@internal@protobuf@google@@QBE_NPAE@Z 0043e0f0 f i protobuf_lite:zero_copy_stream_impl_lite.obj
 0001:0003d120       ??$implicit_cast@HI@internal@protobuf@google@@YAHABI@Z 0043e120 f i protobuf_lite:zero_copy_stream_impl_lite.obj
 0001:0003d130       ?NoBarrier_CompareAndSwap@internal@protobuf@google@@YAHPCHHH@Z 0043e130 f   protobuf_lite:atomicops_internals_x86_msvc.obj
 0001:0003d170       ?NoBarrier_AtomicExchange@internal@protobuf@google@@YAHPCHH@Z 0043e170 f   protobuf_lite:atomicops_internals_x86_msvc.obj
 0001:0003d1b0       ?Barrier_AtomicIncrement@internal@protobuf@google@@YAHPCHH@Z 0043e1b0 f   protobuf_lite:atomicops_internals_x86_msvc.obj
 0001:0003d1e0       ?StringSpaceUsedExcludingSelf@internal@protobuf@google@@YAHABV?$basic_string@DU?$char_traits@D@std@@V?$allocator@D@2@@std@@@Z 0043e1e0 f   protobuf_lite:unknown_field_set.obj
 0001:0003d240       ??0UnknownFieldSet@protobuf@google@@QAE@XZ 0043e240 f   protobuf_lite:unknown_field_set.obj
 0001:0003d260       ??1UnknownFieldSet@protobuf@google@@QAE@XZ 0043e260 f   protobuf_lite:unknown_field_set.obj
 0001:0003d2c0       ?Clear@UnknownFieldSet@protobuf@google@@QAEXXZ 0043e2c0 f i protobuf_lite:unknown_field_set.obj
 0001:0003d2f0       ??_G?$vector@VUnknownField@protobuf@google@@V?$allocator@VUnknownField@protobuf@google@@@std@@@std@@QAEPAXI@Z 0043e2f0 f i protobuf_lite:unknown_field_set.obj
 0001:0003d330       ?ClearFallback@UnknownFieldSet@protobuf@google@@AAEXXZ 0043e330 f   protobuf_lite:unknown_field_set.obj
 0001:0003d3f0       ?MergeFrom@UnknownFieldSet@protobuf@google@@QAEXABV123@@Z 0043e3f0 f   protobuf_lite:unknown_field_set.obj
 0001:0003d450       ?SpaceUsedExcludingSelf@UnknownFieldSet@protobuf@google@@QBEHXZ 0043e450 f   protobuf_lite:unknown_field_set.obj
 0001:0003d520       ?SpaceUsed@UnknownFieldSet@protobuf@google@@QBEHXZ 0043e520 f   protobuf_lite:unknown_field_set.obj
 0001:0003d550       ?AddVarint@UnknownFieldSet@protobuf@google@@QAEXH_K@Z 0043e550 f   protobuf_lite:unknown_field_set.obj
 0001:0003d630       ?AddFixed32@UnknownFieldSet@protobuf@google@@QAEXHI@Z 0043e630 f   protobuf_lite:unknown_field_set.obj
 0001:0003d710       ?AddFixed64@UnknownFieldSet@protobuf@google@@QAEXH_K@Z 0043e710 f   protobuf_lite:unknown_field_set.obj
 0001:0003d7f0       ?AddLengthDelimited@UnknownFieldSet@protobuf@google@@QAEPAV?$basic_string@DU?$char_traits@D@std@@V?$allocator@D@2@@std@@H@Z 0043e7f0 f   protobuf_lite:unknown_field_set.obj
 0001:0003d8f0       ?AddGroup@UnknownFieldSet@protobuf@google@@QAEPAV123@H@Z 0043e8f0 f   protobuf_lite:unknown_field_set.obj
 0001:0003d9f0       ?AddField@UnknownFieldSet@protobuf@google@@QAEXABVUnknownField@23@@Z 0043e9f0 f   protobuf_lite:unknown_field_set.obj
 0001:0003da80       ?MergeFromCodedStream@UnknownFieldSet@protobuf@google@@QAE_NPAVCodedInputStream@io@23@@Z 0043ea80 f   protobuf_lite:unknown_field_set.obj
 0001:0003db40       ?ParseFromCodedStream@UnknownFieldSet@protobuf@google@@QAE_NPAVCodedInputStream@io@23@@Z 0043eb40 f   protobuf_lite:unknown_field_set.obj
 0001:0003db80       ?ParseFromZeroCopyStream@UnknownFieldSet@protobuf@google@@QAE_NPAVZeroCopyInputStream@io@23@@Z 0043eb80 f   protobuf_lite:unknown_field_set.obj
 0001:0003dc30       ?ParseFromArray@UnknownFieldSet@protobuf@google@@QAE_NPBXH@Z 0043ec30 f   protobuf_lite:unknown_field_set.obj
 0001:0003dcc0       ?Delete@UnknownField@protobuf@google@@AAEXXZ 0043ecc0 f   protobuf_lite:unknown_field_set.obj
 0001:0003dd70       ??_GUnknownFieldSet@protobuf@google@@QAEPAXI@Z 0043ed70 f i protobuf_lite:unknown_field_set.obj
 0001:0003ddb0       ?DeepCopy@UnknownField@protobuf@google@@AAEXXZ 0043edb0 f   protobuf_lite:unknown_field_set.obj
 0001:0003de80       ??0?$vector@VUnknownField@protobuf@google@@V?$allocator@VUnknownField@protobuf@google@@@std@@@std@@QAE@XZ 0043ee80 f i protobuf_lite:unknown_field_set.obj
 0001:0003ded0       ??1?$vector@VUnknownField@protobuf@google@@V?$allocator@VUnknownField@protobuf@google@@@std@@@std@@QAE@XZ 0043eed0 f i protobuf_lite:unknown_field_set.obj
 0001:0003df00       ?back@?$vector@VUnknownField@protobuf@google@@V?$allocator@VUnknownField@protobuf@google@@@std@@@std@@QAEAAVUnknownField@protobuf@google@@XZ 0043ef00 f i protobuf_lite:unknown_field_set.obj
 0001:0003df70       ?push_back@?$vector@VUnknownField@protobuf@google@@V?$allocator@VUnknownField@protobuf@google@@@std@@@std@@QAEXABVUnknownField@protobuf@google@@@Z 0043ef70 f i protobuf_lite:unknown_field_set.obj
 0001:0003e010       ?clear@?$vector@VUnknownField@protobuf@google@@V?$allocator@VUnknownField@protobuf@google@@@std@@@std@@QAEXXZ 0043f010 f i protobuf_lite:unknown_field_set.obj
 0001:0003e070       ??1?$_Vector_val@VUnknownField@protobuf@google@@V?$allocator@VUnknownField@protobuf@google@@@std@@@std@@QAE@XZ 0043f070 f i protobuf_lite:unknown_field_set.obj
 0001:0003e0a0       ??1?$_Vector_iterator@VUnknownField@protobuf@google@@V?$allocator@VUnknownField@protobuf@google@@@std@@@std@@QAE@XZ 0043f0a0 f i protobuf_lite:unknown_field_set.obj
 0001:0003e0d0       ??1?$_Vector_const_iterator@VUnknownField@protobuf@google@@V?$allocator@VUnknownField@protobuf@google@@@std@@@std@@QAE@XZ 0043f0d0 f i protobuf_lite:unknown_field_set.obj
 0001:0003e100       ??1?$_Ranit@VUnknownField@protobuf@google@@HPBV123@ABV123@@std@@QAE@XZ 0043f100 f i protobuf_lite:unknown_field_set.obj
 0001:0003e130       ?capacity@?$vector@VUnknownField@protobuf@google@@V?$allocator@VUnknownField@protobuf@google@@@std@@@std@@QBEIXZ 0043f130 f i protobuf_lite:unknown_field_set.obj
 0001:0003e180       ?begin@?$vector@VUnknownField@protobuf@google@@V?$allocator@VUnknownField@protobuf@google@@@std@@@std@@QAE?AV?$_Vector_iterator@VUnknownField@protobuf@google@@V?$allocator@VUnknownField@protobuf@google@@@std@@@2@XZ 0043f180 f i protobuf_lite:unknown_field_set.obj
 0001:0003e1c0       ?end@?$vector@VUnknownField@protobuf@google@@V?$allocator@VUnknownField@protobuf@google@@@std@@@std@@QAE?AV?$_Vector_iterator@VUnknownField@protobuf@google@@V?$allocator@VUnknownField@protobuf@google@@@std@@@2@XZ 0043f1c0 f i protobuf_lite:unknown_field_set.obj
 0001:0003e200       ?insert@?$vector@VUnknownField@protobuf@google@@V?$allocator@VUnknownField@protobuf@google@@@std@@@std@@QAE?AV?$_Vector_iterator@VUnknownField@protobuf@google@@V?$allocator@VUnknownField@protobuf@google@@@std@@@2@V32@ABVUnknownField@protobuf@google@@@Z 0043f200 f i protobuf_lite:unknown_field_set.obj
 0001:0003e2d0       ?erase@?$vector@VUnknownField@protobuf@google@@V?$allocator@VUnknownField@protobuf@google@@@std@@@std@@QAE?AV?$_Vector_iterator@VUnknownField@protobuf@google@@V?$allocator@VUnknownField@protobuf@google@@@std@@@2@V32@0@Z 0043f2d0 f i protobuf_lite:unknown_field_set.obj
 0001:0003e3d0       ?_Buy@?$vector@VUnknownField@protobuf@google@@V?$allocator@VUnknownField@protobuf@google@@@std@@@std@@IAE_NI@Z 0043f3d0 f i protobuf_lite:unknown_field_set.obj
 0001:0003e470       ?_Tidy@?$vector@VUnknownField@protobuf@google@@V?$allocator@VUnknownField@protobuf@google@@@std@@@std@@IAEXXZ 0043f470 f i protobuf_lite:unknown_field_set.obj
 0001:0003e500       ?_Ufill@?$vector@VUnknownField@protobuf@google@@V?$allocator@VUnknownField@protobuf@google@@@std@@@std@@IAEPAVUnknownField@protobuf@google@@PAV345@IABV345@@Z 0043f500 f i protobuf_lite:unknown_field_set.obj
 0001:0003e550       ?_Orphan_range@?$vector@VUnknownField@protobuf@google@@V?$allocator@VUnknownField@protobuf@google@@@std@@@std@@IBEXPAVUnknownField@protobuf@google@@0@Z 0043f550 f i protobuf_lite:unknown_field_set.obj
 0001:0003e610       ??0?$_Vector_val@VUnknownField@protobuf@google@@V?$allocator@VUnknownField@protobuf@google@@@std@@@std@@IAE@V?$allocator@VUnknownField@protobuf@google@@@1@@Z 0043f610 f i protobuf_lite:unknown_field_set.obj
 0001:0003e650       ??0?$allocator@VUnknownField@protobuf@google@@@std@@QAE@XZ 0043f650 f i protobuf_lite:unknown_field_set.obj
 0001:0003e670       ??D?$_Vector_iterator@VUnknownField@protobuf@google@@V?$allocator@VUnknownField@protobuf@google@@@std@@@std@@QBEAAVUnknownField@protobuf@google@@XZ 0043f670 f i protobuf_lite:unknown_field_set.obj
 0001:0003e6a0       ??G?$_Vector_iterator@VUnknownField@protobuf@google@@V?$allocator@VUnknownField@protobuf@google@@@std@@@std@@QBE?AV01@H@Z 0043f6a0 f i protobuf_lite:unknown_field_set.obj
 0001:0003e730       ??0?$_Vector_iterator@VUnknownField@protobuf@google@@V?$allocator@VUnknownField@protobuf@google@@@std@@@std@@QAE@ABV01@@Z 0043f730 f i protobuf_lite:unknown_field_set.obj
 0001:0003e760       ??0?$_Vector_const_iterator@VUnknownField@protobuf@google@@V?$allocator@VUnknownField@protobuf@google@@@std@@@std@@QAE@ABV01@@Z 0043f760 f i protobuf_lite:unknown_field_set.obj
 0001:0003e7a0       ??0?$_Ranit@VUnknownField@protobuf@google@@HPBV123@ABV123@@std@@QAE@ABU01@@Z 0043f7a0 f i protobuf_lite:unknown_field_set.obj
 0001:0003e7d0       ?max_size@?$vector@VUnknownField@protobuf@google@@V?$allocator@VUnknownField@protobuf@google@@@std@@@std@@QBEIXZ 0043f7d0 f i protobuf_lite:unknown_field_set.obj
 0001:0003e800       ?_Destroy@?$vector@VUnknownField@protobuf@google@@V?$allocator@VUnknownField@protobuf@google@@@std@@@std@@IAEXPAVUnknownField@protobuf@google@@0@Z 0043f800 f i protobuf_lite:unknown_field_set.obj
 0001:0003e840       ?_Insert_n@?$vector@VUnknownField@protobuf@google@@V?$allocator@VUnknownField@protobuf@google@@@std@@@std@@IAEXV?$_Vector_iterator@VUnknownField@protobuf@google@@V?$allocator@VUnknownField@protobuf@google@@@std@@@2@IABVUnknownField@protobuf@google@@@Z 0043f840 f i protobuf_lite:unknown_field_set.obj
 0001:0003ebd0       ?_Xlen@?$vector@VUnknownField@protobuf@google@@V?$allocator@VUnknownField@protobuf@google@@@std@@@std@@KAXXZ 0043fbd0 f i protobuf_lite:unknown_field_set.obj
 0001:0003ec30       ??0?$allocator@VUnknownField@protobuf@google@@@std@@QAE@ABV01@@Z 0043fc30 f i protobuf_lite:unknown_field_set.obj
 0001:0003ec50       ?deallocate@?$allocator@VUnknownField@protobuf@google@@@std@@QAEXPAVUnknownField@protobuf@google@@I@Z 0043fc50 f i protobuf_lite:unknown_field_set.obj
 0001:0003ec80       ?allocate@?$allocator@VUnknownField@protobuf@google@@@std@@QAEPAVUnknownField@protobuf@google@@I@Z 0043fc80 f i protobuf_lite:unknown_field_set.obj
 0001:0003ecb0       ??0?$_Vector_iterator@VUnknownField@protobuf@google@@V?$allocator@VUnknownField@protobuf@google@@@std@@@std@@QAE@PAVUnknownField@protobuf@google@@PBV_Container_base@1@@Z 0043fcb0 f i protobuf_lite:unknown_field_set.obj
 0001:0003ecf0       ??H?$_Vector_iterator@VUnknownField@protobuf@google@@V?$allocator@VUnknownField@protobuf@google@@@std@@@std@@QBE?AV01@H@Z 0043fcf0 f i protobuf_lite:unknown_field_set.obj
 0001:0003ed80       ??Z?$_Vector_iterator@VUnknownField@protobuf@google@@V?$allocator@VUnknownField@protobuf@google@@@std@@@std@@QAEAAV01@H@Z 0043fd80 f i protobuf_lite:unknown_field_set.obj
 0001:0003edb0       ??G?$_Vector_iterator@VUnknownField@protobuf@google@@V?$allocator@VUnknownField@protobuf@google@@@std@@@std@@QBEHABV?$_Vector_const_iterator@VUnknownField@protobuf@google@@V?$allocator@VUnknownField@protobuf@google@@@std@@@1@@Z 0043fdb0 f i protobuf_lite:unknown_field_set.obj
 0001:0003ede0       ??D?$_Vector_const_iterator@VUnknownField@protobuf@google@@V?$allocator@VUnknownField@protobuf@google@@@std@@@std@@QBEABVUnknownField@protobuf@google@@XZ 0043fde0 f i protobuf_lite:unknown_field_set.obj
 0001:0003ee80       ??9?$_Vector_const_iterator@VUnknownField@protobuf@google@@V?$allocator@VUnknownField@protobuf@google@@@std@@@std@@QBE_NABV01@@Z 0043fe80 f i protobuf_lite:unknown_field_set.obj
 0001:0003eec0       ??M?$_Vector_const_iterator@VUnknownField@protobuf@google@@V?$allocator@VUnknownField@protobuf@google@@@std@@@std@@QBE_NABV01@@Z 0043fec0 f i protobuf_lite:unknown_field_set.obj
 0001:0003ef00       ?max_size@?$allocator@VUnknownField@protobuf@google@@@std@@QBEIXZ 0043ff00 f i protobuf_lite:unknown_field_set.obj
 0001:0003ef50       ??Y?$_Vector_iterator@VUnknownField@protobuf@google@@V?$allocator@VUnknownField@protobuf@google@@@std@@@std@@QAEAAV01@H@Z 0043ff50 f i protobuf_lite:unknown_field_set.obj
 0001:0003ef80       ??0?$_Vector_const_iterator@VUnknownField@protobuf@google@@V?$allocator@VUnknownField@protobuf@google@@@std@@@std@@QAE@PAVUnknownField@protobuf@google@@PBV_Container_base@1@@Z 0043ff80 f i protobuf_lite:unknown_field_set.obj
 0001:0003f020       ??G?$_Vector_const_iterator@VUnknownField@protobuf@google@@V?$allocator@VUnknownField@protobuf@google@@@std@@@std@@QBEHABV01@@Z 00440020 f i protobuf_lite:unknown_field_set.obj
 0001:0003f060       ??8?$_Vector_const_iterator@VUnknownField@protobuf@google@@V?$allocator@VUnknownField@protobuf@google@@@std@@@std@@QBE_NABV01@@Z 00440060 f i protobuf_lite:unknown_field_set.obj
 0001:0003f0a0       ?_Compat@?$_Vector_const_iterator@VUnknownField@protobuf@google@@V?$allocator@VUnknownField@protobuf@google@@@std@@@std@@QBEXABV12@@Z 004400a0 f i protobuf_lite:unknown_field_set.obj
 0001:0003f130       ??0?$_Ranit@VUnknownField@protobuf@google@@HPBV123@ABV123@@std@@QAE@XZ 00440130 f i protobuf_lite:unknown_field_set.obj
 0001:0003f160       ??Y?$_Vector_const_iterator@VUnknownField@protobuf@google@@V?$allocator@VUnknownField@protobuf@google@@@std@@@std@@QAEAAV01@H@Z 00440160 f i protobuf_lite:unknown_field_set.obj
 0001:0003f250       ??$unchecked_copy@PAVUnknownField@protobuf@google@@PAV123@@stdext@@YAPAVUnknownField@protobuf@google@@PAV123@00@Z 00440250 f i protobuf_lite:unknown_field_set.obj
 0001:0003f2d0       ??$unchecked_uninitialized_fill_n@PAVUnknownField@protobuf@google@@IV123@V?$allocator@VUnknownField@protobuf@google@@@std@@@stdext@@YAXPAVUnknownField@protobuf@google@@IABV123@AAV?$allocator@VUnknownField@protobuf@google@@@std@@@Z 004402d0 f i protobuf_lite:unknown_field_set.obj
 0001:0003f330       ??$_Destroy_range@VUnknownField@protobuf@google@@V?$allocator@VUnknownField@protobuf@google@@@std@@@std@@YAXPAVUnknownField@protobuf@google@@0AAV?$allocator@VUnknownField@protobuf@google@@@0@@Z 00440330 f i protobuf_lite:unknown_field_set.obj
 0001:0003f380       ??$_Umove@PAVUnknownField@protobuf@google@@@?$vector@VUnknownField@protobuf@google@@V?$allocator@VUnknownField@protobuf@google@@@std@@@std@@IAEPAVUnknownField@protobuf@google@@PAV234@00@Z 00440380 f i protobuf_lite:unknown_field_set.obj
 0001:0003f3c0       ??$fill@PAVUnknownField@protobuf@google@@V123@@std@@YAXPAVUnknownField@protobuf@google@@0ABV123@@Z 004403c0 f i protobuf_lite:unknown_field_set.obj
 0001:0003f400       ??$_Unchecked_move_backward@PAVUnknownField@protobuf@google@@PAV123@@stdext@@YAPAVUnknownField@protobuf@google@@PAV123@00@Z 00440400 f i protobuf_lite:unknown_field_set.obj
 0001:0003f480       ??$_Allocate@VUnknownField@protobuf@google@@@std@@YAPAVUnknownField@protobuf@google@@IPAV123@@Z 00440480 f i protobuf_lite:unknown_field_set.obj
 0001:0003f4f0       ??$_Checked_base@PAVUnknownField@protobuf@google@@@std@@YAPAVUnknownField@protobuf@google@@AAPAV123@@Z 004404f0 f i protobuf_lite:unknown_field_set.obj
 0001:0003f560       ??$_Iter_random@PAVUnknownField@protobuf@google@@PAV123@@std@@YA?AUrandom_access_iterator_tag@0@ABQAVUnknownField@protobuf@google@@0@Z 00440560 f i protobuf_lite:unknown_field_set.obj
 0001:0003f5b0       ??$_Ptr_cat@PAVUnknownField@protobuf@google@@PAV123@@std@@YA?AU_Nonscalar_ptr_iterator_tag@0@AAPAVUnknownField@protobuf@google@@0@Z 004405b0 f i protobuf_lite:unknown_field_set.obj
 0001:0003f600       ??$_Copy_opt@PAVUnknownField@protobuf@google@@PAV123@@std@@YAPAVUnknownField@protobuf@google@@PAV123@00Urandom_access_iterator_tag@0@U_Nonscalar_ptr_iterator_tag@0@U_Range_checked_iterator_tag@0@@Z 00440600 f i protobuf_lite:unknown_field_set.obj
 0001:0003f670       ??$_Uninit_fill_n@PAVUnknownField@protobuf@google@@IV123@V?$allocator@VUnknownField@protobuf@google@@@std@@@std@@YAXPAVUnknownField@protobuf@google@@IABV123@AAV?$allocator@VUnknownField@protobuf@google@@@0@U_Nonscalar_ptr_iterator_tag@0@U_Range_checked_iterator_tag@0@@Z 00440670 f i protobuf_lite:unknown_field_set.obj
 0001:0003f6e0       ??$_Destroy_range@VUnknownField@protobuf@google@@V?$allocator@VUnknownField@protobuf@google@@@std@@@std@@YAXPAVUnknownField@protobuf@google@@0AAV?$allocator@VUnknownField@protobuf@google@@@0@U_Nonscalar_ptr_iterator_tag@0@@Z 004406e0 f i protobuf_lite:unknown_field_set.obj
 0001:0003f710       ??$_Unchecked_uninitialized_move@PAVUnknownField@protobuf@google@@PAV123@V?$allocator@VUnknownField@protobuf@google@@@std@@@stdext@@YAPAVUnknownField@protobuf@google@@PAV123@00AAV?$allocator@VUnknownField@protobuf@google@@@std@@@Z 00440710 f i protobuf_lite:unknown_field_set.obj
 0001:0003f770       ??$_Fill@PAVUnknownField@protobuf@google@@V123@@std@@YAXPAVUnknownField@protobuf@google@@0ABV123@@Z 00440770 f i protobuf_lite:unknown_field_set.obj
 0001:0003f7d0       ??$_Move_cat@PAVUnknownField@protobuf@google@@@std@@YA?AU_Undefined_move_tag@0@ABQAVUnknownField@protobuf@google@@@Z 004407d0 f i protobuf_lite:unknown_field_set.obj
 0001:0003f820       ??$_Move_backward_opt@PAVUnknownField@protobuf@google@@PAV123@Urandom_access_iterator_tag@std@@U_Undefined_move_tag@5@@std@@YAPAVUnknownField@protobuf@google@@PAV123@00Urandom_access_iterator_tag@0@U_Undefined_move_tag@0@U_Range_checked_iterator_tag@0@@Z 00440820 f i protobuf_lite:unknown_field_set.obj
 0001:0003f880       ?construct@?$allocator@VUnknownField@protobuf@google@@@std@@QAEXPAVUnknownField@protobuf@google@@ABV345@@Z 00440880 f i protobuf_lite:unknown_field_set.obj
 0001:0003f8b0       ?destroy@?$allocator@VUnknownField@protobuf@google@@@std@@QAEXPAVUnknownField@protobuf@google@@@Z 004408b0 f i protobuf_lite:unknown_field_set.obj
 0001:0003f8e0       ??$_Checked_base@PAVUnknownField@protobuf@google@@@std@@YAPAVUnknownField@protobuf@google@@AAPAV123@U_Unchanged_checked_iterator_base_type_tag@0@@Z 004408e0 f i protobuf_lite:unknown_field_set.obj
 0001:0003f8f0       ??$_Copy_opt@PAVUnknownField@protobuf@google@@PAV123@Uforward_iterator_tag@std@@@std@@YAPAVUnknownField@protobuf@google@@PAV123@00Uforward_iterator_tag@0@U_Nonscalar_ptr_iterator_tag@0@U_Range_checked_iterator_tag@0@@Z 004408f0 f i protobuf_lite:unknown_field_set.obj
 0001:0003f960       ??$_Uninit_move@PAVUnknownField@protobuf@google@@PAV123@V?$allocator@VUnknownField@protobuf@google@@@std@@U_Undefined_move_tag@5@@std@@YAPAVUnknownField@protobuf@google@@PAV123@00AAV?$allocator@VUnknownField@protobuf@google@@@0@U_Undefined_move_tag@0@U_Range_checked_iterator_tag@0@@Z 00440960 f i protobuf_lite:unknown_field_set.obj
 0001:0003f990       ??$_Debug_range@PAVUnknownField@protobuf@google@@@std@@YAXPAVUnknownField@protobuf@google@@0PB_WI@Z 00440990 f i protobuf_lite:unknown_field_set.obj
 0001:0003f9e0       ??$_Copy_backward_opt@PAVUnknownField@protobuf@google@@PAV123@@std@@YAPAVUnknownField@protobuf@google@@PAV123@00Urandom_access_iterator_tag@0@U_Nonscalar_ptr_iterator_tag@0@U_Range_checked_iterator_tag@0@@Z 004409e0 f i protobuf_lite:unknown_field_set.obj
 0001:0003fa50       ??$_Construct@VUnknownField@protobuf@google@@V123@@std@@YAXPAVUnknownField@protobuf@google@@ABV123@@Z 00440a50 f i protobuf_lite:unknown_field_set.obj
 0001:0003fad0       ??$_Destroy@VUnknownField@protobuf@google@@@std@@YAXPAVUnknownField@protobuf@google@@@Z 00440ad0 f i protobuf_lite:unknown_field_set.obj
 0001:0003fae0       ??$unchecked_uninitialized_copy@PAVUnknownField@protobuf@google@@PAV123@V?$allocator@VUnknownField@protobuf@google@@@std@@@stdext@@YAPAVUnknownField@protobuf@google@@PAV123@00AAV?$allocator@VUnknownField@protobuf@google@@@std@@@Z 00440ae0 f i protobuf_lite:unknown_field_set.obj
 0001:0003fb50       ??$_Iter_cat@PAVUnknownField@protobuf@google@@@std@@YA?AUrandom_access_iterator_tag@0@ABQAVUnknownField@protobuf@google@@@Z 00440b50 f i protobuf_lite:unknown_field_set.obj
 0001:0003fba0       ??$_Debug_range2@PAVUnknownField@protobuf@google@@@std@@YAXPAVUnknownField@protobuf@google@@0PB_WIUrandom_access_iterator_tag@0@@Z 00440ba0 f i protobuf_lite:unknown_field_set.obj
 0001:0003fc00       ??$_Copy_backward_opt@PAVUnknownField@protobuf@google@@PAV123@Uforward_iterator_tag@std@@@std@@YAPAVUnknownField@protobuf@google@@PAV123@00Uforward_iterator_tag@0@U_Nonscalar_ptr_iterator_tag@0@U_Range_checked_iterator_tag@0@@Z 00440c00 f i protobuf_lite:unknown_field_set.obj
 0001:0003fc70       ??$_Uninit_copy@PAVUnknownField@protobuf@google@@PAV123@V?$allocator@VUnknownField@protobuf@google@@@std@@@std@@YAPAVUnknownField@protobuf@google@@PAV123@00AAV?$allocator@VUnknownField@protobuf@google@@@0@U_Nonscalar_ptr_iterator_tag@0@U_Range_checked_iterator_tag@0@@Z 00440c70 f i protobuf_lite:unknown_field_set.obj
 0001:0003fd10       ??$_Debug_pointer@VUnknownField@protobuf@google@@@std@@YAXPAVUnknownField@protobuf@google@@PB_WI@Z 00440d10 f i protobuf_lite:unknown_field_set.obj
 0001:0003fd40       ??1ZeroCopyInputStream@io@protobuf@google@@UAE@XZ 00440d40 f   protobuf_lite:zero_copy_stream.obj
 0001:0003fd60       ??1ZeroCopyOutputStream@io@protobuf@google@@UAE@XZ 00440d60 f   protobuf_lite:zero_copy_stream.obj
 0001:0003fd80       ??0LogCollectorImpl@collector@tls@@QAE@PAUIHostContext@aggregator@2@PAUINetHandler@42@@Z 00440d80 f   collector_static:log_collector_impl.obj
 0001:00040010       ?CreateInstance@MemoryNodeStd@base@tls@@SAPAV123@I@Z 00441010 f i collector_static:log_collector_impl.obj
 0001:00040060       ??0MemoryNodeStd@base@tls@@AAE@I@Z 00441060 f i collector_static:log_collector_impl.obj
 0001:000400c0       ??0atomic_count@base@tls@@QAE@J@Z 004410c0 f i collector_static:log_collector_impl.obj
 0001:000400e0       ?Release@MemoryNodeStd@base@tls@@UAEXXZ 004410e0 f i collector_static:log_collector_impl.obj
 0001:00040180       ??Batomic_count@base@tls@@QBEJXZ 00441180 f i collector_static:log_collector_impl.obj
 0001:000401a0       ?AddRef@MemoryNodeStd@base@tls@@UAEXXZ 004411a0 f i collector_static:log_collector_impl.obj
 0001:000401d0       ?data@MemoryNodeStd@base@tls@@UBEPAEXZ 004411d0 f i collector_static:log_collector_impl.obj
 0001:000401f0       ?len@MemoryNodeStd@base@tls@@UBEIXZ 004411f0 f i collector_static:log_collector_impl.obj
 0001:00040210       ??_GMemoryNodeStd@base@tls@@AAEPAXI@Z 00441210 f i collector_static:log_collector_impl.obj
 0001:00040250       ??1MemoryNodeStd@base@tls@@AAE@XZ 00441250 f i collector_static:log_collector_impl.obj
 0001:00040270       ??0IMemoryNode@tls@@QAE@XZ 00441270 f i collector_static:log_collector_impl.obj
 0001:00040290       ??0TimeControl@base@tls@@QAE@I@Z 00441290 f i collector_static:log_collector_impl.obj
 0001:000402d0       ??0INetEvent@aggregator@tls@@QAE@XZ 004412d0 f i collector_static:log_collector_impl.obj
 0001:000402f0       ??1LogCollectorImpl@collector@tls@@QAE@XZ 004412f0 f   collector_static:log_collector_impl.obj
 0001:000403c0       ??1?$queue@PAUIFileNode@aggregator@tls@@V?$deque@PAUIFileNode@aggregator@tls@@V?$allocator@PAUIFileNode@aggregator@tls@@@std@@@std@@@std@@QAE@XZ 004413c0 f i collector_static:log_collector_impl.obj
 0001:000403f0       ??1?$queue@PBUIFileNode@aggregator@tls@@V?$deque@PBUIFileNode@aggregator@tls@@V?$allocator@PBUIFileNode@aggregator@tls@@@std@@@std@@@std@@QAE@XZ 004413f0 f i collector_static:log_collector_impl.obj
 0001:00040420       ?expatStart@LogCollectorImpl@collector@tls@@CAXPAXPBDPAPBD@Z 00441420 f   collector_static:log_collector_impl.obj
 0001:00040930       ?setCollector@LogCollectorImpl@collector@tls@@AAEXPBD@Z 00441930 f i collector_static:log_collector_impl.obj
 0001:00040980       ?expatEnd@LogCollectorImpl@collector@tls@@CAXPAXPBD@Z 00441980 f   collector_static:log_collector_impl.obj
 0001:00040990       ?defaultConfig@LogCollectorImpl@collector@tls@@AAE?AW4rc_e@@XZ 00441990 f   collector_static:log_collector_impl.obj
 0001:00040b90       ?readConfig@LogCollectorImpl@collector@tls@@AAE?AW4rc_e@@XZ 00441b90 f   collector_static:log_collector_impl.obj
 0001:00041170       ?init@LogCollectorImpl@collector@tls@@AAE?AW4rc_e@@XZ 00442170 f   collector_static:log_collector_impl.obj
 0001:00041260       ?Start@LogCollectorImpl@collector@tls@@QAE?AW4rc_e@@XZ 00442260 f   collector_static:log_collector_impl.obj
 0001:00041470       ?didRequestAndResponse@LogCollectorImpl@collector@tls@@AAEIXZ 00442470 f i collector_static:log_collector_impl.obj
 0001:000414a0       ?Stop@LogCollectorImpl@collector@tls@@QAE?AW4rc_e@@XZ 004424a0 f   collector_static:log_collector_impl.obj
 0001:000415f0       ?ReStart@LogCollectorImpl@collector@tls@@QAE?AW4rc_e@@XZ 004425f0 f   collector_static:log_collector_impl.obj
 0001:00041740       ?tickProc@LogCollectorImpl@collector@tls@@AAEXI@Z 00442740 f   collector_static:log_collector_impl.obj
 0001:000417c0       ?Run@LogCollectorImpl@collector@tls@@QAE?AW4rc_e@@XZ 004427c0 f   collector_static:log_collector_impl.obj
 0001:00041b60       ?NetEvent@LogCollectorImpl@collector@tls@@UAE?AW4rc_e@@PBXW4net_event_e@INetEvent@aggregator@3@IPBE@Z 00442b60 f   collector_static:log_collector_impl.obj
 0001:00041c60       ?slowDown@LogCollectorImpl@collector@tls@@AAE?AW4rc_e@@XZ 00442c60 f   collector_static:log_collector_impl.obj
 0001:00041cc0       ?sendRequestFileNode@LogCollectorImpl@collector@tls@@AAE?AW4rc_e@@XZ 00442cc0 f   collector_static:log_collector_impl.obj
 0001:00041ce0       ?addSendQueue@LogCollectorImpl@collector@tls@@AAE?AW4rc_e@@I@Z 00442ce0 f   collector_static:log_collector_impl.obj
 0001:00041d70       ?addReqQueue@LogCollectorImpl@collector@tls@@AAE?AW4rc_e@@PBUIFileNode@aggregator@3@@Z 00442d70 f   collector_static:log_collector_impl.obj
 0001:00041db0       ?clearQueueSendFileNode@LogCollectorImpl@collector@tls@@AAEXXZ 00442db0 f   collector_static:log_collector_impl.obj
 0001:00041e00       ?clearQueueReqFileNode@LogCollectorImpl@collector@tls@@AAEXXZ 00442e00 f   collector_static:log_collector_impl.obj
 0001:00041e50       ?addCollectRule@LogCollectorImpl@collector@tls@@AAE?AW4rc_e@@PBD00@Z 00442e50 f   collector_static:log_collector_impl.obj
 0001:00041f40       ?clearCollectRule@LogCollectorImpl@collector@tls@@AAEXXZ 00442f40 f   collector_static:log_collector_impl.obj
 0001:00041fb0       ?addFileNode@LogCollectorImpl@collector@tls@@AAEPAUIFileNode@aggregator@3@ABI_JIPBD2@Z 00442fb0 f   collector_static:log_collector_impl.obj
 0001:00042080       ?updateFileNode@LogCollectorImpl@collector@tls@@AAE?AW4rc_e@@ABI_J@Z 00443080 f   collector_static:log_collector_impl.obj
 0001:00042110       ?findFileNode@LogCollectorImpl@collector@tls@@AAEPAUIFileNode@aggregator@3@PBD0@Z 00443110 f   collector_static:log_collector_impl.obj
 0001:00042180       ?findFileNode@LogCollectorImpl@collector@tls@@AAEPAUIFileNode@aggregator@3@ABI@Z 00443180 f   collector_static:log_collector_impl.obj
 0001:000421f0       ?clearFileNode@LogCollectorImpl@collector@tls@@AAEXXZ 004431f0 f   collector_static:log_collector_impl.obj
 0001:00042270       ?fileCollectCallback@LogCollectorImpl@collector@tls@@CA?AW4rc_e@@PBUIFileNode@aggregator@3@PAX@Z 00443270 f   collector_static:log_collector_impl.obj
 0001:00042310       ?fileCollect@LogCollectorImpl@collector@tls@@AAE?AW4rc_e@@XZ 00443310 f   collector_static:log_collector_impl.obj
 0001:00042380       ?procFileQueue@LogCollectorImpl@collector@tls@@AAE?AW4rc_e@@XZ 00443380 f   collector_static:log_collector_impl.obj
 0001:000428f0       ?LocalDir@FileNode@FileCollectorImpl@collector@tls@@QBEPBDXZ 004438f0 f i collector_static:log_collector_impl.obj
 0001:00042910       ?LocalName@FileNode@FileCollectorImpl@collector@tls@@QBEPBDXZ 00443910 f i collector_static:log_collector_impl.obj
 0001:00042940       ?GetMaxEncodeSize@FileNode@FileCollectorImpl@collector@tls@@QAEIXZ 00443940 f i collector_static:log_collector_impl.obj
 0001:00042960       ?GetMMLDir@FileNode@FileCollectorImpl@collector@tls@@QBEPBDXZ 00443960 f i collector_static:log_collector_impl.obj
 0001:00042980       ?GetSendSize@FileNode@FileCollectorImpl@collector@tls@@QAE?B_JXZ 00443980 f i collector_static:log_collector_impl.obj
 0001:000429b0       ?UpdateSendSize@FileNode@FileCollectorImpl@collector@tls@@QAEX_J@Z 004439b0 f i collector_static:log_collector_impl.obj
 0001:000429f0       ?DidSend@FileNode@FileCollectorImpl@collector@tls@@QAEIXZ 004439f0 f i collector_static:log_collector_impl.obj
 0001:00042aa0       ?GetData@FileNode@FileCollectorImpl@collector@tls@@QAE?AW4rc_e@@PAEPA_J_J@Z 00443aa0 f i collector_static:log_collector_impl.obj
 0001:00042b10       ?openFile@FileNode@FileCollectorImpl@collector@tls@@AAEXXZ 00443b10 f i collector_static:log_collector_impl.obj
 0001:00042b70       ?ReSetTick@FileNode@FileCollectorImpl@collector@tls@@AAEXXZ 00443b70 f i collector_static:log_collector_impl.obj
 0001:00042ba0       ?setMemMiniLogIncludeLog@LogCollectorImpl@collector@tls@@AAEXPBD@Z 00443ba0 f   collector_static:log_collector_impl.obj
 0001:00042c70       ?preProcLogFile@LogCollectorImpl@collector@tls@@AAEXPAIPAEI@Z 00443c70 f   collector_static:log_collector_impl.obj
 0001:00042f80       ??1?$_Const_iterator@$00@?$list@Uincludt_log_t@LogCollectorImpl@collector@tls@@V?$allocator@Uincludt_log_t@LogCollectorImpl@collector@tls@@@std@@@std@@QAE@XZ 00443f80 f i collector_static:log_collector_impl.obj
 0001:00042fb0       ??1?$_Iterator@$00@?$list@Uincludt_log_t@LogCollectorImpl@collector@tls@@V?$allocator@Uincludt_log_t@LogCollectorImpl@collector@tls@@@std@@@std@@QAE@XZ 00443fb0 f i collector_static:log_collector_impl.obj
 0001:00042fe0       ??4?$_Const_iterator@$00@?$list@Uincludt_log_t@LogCollectorImpl@collector@tls@@V?$allocator@Uincludt_log_t@LogCollectorImpl@collector@tls@@@std@@@std@@QAEAAV012@ABV012@@Z 00443fe0 f i collector_static:log_collector_impl.obj
 0001:00043020       ??1?$_Bidit@Uincludt_log_t@LogCollectorImpl@collector@tls@@HPBU1234@ABU1234@@std@@QAE@XZ 00444020 f i collector_static:log_collector_impl.obj
 0001:00043050       ??4?$_Bidit@Uincludt_log_t@LogCollectorImpl@collector@tls@@HPBU1234@ABU1234@@std@@QAEAAU01@ABU01@@Z 00444050 f i collector_static:log_collector_impl.obj
 0001:00043080       ?CreateInstance@LogCollectorImpl@collector@tls@@SAPAV123@PAUIHostContext@aggregator@3@PAUINetHandler@53@@Z 00444080 f   collector_static:log_collector_impl.obj
 0001:000430e0       ??0?$queue@PAUIFileNode@aggregator@tls@@V?$deque@PAUIFileNode@aggregator@tls@@V?$allocator@PAUIFileNode@aggregator@tls@@@std@@@std@@@std@@QAE@XZ 004440e0 f i collector_static:log_collector_impl.obj
 0001:00043110       ?front@?$queue@PAUIFileNode@aggregator@tls@@V?$deque@PAUIFileNode@aggregator@tls@@V?$allocator@PAUIFileNode@aggregator@tls@@@std@@@std@@@std@@QAEAAPAUIFileNode@aggregator@tls@@XZ 00444110 f i collector_static:log_collector_impl.obj
 0001:00043140       ?push@?$queue@PAUIFileNode@aggregator@tls@@V?$deque@PAUIFileNode@aggregator@tls@@V?$allocator@PAUIFileNode@aggregator@tls@@@std@@@std@@@std@@QAEXABQAUIFileNode@aggregator@tls@@@Z 00444140 f i collector_static:log_collector_impl.obj
 0001:00043170       ?pop@?$queue@PAUIFileNode@aggregator@tls@@V?$deque@PAUIFileNode@aggregator@tls@@V?$allocator@PAUIFileNode@aggregator@tls@@@std@@@std@@@std@@QAEXXZ 00444170 f i collector_static:log_collector_impl.obj
 0001:000431a0       ??1?$deque@PAUIFileNode@aggregator@tls@@V?$allocator@PAUIFileNode@aggregator@tls@@@std@@@std@@QAE@XZ 004441a0 f i collector_static:log_collector_impl.obj
 0001:000431d0       ??0?$queue@PBUIFileNode@aggregator@tls@@V?$deque@PBUIFileNode@aggregator@tls@@V?$allocator@PBUIFileNode@aggregator@tls@@@std@@@std@@@std@@QAE@XZ 004441d0 f i collector_static:log_collector_impl.obj
 0001:00043200       ?empty@?$queue@PBUIFileNode@aggregator@tls@@V?$deque@PBUIFileNode@aggregator@tls@@V?$allocator@PBUIFileNode@aggregator@tls@@@std@@@std@@@std@@QBE_NXZ 00444200 f i collector_static:log_collector_impl.obj
 0001:00043230       ?front@?$queue@PBUIFileNode@aggregator@tls@@V?$deque@PBUIFileNode@aggregator@tls@@V?$allocator@PBUIFileNode@aggregator@tls@@@std@@@std@@@std@@QAEAAPBUIFileNode@aggregator@tls@@XZ 00444230 f i collector_static:log_collector_impl.obj
 0001:00043260       ?push@?$queue@PBUIFileNode@aggregator@tls@@V?$deque@PBUIFileNode@aggregator@tls@@V?$allocator@PBUIFileNode@aggregator@tls@@@std@@@std@@@std@@QAEXABQBUIFileNode@aggregator@tls@@@Z 00444260 f i collector_static:log_collector_impl.obj
 0001:00043290       ?pop@?$queue@PBUIFileNode@aggregator@tls@@V?$deque@PBUIFileNode@aggregator@tls@@V?$allocator@PBUIFileNode@aggregator@tls@@@std@@@std@@@std@@QAEXXZ 00444290 f i collector_static:log_collector_impl.obj
 0001:000432c0       ??1?$deque@PBUIFileNode@aggregator@tls@@V?$allocator@PBUIFileNode@aggregator@tls@@@std@@@std@@QAE@XZ 004442c0 f i collector_static:log_collector_impl.obj
 0001:000432f0       ??0?$AutoRelease@PAVICoder@coder@tls@@@tls@@QAE@PAVICoder@coder@1@@Z 004442f0 f i collector_static:log_collector_impl.obj
 0001:00043310       ??1?$AutoRelease@PAVICoder@coder@tls@@@tls@@QAE@XZ 00444310 f i collector_static:log_collector_impl.obj
 0001:00043340       ??B?$AutoRelease@PAVICoder@coder@tls@@@tls@@QAEPAVICoder@coder@1@XZ 00444340 f i collector_static:log_collector_impl.obj
 0001:00043360       ??0?$AutoRelease@PAVMemoryNodeStd@base@tls@@@tls@@QAE@PAVMemoryNodeStd@base@1@@Z 00444360 f i collector_static:log_collector_impl.obj
 0001:00043380       ??1?$AutoRelease@PAVMemoryNodeStd@base@tls@@@tls@@QAE@XZ 00444380 f i collector_static:log_collector_impl.obj
 0001:000433b0       ??B?$AutoRelease@PAVMemoryNodeStd@base@tls@@@tls@@QAEPAVMemoryNodeStd@base@1@XZ 004443b0 f i collector_static:log_collector_impl.obj
 0001:000433d0       ??0?$list@Uincludt_log_t@LogCollectorImpl@collector@tls@@V?$allocator@Uincludt_log_t@LogCollectorImpl@collector@tls@@@std@@@std@@QAE@XZ 004443d0 f i collector_static:log_collector_impl.obj
 0001:00043420       ??1?$list@Uincludt_log_t@LogCollectorImpl@collector@tls@@V?$allocator@Uincludt_log_t@LogCollectorImpl@collector@tls@@@std@@@std@@QAE@XZ 00444420 f i collector_static:log_collector_impl.obj
 0001:00043450       ?begin@?$list@Uincludt_log_t@LogCollectorImpl@collector@tls@@V?$allocator@Uincludt_log_t@LogCollectorImpl@collector@tls@@@std@@@std@@QAE?AV?$_Iterator@$00@12@XZ 00444450 f i collector_static:log_collector_impl.obj
 0001:00043490       ?end@?$list@Uincludt_log_t@LogCollectorImpl@collector@tls@@V?$allocator@Uincludt_log_t@LogCollectorImpl@collector@tls@@@std@@@std@@QAE?AV?$_Iterator@$00@12@XZ 00444490 f i collector_static:log_collector_impl.obj
 0001:000434d0       ?back@?$list@Uincludt_log_t@LogCollectorImpl@collector@tls@@V?$allocator@Uincludt_log_t@LogCollectorImpl@collector@tls@@@std@@@std@@QAEAAUincludt_log_t@LogCollectorImpl@collector@tls@@XZ 004444d0 f i collector_static:log_collector_impl.obj
 0001:00043530       ?push_back@?$list@Uincludt_log_t@LogCollectorImpl@collector@tls@@V?$allocator@Uincludt_log_t@LogCollectorImpl@collector@tls@@@std@@@std@@QAEXABUincludt_log_t@LogCollectorImpl@collector@tls@@@Z 00444530 f i collector_static:log_collector_impl.obj
 0001:00043570       ??0?$AutoRelease@PAUIHostContext@aggregator@tls@@@tls@@QAE@PAUIHostContext@aggregator@1@@Z 00444570 f i collector_static:log_collector_impl.obj
 0001:00043590       ??1?$AutoRelease@PAUIHostContext@aggregator@tls@@@tls@@QAE@XZ 00444590 f i collector_static:log_collector_impl.obj
 0001:000435c0       ??0?$AutoRelease@PAUINetHandler@aggregator@tls@@@tls@@QAE@PAUINetHandler@aggregator@1@@Z 004445c0 f i collector_static:log_collector_impl.obj
 0001:000435e0       ??1?$AutoRelease@PAUINetHandler@aggregator@tls@@@tls@@QAE@XZ 004445e0 f i collector_static:log_collector_impl.obj
 0001:00043610       ??0?$AutoRelease@PAUIFileCollector@collector@tls@@@tls@@QAE@PAUIFileCollector@collector@1@@Z 00444610 f i collector_static:log_collector_impl.obj
 0001:00043630       ??1?$AutoRelease@PAUIFileCollector@collector@tls@@@tls@@QAE@XZ 00444630 f i collector_static:log_collector_impl.obj
 0001:00043660       ??C?$AutoRelease@PAUIFileCollector@collector@tls@@@tls@@QAEPAUIFileCollector@collector@1@XZ 00444660 f i collector_static:log_collector_impl.obj
 0001:00043680       ??B?$AutoRelease@PAUIFileCollector@collector@tls@@@tls@@QAEPAUIFileCollector@collector@1@XZ 00444680 f i collector_static:log_collector_impl.obj
 0001:000436a0       ??0?$AutoRelease@PAU_iobuf@@@tls@@QAE@PAU_iobuf@@@Z 004446a0 f i collector_static:log_collector_impl.obj
 0001:000436c0       ??1?$AutoRelease@PAU_iobuf@@@tls@@QAE@XZ 004446c0 f i collector_static:log_collector_impl.obj
 0001:000436f0       ?Release@?$AutoRelease@PAU_iobuf@@@tls@@QAEXXZ 004446f0 f i collector_static:log_collector_impl.obj
 0001:00043730       ??B?$AutoRelease@PAU_iobuf@@@tls@@QAEPAU_iobuf@@XZ 00444730 f i collector_static:log_collector_impl.obj
 0001:00043750       ?Set@?$AutoRelease@PAU_iobuf@@@tls@@QAEXPAU_iobuf@@@Z 00444750 f i collector_static:log_collector_impl.obj
 0001:00043780       ??0?$AutoRelease@PAUXML_ParserStruct@@@tls@@QAE@PAUXML_ParserStruct@@@Z 00444780 f i collector_static:log_collector_impl.obj
 0001:000437a0       ??1?$AutoRelease@PAUXML_ParserStruct@@@tls@@QAE@XZ 004447a0 f i collector_static:log_collector_impl.obj
 0001:000437d0       ?Release@?$AutoRelease@PAUXML_ParserStruct@@@tls@@QAEXXZ 004447d0 f i collector_static:log_collector_impl.obj
 0001:00043810       ??B?$AutoRelease@PAUXML_ParserStruct@@@tls@@QAEPAUXML_ParserStruct@@XZ 00444810 f i collector_static:log_collector_impl.obj
 0001:00043830       ??0?$_Const_iterator@$00@?$list@Uincludt_log_t@LogCollectorImpl@collector@tls@@V?$allocator@Uincludt_log_t@LogCollectorImpl@collector@tls@@@std@@@std@@QAE@XZ 00444830 f i collector_static:log_collector_impl.obj
 0001:00043870       ??D?$_Const_iterator@$00@?$list@Uincludt_log_t@LogCollectorImpl@collector@tls@@V?$allocator@Uincludt_log_t@LogCollectorImpl@collector@tls@@@std@@@std@@QBEABUincludt_log_t@LogCollectorImpl@collector@tls@@XZ 00444870 f i collector_static:log_collector_impl.obj
 0001:00043920       ??E?$_Const_iterator@$00@?$list@Uincludt_log_t@LogCollectorImpl@collector@tls@@V?$allocator@Uincludt_log_t@LogCollectorImpl@collector@tls@@@std@@@std@@QAEAAV012@XZ 00444920 f i collector_static:log_collector_impl.obj
 0001:000439e0       ??9?$_Const_iterator@$00@?$list@Uincludt_log_t@LogCollectorImpl@collector@tls@@V?$allocator@Uincludt_log_t@LogCollectorImpl@collector@tls@@@std@@@std@@QBE_NABV012@@Z 004449e0 f i collector_static:log_collector_impl.obj
 0001:00043a20       ??1?$_Deque_val@PAUIFileNode@aggregator@tls@@V?$allocator@PAUIFileNode@aggregator@tls@@@std@@@std@@QAE@XZ 00444a20 f i collector_static:log_collector_impl.obj
 0001:00043a50       ??1?$_Deque_val@PBUIFileNode@aggregator@tls@@V?$allocator@PBUIFileNode@aggregator@tls@@@std@@@std@@QAE@XZ 00444a50 f i collector_static:log_collector_impl.obj
 0001:00043a80       ??1?$_List_val@Uincludt_log_t@LogCollectorImpl@collector@tls@@V?$allocator@Uincludt_log_t@LogCollectorImpl@collector@tls@@@std@@@std@@QAE@XZ 00444a80 f i collector_static:log_collector_impl.obj
 0001:00043ab0       ??0?$_Bidit@Uincludt_log_t@LogCollectorImpl@collector@tls@@HPBU1234@ABU1234@@std@@QAE@XZ 00444ab0 f i collector_static:log_collector_impl.obj
 0001:00043ae0       ??1?$_Deque_map@PAUIFileNode@aggregator@tls@@V?$allocator@PAUIFileNode@aggregator@tls@@@std@@@std@@QAE@XZ 00444ae0 f i collector_static:log_collector_impl.obj
 0001:00043b10       ??1?$_Deque_map@PBUIFileNode@aggregator@tls@@V?$allocator@PBUIFileNode@aggregator@tls@@@std@@@std@@QAE@XZ 00444b10 f i collector_static:log_collector_impl.obj
 0001:00043b40       ??1?$_List_ptr@Uincludt_log_t@LogCollectorImpl@collector@tls@@V?$allocator@Uincludt_log_t@LogCollectorImpl@collector@tls@@@std@@@std@@QAE@XZ 00444b40 f i collector_static:log_collector_impl.obj
 0001:00043b70       ??1?$_List_nod@Uincludt_log_t@LogCollectorImpl@collector@tls@@V?$allocator@Uincludt_log_t@LogCollectorImpl@collector@tls@@@std@@@std@@QAE@XZ 00444b70 f i collector_static:log_collector_impl.obj
 0001:00043ba0       ??0?$deque@PAUIFileNode@aggregator@tls@@V?$allocator@PAUIFileNode@aggregator@tls@@@std@@@std@@QAE@XZ 00444ba0 f i collector_static:log_collector_impl.obj
 0001:00043c00       ?front@?$deque@PAUIFileNode@aggregator@tls@@V?$allocator@PAUIFileNode@aggregator@tls@@@std@@@std@@QAEAAPAUIFileNode@aggregator@tls@@XZ 00444c00 f i collector_static:log_collector_impl.obj
 0001:00043c50       ?pop_front@?$deque@PAUIFileNode@aggregator@tls@@V?$allocator@PAUIFileNode@aggregator@tls@@@std@@@std@@QAEXXZ 00444c50 f i collector_static:log_collector_impl.obj
 0001:00043d40       ?push_back@?$deque@PAUIFileNode@aggregator@tls@@V?$allocator@PAUIFileNode@aggregator@tls@@@std@@@std@@QAEXABQAUIFileNode@aggregator@tls@@@Z 00444d40 f i collector_static:log_collector_impl.obj
 0001:00043e40       ?_Tidy@?$deque@PAUIFileNode@aggregator@tls@@V?$allocator@PAUIFileNode@aggregator@tls@@@std@@@std@@IAEXXZ 00444e40 f i collector_static:log_collector_impl.obj
 0001:00043f10       ??0?$deque@PBUIFileNode@aggregator@tls@@V?$allocator@PBUIFileNode@aggregator@tls@@@std@@@std@@QAE@XZ 00444f10 f i collector_static:log_collector_impl.obj
 0001:00043f70       ?empty@?$deque@PBUIFileNode@aggregator@tls@@V?$allocator@PBUIFileNode@aggregator@tls@@@std@@@std@@QBE_NXZ 00444f70 f i collector_static:log_collector_impl.obj
 0001:00043f90       ?front@?$deque@PBUIFileNode@aggregator@tls@@V?$allocator@PBUIFileNode@aggregator@tls@@@std@@@std@@QAEAAPBUIFileNode@aggregator@tls@@XZ 00444f90 f i collector_static:log_collector_impl.obj
 0001:00043fe0       ?pop_front@?$deque@PBUIFileNode@aggregator@tls@@V?$allocator@PBUIFileNode@aggregator@tls@@@std@@@std@@QAEXXZ 00444fe0 f i collector_static:log_collector_impl.obj
 0001:000440d0       ?push_back@?$deque@PBUIFileNode@aggregator@tls@@V?$allocator@PBUIFileNode@aggregator@tls@@@std@@@std@@QAEXABQBUIFileNode@aggregator@tls@@@Z 004450d0 f i collector_static:log_collector_impl.obj
 0001:000441d0       ?_Tidy@?$deque@PBUIFileNode@aggregator@tls@@V?$allocator@PBUIFileNode@aggregator@tls@@@std@@@std@@IAEXXZ 004451d0 f i collector_static:log_collector_impl.obj
 0001:000442a0       ?Release@?$AutoRelease@PAVICoder@coder@tls@@@tls@@QAEXXZ 004452a0 f i collector_static:log_collector_impl.obj
 0001:000442f0       ?Release@?$AutoRelease@PAVMemoryNodeStd@base@tls@@@tls@@QAEXXZ 004452f0 f i collector_static:log_collector_impl.obj
 0001:00044340       ?_Nextnode@?$list@Uincludt_log_t@LogCollectorImpl@collector@tls@@V?$allocator@Uincludt_log_t@LogCollectorImpl@collector@tls@@@std@@@std@@KAAAPAU_Node@?$_List_nod@Uincludt_log_t@LogCollectorImpl@collector@tls@@V?$allocator@Uincludt_log_t@LogCollectorImpl@collector@tls@@@std@@@2@PAU342@@Z 00445340 f i collector_static:log_collector_impl.obj
 0001:00044350       ?_Myval@?$list@Uincludt_log_t@LogCollectorImpl@collector@tls@@V?$allocator@Uincludt_log_t@LogCollectorImpl@collector@tls@@@std@@@std@@KAAAUincludt_log_t@LogCollectorImpl@collector@tls@@PAU_Node@?$_List_nod@Uincludt_log_t@LogCollectorImpl@collector@tls@@V?$allocator@Uincludt_log_t@LogCollectorImpl@collector@tls@@@std@@@2@@Z 00445350 f i collector_static:log_collector_impl.obj
 0001:00044360       ?_Insert@?$list@Uincludt_log_t@LogCollectorImpl@collector@tls@@V?$allocator@Uincludt_log_t@LogCollectorImpl@collector@tls@@@std@@@std@@QAEXV?$_Iterator@$00@12@ABUincludt_log_t@LogCollectorImpl@collector@tls@@@Z 00445360 f i collector_static:log_collector_impl.obj
 0001:00044420       ?_Buynode@?$list@Uincludt_log_t@LogCollectorImpl@collector@tls@@V?$allocator@Uincludt_log_t@LogCollectorImpl@collector@tls@@@std@@@std@@IAEPAU_Node@?$_List_nod@Uincludt_log_t@LogCollectorImpl@collector@tls@@V?$allocator@Uincludt_log_t@LogCollectorImpl@collector@tls@@@std@@@2@XZ 00445420 f i collector_static:log_collector_impl.obj
 0001:00044510       ?_Tidy@?$list@Uincludt_log_t@LogCollectorImpl@collector@tls@@V?$allocator@Uincludt_log_t@LogCollectorImpl@collector@tls@@@std@@@std@@IAEXXZ 00445510 f i collector_static:log_collector_impl.obj
 0001:00044590       ??0?$_List_val@Uincludt_log_t@LogCollectorImpl@collector@tls@@V?$allocator@Uincludt_log_t@LogCollectorImpl@collector@tls@@@std@@@std@@QAE@V?$allocator@Uincludt_log_t@LogCollectorImpl@collector@tls@@@1@@Z 00445590 f i collector_static:log_collector_impl.obj
 0001:000445e0       ??0?$allocator@Uincludt_log_t@LogCollectorImpl@collector@tls@@@std@@QAE@XZ 004455e0 f i collector_static:log_collector_impl.obj
 0001:00044600       ?Release@?$AutoRelease@PAUIHostContext@aggregator@tls@@@tls@@QAEXXZ 00445600 f i collector_static:log_collector_impl.obj
 0001:00044650       ?Release@?$AutoRelease@PAUINetHandler@aggregator@tls@@@tls@@QAEXXZ 00445650 f i collector_static:log_collector_impl.obj
 0001:000446a0       ?Release@?$AutoRelease@PAUIFileCollector@collector@tls@@@tls@@QAEXXZ 004456a0 f i collector_static:log_collector_impl.obj
 0001:000446f0       ??8?$_Const_iterator@$00@?$list@Uincludt_log_t@LogCollectorImpl@collector@tls@@V?$allocator@Uincludt_log_t@LogCollectorImpl@collector@tls@@@std@@@std@@QBE_NABV012@@Z 004456f0 f i collector_static:log_collector_impl.obj
 0001:00044730       ??0?$_Iterator@$00@?$list@Uincludt_log_t@LogCollectorImpl@collector@tls@@V?$allocator@Uincludt_log_t@LogCollectorImpl@collector@tls@@@std@@@std@@QAE@PAU_Node@?$_List_nod@Uincludt_log_t@LogCollectorImpl@collector@tls@@V?$allocator@Uincludt_log_t@LogCollectorImpl@collector@tls@@@std@@@2@PBV12@@Z 00445730 f i collector_static:log_collector_impl.obj
 0001:00044770       ??D?$_Iterator@$00@?$list@Uincludt_log_t@LogCollectorImpl@collector@tls@@V?$allocator@Uincludt_log_t@LogCollectorImpl@collector@tls@@@std@@@std@@QBEAAUincludt_log_t@LogCollectorImpl@collector@tls@@XZ 00445770 f i collector_static:log_collector_impl.obj
 0001:000447a0       ??F?$_Iterator@$00@?$list@Uincludt_log_t@LogCollectorImpl@collector@tls@@V?$allocator@Uincludt_log_t@LogCollectorImpl@collector@tls@@@std@@@std@@QAEAAV012@XZ 004457a0 f i collector_static:log_collector_impl.obj
 0001:000447d0       ??1?$_Deque_iterator@PAUIFileNode@aggregator@tls@@V?$allocator@PAUIFileNode@aggregator@tls@@@std@@$00@std@@QAE@XZ 004457d0 f i collector_static:log_collector_impl.obj
 0001:00044800       ??1?$_Deque_iterator@PBUIFileNode@aggregator@tls@@V?$allocator@PBUIFileNode@aggregator@tls@@@std@@$00@std@@QAE@XZ 00445800 f i collector_static:log_collector_impl.obj
 0001:00044830       ??1?$_Deque_const_iterator@PAUIFileNode@aggregator@tls@@V?$allocator@PAUIFileNode@aggregator@tls@@@std@@$00@std@@QAE@XZ 00445830 f i collector_static:log_collector_impl.obj
 0001:00044860       ??1?$_Deque_const_iterator@PBUIFileNode@aggregator@tls@@V?$allocator@PBUIFileNode@aggregator@tls@@@std@@$00@std@@QAE@XZ 00445860 f i collector_static:log_collector_impl.obj
 0001:00044890       ??1?$_Ranit@PAUIFileNode@aggregator@tls@@HPBQAU123@ABQAU123@@std@@QAE@XZ 00445890 f i collector_static:log_collector_impl.obj
 0001:000448c0       ??1?$_Ranit@PBUIFileNode@aggregator@tls@@HPBQBU123@ABQBU123@@std@@QAE@XZ 004458c0 f i collector_static:log_collector_impl.obj
 0001:000448f0       ?begin@?$deque@PAUIFileNode@aggregator@tls@@V?$allocator@PAUIFileNode@aggregator@tls@@@std@@@std@@QAE?AV?$_Deque_iterator@PAUIFileNode@aggregator@tls@@V?$allocator@PAUIFileNode@aggregator@tls@@@std@@$00@2@XZ 004458f0 f i collector_static:log_collector_impl.obj
 0001:00044930       ?pop_back@?$deque@PAUIFileNode@aggregator@tls@@V?$allocator@PAUIFileNode@aggregator@tls@@@std@@@std@@QAEXXZ 00445930 f i collector_static:log_collector_impl.obj
 0001:00044a20       ?_Growmap@?$deque@PAUIFileNode@aggregator@tls@@V?$allocator@PAUIFileNode@aggregator@tls@@@std@@@std@@IAEXI@Z 00445a20 f i collector_static:log_collector_impl.obj
 0001:00044c70       ?_Orphan_off@?$deque@PAUIFileNode@aggregator@tls@@V?$allocator@PAUIFileNode@aggregator@tls@@@std@@@std@@IBEXI@Z 00445c70 f i collector_static:log_collector_impl.obj
 0001:00044d90       ??0?$_Deque_val@PAUIFileNode@aggregator@tls@@V?$allocator@PAUIFileNode@aggregator@tls@@@std@@@std@@IAE@V?$allocator@PAUIFileNode@aggregator@tls@@@1@@Z 00445d90 f i collector_static:log_collector_impl.obj
 0001:00044de0       ??0?$allocator@PAUIFileNode@aggregator@tls@@@std@@QAE@XZ 00445de0 f i collector_static:log_collector_impl.obj
 0001:00044e00       ?deallocate@?$allocator@PAUIFileNode@aggregator@tls@@@std@@QAEXPAPAUIFileNode@aggregator@tls@@I@Z 00445e00 f i collector_static:log_collector_impl.obj
 0001:00044e30       ?allocate@?$allocator@PAUIFileNode@aggregator@tls@@@std@@QAEPAPAUIFileNode@aggregator@tls@@I@Z 00445e30 f i collector_static:log_collector_impl.obj
 0001:00044e60       ?construct@?$allocator@PAUIFileNode@aggregator@tls@@@std@@QAEXPAPAUIFileNode@aggregator@tls@@ABQAU345@@Z 00445e60 f i collector_static:log_collector_impl.obj
 0001:00044e90       ?destroy@?$allocator@PAUIFileNode@aggregator@tls@@@std@@QAEXPAPAUIFileNode@aggregator@tls@@@Z 00445e90 f i collector_static:log_collector_impl.obj
 0001:00044ec0       ?deallocate@?$allocator@PAPAUIFileNode@aggregator@tls@@@std@@QAEXPAPAPAUIFileNode@aggregator@tls@@I@Z 00445ec0 f i collector_static:log_collector_impl.obj
 0001:00044ef0       ?destroy@?$allocator@PAPAUIFileNode@aggregator@tls@@@std@@QAEXPAPAPAUIFileNode@aggregator@tls@@@Z 00445ef0 f i collector_static:log_collector_impl.obj
 0001:00044f20       ?begin@?$deque@PBUIFileNode@aggregator@tls@@V?$allocator@PBUIFileNode@aggregator@tls@@@std@@@std@@QAE?AV?$_Deque_iterator@PBUIFileNode@aggregator@tls@@V?$allocator@PBUIFileNode@aggregator@tls@@@std@@$00@2@XZ 00445f20 f i collector_static:log_collector_impl.obj
 0001:00044f60       ?pop_back@?$deque@PBUIFileNode@aggregator@tls@@V?$allocator@PBUIFileNode@aggregator@tls@@@std@@@std@@QAEXXZ 00445f60 f i collector_static:log_collector_impl.obj
 0001:00045050       ?_Growmap@?$deque@PBUIFileNode@aggregator@tls@@V?$allocator@PBUIFileNode@aggregator@tls@@@std@@@std@@IAEXI@Z 00446050 f i collector_static:log_collector_impl.obj
 0001:000452a0       ?_Orphan_off@?$deque@PBUIFileNode@aggregator@tls@@V?$allocator@PBUIFileNode@aggregator@tls@@@std@@@std@@IBEXI@Z 004462a0 f i collector_static:log_collector_impl.obj
 0001:000453c0       ??0?$_Deque_val@PBUIFileNode@aggregator@tls@@V?$allocator@PBUIFileNode@aggregator@tls@@@std@@@std@@IAE@V?$allocator@PBUIFileNode@aggregator@tls@@@1@@Z 004463c0 f i collector_static:log_collector_impl.obj
 0001:00045410       ??0?$allocator@PBUIFileNode@aggregator@tls@@@std@@QAE@XZ 00446410 f i collector_static:log_collector_impl.obj
 0001:00045430       ?deallocate@?$allocator@PBUIFileNode@aggregator@tls@@@std@@QAEXPAPBUIFileNode@aggregator@tls@@I@Z 00446430 f i collector_static:log_collector_impl.obj
 0001:00045460       ?allocate@?$allocator@PBUIFileNode@aggregator@tls@@@std@@QAEPAPBUIFileNode@aggregator@tls@@I@Z 00446460 f i collector_static:log_collector_impl.obj
 0001:00045490       ?construct@?$allocator@PBUIFileNode@aggregator@tls@@@std@@QAEXPAPBUIFileNode@aggregator@tls@@ABQBU345@@Z 00446490 f i collector_static:log_collector_impl.obj
 0001:000454c0       ?destroy@?$allocator@PBUIFileNode@aggregator@tls@@@std@@QAEXPAPBUIFileNode@aggregator@tls@@@Z 004464c0 f i collector_static:log_collector_impl.obj
 0001:000454f0       ?deallocate@?$allocator@PAPBUIFileNode@aggregator@tls@@@std@@QAEXPAPAPBUIFileNode@aggregator@tls@@I@Z 004464f0 f i collector_static:log_collector_impl.obj
 0001:00045520       ?destroy@?$allocator@PAPBUIFileNode@aggregator@tls@@@std@@QAEXPAPAPBUIFileNode@aggregator@tls@@@Z 00446520 f i collector_static:log_collector_impl.obj
 0001:00045550       ?_Prevnode@?$list@Uincludt_log_t@LogCollectorImpl@collector@tls@@V?$allocator@Uincludt_log_t@LogCollectorImpl@collector@tls@@@std@@@std@@KAAAPAU_Node@?$_List_nod@Uincludt_log_t@LogCollectorImpl@collector@tls@@V?$allocator@Uincludt_log_t@LogCollectorImpl@collector@tls@@@std@@@2@PAU342@@Z 00446550 f i collector_static:log_collector_impl.obj
 0001:00045560       ?clear@?$list@Uincludt_log_t@LogCollectorImpl@collector@tls@@V?$allocator@Uincludt_log_t@LogCollectorImpl@collector@tls@@@std@@@std@@QAEXXZ 00446560 f i collector_static:log_collector_impl.obj
 0001:00045630       ?_Buynode@?$list@Uincludt_log_t@LogCollectorImpl@collector@tls@@V?$allocator@Uincludt_log_t@LogCollectorImpl@collector@tls@@@std@@@std@@IAEPAU_Node@?$_List_nod@Uincludt_log_t@LogCollectorImpl@collector@tls@@V?$allocator@Uincludt_log_t@LogCollectorImpl@collector@tls@@@std@@@2@PAU342@0ABUincludt_log_t@LogCollectorImpl@collector@tls@@@Z 00446630 f i collector_static:log_collector_impl.obj
 0001:00045730       ?_Incsize@?$list@Uincludt_log_t@LogCollectorImpl@collector@tls@@V?$allocator@Uincludt_log_t@LogCollectorImpl@collector@tls@@@std@@@std@@IAEXI@Z 00446730 f i collector_static:log_collector_impl.obj
 0001:000457b0       ??0?$_List_ptr@Uincludt_log_t@LogCollectorImpl@collector@tls@@V?$allocator@Uincludt_log_t@LogCollectorImpl@collector@tls@@@std@@@std@@IAE@V?$allocator@Uincludt_log_t@LogCollectorImpl@collector@tls@@@1@@Z 004467b0 f i collector_static:log_collector_impl.obj
 0001:00045800       ??0?$allocator@Uincludt_log_t@LogCollectorImpl@collector@tls@@@std@@QAE@ABV01@@Z 00446800 f i collector_static:log_collector_impl.obj
 0001:00045820       ?deallocate@?$allocator@U_Node@?$_List_nod@Uincludt_log_t@LogCollectorImpl@collector@tls@@V?$allocator@Uincludt_log_t@LogCollectorImpl@collector@tls@@@std@@@std@@@std@@QAEXPAU_Node@?$_List_nod@Uincludt_log_t@LogCollectorImpl@collector@tls@@V?$allocator@Uincludt_log_t@LogCollectorImpl@collector@tls@@@std@@@2@I@Z 00446820 f i collector_static:log_collector_impl.obj
 0001:00045850       ?allocate@?$allocator@U_Node@?$_List_nod@Uincludt_log_t@LogCollectorImpl@collector@tls@@V?$allocator@Uincludt_log_t@LogCollectorImpl@collector@tls@@@std@@@std@@@std@@QAEPAU_Node@?$_List_nod@Uincludt_log_t@LogCollectorImpl@collector@tls@@V?$allocator@Uincludt_log_t@LogCollectorImpl@collector@tls@@@std@@@2@I@Z 00446850 f i collector_static:log_collector_impl.obj
 0001:00045880       ?construct@?$allocator@PAU_Node@?$_List_nod@Uincludt_log_t@LogCollectorImpl@collector@tls@@V?$allocator@Uincludt_log_t@LogCollectorImpl@collector@tls@@@std@@@std@@@std@@QAEXPAPAU_Node@?$_List_nod@Uincludt_log_t@LogCollectorImpl@collector@tls@@V?$allocator@Uincludt_log_t@LogCollectorImpl@collector@tls@@@std@@@2@ABQAU342@@Z 00446880 f i collector_static:log_collector_impl.obj
 0001:000458b0       ?destroy@?$allocator@PAU_Node@?$_List_nod@Uincludt_log_t@LogCollectorImpl@collector@tls@@V?$allocator@Uincludt_log_t@LogCollectorImpl@collector@tls@@@std@@@std@@@std@@QAEXPAPAU_Node@?$_List_nod@Uincludt_log_t@LogCollectorImpl@collector@tls@@V?$allocator@Uincludt_log_t@LogCollectorImpl@collector@tls@@@std@@@2@@Z 004468b0 f i collector_static:log_collector_impl.obj
 0001:000458e0       ??0?$_Const_iterator@$00@?$list@Uincludt_log_t@LogCollectorImpl@collector@tls@@V?$allocator@Uincludt_log_t@LogCollectorImpl@collector@tls@@@std@@@std@@QAE@PAU_Node@?$_List_nod@Uincludt_log_t@LogCollectorImpl@collector@tls@@V?$allocator@Uincludt_log_t@LogCollectorImpl@collector@tls@@@std@@@2@PBV12@@Z 004468e0 f i collector_static:log_collector_impl.obj
 0001:00045920       ??F?$_Const_iterator@$00@?$list@Uincludt_log_t@LogCollectorImpl@collector@tls@@V?$allocator@Uincludt_log_t@LogCollectorImpl@collector@tls@@@std@@@std@@QAEAAV012@XZ 00446920 f i collector_static:log_collector_impl.obj
 0001:000459e0       ?_Mynode@?$_Const_iterator@$00@?$list@Uincludt_log_t@LogCollectorImpl@collector@tls@@V?$allocator@Uincludt_log_t@LogCollectorImpl@collector@tls@@@std@@@std@@QBEPAU_Node@?$_List_nod@Uincludt_log_t@LogCollectorImpl@collector@tls@@V?$allocator@Uincludt_log_t@LogCollectorImpl@collector@tls@@@std@@@3@XZ 004469e0 f i collector_static:log_collector_impl.obj
 0001:00045a00       ?_Compat@?$_Const_iterator@$00@?$list@Uincludt_log_t@LogCollectorImpl@collector@tls@@V?$allocator@Uincludt_log_t@LogCollectorImpl@collector@tls@@@std@@@std@@QBEXABV123@@Z 00446a00 f i collector_static:log_collector_impl.obj
 0001:00045aa0       ??D?$_Deque_iterator@PAUIFileNode@aggregator@tls@@V?$allocator@PAUIFileNode@aggregator@tls@@@std@@$00@std@@QBEAAPAUIFileNode@aggregator@tls@@XZ 00446aa0 f i collector_static:log_collector_impl.obj
 0001:00045ad0       ??D?$_Deque_iterator@PBUIFileNode@aggregator@tls@@V?$allocator@PBUIFileNode@aggregator@tls@@@std@@$00@std@@QBEAAPBUIFileNode@aggregator@tls@@XZ 00446ad0 f i collector_static:log_collector_impl.obj
 0001:00045b00       ?max_size@?$deque@PAUIFileNode@aggregator@tls@@V?$allocator@PAUIFileNode@aggregator@tls@@@std@@@std@@QBEIXZ 00446b00 f i collector_static:log_collector_impl.obj
 0001:00045b30       ?_Xlen@?$deque@PAUIFileNode@aggregator@tls@@V?$allocator@PAUIFileNode@aggregator@tls@@@std@@@std@@KAXXZ 00446b30 f i collector_static:log_collector_impl.obj
 0001:00045b90       ??0?$_Deque_map@PAUIFileNode@aggregator@tls@@V?$allocator@PAUIFileNode@aggregator@tls@@@std@@@std@@IAE@V?$allocator@PAUIFileNode@aggregator@tls@@@1@@Z 00446b90 f i collector_static:log_collector_impl.obj
 0001:00045bd0       ??0?$allocator@PAUIFileNode@aggregator@tls@@@std@@QAE@ABV01@@Z 00446bd0 f i collector_static:log_collector_impl.obj
 0001:00045bf0       ?allocate@?$allocator@PAPAUIFileNode@aggregator@tls@@@std@@QAEPAPAPAUIFileNode@aggregator@tls@@I@Z 00446bf0 f i collector_static:log_collector_impl.obj
 0001:00045c20       ?max_size@?$deque@PBUIFileNode@aggregator@tls@@V?$allocator@PBUIFileNode@aggregator@tls@@@std@@@std@@QBEIXZ 00446c20 f i collector_static:log_collector_impl.obj
 0001:00045c50       ?_Xlen@?$deque@PBUIFileNode@aggregator@tls@@V?$allocator@PBUIFileNode@aggregator@tls@@@std@@@std@@KAXXZ 00446c50 f i collector_static:log_collector_impl.obj
 0001:00045cb0       ??0?$_Deque_map@PBUIFileNode@aggregator@tls@@V?$allocator@PBUIFileNode@aggregator@tls@@@std@@@std@@IAE@V?$allocator@PBUIFileNode@aggregator@tls@@@1@@Z 00446cb0 f i collector_static:log_collector_impl.obj
 0001:00045cf0       ??0?$allocator@PBUIFileNode@aggregator@tls@@@std@@QAE@ABV01@@Z 00446cf0 f i collector_static:log_collector_impl.obj
 0001:00045d10       ?allocate@?$allocator@PAPBUIFileNode@aggregator@tls@@@std@@QAEPAPAPBUIFileNode@aggregator@tls@@I@Z 00446d10 f i collector_static:log_collector_impl.obj
 0001:00045d40       ?max_size@?$list@Uincludt_log_t@LogCollectorImpl@collector@tls@@V?$allocator@Uincludt_log_t@LogCollectorImpl@collector@tls@@@std@@@std@@QBEIXZ 00446d40 f i collector_static:log_collector_impl.obj
 0001:00045d70       ?_Orphan_ptr@?$list@Uincludt_log_t@LogCollectorImpl@collector@tls@@V?$allocator@Uincludt_log_t@LogCollectorImpl@collector@tls@@@std@@@std@@IBEXAAV12@PAU_Node@?$_List_nod@Uincludt_log_t@LogCollectorImpl@collector@tls@@V?$allocator@Uincludt_log_t@LogCollectorImpl@collector@tls@@@std@@@2@@Z 00446d70 f i collector_static:log_collector_impl.obj
 0001:00045e40       ??0?$_List_nod@Uincludt_log_t@LogCollectorImpl@collector@tls@@V?$allocator@Uincludt_log_t@LogCollectorImpl@collector@tls@@@std@@@std@@IAE@V?$allocator@Uincludt_log_t@LogCollectorImpl@collector@tls@@@1@@Z 00446e40 f i collector_static:log_collector_impl.obj
 0001:00045e80       ?construct@?$allocator@Uincludt_log_t@LogCollectorImpl@collector@tls@@@std@@QAEXPAUincludt_log_t@LogCollectorImpl@collector@tls@@ABU3456@@Z 00446e80 f i collector_static:log_collector_impl.obj
 0001:00045eb0       ?destroy@?$allocator@U_Node@?$_List_nod@Uincludt_log_t@LogCollectorImpl@collector@tls@@V?$allocator@Uincludt_log_t@LogCollectorImpl@collector@tls@@@std@@@std@@@std@@QAEXPAU_Node@?$_List_nod@Uincludt_log_t@LogCollectorImpl@collector@tls@@V?$allocator@Uincludt_log_t@LogCollectorImpl@collector@tls@@@std@@@2@@Z 00446eb0 f i collector_static:log_collector_impl.obj
 0001:00045ee0       ??0?$_Deque_iterator@PAUIFileNode@aggregator@tls@@V?$allocator@PAUIFileNode@aggregator@tls@@@std@@$00@std@@QAE@IPBV_Container_base@1@@Z 00446ee0 f i collector_static:log_collector_impl.obj
 0001:00045f20       ??D?$_Deque_const_iterator@PAUIFileNode@aggregator@tls@@V?$allocator@PAUIFileNode@aggregator@tls@@@std@@$00@std@@QBEABQAUIFileNode@aggregator@tls@@XZ 00446f20 f i collector_static:log_collector_impl.obj
 0001:00046020       ??0?$_Deque_iterator@PBUIFileNode@aggregator@tls@@V?$allocator@PBUIFileNode@aggregator@tls@@@std@@$00@std@@QAE@IPBV_Container_base@1@@Z 00447020 f i collector_static:log_collector_impl.obj
 0001:00046060       ??D?$_Deque_const_iterator@PBUIFileNode@aggregator@tls@@V?$allocator@PBUIFileNode@aggregator@tls@@@std@@$00@std@@QBEABQBUIFileNode@aggregator@tls@@XZ 00447060 f i collector_static:log_collector_impl.obj
 0001:00046160       ?max_size@?$allocator@PAUIFileNode@aggregator@tls@@@std@@QBEIXZ 00447160 f i collector_static:log_collector_impl.obj
 0001:000461b0       ?max_size@?$allocator@PBUIFileNode@aggregator@tls@@@std@@QBEIXZ 004471b0 f i collector_static:log_collector_impl.obj
 0001:00046200       ?max_size@?$allocator@Uincludt_log_t@LogCollectorImpl@collector@tls@@@std@@QBEIXZ 00447200 f i collector_static:log_collector_impl.obj
 0001:00046250       ??0?$_Deque_const_iterator@PAUIFileNode@aggregator@tls@@V?$allocator@PAUIFileNode@aggregator@tls@@@std@@$00@std@@QAE@IPBV_Container_base@1@@Z 00447250 f i collector_static:log_collector_impl.obj
 0001:00046300       ??0?$_Deque_const_iterator@PBUIFileNode@aggregator@tls@@V?$allocator@PBUIFileNode@aggregator@tls@@@std@@$00@std@@QAE@IPBV_Container_base@1@@Z 00447300 f i collector_static:log_collector_impl.obj
 0001:000463b0       ??0?$_Ranit@PAUIFileNode@aggregator@tls@@HPBQAU123@ABQAU123@@std@@QAE@XZ 004473b0 f i collector_static:log_collector_impl.obj
 0001:000463e0       ??0?$_Ranit@PBUIFileNode@aggregator@tls@@HPBQBU123@ABQBU123@@std@@QAE@XZ 004473e0 f i collector_static:log_collector_impl.obj
 0001:00046410       ??$_snprintf_s@$0BAF@@@YAHAAY0BAF@DIPBDZZ 00447410 f i collector_static:log_collector_impl.obj
 0001:00046450       ??$unchecked_uninitialized_copy@PAPAPAUIFileNode@aggregator@tls@@PAPAPAU123@V?$allocator@PAPAUIFileNode@aggregator@tls@@@std@@@stdext@@YAPAPAPAUIFileNode@aggregator@tls@@PAPAPAU123@00AAV?$allocator@PAPAUIFileNode@aggregator@tls@@@std@@@Z 00447450 f i collector_static:log_collector_impl.obj
 0001:000464c0       ??$unchecked_uninitialized_fill_n@PAPAPAUIFileNode@aggregator@tls@@IPAPAU123@V?$allocator@PAPAUIFileNode@aggregator@tls@@@std@@@stdext@@YAXPAPAPAUIFileNode@aggregator@tls@@IABQAPAU123@AAV?$allocator@PAPAUIFileNode@aggregator@tls@@@std@@@Z 004474c0 f i collector_static:log_collector_impl.obj
 0001:00046520       ??$_Destroy_range@PAPAUIFileNode@aggregator@tls@@V?$allocator@PAPAUIFileNode@aggregator@tls@@@std@@@std@@YAXPAPAPAUIFileNode@aggregator@tls@@0AAV?$allocator@PAPAUIFileNode@aggregator@tls@@@0@@Z 00447520 f i collector_static:log_collector_impl.obj
 0001:00046570       ??$_Allocate@PAUIFileNode@aggregator@tls@@@std@@YAPAPAUIFileNode@aggregator@tls@@IPAPAU123@@Z 00447570 f i collector_static:log_collector_impl.obj
 0001:000465e0       ??$_Construct@PAUIFileNode@aggregator@tls@@PAU123@@std@@YAXPAPAUIFileNode@aggregator@tls@@ABQAU123@@Z 004475e0 f i collector_static:log_collector_impl.obj
 0001:00046640       ??$_Destroy@PAUIFileNode@aggregator@tls@@@std@@YAXPAPAUIFileNode@aggregator@tls@@@Z 00447640 f i collector_static:log_collector_impl.obj
 0001:00046650       ??$_Destroy@PAPAUIFileNode@aggregator@tls@@@std@@YAXPAPAPAUIFileNode@aggregator@tls@@@Z 00447650 f i collector_static:log_collector_impl.obj
 0001:00046660       ??$unchecked_uninitialized_copy@PAPAPBUIFileNode@aggregator@tls@@PAPAPBU123@V?$allocator@PAPBUIFileNode@aggregator@tls@@@std@@@stdext@@YAPAPAPBUIFileNode@aggregator@tls@@PAPAPBU123@00AAV?$allocator@PAPBUIFileNode@aggregator@tls@@@std@@@Z 00447660 f i collector_static:log_collector_impl.obj
 0001:000466d0       ??$unchecked_uninitialized_fill_n@PAPAPBUIFileNode@aggregator@tls@@IPAPBU123@V?$allocator@PAPBUIFileNode@aggregator@tls@@@std@@@stdext@@YAXPAPAPBUIFileNode@aggregator@tls@@IABQAPBU123@AAV?$allocator@PAPBUIFileNode@aggregator@tls@@@std@@@Z 004476d0 f i collector_static:log_collector_impl.obj
 0001:00046730       ??$_Destroy_range@PAPBUIFileNode@aggregator@tls@@V?$allocator@PAPBUIFileNode@aggregator@tls@@@std@@@std@@YAXPAPAPBUIFileNode@aggregator@tls@@0AAV?$allocator@PAPBUIFileNode@aggregator@tls@@@0@@Z 00447730 f i collector_static:log_collector_impl.obj
 0001:00046780       ??$_Allocate@PBUIFileNode@aggregator@tls@@@std@@YAPAPBUIFileNode@aggregator@tls@@IPAPBU123@@Z 00447780 f i collector_static:log_collector_impl.obj
 0001:000467f0       ??$_Construct@PBUIFileNode@aggregator@tls@@PBU123@@std@@YAXPAPBUIFileNode@aggregator@tls@@ABQBU123@@Z 004477f0 f i collector_static:log_collector_impl.obj
 0001:00046850       ??$_Destroy@PBUIFileNode@aggregator@tls@@@std@@YAXPAPBUIFileNode@aggregator@tls@@@Z 00447850 f i collector_static:log_collector_impl.obj
 0001:00046860       ??$_Destroy@PAPBUIFileNode@aggregator@tls@@@std@@YAXPAPAPBUIFileNode@aggregator@tls@@@Z 00447860 f i collector_static:log_collector_impl.obj
 0001:00046870       ??$?0Uincludt_log_t@LogCollectorImpl@collector@tls@@@?$allocator@PAU_Node@?$_List_nod@Uincludt_log_t@LogCollectorImpl@collector@tls@@V?$allocator@Uincludt_log_t@LogCollectorImpl@collector@tls@@@std@@@std@@@std@@QAE@ABV?$allocator@Uincludt_log_t@LogCollectorImpl@collector@tls@@@1@@Z 00447870 f i collector_static:log_collector_impl.obj
 0001:00046890       ??$_Allocate@U_Node@?$_List_nod@Uincludt_log_t@LogCollectorImpl@collector@tls@@V?$allocator@Uincludt_log_t@LogCollectorImpl@collector@tls@@@std@@@std@@@std@@YAPAU_Node@?$_List_nod@Uincludt_log_t@LogCollectorImpl@collector@tls@@V?$allocator@Uincludt_log_t@LogCollectorImpl@collector@tls@@@std@@@0@IPAU120@@Z 00447890 f i collector_static:log_collector_impl.obj
 0001:00046900       ??$_Construct@PAU_Node@?$_List_nod@Uincludt_log_t@LogCollectorImpl@collector@tls@@V?$allocator@Uincludt_log_t@LogCollectorImpl@collector@tls@@@std@@@std@@PAU123@@std@@YAXPAPAU_Node@?$_List_nod@Uincludt_log_t@LogCollectorImpl@collector@tls@@V?$allocator@Uincludt_log_t@LogCollectorImpl@collector@tls@@@std@@@0@ABQAU120@@Z 00447900 f i collector_static:log_collector_impl.obj
 0001:00046960       ??$_Destroy@PAU_Node@?$_List_nod@Uincludt_log_t@LogCollectorImpl@collector@tls@@V?$allocator@Uincludt_log_t@LogCollectorImpl@collector@tls@@@std@@@std@@@std@@YAXPAPAU_Node@?$_List_nod@Uincludt_log_t@LogCollectorImpl@collector@tls@@V?$allocator@Uincludt_log_t@LogCollectorImpl@collector@tls@@@std@@@0@@Z 00447960 f i collector_static:log_collector_impl.obj
 0001:00046970       ??$?0PAUIFileNode@aggregator@tls@@@?$allocator@PAPAUIFileNode@aggregator@tls@@@std@@QAE@ABV?$allocator@PAUIFileNode@aggregator@tls@@@1@@Z 00447970 f i collector_static:log_collector_impl.obj
 0001:00046990       ??$_Allocate@PAPAUIFileNode@aggregator@tls@@@std@@YAPAPAPAUIFileNode@aggregator@tls@@IPAPAPAU123@@Z 00447990 f i collector_static:log_collector_impl.obj
 0001:00046a00       ??$?0PBUIFileNode@aggregator@tls@@@?$allocator@PAPBUIFileNode@aggregator@tls@@@std@@QAE@ABV?$allocator@PBUIFileNode@aggregator@tls@@@1@@Z 00447a00 f i collector_static:log_collector_impl.obj
 0001:00046a20       ??$_Allocate@PAPBUIFileNode@aggregator@tls@@@std@@YAPAPAPBUIFileNode@aggregator@tls@@IPAPAPBU123@@Z 00447a20 f i collector_static:log_collector_impl.obj
 0001:00046a90       ??$?0Uincludt_log_t@LogCollectorImpl@collector@tls@@@?$allocator@U_Node@?$_List_nod@Uincludt_log_t@LogCollectorImpl@collector@tls@@V?$allocator@Uincludt_log_t@LogCollectorImpl@collector@tls@@@std@@@std@@@std@@QAE@ABV?$allocator@Uincludt_log_t@LogCollectorImpl@collector@tls@@@1@@Z 00447a90 f i collector_static:log_collector_impl.obj
 0001:00046ab0       ??$_Construct@Uincludt_log_t@LogCollectorImpl@collector@tls@@U1234@@std@@YAXPAUincludt_log_t@LogCollectorImpl@collector@tls@@ABU1234@@Z 00447ab0 f i collector_static:log_collector_impl.obj
 0001:00046b20       ??$_Destroy@U_Node@?$_List_nod@Uincludt_log_t@LogCollectorImpl@collector@tls@@V?$allocator@Uincludt_log_t@LogCollectorImpl@collector@tls@@@std@@@std@@@std@@YAXPAU_Node@?$_List_nod@Uincludt_log_t@LogCollectorImpl@collector@tls@@V?$allocator@Uincludt_log_t@LogCollectorImpl@collector@tls@@@std@@@0@@Z 00447b20 f i collector_static:log_collector_impl.obj
 0001:00046b30       ??$_Checked_base@PAPAPAUIFileNode@aggregator@tls@@@std@@YAPAPAPAUIFileNode@aggregator@tls@@AAPAPAPAU123@@Z 00447b30 f i collector_static:log_collector_impl.obj
 0001:00046ba0       ??$_Ptr_cat@PAPAPAUIFileNode@aggregator@tls@@PAPAPAU123@@std@@YA?AU_Scalar_ptr_iterator_tag@0@AAPAPAPAUIFileNode@aggregator@tls@@0@Z 00447ba0 f i collector_static:log_collector_impl.obj
 0001:00046bf0       ??$_Uninit_copy@PAPAPAUIFileNode@aggregator@tls@@PAPAPAU123@V?$allocator@PAPAUIFileNode@aggregator@tls@@@std@@@std@@YAPAPAPAUIFileNode@aggregator@tls@@PAPAPAU123@00AAV?$allocator@PAPAUIFileNode@aggregator@tls@@@0@U_Scalar_ptr_iterator_tag@0@U_Range_checked_iterator_tag@0@@Z 00447bf0 f i collector_static:log_collector_impl.obj
 0001:00046c80       ??$_Uninit_fill_n@PAPAPAUIFileNode@aggregator@tls@@IPAPAU123@V?$allocator@PAPAUIFileNode@aggregator@tls@@@std@@@std@@YAXPAPAPAUIFileNode@aggregator@tls@@IABQAPAU123@AAV?$allocator@PAPAUIFileNode@aggregator@tls@@@0@U_Scalar_ptr_iterator_tag@0@U_Range_checked_iterator_tag@0@@Z 00447c80 f i collector_static:log_collector_impl.obj
 0001:00046ca0       ??$_Destroy_range@PAPAUIFileNode@aggregator@tls@@V?$allocator@PAPAUIFileNode@aggregator@tls@@@std@@@std@@YAXPAPAPAUIFileNode@aggregator@tls@@0AAV?$allocator@PAPAUIFileNode@aggregator@tls@@@0@U_Scalar_ptr_iterator_tag@0@@Z 00447ca0 f i collector_static:log_collector_impl.obj
 0001:00046cb0       ??$_Checked_base@PAPAPBUIFileNode@aggregator@tls@@@std@@YAPAPAPBUIFileNode@aggregator@tls@@AAPAPAPBU123@@Z 00447cb0 f i collector_static:log_collector_impl.obj
 0001:00046d20       ??$_Ptr_cat@PAPAPBUIFileNode@aggregator@tls@@PAPAPBU123@@std@@YA?AU_Scalar_ptr_iterator_tag@0@AAPAPAPBUIFileNode@aggregator@tls@@0@Z 00447d20 f i collector_static:log_collector_impl.obj
 0001:00046d70       ??$_Uninit_copy@PAPAPBUIFileNode@aggregator@tls@@PAPAPBU123@V?$allocator@PAPBUIFileNode@aggregator@tls@@@std@@@std@@YAPAPAPBUIFileNode@aggregator@tls@@PAPAPBU123@00AAV?$allocator@PAPBUIFileNode@aggregator@tls@@@0@U_Scalar_ptr_iterator_tag@0@U_Range_checked_iterator_tag@0@@Z 00447d70 f i collector_static:log_collector_impl.obj
 0001:00046e00       ??$_Uninit_fill_n@PAPAPBUIFileNode@aggregator@tls@@IPAPBU123@V?$allocator@PAPBUIFileNode@aggregator@tls@@@std@@@std@@YAXPAPAPBUIFileNode@aggregator@tls@@IABQAPBU123@AAV?$allocator@PAPBUIFileNode@aggregator@tls@@@0@U_Scalar_ptr_iterator_tag@0@U_Range_checked_iterator_tag@0@@Z 00447e00 f i collector_static:log_collector_impl.obj
 0001:00046e20       ??$_Destroy_range@PAPBUIFileNode@aggregator@tls@@V?$allocator@PAPBUIFileNode@aggregator@tls@@@std@@@std@@YAXPAPAPBUIFileNode@aggregator@tls@@0AAV?$allocator@PAPBUIFileNode@aggregator@tls@@@0@U_Scalar_ptr_iterator_tag@0@@Z 00447e20 f i collector_static:log_collector_impl.obj
 0001:00046e30       ??$_Checked_base@PAPAPAUIFileNode@aggregator@tls@@@std@@YAPAPAPAUIFileNode@aggregator@tls@@AAPAPAPAU123@U_Unchanged_checked_iterator_base_type_tag@0@@Z 00447e30 f i collector_static:log_collector_impl.obj
 0001:00046e40       ??$_Debug_range@PAPAPAUIFileNode@aggregator@tls@@@std@@YAXPAPAPAUIFileNode@aggregator@tls@@0PB_WI@Z 00447e40 f i collector_static:log_collector_impl.obj
 0001:00046e90       ??$_Debug_pointer@PAPAUIFileNode@aggregator@tls@@@std@@YAXPAPAPAUIFileNode@aggregator@tls@@PB_WI@Z 00447e90 f i collector_static:log_collector_impl.obj
 0001:00046ec0       ??$unchecked_fill_n@PAPAPAUIFileNode@aggregator@tls@@IPAPAU123@@stdext@@YAXPAPAPAUIFileNode@aggregator@tls@@IABQAPAU123@@Z 00447ec0 f i collector_static:log_collector_impl.obj
 0001:00046f10       ??$_Checked_base@PAPAPBUIFileNode@aggregator@tls@@@std@@YAPAPAPBUIFileNode@aggregator@tls@@AAPAPAPBU123@U_Unchanged_checked_iterator_base_type_tag@0@@Z 00447f10 f i collector_static:log_collector_impl.obj
 0001:00046f20       ??$_Debug_range@PAPAPBUIFileNode@aggregator@tls@@@std@@YAXPAPAPBUIFileNode@aggregator@tls@@0PB_WI@Z 00447f20 f i collector_static:log_collector_impl.obj
 0001:00046f70       ??$_Debug_pointer@PAPBUIFileNode@aggregator@tls@@@std@@YAXPAPAPBUIFileNode@aggregator@tls@@PB_WI@Z 00447f70 f i collector_static:log_collector_impl.obj
 0001:00046fa0       ??$unchecked_fill_n@PAPAPBUIFileNode@aggregator@tls@@IPAPBU123@@stdext@@YAXPAPAPBUIFileNode@aggregator@tls@@IABQAPBU123@@Z 00447fa0 f i collector_static:log_collector_impl.obj
 0001:00046ff0       ??$_Iter_cat@PAPAPAUIFileNode@aggregator@tls@@@std@@YA?AUrandom_access_iterator_tag@0@ABQAPAPAUIFileNode@aggregator@tls@@@Z 00447ff0 f i collector_static:log_collector_impl.obj
 0001:00047040       ??$_Debug_range2@PAPAPAUIFileNode@aggregator@tls@@@std@@YAXPAPAPAUIFileNode@aggregator@tls@@0PB_WIUrandom_access_iterator_tag@0@@Z 00448040 f i collector_static:log_collector_impl.obj
 0001:000470a0       ??$_Fill_n@PAPAPAUIFileNode@aggregator@tls@@IPAPAU123@@std@@YAXPAPAPAUIFileNode@aggregator@tls@@IABQAPAU123@Urandom_access_iterator_tag@0@U_Range_checked_iterator_tag@0@@Z 004480a0 f i collector_static:log_collector_impl.obj
 0001:00047100       ??$_Iter_cat@PAPAPBUIFileNode@aggregator@tls@@@std@@YA?AUrandom_access_iterator_tag@0@ABQAPAPBUIFileNode@aggregator@tls@@@Z 00448100 f i collector_static:log_collector_impl.obj
 0001:00047150       ??$_Debug_range2@PAPAPBUIFileNode@aggregator@tls@@@std@@YAXPAPAPBUIFileNode@aggregator@tls@@0PB_WIUrandom_access_iterator_tag@0@@Z 00448150 f i collector_static:log_collector_impl.obj
 0001:000471b0       ??$_Fill_n@PAPAPBUIFileNode@aggregator@tls@@IPAPBU123@@std@@YAXPAPAPBUIFileNode@aggregator@tls@@IABQAPBU123@Urandom_access_iterator_tag@0@U_Range_checked_iterator_tag@0@@Z 004481b0 f i collector_static:log_collector_impl.obj
 0001:00047210       ??$_Fill_n@PAPAPAUIFileNode@aggregator@tls@@IPAPAU123@@std@@YAXPAPAPAUIFileNode@aggregator@tls@@IABQAPAU123@U_Range_checked_iterator_tag@0@@Z 00448210 f i collector_static:log_collector_impl.obj
 0001:00047240       ??$_Fill_n@PAPAPBUIFileNode@aggregator@tls@@IPAPBU123@@std@@YAXPAPAPBUIFileNode@aggregator@tls@@IABQAPBU123@U_Range_checked_iterator_tag@0@@Z 00448240 f i collector_static:log_collector_impl.obj
 0001:00047270       ?Log@HostContextImpl@collector@tls@@UAE?AW4rc_e@@W4log_lv_e@ILogWriter@3@PBEI@Z 00448270 f   collector_static:host_context_impl.obj
 0001:000472c0       ?Log@HostContextImpl@collector@tls@@UAA?AW4rc_e@@W4log_lv_e@ILogWriter@3@PBDZZ 004482c0 f   collector_static:host_context_impl.obj
 0001:00047320       ?GetSystemExeFullPath@HostContextImpl@collector@tls@@UBEPBDXZ 00448320 f   collector_static:host_context_impl.obj
 0001:00047340       ?GetNetHandler@HostContextImpl@collector@tls@@UAEPAUINetHandler@aggregator@3@XZ 00448340 f   collector_static:host_context_impl.obj
 0001:00047360       ??0HostContextImpl@collector@tls@@QAE@PBD@Z 00448360 f   collector_static:host_context_impl.obj
 0001:000473f0       ?Release@HostContextImpl@collector@tls@@UAEXXZ 004483f0 f i collector_static:host_context_impl.obj
 0001:00047410       ??0IHostContext@aggregator@tls@@QAE@XZ 00448410 f i collector_static:host_context_impl.obj
 0001:00047430       ??1HostContextImpl@collector@tls@@QAE@XZ 00448430 f   collector_static:host_context_impl.obj
 0001:00047460       ?ReadLog@HostContextImpl@collector@tls@@QAEXXZ 00448460 f   collector_static:host_context_impl.obj
 0001:000475b0       ??0?$LogBase@VAutoLock@base@tls@@VLock@23@@base@tls@@QAE@W4log_lv_e@ILogWriter@2@II@Z 004485b0 f i collector_static:host_context_impl.obj
 0001:00047610       ?Release@?$LogBase@VAutoLock@base@tls@@VLock@23@@base@tls@@UAEXXZ 00448610 f i collector_static:host_context_impl.obj
 0001:00047630       ?Log@?$LogBase@VAutoLock@base@tls@@VLock@23@@base@tls@@UAE?AW4rc_e@@W4log_lv_e@ILogWriter@3@PAUIMemoryNode@3@@Z 00448630 f i collector_static:host_context_impl.obj
 0001:00047690       ?Log@?$LogBase@VAutoLock@base@tls@@VLock@23@@base@tls@@UAE?AW4rc_e@@W4log_lv_e@ILogWriter@3@PBEI@Z 00448690 f i collector_static:host_context_impl.obj
 0001:000477e0       ?Log@?$LogBase@VAutoLock@base@tls@@VLock@23@@base@tls@@UAA?AW4rc_e@@W4log_lv_e@ILogWriter@3@PBDZZ 004487e0 f i collector_static:host_context_impl.obj
 0001:00047980       ?Log@?$LogBase@VAutoLock@base@tls@@VLock@23@@base@tls@@UAE?AW4rc_e@@W4log_lv_e@ILogWriter@3@PBDPAD@Z 00448980 f i collector_static:host_context_impl.obj
 0001:00047b20       ?Commit@?$LogBase@VAutoLock@base@tls@@VLock@23@@base@tls@@UAE?AW4rc_e@@PAUILogWriter@3@@Z 00448b20 f i collector_static:host_context_impl.obj
 0001:00047b70       ?SetListener@?$LogBase@VAutoLock@base@tls@@VLock@23@@base@tls@@UAE?AW4rc_e@@PAUIListener@3@@Z 00448b70 f i collector_static:host_context_impl.obj
 0001:00047c00       ??0AutoLock@base@tls@@QAE@AAVLock@12@@Z 00448c00 f i collector_static:host_context_impl.obj
 0001:00047c40       ??1AutoLock@base@tls@@QAE@XZ 00448c40 f i collector_static:host_context_impl.obj
 0001:00047c70       ?AssertAcquired@Lock@base@tls@@QBEXXZ 00448c70 f i collector_static:host_context_impl.obj
 0001:00047c90       ?Get@?$LogBase@VAutoLock@base@tls@@VLock@23@@base@tls@@UAEPAUILogNode@ILogWriter@3@XZ 00448c90 f i collector_static:host_context_impl.obj
 0001:00047d60       ?Peek@?$LogBase@VAutoLock@base@tls@@VLock@23@@base@tls@@UAEPAUILogNode@ILogWriter@3@XZ 00448d60 f i collector_static:host_context_impl.obj
 0001:00047e60       ??1?$LogBase@VAutoLock@base@tls@@VLock@23@@base@tls@@UAE@XZ 00448e60 f i collector_static:host_context_impl.obj
 0001:00047f00       ??0ILogWriter@tls@@QAE@XZ  00448f00 f i collector_static:host_context_impl.obj
 0001:00047f20       ??1?$NotifyQueueNoThreadSafe@PAUILogNode@ILogWriter@tls@@@base@tls@@UAE@XZ 00448f20 f i collector_static:host_context_impl.obj
 0001:00047f50       ??1?$NotifyQueue@PAUILogNode@ILogWriter@tls@@UNullClass@3@U43@@base@tls@@UAE@XZ 00448f50 f i collector_static:host_context_impl.obj
 0001:00047fc0       ??_E?$NotifyQueue@PAUILogNode@ILogWriter@tls@@UNullClass@3@U43@@base@tls@@UAEPAXI@Z 00448fc0 f i collector_static:host_context_impl.obj
 0001:00047fc0       ??_G?$NotifyQueue@PAUILogNode@ILogWriter@tls@@UNullClass@3@U43@@base@tls@@UAEPAXI@Z 00448fc0 f i collector_static:host_context_impl.obj
 0001:00048000       ??1?$queue@PAUILogNode@ILogWriter@tls@@V?$deque@PAUILogNode@ILogWriter@tls@@V?$allocator@PAUILogNode@ILogWriter@tls@@@std@@@std@@@std@@QAE@XZ 00449000 f i collector_static:host_context_impl.obj
 0001:00048030       ??_E?$LogBase@VAutoLock@base@tls@@VLock@23@@base@tls@@UAEPAXI@Z 00449030 f i collector_static:host_context_impl.obj
 0001:00048030       ??_G?$LogBase@VAutoLock@base@tls@@VLock@23@@base@tls@@UAEPAXI@Z 00449030 f i collector_static:host_context_impl.obj
 0001:00048070       ??1?$AutoRelease@PAUIListener@tls@@@tls@@QAE@XZ 00449070 f i collector_static:host_context_impl.obj
 0001:000480a0       ??0?$NotifyQueueNoThreadSafe@PAUILogNode@ILogWriter@tls@@@base@tls@@QAE@XZ 004490a0 f i collector_static:host_context_impl.obj
 0001:000480d0       ?empty@?$NotifyQueue@PAUILogNode@ILogWriter@tls@@UNullClass@3@U43@@base@tls@@QBE_NXZ 004490d0 f i collector_static:host_context_impl.obj
 0001:00048140       ?front@?$NotifyQueue@PAUILogNode@ILogWriter@tls@@UNullClass@3@U43@@base@tls@@QAEAAPAUILogNode@ILogWriter@3@XZ 00449140 f i collector_static:host_context_impl.obj
 0001:000481b0       ?pop@?$NotifyQueue@PAUILogNode@ILogWriter@tls@@UNullClass@3@U43@@base@tls@@QAEXXZ 004491b0 f i collector_static:host_context_impl.obj
 0001:00048220       ?SetListener@?$NotifyQueue@PAUILogNode@ILogWriter@tls@@UNullClass@3@U43@@base@tls@@QAE?AW4rc_e@@PAUIListener@3@@Z 00449220 f i collector_static:host_context_impl.obj
 0001:00048290       ?empty@?$queue@PAUILogNode@ILogWriter@tls@@V?$deque@PAUILogNode@ILogWriter@tls@@V?$allocator@PAUILogNode@ILogWriter@tls@@@std@@@std@@@std@@QBE_NXZ 00449290 f i collector_static:host_context_impl.obj
 0001:000482c0       ??1?$deque@PAUILogNode@ILogWriter@tls@@V?$allocator@PAUILogNode@ILogWriter@tls@@@std@@@std@@QAE@XZ 004492c0 f i collector_static:host_context_impl.obj
 0001:000482f0       ?commit@?$LogBase@VAutoLock@base@tls@@VLock@23@@base@tls@@IAE?AW4rc_e@@PAUILogWriter@3@@Z 004492f0 f i collector_static:host_context_impl.obj
 0001:000483e0       ?log@?$LogBase@VAutoLock@base@tls@@VLock@23@@base@tls@@IAE?AW4rc_e@@W4log_lv_e@ILogWriter@3@PAUIMemoryNode@3@@Z 004493e0 f i collector_static:host_context_impl.obj
 0001:00048510       ?getMemoryNode@?$LogBase@VAutoLock@base@tls@@VLock@23@@base@tls@@IAEPAV?$MemoryNode@VMemoryPool@base@tls@@@23@I@Z 00449510 f i collector_static:host_context_impl.obj
 0001:000485b0       ??0?$AutoRelease@PAV?$MemoryNode@VMemoryPool@base@tls@@@base@tls@@@tls@@QAE@PAV?$MemoryNode@VMemoryPool@base@tls@@@base@1@@Z 004495b0 f i collector_static:host_context_impl.obj
 0001:000485d0       ??1?$AutoRelease@PAV?$MemoryNode@VMemoryPool@base@tls@@@base@tls@@@tls@@QAE@XZ 004495d0 f i collector_static:host_context_impl.obj
 0001:00048600       ??C?$AutoRelease@PAV?$MemoryNode@VMemoryPool@base@tls@@@base@tls@@@tls@@QAEPAV?$MemoryNode@VMemoryPool@base@tls@@@base@1@XZ 00449600 f i collector_static:host_context_impl.obj
 0001:00048620       ??B?$AutoRelease@PAV?$MemoryNode@VMemoryPool@base@tls@@@base@tls@@@tls@@QAEPAV?$MemoryNode@VMemoryPool@base@tls@@@base@1@XZ 00449620 f i collector_static:host_context_impl.obj
 0001:00048640       ?Set@?$MemoryNode@VMemoryPool@base@tls@@@base@tls@@QAEXI@Z 00449640 f i collector_static:host_context_impl.obj
 0001:00048660       ??_G?$NotifyQueueNoThreadSafe@PAUILogNode@ILogWriter@tls@@@base@tls@@UAEPAXI@Z 00449660 f i collector_static:host_context_impl.obj
 0001:00048660       ??_E?$NotifyQueueNoThreadSafe@PAUILogNode@ILogWriter@tls@@@base@tls@@UAEPAXI@Z 00449660 f i collector_static:host_context_impl.obj
 0001:000486a0       ??1?$_Deque_val@PAUILogNode@ILogWriter@tls@@V?$allocator@PAUILogNode@ILogWriter@tls@@@std@@@std@@QAE@XZ 004496a0 f i collector_static:host_context_impl.obj
 0001:000486d0       ??1?$_Deque_map@PAUILogNode@ILogWriter@tls@@V?$allocator@PAUILogNode@ILogWriter@tls@@@std@@@std@@QAE@XZ 004496d0 f i collector_static:host_context_impl.obj
 0001:00048700       ?Release@?$AutoRelease@PAUIListener@tls@@@tls@@QAEXXZ 00449700 f i collector_static:host_context_impl.obj
 0001:00048750       ?Set@?$AutoRelease@PAUIListener@tls@@@tls@@QAEXPAUIListener@2@@Z 00449750 f i collector_static:host_context_impl.obj
 0001:00048780       ??0?$NotifyQueue@PAUILogNode@ILogWriter@tls@@UNullClass@3@U43@@base@tls@@QAE@XZ 00449780 f i collector_static:host_context_impl.obj
 0001:000487c0       ?push@?$NotifyQueue@PAUILogNode@ILogWriter@tls@@UNullClass@3@U43@@base@tls@@QAEXABQAUILogNode@ILogWriter@3@@Z 004497c0 f i collector_static:host_context_impl.obj
 0001:00048840       ?front@?$queue@PAUILogNode@ILogWriter@tls@@V?$deque@PAUILogNode@ILogWriter@tls@@V?$allocator@PAUILogNode@ILogWriter@tls@@@std@@@std@@@std@@QAEAAPAUILogNode@ILogWriter@tls@@XZ 00449840 f i collector_static:host_context_impl.obj
 0001:00048870       ?pop@?$queue@PAUILogNode@ILogWriter@tls@@V?$deque@PAUILogNode@ILogWriter@tls@@V?$allocator@PAUILogNode@ILogWriter@tls@@@std@@@std@@@std@@QAEXXZ 00449870 f i collector_static:host_context_impl.obj
 0001:000488a0       ?empty@?$deque@PAUILogNode@ILogWriter@tls@@V?$allocator@PAUILogNode@ILogWriter@tls@@@std@@@std@@QBE_NXZ 004498a0 f i collector_static:host_context_impl.obj
 0001:000488c0       ?_Tidy@?$deque@PAUILogNode@ILogWriter@tls@@V?$allocator@PAUILogNode@ILogWriter@tls@@@std@@@std@@IAEXXZ 004498c0 f i collector_static:host_context_impl.obj
 0001:00048990       ?Release@?$AutoRelease@PAV?$MemoryNode@VMemoryPool@base@tls@@@base@tls@@@tls@@QAEXXZ 00449990 f i collector_static:host_context_impl.obj
 0001:000489e0       ?CreateInstance@?$MemoryNode@VMemoryPool@base@tls@@@base@tls@@SAPAV123@AAVMemoryPool@23@I@Z 004499e0 f i collector_static:host_context_impl.obj
 0001:00048a70       ?CreateInstance@LogNode@?$LogBase@VAutoLock@base@tls@@VLock@23@@base@tls@@SAPAV1234@AAVMemoryPool@34@W4log_lv_e@ILogWriter@4@PAUIMemoryNode@4@@Z 00449a70 f i collector_static:host_context_impl.obj
 0001:00048b00       ??0?$AutoRelease@PAVLogNode@?$LogBase@VAutoLock@base@tls@@VLock@23@@base@tls@@@tls@@QAE@PAVLogNode@?$LogBase@VAutoLock@base@tls@@VLock@23@@base@1@@Z 00449b00 f i collector_static:host_context_impl.obj
 0001:00048b20       ??1?$AutoRelease@PAVLogNode@?$LogBase@VAutoLock@base@tls@@VLock@23@@base@tls@@@tls@@QAE@XZ 00449b20 f i collector_static:host_context_impl.obj
 0001:00048b50       ??C?$AutoRelease@PAVLogNode@?$LogBase@VAutoLock@base@tls@@VLock@23@@base@tls@@@tls@@QAEPAVLogNode@?$LogBase@VAutoLock@base@tls@@VLock@23@@base@1@XZ 00449b50 f i collector_static:host_context_impl.obj
 0001:00048b70       ??B?$AutoRelease@PAVLogNode@?$LogBase@VAutoLock@base@tls@@VLock@23@@base@tls@@@tls@@QAEPAVLogNode@?$LogBase@VAutoLock@base@tls@@VLock@23@@base@1@XZ 00449b70 f i collector_static:host_context_impl.obj
 0001:00048b90       ??0?$AutoRelease@PAUIListener@tls@@@tls@@QAE@PAUIListener@1@@Z 00449b90 f i collector_static:host_context_impl.obj
 0001:00048bb0       ?notifyListener@?$NotifyQueue@PAUILogNode@ILogWriter@tls@@UNullClass@3@U43@@base@tls@@IAEXXZ 00449bb0 f i collector_static:host_context_impl.obj
 0001:00048c10       ??0?$queue@PAUILogNode@ILogWriter@tls@@V?$deque@PAUILogNode@ILogWriter@tls@@V?$allocator@PAUILogNode@ILogWriter@tls@@@std@@@std@@@std@@QAE@XZ 00449c10 f i collector_static:host_context_impl.obj
 0001:00048c40       ?push@?$queue@PAUILogNode@ILogWriter@tls@@V?$deque@PAUILogNode@ILogWriter@tls@@V?$allocator@PAUILogNode@ILogWriter@tls@@@std@@@std@@@std@@QAEXABQAUILogNode@ILogWriter@tls@@@Z 00449c40 f i collector_static:host_context_impl.obj
 0001:00048c70       ?front@?$deque@PAUILogNode@ILogWriter@tls@@V?$allocator@PAUILogNode@ILogWriter@tls@@@std@@@std@@QAEAAPAUILogNode@ILogWriter@tls@@XZ 00449c70 f i collector_static:host_context_impl.obj
 0001:00048cc0       ?pop_front@?$deque@PAUILogNode@ILogWriter@tls@@V?$allocator@PAUILogNode@ILogWriter@tls@@@std@@@std@@QAEXXZ 00449cc0 f i collector_static:host_context_impl.obj
 0001:00048db0       ?pop_back@?$deque@PAUILogNode@ILogWriter@tls@@V?$allocator@PAUILogNode@ILogWriter@tls@@@std@@@std@@QAEXXZ 00449db0 f i collector_static:host_context_impl.obj
 0001:00048ea0       ?deallocate@?$allocator@PAUILogNode@ILogWriter@tls@@@std@@QAEXPAPAUILogNode@ILogWriter@tls@@I@Z 00449ea0 f i collector_static:host_context_impl.obj
 0001:00048ed0       ?deallocate@?$allocator@PAPAUILogNode@ILogWriter@tls@@@std@@QAEXPAPAPAUILogNode@ILogWriter@tls@@I@Z 00449ed0 f i collector_static:host_context_impl.obj
 0001:00048f00       ?destroy@?$allocator@PAPAUILogNode@ILogWriter@tls@@@std@@QAEXPAPAPAUILogNode@ILogWriter@tls@@@Z 00449f00 f i collector_static:host_context_impl.obj
 0001:00048f30       ??0?$MemoryNode@VMemoryPool@base@tls@@@base@tls@@AAE@AAVMemoryPool@12@PAEI@Z 00449f30 f i collector_static:host_context_impl.obj
 0001:00048f90       ?Release@?$MemoryNode@VMemoryPool@base@tls@@@base@tls@@UAEXXZ 00449f90 f i collector_static:host_context_impl.obj
 0001:00048ff0       ?AddRef@?$MemoryNode@VMemoryPool@base@tls@@@base@tls@@UAEXXZ 00449ff0 f i collector_static:host_context_impl.obj
 0001:00049020       ?data@?$MemoryNode@VMemoryPool@base@tls@@@base@tls@@UBEPAEXZ 0044a020 f i collector_static:host_context_impl.obj
 0001:00049040       ?len@?$MemoryNode@VMemoryPool@base@tls@@@base@tls@@UBEIXZ 0044a040 f i collector_static:host_context_impl.obj
 0001:00049060       ??0LogNode@?$LogBase@VAutoLock@base@tls@@VLock@23@@base@tls@@AAE@AAVMemoryPool@23@W4log_lv_e@ILogWriter@3@PAUIMemoryNode@3@@Z 0044a060 f i collector_static:host_context_impl.obj
 0001:00049110       ?time@micro_time@base@tls@@SA?B_KXZ 0044a110 f i collector_static:host_context_impl.obj
 0001:00049130       ?Release@LogNode@?$LogBase@VAutoLock@base@tls@@VLock@23@@base@tls@@UAEXXZ 0044a130 f i collector_static:host_context_impl.obj
 0001:000491c0       ?Type@LogNode@?$LogBase@VAutoLock@base@tls@@VLock@23@@base@tls@@UBE?AW4log_lv_e@ILogWriter@4@XZ 0044a1c0 f i collector_static:host_context_impl.obj
 0001:000491e0       ?Time32@LogNode@?$LogBase@VAutoLock@base@tls@@VLock@23@@base@tls@@UBEIXZ 0044a1e0 f i collector_static:host_context_impl.obj
 0001:00049210       ?Time64@LogNode@?$LogBase@VAutoLock@base@tls@@VLock@23@@base@tls@@UBE_KXZ 0044a210 f i collector_static:host_context_impl.obj
 0001:00049230       ?MemNode@LogNode@?$LogBase@VAutoLock@base@tls@@VLock@23@@base@tls@@UBEPBUIMemoryNode@4@XZ 0044a230 f i collector_static:host_context_impl.obj
 0001:00049250       ?AddRef@LogNode@?$LogBase@VAutoLock@base@tls@@VLock@23@@base@tls@@UAEXXZ 0044a250 f i collector_static:host_context_impl.obj
 0001:00049280       ?Release@?$AutoRelease@PAVLogNode@?$LogBase@VAutoLock@base@tls@@VLock@23@@base@tls@@@tls@@QAEXXZ 0044a280 f i collector_static:host_context_impl.obj
 0001:000492d0       ??1?$_Deque_iterator@PAUILogNode@ILogWriter@tls@@V?$allocator@PAUILogNode@ILogWriter@tls@@@std@@$00@std@@QAE@XZ 0044a2d0 f i collector_static:host_context_impl.obj
 0001:00049300       ??0ILogNode@ILogWriter@tls@@QAE@XZ 0044a300 f i collector_static:host_context_impl.obj
 0001:00049320       ??1?$_Deque_const_iterator@PAUILogNode@ILogWriter@tls@@V?$allocator@PAUILogNode@ILogWriter@tls@@@std@@$00@std@@QAE@XZ 0044a320 f i collector_static:host_context_impl.obj
 0001:00049350       ??1?$_Ranit@PAUILogNode@ILogWriter@tls@@HPBQAU123@ABQAU123@@std@@QAE@XZ 0044a350 f i collector_static:host_context_impl.obj
 0001:00049380       ??C?$AutoRelease@PAUIListener@tls@@@tls@@QAEPAUIListener@1@XZ 0044a380 f i collector_static:host_context_impl.obj
 0001:000493a0       ??B?$AutoRelease@PAUIListener@tls@@@tls@@QAEPAUIListener@1@XZ 0044a3a0 f i collector_static:host_context_impl.obj
 0001:000493c0       ??0?$deque@PAUILogNode@ILogWriter@tls@@V?$allocator@PAUILogNode@ILogWriter@tls@@@std@@@std@@QAE@XZ 0044a3c0 f i collector_static:host_context_impl.obj
 0001:00049420       ?begin@?$deque@PAUILogNode@ILogWriter@tls@@V?$allocator@PAUILogNode@ILogWriter@tls@@@std@@@std@@QAE?AV?$_Deque_iterator@PAUILogNode@ILogWriter@tls@@V?$allocator@PAUILogNode@ILogWriter@tls@@@std@@$00@2@XZ 0044a420 f i collector_static:host_context_impl.obj
 0001:00049460       ?push_back@?$deque@PAUILogNode@ILogWriter@tls@@V?$allocator@PAUILogNode@ILogWriter@tls@@@std@@@std@@QAEXABQAUILogNode@ILogWriter@tls@@@Z 0044a460 f i collector_static:host_context_impl.obj
 0001:00049560       ?_Orphan_off@?$deque@PAUILogNode@ILogWriter@tls@@V?$allocator@PAUILogNode@ILogWriter@tls@@@std@@@std@@IBEXI@Z 0044a560 f i collector_static:host_context_impl.obj
 0001:00049680       ?destroy@?$allocator@PAUILogNode@ILogWriter@tls@@@std@@QAEXPAPAUILogNode@ILogWriter@tls@@@Z 0044a680 f i collector_static:host_context_impl.obj
 0001:000496b0       ??D?$_Deque_iterator@PAUILogNode@ILogWriter@tls@@V?$allocator@PAUILogNode@ILogWriter@tls@@@std@@$00@std@@QBEAAPAUILogNode@ILogWriter@tls@@XZ 0044a6b0 f i collector_static:host_context_impl.obj
 0001:000496e0       ?_Growmap@?$deque@PAUILogNode@ILogWriter@tls@@V?$allocator@PAUILogNode@ILogWriter@tls@@@std@@@std@@IAEXI@Z 0044a6e0 f i collector_static:host_context_impl.obj
 0001:00049930       ??0?$_Deque_val@PAUILogNode@ILogWriter@tls@@V?$allocator@PAUILogNode@ILogWriter@tls@@@std@@@std@@IAE@V?$allocator@PAUILogNode@ILogWriter@tls@@@1@@Z 0044a930 f i collector_static:host_context_impl.obj
 0001:00049980       ??0?$allocator@PAUILogNode@ILogWriter@tls@@@std@@QAE@XZ 0044a980 f i collector_static:host_context_impl.obj
 0001:000499a0       ?allocate@?$allocator@PAUILogNode@ILogWriter@tls@@@std@@QAEPAPAUILogNode@ILogWriter@tls@@I@Z 0044a9a0 f i collector_static:host_context_impl.obj
 0001:000499d0       ?construct@?$allocator@PAUILogNode@ILogWriter@tls@@@std@@QAEXPAPAUILogNode@ILogWriter@tls@@ABQAU345@@Z 0044a9d0 f i collector_static:host_context_impl.obj
 0001:00049a00       ??0?$_Deque_iterator@PAUILogNode@ILogWriter@tls@@V?$allocator@PAUILogNode@ILogWriter@tls@@@std@@$00@std@@QAE@IPBV_Container_base@1@@Z 0044aa00 f i collector_static:host_context_impl.obj
 0001:00049a40       ??D?$_Deque_const_iterator@PAUILogNode@ILogWriter@tls@@V?$allocator@PAUILogNode@ILogWriter@tls@@@std@@$00@std@@QBEABQAUILogNode@ILogWriter@tls@@XZ 0044aa40 f i collector_static:host_context_impl.obj
 0001:00049b40       ?max_size@?$deque@PAUILogNode@ILogWriter@tls@@V?$allocator@PAUILogNode@ILogWriter@tls@@@std@@@std@@QBEIXZ 0044ab40 f i collector_static:host_context_impl.obj
 0001:00049b70       ?_Xlen@?$deque@PAUILogNode@ILogWriter@tls@@V?$allocator@PAUILogNode@ILogWriter@tls@@@std@@@std@@KAXXZ 0044ab70 f i collector_static:host_context_impl.obj
 0001:00049bd0       ??0?$_Deque_map@PAUILogNode@ILogWriter@tls@@V?$allocator@PAUILogNode@ILogWriter@tls@@@std@@@std@@IAE@V?$allocator@PAUILogNode@ILogWriter@tls@@@1@@Z 0044abd0 f i collector_static:host_context_impl.obj
 0001:00049c10       ??0?$allocator@PAUILogNode@ILogWriter@tls@@@std@@QAE@ABV01@@Z 0044ac10 f i collector_static:host_context_impl.obj
 0001:00049c30       ?allocate@?$allocator@PAPAUILogNode@ILogWriter@tls@@@std@@QAEPAPAPAUILogNode@ILogWriter@tls@@I@Z 0044ac30 f i collector_static:host_context_impl.obj
 0001:00049c60       ??0?$_Deque_const_iterator@PAUILogNode@ILogWriter@tls@@V?$allocator@PAUILogNode@ILogWriter@tls@@@std@@$00@std@@QAE@IPBV_Container_base@1@@Z 0044ac60 f i collector_static:host_context_impl.obj
 0001:00049d10       ??0?$_Ranit@PAUILogNode@ILogWriter@tls@@HPBQAU123@ABQAU123@@std@@QAE@XZ 0044ad10 f i collector_static:host_context_impl.obj
 0001:00049d40       ?max_size@?$allocator@PAUILogNode@ILogWriter@tls@@@std@@QBEIXZ 0044ad40 f i collector_static:host_context_impl.obj
 0001:00049d90       ??$ignore_result@UNullClass@tls@@@@YAXABUNullClass@tls@@@Z 0044ad90 f i collector_static:host_context_impl.obj
 0001:00049da0       ??$ignore_result@VAutoLock@base@tls@@@@YAXABVAutoLock@base@tls@@@Z 0044ada0 f i collector_static:host_context_impl.obj
 0001:00049db0       ??$_Destroy@PAPAUILogNode@ILogWriter@tls@@@std@@YAXPAPAPAUILogNode@ILogWriter@tls@@@Z 0044adb0 f i collector_static:host_context_impl.obj
 0001:00049dc0       ??$_Destroy@PAUILogNode@ILogWriter@tls@@@std@@YAXPAPAUILogNode@ILogWriter@tls@@@Z 0044adc0 f i collector_static:host_context_impl.obj
 0001:00049dd0       ??$unchecked_uninitialized_copy@PAPAPAUILogNode@ILogWriter@tls@@PAPAPAU123@V?$allocator@PAPAUILogNode@ILogWriter@tls@@@std@@@stdext@@YAPAPAPAUILogNode@ILogWriter@tls@@PAPAPAU123@00AAV?$allocator@PAPAUILogNode@ILogWriter@tls@@@std@@@Z 0044add0 f i collector_static:host_context_impl.obj
 0001:00049e40       ??$unchecked_uninitialized_fill_n@PAPAPAUILogNode@ILogWriter@tls@@IPAPAU123@V?$allocator@PAPAUILogNode@ILogWriter@tls@@@std@@@stdext@@YAXPAPAPAUILogNode@ILogWriter@tls@@IABQAPAU123@AAV?$allocator@PAPAUILogNode@ILogWriter@tls@@@std@@@Z 0044ae40 f i collector_static:host_context_impl.obj
 0001:00049ea0       ??$_Destroy_range@PAPAUILogNode@ILogWriter@tls@@V?$allocator@PAPAUILogNode@ILogWriter@tls@@@std@@@std@@YAXPAPAPAUILogNode@ILogWriter@tls@@0AAV?$allocator@PAPAUILogNode@ILogWriter@tls@@@0@@Z 0044aea0 f i collector_static:host_context_impl.obj
 0001:00049ef0       ??$_Allocate@PAUILogNode@ILogWriter@tls@@@std@@YAPAPAUILogNode@ILogWriter@tls@@IPAPAU123@@Z 0044aef0 f i collector_static:host_context_impl.obj
 0001:00049f60       ??$_Construct@PAUILogNode@ILogWriter@tls@@PAU123@@std@@YAXPAPAUILogNode@ILogWriter@tls@@ABQAU123@@Z 0044af60 f i collector_static:host_context_impl.obj
 0001:00049fc0       ??$?0PAUILogNode@ILogWriter@tls@@@?$allocator@PAPAUILogNode@ILogWriter@tls@@@std@@QAE@ABV?$allocator@PAUILogNode@ILogWriter@tls@@@1@@Z 0044afc0 f i collector_static:host_context_impl.obj
 0001:00049fe0       ??$_Allocate@PAPAUILogNode@ILogWriter@tls@@@std@@YAPAPAPAUILogNode@ILogWriter@tls@@IPAPAPAU123@@Z 0044afe0 f i collector_static:host_context_impl.obj
 0001:0004a050       ??$_Checked_base@PAPAPAUILogNode@ILogWriter@tls@@@std@@YAPAPAPAUILogNode@ILogWriter@tls@@AAPAPAPAU123@@Z 0044b050 f i collector_static:host_context_impl.obj
 0001:0004a0c0       ??$_Ptr_cat@PAPAPAUILogNode@ILogWriter@tls@@PAPAPAU123@@std@@YA?AU_Scalar_ptr_iterator_tag@0@AAPAPAPAUILogNode@ILogWriter@tls@@0@Z 0044b0c0 f i collector_static:host_context_impl.obj
 0001:0004a110       ??$_Uninit_copy@PAPAPAUILogNode@ILogWriter@tls@@PAPAPAU123@V?$allocator@PAPAUILogNode@ILogWriter@tls@@@std@@@std@@YAPAPAPAUILogNode@ILogWriter@tls@@PAPAPAU123@00AAV?$allocator@PAPAUILogNode@ILogWriter@tls@@@0@U_Scalar_ptr_iterator_tag@0@U_Range_checked_iterator_tag@0@@Z 0044b110 f i collector_static:host_context_impl.obj
 0001:0004a1a0       ??$_Uninit_fill_n@PAPAPAUILogNode@ILogWriter@tls@@IPAPAU123@V?$allocator@PAPAUILogNode@ILogWriter@tls@@@std@@@std@@YAXPAPAPAUILogNode@ILogWriter@tls@@IABQAPAU123@AAV?$allocator@PAPAUILogNode@ILogWriter@tls@@@0@U_Scalar_ptr_iterator_tag@0@U_Range_checked_iterator_tag@0@@Z 0044b1a0 f i collector_static:host_context_impl.obj
 0001:0004a1c0       ??$_Destroy_range@PAPAUILogNode@ILogWriter@tls@@V?$allocator@PAPAUILogNode@ILogWriter@tls@@@std@@@std@@YAXPAPAPAUILogNode@ILogWriter@tls@@0AAV?$allocator@PAPAUILogNode@ILogWriter@tls@@@0@U_Scalar_ptr_iterator_tag@0@@Z 0044b1c0 f i collector_static:host_context_impl.obj
 0001:0004a1d0       ??$_Checked_base@PAPAPAUILogNode@ILogWriter@tls@@@std@@YAPAPAPAUILogNode@ILogWriter@tls@@AAPAPAPAU123@U_Unchanged_checked_iterator_base_type_tag@0@@Z 0044b1d0 f i collector_static:host_context_impl.obj
 0001:0004a1e0       ??$_Debug_range@PAPAPAUILogNode@ILogWriter@tls@@@std@@YAXPAPAPAUILogNode@ILogWriter@tls@@0PB_WI@Z 0044b1e0 f i collector_static:host_context_impl.obj
 0001:0004a230       ??$_Debug_pointer@PAPAUILogNode@ILogWriter@tls@@@std@@YAXPAPAPAUILogNode@ILogWriter@tls@@PB_WI@Z 0044b230 f i collector_static:host_context_impl.obj
 0001:0004a260       ??$unchecked_fill_n@PAPAPAUILogNode@ILogWriter@tls@@IPAPAU123@@stdext@@YAXPAPAPAUILogNode@ILogWriter@tls@@IABQAPAU123@@Z 0044b260 f i collector_static:host_context_impl.obj
 0001:0004a2b0       ??$_Iter_cat@PAPAPAUILogNode@ILogWriter@tls@@@std@@YA?AUrandom_access_iterator_tag@0@ABQAPAPAUILogNode@ILogWriter@tls@@@Z 0044b2b0 f i collector_static:host_context_impl.obj
 0001:0004a300       ??$_Debug_range2@PAPAPAUILogNode@ILogWriter@tls@@@std@@YAXPAPAPAUILogNode@ILogWriter@tls@@0PB_WIUrandom_access_iterator_tag@0@@Z 0044b300 f i collector_static:host_context_impl.obj
 0001:0004a360       ??$_Fill_n@PAPAPAUILogNode@ILogWriter@tls@@IPAPAU123@@std@@YAXPAPAPAUILogNode@ILogWriter@tls@@IABQAPAU123@Urandom_access_iterator_tag@0@U_Range_checked_iterator_tag@0@@Z 0044b360 f i collector_static:host_context_impl.obj
 0001:0004a3c0       ??$_Fill_n@PAPAPAUILogNode@ILogWriter@tls@@IPAPAU123@@std@@YAXPAPAPAUILogNode@ILogWriter@tls@@IABQAPAU123@U_Range_checked_iterator_tag@0@@Z 0044b3c0 f i collector_static:host_context_impl.obj
 0001:0004a3f0       ?Release@NetHandlerImpl@collector@tls@@UAEXXZ 0044b3f0 f   collector_static:net_handler_impl.obj
 0001:0004a410       ?Open@NetHandlerImpl@collector@tls@@UAE?AW4rc_e@@XZ 0044b410 f   collector_static:net_handler_impl.obj
 0001:0004a440       ?Close@NetHandlerImpl@collector@tls@@UAE?AW4rc_e@@XZ 0044b440 f   collector_static:net_handler_impl.obj
 0001:0004a470       ?rateControl@NetHandlerImpl@collector@tls@@AAEXI@Z 0044b470 f   collector_static:net_handler_impl.obj
 0001:0004a640       ?Send@NetHandlerImpl@collector@tls@@UAE?AW4rc_e@@PBXPBEI@Z 0044b640 f   collector_static:net_handler_impl.obj
 0001:0004a820       ?IsSendAllOk@NetHandlerImpl@collector@tls@@UBEIXZ 0044b820 f   collector_static:net_handler_impl.obj
 0001:0004a890       ?SetKeepAlive@NetHandlerImpl@collector@tls@@UAEXI@Z 0044b890 f   collector_static:net_handler_impl.obj
 0001:0004a8b0       ?SetRateControl@NetHandlerImpl@collector@tls@@UAEXII@Z 0044b8b0 f   collector_static:net_handler_impl.obj
 0001:0004a8f0       ?GetSessionID@NetHandlerImpl@collector@tls@@UBEIXZ 0044b8f0 f   collector_static:net_handler_impl.obj
 0001:0004a910       ?GetLocalIP@NetHandlerImpl@collector@tls@@UAEPBEPAI@Z 0044b910 f   collector_static:net_handler_impl.obj
 0001:0004a990       ?GetLocalMAC@NetHandlerImpl@collector@tls@@UAEPBEPAI@Z 0044b990 f   collector_static:net_handler_impl.obj
 0001:0004aa10       ?GetTargetIP@NetHandlerImpl@collector@tls@@UAEPBEPAI@Z 0044ba10 f   collector_static:net_handler_impl.obj
 0001:0004aa60       ?GetTargetMAC@NetHandlerImpl@collector@tls@@UAEPBEPAI@Z 0044ba60 f   collector_static:net_handler_impl.obj
 0001:0004aab0       ?SetNetEvent@NetHandlerImpl@collector@tls@@UAEXPAUINetEvent@aggregator@3@@Z 0044bab0 f   collector_static:net_handler_impl.obj
 0001:0004aad0       ?Set@NetHandlerImpl@collector@tls@@UAEXPBDPBXI@Z 0044bad0 f   collector_static:net_handler_impl.obj
 0001:0004ab70       ??0NetHandlerImpl@collector@tls@@QAE@PAUIHostContext@aggregator@2@PAUINetEvent@42@@Z 0044bb70 f   collector_static:net_handler_impl.obj
 0001:0004af20       ?SendTo@NetHandlerImpl@collector@tls@@UAE?AW4rc_e@@PBXIPBEI@Z 0044bf20 f i collector_static:net_handler_impl.obj
 0001:0004af40       ?Recv@NetHandlerImpl@collector@tls@@UAE?AW4rc_e@@PAEPAI@Z 0044bf40 f i collector_static:net_handler_impl.obj
 0001:0004af60       ?RecvForm@NetHandlerImpl@collector@tls@@UAE?AW4rc_e@@IPAEPAI@Z 0044bf60 f i collector_static:net_handler_impl.obj
 0001:0004af80       ??0INetHandler@aggregator@tls@@QAE@XZ 0044bf80 f i collector_static:net_handler_impl.obj
 0001:0004afa0       ??1NetHandlerImpl@collector@tls@@QAE@XZ 0044bfa0 f   collector_static:net_handler_impl.obj
 0001:0004b030       ?InitNet@NetHandlerImpl@collector@tls@@UAE?AW4rc_e@@XZ 0044c030 f   collector_static:net_handler_impl.obj
 0001:0004b250       ?DeInitNet@NetHandlerImpl@collector@tls@@UAE?AW4rc_e@@XZ 0044c250 f   collector_static:net_handler_impl.obj
 0001:0004b310       ?waitForJobFinish@NetHandlerImpl@collector@tls@@ABE?AW4rc_e@@I@Z 0044c310 f   collector_static:net_handler_impl.obj
 0001:0004b3d0       ?EngineJobNotify@NetHandlerImpl@collector@tls@@CGXPAV123@@Z 0044c3d0 f   collector_static:net_handler_impl.obj
 0001:0004b5e0       ?engineJobNotify@NetHandlerImpl@collector@tls@@AAEXXZ 0044c5e0 f   collector_static:net_handler_impl.obj
 0001:0004bad0       ?setNetUser@NetHandlerImpl@collector@tls@@AAEXPBD0@Z 0044cad0 f   collector_static:net_handler_impl.obj
 0001:0004bb20       ?StartNet@NetHandlerImpl@collector@tls@@UAE?AW4rc_e@@XZ 0044cb20 f   collector_static:net_handler_impl.obj
 0001:0004bf40       ?resetJobCount@NetHandlerImpl@collector@tls@@AAEXXZ 0044cf40 f   collector_static:net_handler_impl.obj
 0001:0004bfa0       ??4atomic_count@base@tls@@QAEXJ@Z 0044cfa0 f i collector_static:net_handler_impl.obj
 0001:0004bfc0       ?StopNet@NetHandlerImpl@collector@tls@@UAE?AW4rc_e@@XZ 0044cfc0 f   collector_static:net_handler_impl.obj
 0001:0004c070       ?connectToAggregator@NetHandlerImpl@collector@tls@@AAE?AW4rc_e@@XZ 0044d070 f   collector_static:net_handler_impl.obj
 0001:0004c200       ?disConnectToAggregator@NetHandlerImpl@collector@tls@@AAE?AW4rc_e@@XZ 0044d200 f   collector_static:net_handler_impl.obj
 0001:0004c310       ??0?$vector@EV?$allocator@E@std@@@std@@QAE@XZ 0044d310 f i collector_static:net_handler_impl.obj
 0001:0004c360       ??1?$vector@EV?$allocator@E@std@@@std@@QAE@XZ 0044d360 f i collector_static:net_handler_impl.obj
 0001:0004c390       ?size@?$vector@EV?$allocator@E@std@@@std@@QBEIXZ 0044d390 f i collector_static:net_handler_impl.obj
 0001:0004c3d0       ?front@?$vector@EV?$allocator@E@std@@@std@@QAEAAEXZ 0044d3d0 f i collector_static:net_handler_impl.obj
 0001:0004c420       ?front@?$vector@EV?$allocator@E@std@@@std@@QBEABEXZ 0044d420 f i collector_static:net_handler_impl.obj
 0001:0004c470       ??0?$vector@UNetworkInterface@net@tls@@V?$allocator@UNetworkInterface@net@tls@@@std@@@std@@QAE@XZ 0044d470 f i collector_static:net_handler_impl.obj
 0001:0004c4c0       ??1?$vector@UNetworkInterface@net@tls@@V?$allocator@UNetworkInterface@net@tls@@@std@@@std@@QAE@XZ 0044d4c0 f i collector_static:net_handler_impl.obj
 0001:0004c4f0       ?size@?$vector@UNetworkInterface@net@tls@@V?$allocator@UNetworkInterface@net@tls@@@std@@@std@@QBEIXZ 0044d4f0 f i collector_static:net_handler_impl.obj
 0001:0004c540       ??A?$vector@UNetworkInterface@net@tls@@V?$allocator@UNetworkInterface@net@tls@@@std@@@std@@QAEAAUNetworkInterface@net@tls@@I@Z 0044d540 f i collector_static:net_handler_impl.obj
 0001:0004c630       ??1?$_Vector_val@EV?$allocator@E@std@@@std@@QAE@XZ 0044d630 f i collector_static:net_handler_impl.obj
 0001:0004c660       ??1?$_Vector_iterator@EV?$allocator@E@std@@@std@@QAE@XZ 0044d660 f i collector_static:net_handler_impl.obj
 0001:0004c690       ??1?$_Vector_const_iterator@EV?$allocator@E@std@@@std@@QAE@XZ 0044d690 f i collector_static:net_handler_impl.obj
 0001:0004c6c0       ??1?$_Vector_val@UNetworkInterface@net@tls@@V?$allocator@UNetworkInterface@net@tls@@@std@@@std@@QAE@XZ 0044d6c0 f i collector_static:net_handler_impl.obj
 0001:0004c6f0       ??1?$_Ranit@EHPBEABE@std@@QAE@XZ 0044d6f0 f i collector_static:net_handler_impl.obj
 0001:0004c720       ?begin@?$vector@EV?$allocator@E@std@@@std@@QAE?AV?$_Vector_iterator@EV?$allocator@E@std@@@2@XZ 0044d720 f i collector_static:net_handler_impl.obj
 0001:0004c760       ?begin@?$vector@EV?$allocator@E@std@@@std@@QBE?AV?$_Vector_const_iterator@EV?$allocator@E@std@@@2@XZ 0044d760 f i collector_static:net_handler_impl.obj
 0001:0004c7a0       ?_Buy@?$vector@EV?$allocator@E@std@@@std@@IAE_NI@Z 0044d7a0 f i collector_static:net_handler_impl.obj
 0001:0004c830       ?_Tidy@?$vector@EV?$allocator@E@std@@@std@@IAEXXZ 0044d830 f i collector_static:net_handler_impl.obj
 0001:0004c8b0       ??0?$_Vector_val@EV?$allocator@E@std@@@std@@IAE@V?$allocator@E@1@@Z 0044d8b0 f i collector_static:net_handler_impl.obj
 0001:0004c8f0       ??0?$allocator@E@std@@QAE@XZ 0044d8f0 f i collector_static:net_handler_impl.obj
 0001:0004c910       ?_Buy@?$vector@UNetworkInterface@net@tls@@V?$allocator@UNetworkInterface@net@tls@@@std@@@std@@IAE_NI@Z 0044d910 f i collector_static:net_handler_impl.obj
 0001:0004c9b0       ?_Tidy@?$vector@UNetworkInterface@net@tls@@V?$allocator@UNetworkInterface@net@tls@@@std@@@std@@IAEXXZ 0044d9b0 f i collector_static:net_handler_impl.obj
 0001:0004ca40       ??0?$_Vector_val@UNetworkInterface@net@tls@@V?$allocator@UNetworkInterface@net@tls@@@std@@@std@@IAE@V?$allocator@UNetworkInterface@net@tls@@@1@@Z 0044da40 f i collector_static:net_handler_impl.obj
 0001:0004ca80       ??0?$allocator@UNetworkInterface@net@tls@@@std@@QAE@XZ 0044da80 f i collector_static:net_handler_impl.obj
 0001:0004caa0       ??D?$_Vector_iterator@EV?$allocator@E@std@@@std@@QBEAAEXZ 0044daa0 f i collector_static:net_handler_impl.obj
 0001:0004cad0       ??D?$_Vector_const_iterator@EV?$allocator@E@std@@@std@@QBEABEXZ 0044dad0 f i collector_static:net_handler_impl.obj
 0001:0004cb70       ?max_size@?$vector@EV?$allocator@E@std@@@std@@QBEIXZ 0044db70 f i collector_static:net_handler_impl.obj
 0001:0004cba0       ?_Destroy@?$vector@EV?$allocator@E@std@@@std@@IAEXPAE0@Z 0044dba0 f i collector_static:net_handler_impl.obj
 0001:0004cbe0       ?_Xlen@?$vector@EV?$allocator@E@std@@@std@@KAXXZ 0044dbe0 f i collector_static:net_handler_impl.obj
 0001:0004cc40       ??0?$allocator@E@std@@QAE@ABV01@@Z 0044dc40 f i collector_static:net_handler_impl.obj
 0001:0004cc60       ?deallocate@?$allocator@E@std@@QAEXPAEI@Z 0044dc60 f i collector_static:net_handler_impl.obj
 0001:0004cc90       ?allocate@?$allocator@E@std@@QAEPAEI@Z 0044dc90 f i collector_static:net_handler_impl.obj
 0001:0004ccc0       ?max_size@?$vector@UNetworkInterface@net@tls@@V?$allocator@UNetworkInterface@net@tls@@@std@@@std@@QBEIXZ 0044dcc0 f i collector_static:net_handler_impl.obj
 0001:0004ccf0       ?_Destroy@?$vector@UNetworkInterface@net@tls@@V?$allocator@UNetworkInterface@net@tls@@@std@@@std@@IAEXPAUNetworkInterface@net@tls@@0@Z 0044dcf0 f i collector_static:net_handler_impl.obj
 0001:0004cd30       ?_Xlen@?$vector@UNetworkInterface@net@tls@@V?$allocator@UNetworkInterface@net@tls@@@std@@@std@@KAXXZ 0044dd30 f i collector_static:net_handler_impl.obj
 0001:0004cd90       ??0?$allocator@UNetworkInterface@net@tls@@@std@@QAE@ABV01@@Z 0044dd90 f i collector_static:net_handler_impl.obj
 0001:0004cdb0       ?deallocate@?$allocator@UNetworkInterface@net@tls@@@std@@QAEXPAUNetworkInterface@net@tls@@I@Z 0044ddb0 f i collector_static:net_handler_impl.obj
 0001:0004cde0       ?allocate@?$allocator@UNetworkInterface@net@tls@@@std@@QAEPAUNetworkInterface@net@tls@@I@Z 0044dde0 f i collector_static:net_handler_impl.obj
 0001:0004ce10       ??0?$_Vector_iterator@EV?$allocator@E@std@@@std@@QAE@PAEPBV_Container_base@1@@Z 0044de10 f i collector_static:net_handler_impl.obj
 0001:0004ce50       ??0?$_Vector_const_iterator@EV?$allocator@E@std@@@std@@QAE@PAEPBV_Container_base@1@@Z 0044de50 f i collector_static:net_handler_impl.obj
 0001:0004cef0       ??0?$_Ranit@EHPBEABE@std@@QAE@XZ 0044def0 f i collector_static:net_handler_impl.obj
 0001:0004cf20       ?max_size@?$allocator@E@std@@QBEIXZ 0044df20 f i collector_static:net_handler_impl.obj
 0001:0004cf70       ?max_size@?$allocator@UNetworkInterface@net@tls@@@std@@QBEIXZ 0044df70 f i collector_static:net_handler_impl.obj
 0001:0004cfc0       ??$_snprintf_s@$0BAE@@@YAHAAY0BAE@DIPBDZZ 0044dfc0 f i collector_static:net_handler_impl.obj
 0001:0004d000       ??$LocateSymbol@P6APAVIEngine@taapi@tdx@@PBDI@Z@DynamicLibrary@base@tls@@QAEP6APAVIEngine@taapi@tdx@@PBDI@Z0@Z 0044e000 f i collector_static:net_handler_impl.obj
 0001:0004d030       ??$_Destroy_range@EV?$allocator@E@std@@@std@@YAXPAE0AAV?$allocator@E@0@@Z 0044e030 f i collector_static:net_handler_impl.obj
 0001:0004d080       ??$_Allocate@E@std@@YAPAEIPAE@Z 0044e080 f i collector_static:net_handler_impl.obj
 0001:0004d0f0       ??$_Destroy_range@UNetworkInterface@net@tls@@V?$allocator@UNetworkInterface@net@tls@@@std@@@std@@YAXPAUNetworkInterface@net@tls@@0AAV?$allocator@UNetworkInterface@net@tls@@@0@@Z 0044e0f0 f i collector_static:net_handler_impl.obj
 0001:0004d140       ??$_Allocate@UNetworkInterface@net@tls@@@std@@YAPAUNetworkInterface@net@tls@@IPAU123@@Z 0044e140 f i collector_static:net_handler_impl.obj
 0001:0004d1b0       ??$_Ptr_cat@PAEPAE@std@@YA?AU_Scalar_ptr_iterator_tag@0@AAPAE0@Z 0044e1b0 f i collector_static:net_handler_impl.obj
 0001:0004d200       ??$_Destroy_range@EV?$allocator@E@std@@@std@@YAXPAE0AAV?$allocator@E@0@U_Scalar_ptr_iterator_tag@0@@Z 0044e200 f i collector_static:net_handler_impl.obj
 0001:0004d210       ??$_Ptr_cat@PAUNetworkInterface@net@tls@@PAU123@@std@@YA?AU_Nonscalar_ptr_iterator_tag@0@AAPAUNetworkInterface@net@tls@@0@Z 0044e210 f i collector_static:net_handler_impl.obj
 0001:0004d260       ??$_Destroy_range@UNetworkInterface@net@tls@@V?$allocator@UNetworkInterface@net@tls@@@std@@@std@@YAXPAUNetworkInterface@net@tls@@0AAV?$allocator@UNetworkInterface@net@tls@@@0@U_Nonscalar_ptr_iterator_tag@0@@Z 0044e260 f i collector_static:net_handler_impl.obj
 0001:0004d290       ?destroy@?$allocator@UNetworkInterface@net@tls@@@std@@QAEXPAUNetworkInterface@net@tls@@@Z 0044e290 f i collector_static:net_handler_impl.obj
 0001:0004d2c0       ??$_Destroy@UNetworkInterface@net@tls@@@std@@YAXPAUNetworkInterface@net@tls@@@Z 0044e2c0 f i collector_static:net_handler_impl.obj
 0001:0004d2e0       ??_GNetworkInterface@net@tls@@QAEPAXI@Z 0044e2e0 f i collector_static:net_handler_impl.obj
 0001:0004d320       ?AddCollectRule@FileCollectorImpl@collector@tls@@UAE?AW4rc_e@@PBD00@Z 0044e320 f   collector_static:file_collector_impl.obj
 0001:0004d3f0       ??0CollectRule@FileCollectorImpl@collector@tls@@QAE@PBD00@Z 0044e3f0 f i collector_static:file_collector_impl.obj
 0001:0004d5d0       ?isDirChar@base@tls@@YAID@Z 0044e5d0 f i collector_static:file_collector_impl.obj
 0001:0004d610       ??Rchar_t_hash@base@tls@@QBEIPBD@Z 0044e610 f i collector_static:file_collector_impl.obj
 0001:0004d690       ??0RegEx@@QAE@IPBDH@Z      0044e690 f i collector_static:file_collector_impl.obj
 0001:0004d750       ?ClearCollectRule@FileCollectorImpl@collector@tls@@UAEXXZ 0044e750 f   collector_static:file_collector_impl.obj
 0001:0004d880       ??1?$_Iterator@$00@?$list@PAVCollectRule@FileCollectorImpl@collector@tls@@V?$allocator@PAVCollectRule@FileCollectorImpl@collector@tls@@@std@@@std@@QAE@XZ 0044e880 f i collector_static:file_collector_impl.obj
 0001:0004d8b0       ??4?$_Iterator@$00@?$list@PAVCollectRule@FileCollectorImpl@collector@tls@@V?$allocator@PAVCollectRule@FileCollectorImpl@collector@tls@@@std@@@std@@QAEAAV012@ABV012@@Z 0044e8b0 f i collector_static:file_collector_impl.obj
 0001:0004d8e0       ??_GCollectRule@FileCollectorImpl@collector@tls@@QAEPAXI@Z 0044e8e0 f i collector_static:file_collector_impl.obj
 0001:0004d920       ??1CollectRule@FileCollectorImpl@collector@tls@@QAE@XZ 0044e920 f i collector_static:file_collector_impl.obj
 0001:0004d960       ??1RegEx@@QAE@XZ           0044e960 f i collector_static:file_collector_impl.obj
 0001:0004d9b0       ??1?$_Const_iterator@$00@?$list@PAVCollectRule@FileCollectorImpl@collector@tls@@V?$allocator@PAVCollectRule@FileCollectorImpl@collector@tls@@@std@@@std@@QAE@XZ 0044e9b0 f i collector_static:file_collector_impl.obj
 0001:0004d9e0       ??4?$_Const_iterator@$00@?$list@PAVCollectRule@FileCollectorImpl@collector@tls@@V?$allocator@PAVCollectRule@FileCollectorImpl@collector@tls@@@std@@@std@@QAEAAV012@ABV012@@Z 0044e9e0 f i collector_static:file_collector_impl.obj
 0001:0004da20       ??1?$_Bidit@PAVCollectRule@FileCollectorImpl@collector@tls@@HPBQAV1234@ABQAV1234@@std@@QAE@XZ 0044ea20 f i collector_static:file_collector_impl.obj
 0001:0004da50       ??4?$_Bidit@PAVCollectRule@FileCollectorImpl@collector@tls@@HPBQAV1234@ABQAV1234@@std@@QAEAAU01@ABU01@@Z 0044ea50 f i collector_static:file_collector_impl.obj
 0001:0004da80       ?AddFileNode@FileCollectorImpl@collector@tls@@UAEPAUIFileNode@aggregator@3@ABI_JIPBD2@Z 0044ea80 f   collector_static:file_collector_impl.obj
 0001:0004dbb0       ??0FileNode@FileCollectorImpl@collector@tls@@QAE@PBD00I_JI@Z 0044ebb0 f i collector_static:file_collector_impl.obj
 0001:0004de40       ?Release@FileNode@FileCollectorImpl@collector@tls@@UAEXXZ 0044ee40 f i collector_static:file_collector_impl.obj
 0001:0004de60       ?ID@FileNode@FileCollectorImpl@collector@tls@@UBEIXZ 0044ee60 f i collector_static:file_collector_impl.obj
 0001:0004de80       ?Size@FileNode@FileCollectorImpl@collector@tls@@UBE_JXZ 0044ee80 f i collector_static:file_collector_impl.obj
 0001:0004dea0       ?Status@FileNode@FileCollectorImpl@collector@tls@@UBE?AW4STATUS_E_@IFileNode@aggregator@4@XZ 0044eea0 f i collector_static:file_collector_impl.obj
 0001:0004dec0       ?CheckSum@FileNode@FileCollectorImpl@collector@tls@@UBEPBDXZ 0044eec0 f i collector_static:file_collector_impl.obj
 0001:0004dee0       ?LocalPath@FileNode@FileCollectorImpl@collector@tls@@UBEPBDXZ 0044eee0 f i collector_static:file_collector_impl.obj
 0001:0004df00       ?RemotePath@FileNode@FileCollectorImpl@collector@tls@@UBEPBDXZ 0044ef00 f i collector_static:file_collector_impl.obj
 0001:0004df20       ?Collector@FileNode@FileCollectorImpl@collector@tls@@UBEPBDXZ 0044ef20 f i collector_static:file_collector_impl.obj
 0001:0004df40       ?CreateTime@FileNode@FileCollectorImpl@collector@tls@@UBE?B_KXZ 0044ef40 f i collector_static:file_collector_impl.obj
 0001:0004df60       ?GetNFPos@FileNode@FileCollectorImpl@collector@tls@@UBE_JXZ 0044ef60 f i collector_static:file_collector_impl.obj
 0001:0004df90       ?SetID@FileNode@FileCollectorImpl@collector@tls@@UAEXI@Z 0044ef90 f i collector_static:file_collector_impl.obj
 0001:0004dfb0       ?SetSize@FileNode@FileCollectorImpl@collector@tls@@UAEX_J@Z 0044efb0 f i collector_static:file_collector_impl.obj
 0001:0004dfe0       ?SetConfirm@FileNode@FileCollectorImpl@collector@tls@@QAEX_J@Z 0044efe0 f i collector_static:file_collector_impl.obj
 0001:0004e040       ??0IFileNode@aggregator@tls@@QAE@XZ 0044f040 f i collector_static:file_collector_impl.obj
 0001:0004e060       ?FindFileNode@FileCollectorImpl@collector@tls@@UAEPAUIFileNode@aggregator@3@ABI@Z 0044f060 f   collector_static:file_collector_impl.obj
 0001:0004e120       ??1?$_Iterator@$00@?$list@U?$pair@$$CBIPAVFileNode@FileCollectorImpl@collector@tls@@@std@@V?$allocator@U?$pair@$$CBIPAVFileNode@FileCollectorImpl@collector@tls@@@std@@@2@@std@@QAE@XZ 0044f120 f i collector_static:file_collector_impl.obj
 0001:0004e150       ??1?$_Const_iterator@$00@?$list@U?$pair@$$CBIPAVFileNode@FileCollectorImpl@collector@tls@@@std@@V?$allocator@U?$pair@$$CBIPAVFileNode@FileCollectorImpl@collector@tls@@@std@@@2@@std@@QAE@XZ 0044f150 f i collector_static:file_collector_impl.obj
 0001:0004e180       ??1?$_Bidit@U?$pair@$$CBIPAVFileNode@FileCollectorImpl@collector@tls@@@std@@HPBU12@ABU12@@std@@QAE@XZ 0044f180 f i collector_static:file_collector_impl.obj
 0001:0004e1b0       ?FindFileNode@FileCollectorImpl@collector@tls@@UAEPAUIFileNode@aggregator@3@PBD0@Z 0044f1b0 f   collector_static:file_collector_impl.obj
 0001:0004e210       ?ClearFileNode@FileCollectorImpl@collector@tls@@UAEXXZ 0044f210 f   collector_static:file_collector_impl.obj
 0001:0004e240       ?Collector@FileCollectorImpl@collector@tls@@UAE?AW4rc_e@@W4collector_log_type_e_@23@P6A?AW44@PBUIFileNode@aggregator@3@PAX@Z2@Z 0044f240 f   collector_static:file_collector_impl.obj
 0001:0004e370       ?TickProc@FileCollectorImpl@collector@tls@@UAEXXZ 0044f370 f   collector_static:file_collector_impl.obj
 0001:0004e480       ?TickProc@FileNode@FileCollectorImpl@collector@tls@@QAEXXZ 0044f480 f i collector_static:file_collector_impl.obj
 0001:0004e4e0       ??1?$_Iterator@$00@?$list@U?$pair@$$CBUtwo_string_key_t@FileCollectorImpl@collector@tls@@PAVFileNode@234@@std@@V?$allocator@U?$pair@$$CBUtwo_string_key_t@FileCollectorImpl@collector@tls@@PAVFileNode@234@@std@@@2@@std@@QAE@XZ 0044f4e0 f i collector_static:file_collector_impl.obj
 0001:0004e510       ??4?$_Iterator@$00@?$list@U?$pair@$$CBUtwo_string_key_t@FileCollectorImpl@collector@tls@@PAVFileNode@234@@std@@V?$allocator@U?$pair@$$CBUtwo_string_key_t@FileCollectorImpl@collector@tls@@PAVFileNode@234@@std@@@2@@std@@QAEAAV012@ABV012@@Z 0044f510 f i collector_static:file_collector_impl.obj
 0001:0004e540       ??1?$_Const_iterator@$00@?$list@U?$pair@$$CBUtwo_string_key_t@FileCollectorImpl@collector@tls@@PAVFileNode@234@@std@@V?$allocator@U?$pair@$$CBUtwo_string_key_t@FileCollectorImpl@collector@tls@@PAVFileNode@234@@std@@@2@@std@@QAE@XZ 0044f540 f i collector_static:file_collector_impl.obj
 0001:0004e570       ??4?$_Const_iterator@$00@?$list@U?$pair@$$CBUtwo_string_key_t@FileCollectorImpl@collector@tls@@PAVFileNode@234@@std@@V?$allocator@U?$pair@$$CBUtwo_string_key_t@FileCollectorImpl@collector@tls@@PAVFileNode@234@@std@@@2@@std@@QAEAAV012@ABV012@@Z 0044f570 f i collector_static:file_collector_impl.obj
 0001:0004e5b0       ??1?$_Bidit@U?$pair@$$CBUtwo_string_key_t@FileCollectorImpl@collector@tls@@PAVFileNode@234@@std@@HPBU12@ABU12@@std@@QAE@XZ 0044f5b0 f i collector_static:file_collector_impl.obj
 0001:0004e5e0       ??4?$_Bidit@U?$pair@$$CBUtwo_string_key_t@FileCollectorImpl@collector@tls@@PAVFileNode@234@@std@@HPBU12@ABU12@@std@@QAEAAU01@ABU01@@Z 0044f5e0 f i collector_static:file_collector_impl.obj
 0001:0004e610       ?findFileNode@FileCollectorImpl@collector@tls@@AAEPAVFileNode@123@IPBD@Z 0044f610 f   collector_static:file_collector_impl.obj
 0001:0004e700       ?addFileNode@FileCollectorImpl@collector@tls@@AAE?AW4rc_e@@IPBDPAVFileNode@123@@Z 0044f700 f   collector_static:file_collector_impl.obj
 0001:0004e7d0       ?addFileNode@FileCollectorImpl@collector@tls@@AAE?AW4rc_e@@IPAVFileNode@123@@Z 0044f7d0 f   collector_static:file_collector_impl.obj
 0001:0004e870       ??0FileCollectorImpl@collector@tls@@QAE@XZ 0044f870 f   collector_static:file_collector_impl.obj
 0001:0004e8d0       ?Release@FileCollectorImpl@collector@tls@@UAEXXZ 0044f8d0 f i collector_static:file_collector_impl.obj
 0001:0004e920       ?SetTimeControl@FileCollectorImpl@collector@tls@@UAEXI@Z 0044f920 f i collector_static:file_collector_impl.obj
 0001:0004e940       ??_GFileCollectorImpl@collector@tls@@QAEPAXI@Z 0044f940 f i collector_static:file_collector_impl.obj
 0001:0004e980       ??0IFileCollector@collector@tls@@QAE@XZ 0044f980 f i collector_static:file_collector_impl.obj
 0001:0004e9a0       ??1FileCollectorImpl@collector@tls@@QAE@XZ 0044f9a0 f   collector_static:file_collector_impl.obj
 0001:0004ea00       ??1?$hash_map@$$CBUtwo_string_key_t@FileCollectorImpl@collector@tls@@PAVFileNode@234@Utwo_string_hash@234@V?$allocator@U?$pair@$$CBUtwo_string_key_t@FileCollectorImpl@collector@tls@@PAVFileNode@234@@std@@@std@@@stdext@@QAE@XZ 0044fa00 f i collector_static:file_collector_impl.obj
 0001:0004ea30       ??1?$hash_map@IPAVFileNode@FileCollectorImpl@collector@tls@@V?$hash_compare@IU?$less@I@std@@@stdext@@V?$allocator@U?$pair@$$CBIPAVFileNode@FileCollectorImpl@collector@tls@@@std@@@std@@@stdext@@QAE@XZ 0044fa30 f i collector_static:file_collector_impl.obj
 0001:0004ea60       ?clearFileNode@FileCollectorImpl@collector@tls@@AAEXXZ 0044fa60 f   collector_static:file_collector_impl.obj
 0001:0004eba0       ??_GFileNode@FileCollectorImpl@collector@tls@@QAEPAXI@Z 0044fba0 f i collector_static:file_collector_impl.obj
 0001:0004ebe0       ??1FileNode@FileCollectorImpl@collector@tls@@QAE@XZ 0044fbe0 f i collector_static:file_collector_impl.obj
 0001:0004ec20       ?searchAllFile@FileCollectorImpl@collector@tls@@AAEIW4collector_log_type_e_@23@PAVCollectRule@123@P6A?AW4rc_e@@PBUIFileNode@aggregator@3@PAX@Z3@Z 0044fc20 f   collector_static:file_collector_impl.obj
 0001:0004f0e0       ?didCompile@RegEx@@QBEIXZ  004500e0 f i collector_static:file_collector_impl.obj
 0001:0004f100       ?isMatchOnly@RegEx@@QAEIPBDI@Z 00450100 f i collector_static:file_collector_impl.obj
 0001:0004f190       ?GetMMLDir@CollectRule@FileCollectorImpl@collector@tls@@QBEPBDXZ 00450190 f i collector_static:file_collector_impl.obj
 0001:0004f1b0       ?FileInfo@FileNode@FileCollectorImpl@collector@tls@@QAEAAUPlatformFileInfo@base@4@XZ 004501b0 f i collector_static:file_collector_impl.obj
 0001:0004f210       ??0?$list@PAVCollectRule@FileCollectorImpl@collector@tls@@V?$allocator@PAVCollectRule@FileCollectorImpl@collector@tls@@@std@@@std@@QAE@XZ 00450210 f i collector_static:file_collector_impl.obj
 0001:0004f260       ??1?$list@PAVCollectRule@FileCollectorImpl@collector@tls@@V?$allocator@PAVCollectRule@FileCollectorImpl@collector@tls@@@std@@@std@@QAE@XZ 00450260 f i collector_static:file_collector_impl.obj
 0001:0004f290       ?begin@?$list@PAVCollectRule@FileCollectorImpl@collector@tls@@V?$allocator@PAVCollectRule@FileCollectorImpl@collector@tls@@@std@@@std@@QAE?AV?$_Iterator@$00@12@XZ 00450290 f i collector_static:file_collector_impl.obj
 0001:0004f2d0       ?end@?$list@PAVCollectRule@FileCollectorImpl@collector@tls@@V?$allocator@PAVCollectRule@FileCollectorImpl@collector@tls@@@std@@@std@@QAE?AV?$_Iterator@$00@12@XZ 004502d0 f i collector_static:file_collector_impl.obj
 0001:0004f310       ?push_back@?$list@PAVCollectRule@FileCollectorImpl@collector@tls@@V?$allocator@PAVCollectRule@FileCollectorImpl@collector@tls@@@std@@@std@@QAEXABQAVCollectRule@FileCollectorImpl@collector@tls@@@Z 00450310 f i collector_static:file_collector_impl.obj
 0001:0004f350       ?clear@?$list@PAVCollectRule@FileCollectorImpl@collector@tls@@V?$allocator@PAVCollectRule@FileCollectorImpl@collector@tls@@@std@@@std@@QAEXXZ 00450350 f i collector_static:file_collector_impl.obj
 0001:0004f420       ??0?$hash_map@$$CBUtwo_string_key_t@FileCollectorImpl@collector@tls@@PAVFileNode@234@Utwo_string_hash@234@V?$allocator@U?$pair@$$CBUtwo_string_key_t@FileCollectorImpl@collector@tls@@PAVFileNode@234@@std@@@std@@@stdext@@QAE@XZ 00450420 f i collector_static:file_collector_impl.obj
 0001:0004f470       ??A?$hash_map@$$CBUtwo_string_key_t@FileCollectorImpl@collector@tls@@PAVFileNode@234@Utwo_string_hash@234@V?$allocator@U?$pair@$$CBUtwo_string_key_t@FileCollectorImpl@collector@tls@@PAVFileNode@234@@std@@@std@@@stdext@@QAEAAPAVFileNode@FileCollectorImpl@collector@tls@@ABUtwo_string_key_t@345@@Z 00450470 f i collector_static:file_collector_impl.obj
 0001:0004f550       ??1?$_Hash@V?$_Hmap_traits@$$CBUtwo_string_key_t@FileCollectorImpl@collector@tls@@PAVFileNode@234@Utwo_string_hash@234@V?$allocator@U?$pair@$$CBUtwo_string_key_t@FileCollectorImpl@collector@tls@@PAVFileNode@234@@std@@@std@@$0A@@stdext@@@stdext@@QAE@XZ 00450550 f i collector_static:file_collector_impl.obj
 0001:0004f590       ?begin@?$_Hash@V?$_Hmap_traits@$$CBUtwo_string_key_t@FileCollectorImpl@collector@tls@@PAVFileNode@234@Utwo_string_hash@234@V?$allocator@U?$pair@$$CBUtwo_string_key_t@FileCollectorImpl@collector@tls@@PAVFileNode@234@@std@@@std@@$0A@@stdext@@@stdext@@QAE?AV?$_Iterator@$00@?$list@U?$pair@$$CBUtwo_string_key_t@FileCollectorImpl@collector@tls@@PAVFileNode@234@@std@@V?$allocator@U?$pair@$$CBUtwo_string_key_t@FileCollectorImpl@collector@tls@@PAVFileNode@234@@std@@@2@@std@@XZ 00450590 f i collector_static:file_collector_impl.obj
 0001:0004f5c0       ?end@?$_Hash@V?$_Hmap_traits@$$CBUtwo_string_key_t@FileCollectorImpl@collector@tls@@PAVFileNode@234@Utwo_string_hash@234@V?$allocator@U?$pair@$$CBUtwo_string_key_t@FileCollectorImpl@collector@tls@@PAVFileNode@234@@std@@@std@@$0A@@stdext@@@stdext@@QAE?AV?$_Iterator@$00@?$list@U?$pair@$$CBUtwo_string_key_t@FileCollectorImpl@collector@tls@@PAVFileNode@234@@std@@V?$allocator@U?$pair@$$CBUtwo_string_key_t@FileCollectorImpl@collector@tls@@PAVFileNode@234@@std@@@2@@std@@XZ 004505c0 f i collector_static:file_collector_impl.obj
 0001:0004f5f0       ?clear@?$_Hash@V?$_Hmap_traits@$$CBUtwo_string_key_t@FileCollectorImpl@collector@tls@@PAVFileNode@234@Utwo_string_hash@234@V?$allocator@U?$pair@$$CBUtwo_string_key_t@FileCollectorImpl@collector@tls@@PAVFileNode@234@@std@@@std@@$0A@@stdext@@@stdext@@QAEXXZ 004505f0 f i collector_static:file_collector_impl.obj
 0001:0004f660       ?find@?$_Hash@V?$_Hmap_traits@$$CBUtwo_string_key_t@FileCollectorImpl@collector@tls@@PAVFileNode@234@Utwo_string_hash@234@V?$allocator@U?$pair@$$CBUtwo_string_key_t@FileCollectorImpl@collector@tls@@PAVFileNode@234@@std@@@std@@$0A@@stdext@@@stdext@@QAE?AV?$_Iterator@$00@?$list@U?$pair@$$CBUtwo_string_key_t@FileCollectorImpl@collector@tls@@PAVFileNode@234@@std@@V?$allocator@U?$pair@$$CBUtwo_string_key_t@FileCollectorImpl@collector@tls@@PAVFileNode@234@@std@@@2@@std@@ABUtwo_string_key_t@FileCollectorImpl@collector@tls@@@Z 00450660 f i collector_static:file_collector_impl.obj
 0001:0004f6a0       ??0?$hash_map@IPAVFileNode@FileCollectorImpl@collector@tls@@V?$hash_compare@IU?$less@I@std@@@stdext@@V?$allocator@U?$pair@$$CBIPAVFileNode@FileCollectorImpl@collector@tls@@@std@@@std@@@stdext@@QAE@XZ 004506a0 f i collector_static:file_collector_impl.obj
 0001:0004f6f0       ??A?$hash_map@IPAVFileNode@FileCollectorImpl@collector@tls@@V?$hash_compare@IU?$less@I@std@@@stdext@@V?$allocator@U?$pair@$$CBIPAVFileNode@FileCollectorImpl@collector@tls@@@std@@@std@@@stdext@@QAEAAPAVFileNode@FileCollectorImpl@collector@tls@@ABI@Z 004506f0 f i collector_static:file_collector_impl.obj
 0001:0004f7d0       ??1?$_Hash@V?$_Hmap_traits@IPAVFileNode@FileCollectorImpl@collector@tls@@V?$hash_compare@IU?$less@I@std@@@stdext@@V?$allocator@U?$pair@$$CBIPAVFileNode@FileCollectorImpl@collector@tls@@@std@@@std@@$0A@@stdext@@@stdext@@QAE@XZ 004507d0 f i collector_static:file_collector_impl.obj
 0001:0004f810       ?end@?$_Hash@V?$_Hmap_traits@IPAVFileNode@FileCollectorImpl@collector@tls@@V?$hash_compare@IU?$less@I@std@@@stdext@@V?$allocator@U?$pair@$$CBIPAVFileNode@FileCollectorImpl@collector@tls@@@std@@@std@@$0A@@stdext@@@stdext@@QAE?AV?$_Iterator@$00@?$list@U?$pair@$$CBIPAVFileNode@FileCollectorImpl@collector@tls@@@std@@V?$allocator@U?$pair@$$CBIPAVFileNode@FileCollectorImpl@collector@tls@@@std@@@2@@std@@XZ 00450810 f i collector_static:file_collector_impl.obj
 0001:0004f840       ?clear@?$_Hash@V?$_Hmap_traits@IPAVFileNode@FileCollectorImpl@collector@tls@@V?$hash_compare@IU?$less@I@std@@@stdext@@V?$allocator@U?$pair@$$CBIPAVFileNode@FileCollectorImpl@collector@tls@@@std@@@std@@$0A@@stdext@@@stdext@@QAEXXZ 00450840 f i collector_static:file_collector_impl.obj
 0001:0004f8b0       ?find@?$_Hash@V?$_Hmap_traits@IPAVFileNode@FileCollectorImpl@collector@tls@@V?$hash_compare@IU?$less@I@std@@@stdext@@V?$allocator@U?$pair@$$CBIPAVFileNode@FileCollectorImpl@collector@tls@@@std@@@std@@$0A@@stdext@@@stdext@@QAE?AV?$_Iterator@$00@?$list@U?$pair@$$CBIPAVFileNode@FileCollectorImpl@collector@tls@@@std@@V?$allocator@U?$pair@$$CBIPAVFileNode@FileCollectorImpl@collector@tls@@@std@@@2@@std@@ABI@Z 004508b0 f i collector_static:file_collector_impl.obj
 0001:0004f8f0       ??0?$_Iterator@$00@?$list@PAVCollectRule@FileCollectorImpl@collector@tls@@V?$allocator@PAVCollectRule@FileCollectorImpl@collector@tls@@@std@@@std@@QAE@XZ 004508f0 f i collector_static:file_collector_impl.obj
 0001:0004f920       ??D?$_Iterator@$00@?$list@PAVCollectRule@FileCollectorImpl@collector@tls@@V?$allocator@PAVCollectRule@FileCollectorImpl@collector@tls@@@std@@@std@@QBEAAPAVCollectRule@FileCollectorImpl@collector@tls@@XZ 00450920 f i collector_static:file_collector_impl.obj
 0001:0004f950       ??E?$_Iterator@$00@?$list@PAVCollectRule@FileCollectorImpl@collector@tls@@V?$allocator@PAVCollectRule@FileCollectorImpl@collector@tls@@@std@@@std@@QAEAAV012@XZ 00450950 f i collector_static:file_collector_impl.obj
 0001:0004f980       ??9?$_Const_iterator@$00@?$list@PAVCollectRule@FileCollectorImpl@collector@tls@@V?$allocator@PAVCollectRule@FileCollectorImpl@collector@tls@@@std@@@std@@QBE_NABV012@@Z 00450980 f i collector_static:file_collector_impl.obj
 0001:0004f9c0       ??C?$_Iterator@$00@?$list@U?$pair@$$CBIPAVFileNode@FileCollectorImpl@collector@tls@@@std@@V?$allocator@U?$pair@$$CBIPAVFileNode@FileCollectorImpl@collector@tls@@@std@@@2@@std@@QBEPAU?$pair@$$CBIPAVFileNode@FileCollectorImpl@collector@tls@@@2@XZ 004509c0 f i collector_static:file_collector_impl.obj
 0001:0004f9f0       ??8?$_Const_iterator@$00@?$list@U?$pair@$$CBIPAVFileNode@FileCollectorImpl@collector@tls@@@std@@V?$allocator@U?$pair@$$CBIPAVFileNode@FileCollectorImpl@collector@tls@@@std@@@2@@std@@QBE_NABV012@@Z 004509f0 f i collector_static:file_collector_impl.obj
 0001:0004fa30       ??9?$_Const_iterator@$00@?$list@U?$pair@$$CBIPAVFileNode@FileCollectorImpl@collector@tls@@@std@@V?$allocator@U?$pair@$$CBIPAVFileNode@FileCollectorImpl@collector@tls@@@std@@@2@@std@@QBE_NABV012@@Z 00450a30 f i collector_static:file_collector_impl.obj
 0001:0004fa70       ??0?$_Iterator@$00@?$list@U?$pair@$$CBUtwo_string_key_t@FileCollectorImpl@collector@tls@@PAVFileNode@234@@std@@V?$allocator@U?$pair@$$CBUtwo_string_key_t@FileCollectorImpl@collector@tls@@PAVFileNode@234@@std@@@2@@std@@QAE@XZ 00450a70 f i collector_static:file_collector_impl.obj
 0001:0004faa0       ??C?$_Iterator@$00@?$list@U?$pair@$$CBUtwo_string_key_t@FileCollectorImpl@collector@tls@@PAVFileNode@234@@std@@V?$allocator@U?$pair@$$CBUtwo_string_key_t@FileCollectorImpl@collector@tls@@PAVFileNode@234@@std@@@2@@std@@QBEPAU?$pair@$$CBUtwo_string_key_t@FileCollectorImpl@collector@tls@@PAVFileNode@234@@2@XZ 00450aa0 f i collector_static:file_collector_impl.obj
 0001:0004fad0       ??E?$_Iterator@$00@?$list@U?$pair@$$CBUtwo_string_key_t@FileCollectorImpl@collector@tls@@PAVFileNode@234@@std@@V?$allocator@U?$pair@$$CBUtwo_string_key_t@FileCollectorImpl@collector@tls@@PAVFileNode@234@@std@@@2@@std@@QAEAAV012@XZ 00450ad0 f i collector_static:file_collector_impl.obj
 0001:0004fb00       ??8?$_Const_iterator@$00@?$list@U?$pair@$$CBUtwo_string_key_t@FileCollectorImpl@collector@tls@@PAVFileNode@234@@std@@V?$allocator@U?$pair@$$CBUtwo_string_key_t@FileCollectorImpl@collector@tls@@PAVFileNode@234@@std@@@2@@std@@QBE_NABV012@@Z 00450b00 f i collector_static:file_collector_impl.obj
 0001:0004fb40       ??9?$_Const_iterator@$00@?$list@U?$pair@$$CBUtwo_string_key_t@FileCollectorImpl@collector@tls@@PAVFileNode@234@@std@@V?$allocator@U?$pair@$$CBUtwo_string_key_t@FileCollectorImpl@collector@tls@@PAVFileNode@234@@std@@@2@@std@@QBE_NABV012@@Z 00450b40 f i collector_static:file_collector_impl.obj
 0001:0004fb80       ??1?$_List_val@PAVCollectRule@FileCollectorImpl@collector@tls@@V?$allocator@PAVCollectRule@FileCollectorImpl@collector@tls@@@std@@@std@@QAE@XZ 00450b80 f i collector_static:file_collector_impl.obj
 0001:0004fbb0       ??1?$pair@V?$_Iterator@$00@?$list@U?$pair@$$CBUtwo_string_key_t@FileCollectorImpl@collector@tls@@PAVFileNode@234@@std@@V?$allocator@U?$pair@$$CBUtwo_string_key_t@FileCollectorImpl@collector@tls@@PAVFileNode@234@@std@@@2@@std@@_N@std@@QAE@XZ 00450bb0 f i collector_static:file_collector_impl.obj
 0001:0004fbe0       ??1?$_Hmap_traits@$$CBUtwo_string_key_t@FileCollectorImpl@collector@tls@@PAVFileNode@234@Utwo_string_hash@234@V?$allocator@U?$pair@$$CBUtwo_string_key_t@FileCollectorImpl@collector@tls@@PAVFileNode@234@@std@@@std@@$0A@@stdext@@QAE@XZ 00450be0 f i collector_static:file_collector_impl.obj
 0001:0004fc10       ??1?$pair@V?$_Iterator@$00@?$list@U?$pair@$$CBIPAVFileNode@FileCollectorImpl@collector@tls@@@std@@V?$allocator@U?$pair@$$CBIPAVFileNode@FileCollectorImpl@collector@tls@@@std@@@2@@std@@_N@std@@QAE@XZ 00450c10 f i collector_static:file_collector_impl.obj
 0001:0004fc40       ??4?$_Iterator@$00@?$list@U?$pair@$$CBIPAVFileNode@FileCollectorImpl@collector@tls@@@std@@V?$allocator@U?$pair@$$CBIPAVFileNode@FileCollectorImpl@collector@tls@@@std@@@2@@std@@QAEAAV012@ABV012@@Z 00450c40 f i collector_static:file_collector_impl.obj
 0001:0004fc70       ??1?$_Hmap_traits@IPAVFileNode@FileCollectorImpl@collector@tls@@V?$hash_compare@IU?$less@I@std@@@stdext@@V?$allocator@U?$pair@$$CBIPAVFileNode@FileCollectorImpl@collector@tls@@@std@@@std@@$0A@@stdext@@QAE@XZ 00450c70 f i collector_static:file_collector_impl.obj
 0001:0004fca0       ??1?$_List_ptr@PAVCollectRule@FileCollectorImpl@collector@tls@@V?$allocator@PAVCollectRule@FileCollectorImpl@collector@tls@@@std@@@std@@QAE@XZ 00450ca0 f i collector_static:file_collector_impl.obj
 0001:0004fcd0       ??4?$_Const_iterator@$00@?$list@U?$pair@$$CBIPAVFileNode@FileCollectorImpl@collector@tls@@@std@@V?$allocator@U?$pair@$$CBIPAVFileNode@FileCollectorImpl@collector@tls@@@std@@@2@@std@@QAEAAV012@ABV012@@Z 00450cd0 f i collector_static:file_collector_impl.obj
 0001:0004fd10       ??1?$_List_nod@PAVCollectRule@FileCollectorImpl@collector@tls@@V?$allocator@PAVCollectRule@FileCollectorImpl@collector@tls@@@std@@@std@@QAE@XZ 00450d10 f i collector_static:file_collector_impl.obj
 0001:0004fd40       ??4?$_Bidit@U?$pair@$$CBIPAVFileNode@FileCollectorImpl@collector@tls@@@std@@HPBU12@ABU12@@std@@QAEAAU01@ABU01@@Z 00450d40 f i collector_static:file_collector_impl.obj
 0001:0004fd70       ?_Nextnode@?$list@PAVCollectRule@FileCollectorImpl@collector@tls@@V?$allocator@PAVCollectRule@FileCollectorImpl@collector@tls@@@std@@@std@@KAAAPAU_Node@?$_List_nod@PAVCollectRule@FileCollectorImpl@collector@tls@@V?$allocator@PAVCollectRule@FileCollectorImpl@collector@tls@@@std@@@2@PAU342@@Z 00450d70 f i collector_static:file_collector_impl.obj
 0001:0004fd80       ?_Prevnode@?$list@PAVCollectRule@FileCollectorImpl@collector@tls@@V?$allocator@PAVCollectRule@FileCollectorImpl@collector@tls@@@std@@@std@@KAAAPAU_Node@?$_List_nod@PAVCollectRule@FileCollectorImpl@collector@tls@@V?$allocator@PAVCollectRule@FileCollectorImpl@collector@tls@@@std@@@2@PAU342@@Z 00450d80 f i collector_static:file_collector_impl.obj
 0001:0004fd90       ?_Insert@?$list@PAVCollectRule@FileCollectorImpl@collector@tls@@V?$allocator@PAVCollectRule@FileCollectorImpl@collector@tls@@@std@@@std@@QAEXV?$_Iterator@$00@12@ABQAVCollectRule@FileCollectorImpl@collector@tls@@@Z 00450d90 f i collector_static:file_collector_impl.obj
 0001:0004fe50       ?_Buynode@?$list@PAVCollectRule@FileCollectorImpl@collector@tls@@V?$allocator@PAVCollectRule@FileCollectorImpl@collector@tls@@@std@@@std@@IAEPAU_Node@?$_List_nod@PAVCollectRule@FileCollectorImpl@collector@tls@@V?$allocator@PAVCollectRule@FileCollectorImpl@collector@tls@@@std@@@2@XZ 00450e50 f i collector_static:file_collector_impl.obj
 0001:0004ff40       ?_Tidy@?$list@PAVCollectRule@FileCollectorImpl@collector@tls@@V?$allocator@PAVCollectRule@FileCollectorImpl@collector@tls@@@std@@@std@@IAEXXZ 00450f40 f i collector_static:file_collector_impl.obj
 0001:0004ffc0       ?_Orphan_ptr@?$list@PAVCollectRule@FileCollectorImpl@collector@tls@@V?$allocator@PAVCollectRule@FileCollectorImpl@collector@tls@@@std@@@std@@IBEXAAV12@PAU_Node@?$_List_nod@PAVCollectRule@FileCollectorImpl@collector@tls@@V?$allocator@PAVCollectRule@FileCollectorImpl@collector@tls@@@std@@@2@@Z 00450fc0 f i collector_static:file_collector_impl.obj
 0001:00050090       ??0?$_List_val@PAVCollectRule@FileCollectorImpl@collector@tls@@V?$allocator@PAVCollectRule@FileCollectorImpl@collector@tls@@@std@@@std@@QAE@V?$allocator@PAVCollectRule@FileCollectorImpl@collector@tls@@@1@@Z 00451090 f i collector_static:file_collector_impl.obj
 0001:000500e0       ??0?$allocator@PAVCollectRule@FileCollectorImpl@collector@tls@@@std@@QAE@XZ 004510e0 f i collector_static:file_collector_impl.obj
 0001:00050100       ?deallocate@?$allocator@U_Node@?$_List_nod@PAVCollectRule@FileCollectorImpl@collector@tls@@V?$allocator@PAVCollectRule@FileCollectorImpl@collector@tls@@@std@@@std@@@std@@QAEXPAU_Node@?$_List_nod@PAVCollectRule@FileCollectorImpl@collector@tls@@V?$allocator@PAVCollectRule@FileCollectorImpl@collector@tls@@@std@@@2@I@Z 00451100 f i collector_static:file_collector_impl.obj
 0001:00050130       ?destroy@?$allocator@U_Node@?$_List_nod@PAVCollectRule@FileCollectorImpl@collector@tls@@V?$allocator@PAVCollectRule@FileCollectorImpl@collector@tls@@@std@@@std@@@std@@QAEXPAU_Node@?$_List_nod@PAVCollectRule@FileCollectorImpl@collector@tls@@V?$allocator@PAVCollectRule@FileCollectorImpl@collector@tls@@@std@@@2@@Z 00451130 f i collector_static:file_collector_impl.obj
 0001:00050160       ??0?$_Hash@V?$_Hmap_traits@$$CBUtwo_string_key_t@FileCollectorImpl@collector@tls@@PAVFileNode@234@Utwo_string_hash@234@V?$allocator@U?$pair@$$CBUtwo_string_key_t@FileCollectorImpl@collector@tls@@PAVFileNode@234@@std@@@std@@$0A@@stdext@@@stdext@@QAE@ABUtwo_string_hash@FileCollectorImpl@collector@tls@@ABV?$allocator@U?$pair@$$CBUtwo_string_key_t@FileCollectorImpl@collector@tls@@PAVFileNode@234@@std@@@std@@@Z 00451160 f i collector_static:file_collector_impl.obj
 0001:00050200       ?insert@?$_Hash@V?$_Hmap_traits@$$CBUtwo_string_key_t@FileCollectorImpl@collector@tls@@PAVFileNode@234@Utwo_string_hash@234@V?$allocator@U?$pair@$$CBUtwo_string_key_t@FileCollectorImpl@collector@tls@@PAVFileNode@234@@std@@@std@@$0A@@stdext@@@stdext@@QAE?AU?$pair@V?$_Iterator@$00@?$list@U?$pair@$$CBUtwo_string_key_t@FileCollectorImpl@collector@tls@@PAVFileNode@234@@std@@V?$allocator@U?$pair@$$CBUtwo_string_key_t@FileCollectorImpl@collector@tls@@PAVFileNode@234@@std@@@2@@std@@_N@std@@ABU?$pair@$$CBUtwo_string_key_t@FileCollectorImpl@collector@tls@@PAVFileNode@234@@4@@Z 00451200 f i collector_static:file_collector_impl.obj
 0001:000507e0       ??Rtwo_string_hash@FileCollectorImpl@collector@tls@@QBEIABUtwo_string_key_t@123@@Z 004517e0 f i collector_static:file_collector_impl.obj
 0001:00050850       ??Rtwo_string_hash@FileCollectorImpl@collector@tls@@QBE_NABUtwo_string_key_t@123@0@Z 00451850 f i collector_static:file_collector_impl.obj
 0001:000508b0       ?lower_bound@?$_Hash@V?$_Hmap_traits@$$CBUtwo_string_key_t@FileCollectorImpl@collector@tls@@PAVFileNode@234@Utwo_string_hash@234@V?$allocator@U?$pair@$$CBUtwo_string_key_t@FileCollectorImpl@collector@tls@@PAVFileNode@234@@std@@@std@@$0A@@stdext@@@stdext@@QAE?AV?$_Iterator@$00@?$list@U?$pair@$$CBUtwo_string_key_t@FileCollectorImpl@collector@tls@@PAVFileNode@234@@std@@V?$allocator@U?$pair@$$CBUtwo_string_key_t@FileCollectorImpl@collector@tls@@PAVFileNode@234@@std@@@2@@std@@ABUtwo_string_key_t@FileCollectorImpl@collector@tls@@@Z 004518b0 f i collector_static:file_collector_impl.obj
 0001:00050a40       ??0?$allocator@U?$pair@$$CBUtwo_string_key_t@FileCollectorImpl@collector@tls@@PAVFileNode@234@@std@@@std@@QAE@XZ 00451a40 f i collector_static:file_collector_impl.obj
 0001:00050a60       ??1?$list@U?$pair@$$CBUtwo_string_key_t@FileCollectorImpl@collector@tls@@PAVFileNode@234@@std@@V?$allocator@U?$pair@$$CBUtwo_string_key_t@FileCollectorImpl@collector@tls@@PAVFileNode@234@@std@@@2@@std@@QAE@XZ 00451a60 f i collector_static:file_collector_impl.obj
 0001:00050a90       ?begin@?$list@U?$pair@$$CBUtwo_string_key_t@FileCollectorImpl@collector@tls@@PAVFileNode@234@@std@@V?$allocator@U?$pair@$$CBUtwo_string_key_t@FileCollectorImpl@collector@tls@@PAVFileNode@234@@std@@@2@@std@@QAE?AV?$_Iterator@$00@12@XZ 00451a90 f i collector_static:file_collector_impl.obj
 0001:00050ad0       ?end@?$list@U?$pair@$$CBUtwo_string_key_t@FileCollectorImpl@collector@tls@@PAVFileNode@234@@std@@V?$allocator@U?$pair@$$CBUtwo_string_key_t@FileCollectorImpl@collector@tls@@PAVFileNode@234@@std@@@2@@std@@QAE?AV?$_Iterator@$00@12@XZ 00451ad0 f i collector_static:file_collector_impl.obj
 0001:00050b10       ?clear@?$list@U?$pair@$$CBUtwo_string_key_t@FileCollectorImpl@collector@tls@@PAVFileNode@234@@std@@V?$allocator@U?$pair@$$CBUtwo_string_key_t@FileCollectorImpl@collector@tls@@PAVFileNode@234@@std@@@2@@std@@QAEXXZ 00451b10 f i collector_static:file_collector_impl.obj
 0001:00050be0       ??1?$vector@V?$_Iterator@$00@?$list@U?$pair@$$CBUtwo_string_key_t@FileCollectorImpl@collector@tls@@PAVFileNode@234@@std@@V?$allocator@U?$pair@$$CBUtwo_string_key_t@FileCollectorImpl@collector@tls@@PAVFileNode@234@@std@@@2@@std@@V?$allocator@V?$_Iterator@$00@?$list@U?$pair@$$CBUtwo_string_key_t@FileCollectorImpl@collector@tls@@PAVFileNode@234@@std@@V?$allocator@U?$pair@$$CBUtwo_string_key_t@FileCollectorImpl@collector@tls@@PAVFileNode@234@@std@@@2@@std@@@3@@std@@QAE@XZ 00451be0 f i collector_static:file_collector_impl.obj
 0001:00050c10       ?assign@?$vector@V?$_Iterator@$00@?$list@U?$pair@$$CBUtwo_string_key_t@FileCollectorImpl@collector@tls@@PAVFileNode@234@@std@@V?$allocator@U?$pair@$$CBUtwo_string_key_t@FileCollectorImpl@collector@tls@@PAVFileNode@234@@std@@@2@@std@@V?$allocator@V?$_Iterator@$00@?$list@U?$pair@$$CBUtwo_string_key_t@FileCollectorImpl@collector@tls@@PAVFileNode@234@@std@@V?$allocator@U?$pair@$$CBUtwo_string_key_t@FileCollectorImpl@collector@tls@@PAVFileNode@234@@std@@@2@@std@@@3@@std@@QAEXIABV?$_Iterator@$00@?$list@U?$pair@$$CBUtwo_string_key_t@FileCollectorImpl@collector@tls@@PAVFileNode@234@@std@@V?$allocator@U?$pair@$$CBUtwo_string_key_t@FileCollectorImpl@collector@tls@@PAVFileNode@234@@std@@@2@@2@@Z 00451c10 f i collector_static:file_collector_impl.obj
 0001:00050c40       ??0?$_Hash@V?$_Hmap_traits@IPAVFileNode@FileCollectorImpl@collector@tls@@V?$hash_compare@IU?$less@I@std@@@stdext@@V?$allocator@U?$pair@$$CBIPAVFileNode@FileCollectorImpl@collector@tls@@@std@@@std@@$0A@@stdext@@@stdext@@QAE@ABV?$hash_compare@IU?$less@I@std@@@1@ABV?$allocator@U?$pair@$$CBIPAVFileNode@FileCollectorImpl@collector@tls@@@std@@@std@@@Z 00451c40 f i collector_static:file_collector_impl.obj
 0001:00050ce0       ?insert@?$_Hash@V?$_Hmap_traits@IPAVFileNode@FileCollectorImpl@collector@tls@@V?$hash_compare@IU?$less@I@std@@@stdext@@V?$allocator@U?$pair@$$CBIPAVFileNode@FileCollectorImpl@collector@tls@@@std@@@std@@$0A@@stdext@@@stdext@@QAE?AU?$pair@V?$_Iterator@$00@?$list@U?$pair@$$CBIPAVFileNode@FileCollectorImpl@collector@tls@@@std@@V?$allocator@U?$pair@$$CBIPAVFileNode@FileCollectorImpl@collector@tls@@@std@@@2@@std@@_N@std@@ABU?$pair@$$CBIPAVFileNode@FileCollectorImpl@collector@tls@@@4@@Z 00451ce0 f i collector_static:file_collector_impl.obj
 0001:000512c0       ?lower_bound@?$_Hash@V?$_Hmap_traits@IPAVFileNode@FileCollectorImpl@collector@tls@@V?$hash_compare@IU?$less@I@std@@@stdext@@V?$allocator@U?$pair@$$CBIPAVFileNode@FileCollectorImpl@collector@tls@@@std@@@std@@$0A@@stdext@@@stdext@@QAE?AV?$_Iterator@$00@?$list@U?$pair@$$CBIPAVFileNode@FileCollectorImpl@collector@tls@@@std@@V?$allocator@U?$pair@$$CBIPAVFileNode@FileCollectorImpl@collector@tls@@@std@@@2@@std@@ABI@Z 004522c0 f i collector_static:file_collector_impl.obj
 0001:00051450       ??0?$allocator@U?$pair@$$CBIPAVFileNode@FileCollectorImpl@collector@tls@@@std@@@std@@QAE@XZ 00452450 f i collector_static:file_collector_impl.obj
 0001:00051470       ??0?$hash_compare@IU?$less@I@std@@@stdext@@QAE@XZ 00452470 f i collector_static:file_collector_impl.obj
 0001:00051490       ??1?$list@U?$pair@$$CBIPAVFileNode@FileCollectorImpl@collector@tls@@@std@@V?$allocator@U?$pair@$$CBIPAVFileNode@FileCollectorImpl@collector@tls@@@std@@@2@@std@@QAE@XZ 00452490 f i collector_static:file_collector_impl.obj
 0001:000514c0       ?end@?$list@U?$pair@$$CBIPAVFileNode@FileCollectorImpl@collector@tls@@@std@@V?$allocator@U?$pair@$$CBIPAVFileNode@FileCollectorImpl@collector@tls@@@std@@@2@@std@@QAE?AV?$_Iterator@$00@12@XZ 004524c0 f i collector_static:file_collector_impl.obj
 0001:00051500       ?clear@?$list@U?$pair@$$CBIPAVFileNode@FileCollectorImpl@collector@tls@@@std@@V?$allocator@U?$pair@$$CBIPAVFileNode@FileCollectorImpl@collector@tls@@@std@@@2@@std@@QAEXXZ 00452500 f i collector_static:file_collector_impl.obj
 0001:000515d0       ??1?$vector@V?$_Iterator@$00@?$list@U?$pair@$$CBIPAVFileNode@FileCollectorImpl@collector@tls@@@std@@V?$allocator@U?$pair@$$CBIPAVFileNode@FileCollectorImpl@collector@tls@@@std@@@2@@std@@V?$allocator@V?$_Iterator@$00@?$list@U?$pair@$$CBIPAVFileNode@FileCollectorImpl@collector@tls@@@std@@V?$allocator@U?$pair@$$CBIPAVFileNode@FileCollectorImpl@collector@tls@@@std@@@2@@std@@@3@@std@@QAE@XZ 004525d0 f i collector_static:file_collector_impl.obj
 0001:00051600       ?assign@?$vector@V?$_Iterator@$00@?$list@U?$pair@$$CBIPAVFileNode@FileCollectorImpl@collector@tls@@@std@@V?$allocator@U?$pair@$$CBIPAVFileNode@FileCollectorImpl@collector@tls@@@std@@@2@@std@@V?$allocator@V?$_Iterator@$00@?$list@U?$pair@$$CBIPAVFileNode@FileCollectorImpl@collector@tls@@@std@@V?$allocator@U?$pair@$$CBIPAVFileNode@FileCollectorImpl@collector@tls@@@std@@@2@@std@@@3@@std@@QAEXIABV?$_Iterator@$00@?$list@U?$pair@$$CBIPAVFileNode@FileCollectorImpl@collector@tls@@@std@@V?$allocator@U?$pair@$$CBIPAVFileNode@FileCollectorImpl@collector@tls@@@std@@@2@@2@@Z 00452600 f i collector_static:file_collector_impl.obj
 0001:00051630       ??0?$_Iterator@$00@?$list@PAVCollectRule@FileCollectorImpl@collector@tls@@V?$allocator@PAVCollectRule@FileCollectorImpl@collector@tls@@@std@@@std@@QAE@PAU_Node@?$_List_nod@PAVCollectRule@FileCollectorImpl@collector@tls@@V?$allocator@PAVCollectRule@FileCollectorImpl@collector@tls@@@std@@@2@PBV12@@Z 00452630 f i collector_static:file_collector_impl.obj
 0001:00051670       ??0?$_Const_iterator@$00@?$list@PAVCollectRule@FileCollectorImpl@collector@tls@@V?$allocator@PAVCollectRule@FileCollectorImpl@collector@tls@@@std@@@std@@QAE@XZ 00452670 f i collector_static:file_collector_impl.obj
 0001:000516b0       ??D?$_Const_iterator@$00@?$list@PAVCollectRule@FileCollectorImpl@collector@tls@@V?$allocator@PAVCollectRule@FileCollectorImpl@collector@tls@@@std@@@std@@QBEABQAVCollectRule@FileCollectorImpl@collector@tls@@XZ 004526b0 f i collector_static:file_collector_impl.obj
 0001:00051760       ??E?$_Const_iterator@$00@?$list@PAVCollectRule@FileCollectorImpl@collector@tls@@V?$allocator@PAVCollectRule@FileCollectorImpl@collector@tls@@@std@@@std@@QAEAAV012@XZ 00452760 f i collector_static:file_collector_impl.obj
 0001:00051820       ??8?$_Const_iterator@$00@?$list@PAVCollectRule@FileCollectorImpl@collector@tls@@V?$allocator@PAVCollectRule@FileCollectorImpl@collector@tls@@@std@@@std@@QBE_NABV012@@Z 00452820 f i collector_static:file_collector_impl.obj
 0001:00051860       ??D?$_Iterator@$00@?$list@U?$pair@$$CBIPAVFileNode@FileCollectorImpl@collector@tls@@@std@@V?$allocator@U?$pair@$$CBIPAVFileNode@FileCollectorImpl@collector@tls@@@std@@@2@@std@@QBEAAU?$pair@$$CBIPAVFileNode@FileCollectorImpl@collector@tls@@@2@XZ 00452860 f i collector_static:file_collector_impl.obj
 0001:00051890       ?_Compat@?$_Const_iterator@$00@?$list@U?$pair@$$CBIPAVFileNode@FileCollectorImpl@collector@tls@@@std@@V?$allocator@U?$pair@$$CBIPAVFileNode@FileCollectorImpl@collector@tls@@@std@@@2@@std@@QBEXABV123@@Z 00452890 f i collector_static:file_collector_impl.obj
 0001:00051930       ??0?$pair@$$CBIPAVFileNode@FileCollectorImpl@collector@tls@@@std@@QAE@ABIABQAVFileNode@FileCollectorImpl@collector@tls@@@Z 00452930 f i collector_static:file_collector_impl.obj
 0001:00051960       ??D?$_Iterator@$00@?$list@U?$pair@$$CBUtwo_string_key_t@FileCollectorImpl@collector@tls@@PAVFileNode@234@@std@@V?$allocator@U?$pair@$$CBUtwo_string_key_t@FileCollectorImpl@collector@tls@@PAVFileNode@234@@std@@@2@@std@@QBEAAU?$pair@$$CBUtwo_string_key_t@FileCollectorImpl@collector@tls@@PAVFileNode@234@@2@XZ 00452960 f i collector_static:file_collector_impl.obj
 0001:00051990       ??0?$_Const_iterator@$00@?$list@U?$pair@$$CBUtwo_string_key_t@FileCollectorImpl@collector@tls@@PAVFileNode@234@@std@@V?$allocator@U?$pair@$$CBUtwo_string_key_t@FileCollectorImpl@collector@tls@@PAVFileNode@234@@std@@@2@@std@@QAE@XZ 00452990 f i collector_static:file_collector_impl.obj
 0001:000519d0       ??E?$_Const_iterator@$00@?$list@U?$pair@$$CBUtwo_string_key_t@FileCollectorImpl@collector@tls@@PAVFileNode@234@@std@@V?$allocator@U?$pair@$$CBUtwo_string_key_t@FileCollectorImpl@collector@tls@@PAVFileNode@234@@std@@@2@@std@@QAEAAV012@XZ 004529d0 f i collector_static:file_collector_impl.obj
 0001:00051a90       ?_Compat@?$_Const_iterator@$00@?$list@U?$pair@$$CBUtwo_string_key_t@FileCollectorImpl@collector@tls@@PAVFileNode@234@@std@@V?$allocator@U?$pair@$$CBUtwo_string_key_t@FileCollectorImpl@collector@tls@@PAVFileNode@234@@std@@@2@@std@@QBEXABV123@@Z 00452a90 f i collector_static:file_collector_impl.obj
 0001:00051b30       ??0?$pair@$$CBUtwo_string_key_t@FileCollectorImpl@collector@tls@@PAVFileNode@234@@std@@QAE@ABUtwo_string_key_t@FileCollectorImpl@collector@tls@@ABQAVFileNode@345@@Z 00452b30 f i collector_static:file_collector_impl.obj
 0001:00051b70       ??0?$_Iterator@$00@?$list@U?$pair@$$CBUtwo_string_key_t@FileCollectorImpl@collector@tls@@PAVFileNode@234@@std@@V?$allocator@U?$pair@$$CBUtwo_string_key_t@FileCollectorImpl@collector@tls@@PAVFileNode@234@@std@@@2@@std@@QAE@ABV012@@Z 00452b70 f i collector_static:file_collector_impl.obj
 0001:00051ba0       ??1?$_List_val@U?$pair@$$CBUtwo_string_key_t@FileCollectorImpl@collector@tls@@PAVFileNode@234@@std@@V?$allocator@U?$pair@$$CBUtwo_string_key_t@FileCollectorImpl@collector@tls@@PAVFileNode@234@@std@@@2@@std@@QAE@XZ 00452ba0 f i collector_static:file_collector_impl.obj
 0001:00051bd0       ??1?$_Vector_val@V?$_Iterator@$00@?$list@U?$pair@$$CBUtwo_string_key_t@FileCollectorImpl@collector@tls@@PAVFileNode@234@@std@@V?$allocator@U?$pair@$$CBUtwo_string_key_t@FileCollectorImpl@collector@tls@@PAVFileNode@234@@std@@@2@@std@@V?$allocator@V?$_Iterator@$00@?$list@U?$pair@$$CBUtwo_string_key_t@FileCollectorImpl@collector@tls@@PAVFileNode@234@@std@@V?$allocator@U?$pair@$$CBUtwo_string_key_t@FileCollectorImpl@collector@tls@@PAVFileNode@234@@std@@@2@@std@@@3@@std@@QAE@XZ 00452bd0 f i collector_static:file_collector_impl.obj
 0001:00051c00       ??0?$_Iterator@$00@?$list@U?$pair@$$CBIPAVFileNode@FileCollectorImpl@collector@tls@@@std@@V?$allocator@U?$pair@$$CBIPAVFileNode@FileCollectorImpl@collector@tls@@@std@@@2@@std@@QAE@ABV012@@Z 00452c00 f i collector_static:file_collector_impl.obj
 0001:00051c30       ??1?$_List_val@U?$pair@$$CBIPAVFileNode@FileCollectorImpl@collector@tls@@@std@@V?$allocator@U?$pair@$$CBIPAVFileNode@FileCollectorImpl@collector@tls@@@std@@@2@@std@@QAE@XZ 00452c30 f i collector_static:file_collector_impl.obj
 0001:00051c60       ??1?$_Vector_val@V?$_Iterator@$00@?$list@U?$pair@$$CBIPAVFileNode@FileCollectorImpl@collector@tls@@@std@@V?$allocator@U?$pair@$$CBIPAVFileNode@FileCollectorImpl@collector@tls@@@std@@@2@@std@@V?$allocator@V?$_Iterator@$00@?$list@U?$pair@$$CBIPAVFileNode@FileCollectorImpl@collector@tls@@@std@@V?$allocator@U?$pair@$$CBIPAVFileNode@FileCollectorImpl@collector@tls@@@std@@@2@@std@@@3@@std@@QAE@XZ 00452c60 f i collector_static:file_collector_impl.obj
 0001:00051c90       ??0?$_Bidit@PAVCollectRule@FileCollectorImpl@collector@tls@@HPBQAV1234@ABQAV1234@@std@@QAE@XZ 00452c90 f i collector_static:file_collector_impl.obj
 0001:00051cc0       ??0?$_Bidit@U?$pair@$$CBUtwo_string_key_t@FileCollectorImpl@collector@tls@@PAVFileNode@234@@std@@HPBU12@ABU12@@std@@QAE@XZ 00452cc0 f i collector_static:file_collector_impl.obj
 0001:00051cf0       ??0?$_Const_iterator@$00@?$list@U?$pair@$$CBUtwo_string_key_t@FileCollectorImpl@collector@tls@@PAVFileNode@234@@std@@V?$allocator@U?$pair@$$CBUtwo_string_key_t@FileCollectorImpl@collector@tls@@PAVFileNode@234@@std@@@2@@std@@QAE@ABV012@@Z 00452cf0 f i collector_static:file_collector_impl.obj
 0001:00051d30       ??1?$_List_ptr@U?$pair@$$CBUtwo_string_key_t@FileCollectorImpl@collector@tls@@PAVFileNode@234@@std@@V?$allocator@U?$pair@$$CBUtwo_string_key_t@FileCollectorImpl@collector@tls@@PAVFileNode@234@@std@@@2@@std@@QAE@XZ 00452d30 f i collector_static:file_collector_impl.obj
 0001:00051d60       ??0?$_Const_iterator@$00@?$list@U?$pair@$$CBIPAVFileNode@FileCollectorImpl@collector@tls@@@std@@V?$allocator@U?$pair@$$CBIPAVFileNode@FileCollectorImpl@collector@tls@@@std@@@2@@std@@QAE@ABV012@@Z 00452d60 f i collector_static:file_collector_impl.obj
 0001:00051da0       ??1?$_List_ptr@U?$pair@$$CBIPAVFileNode@FileCollectorImpl@collector@tls@@@std@@V?$allocator@U?$pair@$$CBIPAVFileNode@FileCollectorImpl@collector@tls@@@std@@@2@@std@@QAE@XZ 00452da0 f i collector_static:file_collector_impl.obj
 0001:00051dd0       ??0?$_Bidit@U?$pair@$$CBUtwo_string_key_t@FileCollectorImpl@collector@tls@@PAVFileNode@234@@std@@HPBU12@ABU12@@std@@QAE@ABU01@@Z 00452dd0 f i collector_static:file_collector_impl.obj
 0001:00051e00       ??1?$_List_nod@U?$pair@$$CBUtwo_string_key_t@FileCollectorImpl@collector@tls@@PAVFileNode@234@@std@@V?$allocator@U?$pair@$$CBUtwo_string_key_t@FileCollectorImpl@collector@tls@@PAVFileNode@234@@std@@@2@@std@@QAE@XZ 00452e00 f i collector_static:file_collector_impl.obj
 0001:00051e30       ??0?$_Bidit@U?$pair@$$CBIPAVFileNode@FileCollectorImpl@collector@tls@@@std@@HPBU12@ABU12@@std@@QAE@ABU01@@Z 00452e30 f i collector_static:file_collector_impl.obj
 0001:00051e60       ??1?$_List_nod@U?$pair@$$CBIPAVFileNode@FileCollectorImpl@collector@tls@@@std@@V?$allocator@U?$pair@$$CBIPAVFileNode@FileCollectorImpl@collector@tls@@@std@@@2@@std@@QAE@XZ 00452e60 f i collector_static:file_collector_impl.obj
 0001:00051e90       ?_Myval@?$list@PAVCollectRule@FileCollectorImpl@collector@tls@@V?$allocator@PAVCollectRule@FileCollectorImpl@collector@tls@@@std@@@std@@KAAAPAVCollectRule@FileCollectorImpl@collector@tls@@PAU_Node@?$_List_nod@PAVCollectRule@FileCollectorImpl@collector@tls@@V?$allocator@PAVCollectRule@FileCollectorImpl@collector@tls@@@std@@@2@@Z 00452e90 f i collector_static:file_collector_impl.obj
 0001:00051ea0       ?_Buynode@?$list@PAVCollectRule@FileCollectorImpl@collector@tls@@V?$allocator@PAVCollectRule@FileCollectorImpl@collector@tls@@@std@@@std@@IAEPAU_Node@?$_List_nod@PAVCollectRule@FileCollectorImpl@collector@tls@@V?$allocator@PAVCollectRule@FileCollectorImpl@collector@tls@@@std@@@2@PAU342@0ABQAVCollectRule@FileCollectorImpl@collector@tls@@@Z 00452ea0 f i collector_static:file_collector_impl.obj
 0001:00051fa0       ?_Incsize@?$list@PAVCollectRule@FileCollectorImpl@collector@tls@@V?$allocator@PAVCollectRule@FileCollectorImpl@collector@tls@@@std@@@std@@IAEXI@Z 00452fa0 f i collector_static:file_collector_impl.obj
 0001:00052020       ??0?$_List_ptr@PAVCollectRule@FileCollectorImpl@collector@tls@@V?$allocator@PAVCollectRule@FileCollectorImpl@collector@tls@@@std@@@std@@IAE@V?$allocator@PAVCollectRule@FileCollectorImpl@collector@tls@@@1@@Z 00453020 f i collector_static:file_collector_impl.obj
 0001:00052070       ??0?$allocator@PAVCollectRule@FileCollectorImpl@collector@tls@@@std@@QAE@ABV01@@Z 00453070 f i collector_static:file_collector_impl.obj
 0001:00052090       ?allocate@?$allocator@U_Node@?$_List_nod@PAVCollectRule@FileCollectorImpl@collector@tls@@V?$allocator@PAVCollectRule@FileCollectorImpl@collector@tls@@@std@@@std@@@std@@QAEPAU_Node@?$_List_nod@PAVCollectRule@FileCollectorImpl@collector@tls@@V?$allocator@PAVCollectRule@FileCollectorImpl@collector@tls@@@std@@@2@I@Z 00453090 f i collector_static:file_collector_impl.obj
 0001:000520c0       ?construct@?$allocator@PAU_Node@?$_List_nod@PAVCollectRule@FileCollectorImpl@collector@tls@@V?$allocator@PAVCollectRule@FileCollectorImpl@collector@tls@@@std@@@std@@@std@@QAEXPAPAU_Node@?$_List_nod@PAVCollectRule@FileCollectorImpl@collector@tls@@V?$allocator@PAVCollectRule@FileCollectorImpl@collector@tls@@@std@@@2@ABQAU342@@Z 004530c0 f i collector_static:file_collector_impl.obj
 0001:000520f0       ?destroy@?$allocator@PAU_Node@?$_List_nod@PAVCollectRule@FileCollectorImpl@collector@tls@@V?$allocator@PAVCollectRule@FileCollectorImpl@collector@tls@@@std@@@std@@@std@@QAEXPAPAU_Node@?$_List_nod@PAVCollectRule@FileCollectorImpl@collector@tls@@V?$allocator@PAVCollectRule@FileCollectorImpl@collector@tls@@@std@@@2@@Z 004530f0 f i collector_static:file_collector_impl.obj
 0001:00052120       ?_Get_iter_from_vec@?$_Hash@V?$_Hmap_traits@$$CBUtwo_string_key_t@FileCollectorImpl@collector@tls@@PAVFileNode@234@Utwo_string_hash@234@V?$allocator@U?$pair@$$CBUtwo_string_key_t@FileCollectorImpl@collector@tls@@PAVFileNode@234@@std@@@std@@$0A@@stdext@@@stdext@@QBE?AV?$_Iterator@$00@?$list@U?$pair@$$CBUtwo_string_key_t@FileCollectorImpl@collector@tls@@PAVFileNode@234@@std@@V?$allocator@U?$pair@$$CBUtwo_string_key_t@FileCollectorImpl@collector@tls@@PAVFileNode@234@@std@@@2@@std@@ABV345@@Z 00453120 f i collector_static:file_collector_impl.obj
 0001:00052150       ?size@?$_Hash@V?$_Hmap_traits@$$CBUtwo_string_key_t@FileCollectorImpl@collector@tls@@PAVFileNode@234@Utwo_string_hash@234@V?$allocator@U?$pair@$$CBUtwo_string_key_t@FileCollectorImpl@collector@tls@@PAVFileNode@234@@std@@@std@@$0A@@stdext@@@stdext@@QBEIXZ 00453150 f i collector_static:file_collector_impl.obj
 0001:00052180       ?_Hashval@?$_Hash@V?$_Hmap_traits@$$CBUtwo_string_key_t@FileCollectorImpl@collector@tls@@PAVFileNode@234@Utwo_string_hash@234@V?$allocator@U?$pair@$$CBUtwo_string_key_t@FileCollectorImpl@collector@tls@@PAVFileNode@234@@std@@@std@@$0A@@stdext@@@stdext@@IBEIABUtwo_string_key_t@FileCollectorImpl@collector@tls@@@Z 00453180 f i collector_static:file_collector_impl.obj
 0001:000521e0       ??0?$_Hmap_traits@$$CBUtwo_string_key_t@FileCollectorImpl@collector@tls@@PAVFileNode@234@Utwo_string_hash@234@V?$allocator@U?$pair@$$CBUtwo_string_key_t@FileCollectorImpl@collector@tls@@PAVFileNode@234@@std@@@std@@$0A@@stdext@@QAE@ABUtwo_string_hash@FileCollectorImpl@collector@tls@@@Z 004531e0 f i collector_static:file_collector_impl.obj
 0001:00052210       ?_Kfn@?$_Hmap_traits@$$CBUtwo_string_key_t@FileCollectorImpl@collector@tls@@PAVFileNode@234@Utwo_string_hash@234@V?$allocator@U?$pair@$$CBUtwo_string_key_t@FileCollectorImpl@collector@tls@@PAVFileNode@234@@std@@@std@@$0A@@stdext@@SAABUtwo_string_key_t@FileCollectorImpl@collector@tls@@ABU?$pair@$$CBUtwo_string_key_t@FileCollectorImpl@collector@tls@@PAVFileNode@234@@std@@@Z 00453210 f i collector_static:file_collector_impl.obj
 0001:00052220       ?_Nextnode@?$list@U?$pair@$$CBUtwo_string_key_t@FileCollectorImpl@collector@tls@@PAVFileNode@234@@std@@V?$allocator@U?$pair@$$CBUtwo_string_key_t@FileCollectorImpl@collector@tls@@PAVFileNode@234@@std@@@2@@std@@KAAAPAU_Node@?$_List_nod@U?$pair@$$CBUtwo_string_key_t@FileCollectorImpl@collector@tls@@PAVFileNode@234@@std@@V?$allocator@U?$pair@$$CBUtwo_string_key_t@FileCollectorImpl@collector@tls@@PAVFileNode@234@@std@@@2@@2@PAU342@@Z 00453220 f i collector_static:file_collector_impl.obj
 0001:00052230       ?_Prevnode@?$list@U?$pair@$$CBUtwo_string_key_t@FileCollectorImpl@collector@tls@@PAVFileNode@234@@std@@V?$allocator@U?$pair@$$CBUtwo_string_key_t@FileCollectorImpl@collector@tls@@PAVFileNode@234@@std@@@2@@std@@KAAAPAU_Node@?$_List_nod@U?$pair@$$CBUtwo_string_key_t@FileCollectorImpl@collector@tls@@PAVFileNode@234@@std@@V?$allocator@U?$pair@$$CBUtwo_string_key_t@FileCollectorImpl@collector@tls@@PAVFileNode@234@@std@@@2@@2@PAU342@@Z 00453230 f i collector_static:file_collector_impl.obj
 0001:00052240       ??0?$list@U?$pair@$$CBUtwo_string_key_t@FileCollectorImpl@collector@tls@@PAVFileNode@234@@std@@V?$allocator@U?$pair@$$CBUtwo_string_key_t@FileCollectorImpl@collector@tls@@PAVFileNode@234@@std@@@2@@std@@QAE@ABV?$allocator@U?$pair@$$CBUtwo_string_key_t@FileCollectorImpl@collector@tls@@PAVFileNode@234@@std@@@1@@Z 00453240 f i collector_static:file_collector_impl.obj
 0001:000522a0       ?insert@?$list@U?$pair@$$CBUtwo_string_key_t@FileCollectorImpl@collector@tls@@PAVFileNode@234@@std@@V?$allocator@U?$pair@$$CBUtwo_string_key_t@FileCollectorImpl@collector@tls@@PAVFileNode@234@@std@@@2@@std@@QAE?AV?$_Iterator@$00@12@V312@ABU?$pair@$$CBUtwo_string_key_t@FileCollectorImpl@collector@tls@@PAVFileNode@234@@2@@Z 004532a0 f i collector_static:file_collector_impl.obj
 0001:00052300       ?_Splice@?$list@U?$pair@$$CBUtwo_string_key_t@FileCollectorImpl@collector@tls@@PAVFileNode@234@@std@@V?$allocator@U?$pair@$$CBUtwo_string_key_t@FileCollectorImpl@collector@tls@@PAVFileNode@234@@std@@@2@@std@@QAEXV?$_Iterator@$00@12@AAV12@00I_N@Z 00453300 f i collector_static:file_collector_impl.obj
 0001:00052590       ?_Tidy@?$list@U?$pair@$$CBUtwo_string_key_t@FileCollectorImpl@collector@tls@@PAVFileNode@234@@std@@V?$allocator@U?$pair@$$CBUtwo_string_key_t@FileCollectorImpl@collector@tls@@PAVFileNode@234@@std@@@2@@std@@IAEXXZ 00453590 f i collector_static:file_collector_impl.obj
 0001:00052610       ?_Orphan_ptr@?$list@U?$pair@$$CBUtwo_string_key_t@FileCollectorImpl@collector@tls@@PAVFileNode@234@@std@@V?$allocator@U?$pair@$$CBUtwo_string_key_t@FileCollectorImpl@collector@tls@@PAVFileNode@234@@std@@@2@@std@@IBEXAAV12@PAU_Node@?$_List_nod@U?$pair@$$CBUtwo_string_key_t@FileCollectorImpl@collector@tls@@PAVFileNode@234@@std@@V?$allocator@U?$pair@$$CBUtwo_string_key_t@FileCollectorImpl@collector@tls@@PAVFileNode@234@@std@@@2@@2@@Z 00453610 f i collector_static:file_collector_impl.obj
 0001:000526e0       ?deallocate@?$allocator@U_Node@?$_List_nod@U?$pair@$$CBUtwo_string_key_t@FileCollectorImpl@collector@tls@@PAVFileNode@234@@std@@V?$allocator@U?$pair@$$CBUtwo_string_key_t@FileCollectorImpl@collector@tls@@PAVFileNode@234@@std@@@2@@std@@@std@@QAEXPAU_Node@?$_List_nod@U?$pair@$$CBUtwo_string_key_t@FileCollectorImpl@collector@tls@@PAVFileNode@234@@std@@V?$allocator@U?$pair@$$CBUtwo_string_key_t@FileCollectorImpl@collector@tls@@PAVFileNode@234@@std@@@2@@2@I@Z 004536e0 f i collector_static:file_collector_impl.obj
 0001:00052710       ?destroy@?$allocator@U_Node@?$_List_nod@U?$pair@$$CBUtwo_string_key_t@FileCollectorImpl@collector@tls@@PAVFileNode@234@@std@@V?$allocator@U?$pair@$$CBUtwo_string_key_t@FileCollectorImpl@collector@tls@@PAVFileNode@234@@std@@@2@@std@@@std@@QAEXPAU_Node@?$_List_nod@U?$pair@$$CBUtwo_string_key_t@FileCollectorImpl@collector@tls@@PAVFileNode@234@@std@@V?$allocator@U?$pair@$$CBUtwo_string_key_t@FileCollectorImpl@collector@tls@@PAVFileNode@234@@std@@@2@@2@@Z 00453710 f i collector_static:file_collector_impl.obj
 0001:00052740       ??0?$vector@V?$_Iterator@$00@?$list@U?$pair@$$CBUtwo_string_key_t@FileCollectorImpl@collector@tls@@PAVFileNode@234@@std@@V?$allocator@U?$pair@$$CBUtwo_string_key_t@FileCollectorImpl@collector@tls@@PAVFileNode@234@@std@@@2@@std@@V?$allocator@V?$_Iterator@$00@?$list@U?$pair@$$CBUtwo_string_key_t@FileCollectorImpl@collector@tls@@PAVFileNode@234@@std@@V?$allocator@U?$pair@$$CBUtwo_string_key_t@FileCollectorImpl@collector@tls@@PAVFileNode@234@@std@@@2@@std@@@3@@std@@QAE@IABV?$_Iterator@$00@?$list@U?$pair@$$CBUtwo_string_key_t@FileCollectorImpl@collector@tls@@PAVFileNode@234@@std@@V?$allocator@U?$pair@$$CBUtwo_string_key_t@FileCollectorImpl@collector@tls@@PAVFileNode@234@@std@@@2@@1@ABV?$allocator@V?$_Iterator@$00@?$list@U?$pair@$$CBUtwo_string_key_t@FileCollectorImpl@collector@tls@@PAVFileNode@234@@std@@V?$allocator@U?$pair@$$CBUtwo_string_key_t@FileCollectorImpl@collector@tls@@PAVFileNode@234@@std@@@2@@std@@@1@@Z 00453740 f i collector_static:file_collector_impl.obj
 0001:00052790       ?resize@?$vector@V?$_Iterator@$00@?$list@U?$pair@$$CBUtwo_string_key_t@FileCollectorImpl@collector@tls@@PAVFileNode@234@@std@@V?$allocator@U?$pair@$$CBUtwo_string_key_t@FileCollectorImpl@collector@tls@@PAVFileNode@234@@std@@@2@@std@@V?$allocator@V?$_Iterator@$00@?$list@U?$pair@$$CBUtwo_string_key_t@FileCollectorImpl@collector@tls@@PAVFileNode@234@@std@@V?$allocator@U?$pair@$$CBUtwo_string_key_t@FileCollectorImpl@collector@tls@@PAVFileNode@234@@std@@@2@@std@@@3@@std@@QAEXIV?$_Iterator@$00@?$list@U?$pair@$$CBUtwo_string_key_t@FileCollectorImpl@collector@tls@@PAVFileNode@234@@std@@V?$allocator@U?$pair@$$CBUtwo_string_key_t@FileCollectorImpl@collector@tls@@PAVFileNode@234@@std@@@2@@2@@Z 00453790 f i collector_static:file_collector_impl.obj
 0001:00052850       ?size@?$vector@V?$_Iterator@$00@?$list@U?$pair@$$CBUtwo_string_key_t@FileCollectorImpl@collector@tls@@PAVFileNode@234@@std@@V?$allocator@U?$pair@$$CBUtwo_string_key_t@FileCollectorImpl@collector@tls@@PAVFileNode@234@@std@@@2@@std@@V?$allocator@V?$_Iterator@$00@?$list@U?$pair@$$CBUtwo_string_key_t@FileCollectorImpl@collector@tls@@PAVFileNode@234@@std@@V?$allocator@U?$pair@$$CBUtwo_string_key_t@FileCollectorImpl@collector@tls@@PAVFileNode@234@@std@@@2@@std@@@3@@std@@QBEIXZ 00453850 f i collector_static:file_collector_impl.obj
 0001:000528a0       ??A?$vector@V?$_Iterator@$00@?$list@U?$pair@$$CBUtwo_string_key_t@FileCollectorImpl@collector@tls@@PAVFileNode@234@@std@@V?$allocator@U?$pair@$$CBUtwo_string_key_t@FileCollectorImpl@collector@tls@@PAVFileNode@234@@std@@@2@@std@@V?$allocator@V?$_Iterator@$00@?$list@U?$pair@$$CBUtwo_string_key_t@FileCollectorImpl@collector@tls@@PAVFileNode@234@@std@@V?$allocator@U?$pair@$$CBUtwo_string_key_t@FileCollectorImpl@collector@tls@@PAVFileNode@234@@std@@@2@@std@@@3@@std@@QAEAAV?$_Iterator@$00@?$list@U?$pair@$$CBUtwo_string_key_t@FileCollectorImpl@collector@tls@@PAVFileNode@234@@std@@V?$allocator@U?$pair@$$CBUtwo_string_key_t@FileCollectorImpl@collector@tls@@PAVFileNode@234@@std@@@2@@1@I@Z 004538a0 f i collector_static:file_collector_impl.obj
 0001:00052990       ?_Assign_n@?$vector@V?$_Iterator@$00@?$list@U?$pair@$$CBUtwo_string_key_t@FileCollectorImpl@collector@tls@@PAVFileNode@234@@std@@V?$allocator@U?$pair@$$CBUtwo_string_key_t@FileCollectorImpl@collector@tls@@PAVFileNode@234@@std@@@2@@std@@V?$allocator@V?$_Iterator@$00@?$list@U?$pair@$$CBUtwo_string_key_t@FileCollectorImpl@collector@tls@@PAVFileNode@234@@std@@V?$allocator@U?$pair@$$CBUtwo_string_key_t@FileCollectorImpl@collector@tls@@PAVFileNode@234@@std@@@2@@std@@@3@@std@@IAEXIABV?$_Iterator@$00@?$list@U?$pair@$$CBUtwo_string_key_t@FileCollectorImpl@collector@tls@@PAVFileNode@234@@std@@V?$allocator@U?$pair@$$CBUtwo_string_key_t@FileCollectorImpl@collector@tls@@PAVFileNode@234@@std@@@2@@2@@Z 00453990 f i collector_static:file_collector_impl.obj
 0001:00052a50       ?_Tidy@?$vector@V?$_Iterator@$00@?$list@U?$pair@$$CBUtwo_string_key_t@FileCollectorImpl@collector@tls@@PAVFileNode@234@@std@@V?$allocator@U?$pair@$$CBUtwo_string_key_t@FileCollectorImpl@collector@tls@@PAVFileNode@234@@std@@@2@@std@@V?$allocator@V?$_Iterator@$00@?$list@U?$pair@$$CBUtwo_string_key_t@FileCollectorImpl@collector@tls@@PAVFileNode@234@@std@@V?$allocator@U?$pair@$$CBUtwo_string_key_t@FileCollectorImpl@collector@tls@@PAVFileNode@234@@std@@@2@@std@@@3@@std@@IAEXXZ 00453a50 f i collector_static:file_collector_impl.obj
 0001:00052ae0       ?_Get_iter_from_vec@?$_Hash@V?$_Hmap_traits@IPAVFileNode@FileCollectorImpl@collector@tls@@V?$hash_compare@IU?$less@I@std@@@stdext@@V?$allocator@U?$pair@$$CBIPAVFileNode@FileCollectorImpl@collector@tls@@@std@@@std@@$0A@@stdext@@@stdext@@QBE?AV?$_Iterator@$00@?$list@U?$pair@$$CBIPAVFileNode@FileCollectorImpl@collector@tls@@@std@@V?$allocator@U?$pair@$$CBIPAVFileNode@FileCollectorImpl@collector@tls@@@std@@@2@@std@@ABV345@@Z 00453ae0 f i collector_static:file_collector_impl.obj
 0001:00052b10       ?size@?$_Hash@V?$_Hmap_traits@IPAVFileNode@FileCollectorImpl@collector@tls@@V?$hash_compare@IU?$less@I@std@@@stdext@@V?$allocator@U?$pair@$$CBIPAVFileNode@FileCollectorImpl@collector@tls@@@std@@@std@@$0A@@stdext@@@stdext@@QBEIXZ 00453b10 f i collector_static:file_collector_impl.obj
 0001:00052b40       ?_Hashval@?$_Hash@V?$_Hmap_traits@IPAVFileNode@FileCollectorImpl@collector@tls@@V?$hash_compare@IU?$less@I@std@@@stdext@@V?$allocator@U?$pair@$$CBIPAVFileNode@FileCollectorImpl@collector@tls@@@std@@@std@@$0A@@stdext@@@stdext@@IBEIABI@Z 00453b40 f i collector_static:file_collector_impl.obj
 0001:00052ba0       ??0?$_Hmap_traits@IPAVFileNode@FileCollectorImpl@collector@tls@@V?$hash_compare@IU?$less@I@std@@@stdext@@V?$allocator@U?$pair@$$CBIPAVFileNode@FileCollectorImpl@collector@tls@@@std@@@std@@$0A@@stdext@@QAE@ABV?$hash_compare@IU?$less@I@std@@@1@@Z 00453ba0 f i collector_static:file_collector_impl.obj
 0001:00052be0       ?_Kfn@?$_Hmap_traits@IPAVFileNode@FileCollectorImpl@collector@tls@@V?$hash_compare@IU?$less@I@std@@@stdext@@V?$allocator@U?$pair@$$CBIPAVFileNode@FileCollectorImpl@collector@tls@@@std@@@std@@$0A@@stdext@@SAABIABU?$pair@$$CBIPAVFileNode@FileCollectorImpl@collector@tls@@@std@@@Z 00453be0 f i collector_static:file_collector_impl.obj
 0001:00052bf0       ??R?$hash_compare@IU?$less@I@std@@@stdext@@QBEIABI@Z 00453bf0 f i collector_static:file_collector_impl.obj
 0001:00052cb0       ??R?$hash_compare@IU?$less@I@std@@@stdext@@QBE_NABI0@Z 00453cb0 f i collector_static:file_collector_impl.obj
 0001:00052ce0       ?_Nextnode@?$list@U?$pair@$$CBIPAVFileNode@FileCollectorImpl@collector@tls@@@std@@V?$allocator@U?$pair@$$CBIPAVFileNode@FileCollectorImpl@collector@tls@@@std@@@2@@std@@KAAAPAU_Node@?$_List_nod@U?$pair@$$CBIPAVFileNode@FileCollectorImpl@collector@tls@@@std@@V?$allocator@U?$pair@$$CBIPAVFileNode@FileCollectorImpl@collector@tls@@@std@@@2@@2@PAU342@@Z 00453ce0 f i collector_static:file_collector_impl.obj
 0001:00052cf0       ?_Prevnode@?$list@U?$pair@$$CBIPAVFileNode@FileCollectorImpl@collector@tls@@@std@@V?$allocator@U?$pair@$$CBIPAVFileNode@FileCollectorImpl@collector@tls@@@std@@@2@@std@@KAAAPAU_Node@?$_List_nod@U?$pair@$$CBIPAVFileNode@FileCollectorImpl@collector@tls@@@std@@V?$allocator@U?$pair@$$CBIPAVFileNode@FileCollectorImpl@collector@tls@@@std@@@2@@2@PAU342@@Z 00453cf0 f i collector_static:file_collector_impl.obj
 0001:00052d00       ??0?$list@U?$pair@$$CBIPAVFileNode@FileCollectorImpl@collector@tls@@@std@@V?$allocator@U?$pair@$$CBIPAVFileNode@FileCollectorImpl@collector@tls@@@std@@@2@@std@@QAE@ABV?$allocator@U?$pair@$$CBIPAVFileNode@FileCollectorImpl@collector@tls@@@std@@@1@@Z 00453d00 f i collector_static:file_collector_impl.obj
 0001:00052d60       ?insert@?$list@U?$pair@$$CBIPAVFileNode@FileCollectorImpl@collector@tls@@@std@@V?$allocator@U?$pair@$$CBIPAVFileNode@FileCollectorImpl@collector@tls@@@std@@@2@@std@@QAE?AV?$_Iterator@$00@12@V312@ABU?$pair@$$CBIPAVFileNode@FileCollectorImpl@collector@tls@@@2@@Z 00453d60 f i collector_static:file_collector_impl.obj
 0001:00052dc0       ?_Splice@?$list@U?$pair@$$CBIPAVFileNode@FileCollectorImpl@collector@tls@@@std@@V?$allocator@U?$pair@$$CBIPAVFileNode@FileCollectorImpl@collector@tls@@@std@@@2@@std@@QAEXV?$_Iterator@$00@12@AAV12@00I_N@Z 00453dc0 f i collector_static:file_collector_impl.obj
 0001:00053050       ?_Tidy@?$list@U?$pair@$$CBIPAVFileNode@FileCollectorImpl@collector@tls@@@std@@V?$allocator@U?$pair@$$CBIPAVFileNode@FileCollectorImpl@collector@tls@@@std@@@2@@std@@IAEXXZ 00454050 f i collector_static:file_collector_impl.obj
 0001:000530d0       ?_Orphan_ptr@?$list@U?$pair@$$CBIPAVFileNode@FileCollectorImpl@collector@tls@@@std@@V?$allocator@U?$pair@$$CBIPAVFileNode@FileCollectorImpl@collector@tls@@@std@@@2@@std@@IBEXAAV12@PAU_Node@?$_List_nod@U?$pair@$$CBIPAVFileNode@FileCollectorImpl@collector@tls@@@std@@V?$allocator@U?$pair@$$CBIPAVFileNode@FileCollectorImpl@collector@tls@@@std@@@2@@2@@Z 004540d0 f i collector_static:file_collector_impl.obj
 0001:000531a0       ?deallocate@?$allocator@U_Node@?$_List_nod@U?$pair@$$CBIPAVFileNode@FileCollectorImpl@collector@tls@@@std@@V?$allocator@U?$pair@$$CBIPAVFileNode@FileCollectorImpl@collector@tls@@@std@@@2@@std@@@std@@QAEXPAU_Node@?$_List_nod@U?$pair@$$CBIPAVFileNode@FileCollectorImpl@collector@tls@@@std@@V?$allocator@U?$pair@$$CBIPAVFileNode@FileCollectorImpl@collector@tls@@@std@@@2@@2@I@Z 004541a0 f i collector_static:file_collector_impl.obj
 0001:000531d0       ?destroy@?$allocator@U_Node@?$_List_nod@U?$pair@$$CBIPAVFileNode@FileCollectorImpl@collector@tls@@@std@@V?$allocator@U?$pair@$$CBIPAVFileNode@FileCollectorImpl@collector@tls@@@std@@@2@@std@@@std@@QAEXPAU_Node@?$_List_nod@U?$pair@$$CBIPAVFileNode@FileCollectorImpl@collector@tls@@@std@@V?$allocator@U?$pair@$$CBIPAVFileNode@FileCollectorImpl@collector@tls@@@std@@@2@@2@@Z 004541d0 f i collector_static:file_collector_impl.obj
 0001:00053200       ??0?$vector@V?$_Iterator@$00@?$list@U?$pair@$$CBIPAVFileNode@FileCollectorImpl@collector@tls@@@std@@V?$allocator@U?$pair@$$CBIPAVFileNode@FileCollectorImpl@collector@tls@@@std@@@2@@std@@V?$allocator@V?$_Iterator@$00@?$list@U?$pair@$$CBIPAVFileNode@FileCollectorImpl@collector@tls@@@std@@V?$allocator@U?$pair@$$CBIPAVFileNode@FileCollectorImpl@collector@tls@@@std@@@2@@std@@@3@@std@@QAE@IABV?$_Iterator@$00@?$list@U?$pair@$$CBIPAVFileNode@FileCollectorImpl@collector@tls@@@std@@V?$allocator@U?$pair@$$CBIPAVFileNode@FileCollectorImpl@collector@tls@@@std@@@2@@1@ABV?$allocator@V?$_Iterator@$00@?$list@U?$pair@$$CBIPAVFileNode@FileCollectorImpl@collector@tls@@@std@@V?$allocator@U?$pair@$$CBIPAVFileNode@FileCollectorImpl@collector@tls@@@std@@@2@@std@@@1@@Z 00454200 f i collector_static:file_collector_impl.obj
 0001:00053250       ?resize@?$vector@V?$_Iterator@$00@?$list@U?$pair@$$CBIPAVFileNode@FileCollectorImpl@collector@tls@@@std@@V?$allocator@U?$pair@$$CBIPAVFileNode@FileCollectorImpl@collector@tls@@@std@@@2@@std@@V?$allocator@V?$_Iterator@$00@?$list@U?$pair@$$CBIPAVFileNode@FileCollectorImpl@collector@tls@@@std@@V?$allocator@U?$pair@$$CBIPAVFileNode@FileCollectorImpl@collector@tls@@@std@@@2@@std@@@3@@std@@QAEXIV?$_Iterator@$00@?$list@U?$pair@$$CBIPAVFileNode@FileCollectorImpl@collector@tls@@@std@@V?$allocator@U?$pair@$$CBIPAVFileNode@FileCollectorImpl@collector@tls@@@std@@@2@@2@@Z 00454250 f i collector_static:file_collector_impl.obj
 0001:00053310       ?size@?$vector@V?$_Iterator@$00@?$list@U?$pair@$$CBIPAVFileNode@FileCollectorImpl@collector@tls@@@std@@V?$allocator@U?$pair@$$CBIPAVFileNode@FileCollectorImpl@collector@tls@@@std@@@2@@std@@V?$allocator@V?$_Iterator@$00@?$list@U?$pair@$$CBIPAVFileNode@FileCollectorImpl@collector@tls@@@std@@V?$allocator@U?$pair@$$CBIPAVFileNode@FileCollectorImpl@collector@tls@@@std@@@2@@std@@@3@@std@@QBEIXZ 00454310 f i collector_static:file_collector_impl.obj
 0001:00053360       ??A?$vector@V?$_Iterator@$00@?$list@U?$pair@$$CBIPAVFileNode@FileCollectorImpl@collector@tls@@@std@@V?$allocator@U?$pair@$$CBIPAVFileNode@FileCollectorImpl@collector@tls@@@std@@@2@@std@@V?$allocator@V?$_Iterator@$00@?$list@U?$pair@$$CBIPAVFileNode@FileCollectorImpl@collector@tls@@@std@@V?$allocator@U?$pair@$$CBIPAVFileNode@FileCollectorImpl@collector@tls@@@std@@@2@@std@@@3@@std@@QAEAAV?$_Iterator@$00@?$list@U?$pair@$$CBIPAVFileNode@FileCollectorImpl@collector@tls@@@std@@V?$allocator@U?$pair@$$CBIPAVFileNode@FileCollectorImpl@collector@tls@@@std@@@2@@1@I@Z 00454360 f i collector_static:file_collector_impl.obj
 0001:00053450       ?_Assign_n@?$vector@V?$_Iterator@$00@?$list@U?$pair@$$CBIPAVFileNode@FileCollectorImpl@collector@tls@@@std@@V?$allocator@U?$pair@$$CBIPAVFileNode@FileCollectorImpl@collector@tls@@@std@@@2@@std@@V?$allocator@V?$_Iterator@$00@?$list@U?$pair@$$CBIPAVFileNode@FileCollectorImpl@collector@tls@@@std@@V?$allocator@U?$pair@$$CBIPAVFileNode@FileCollectorImpl@collector@tls@@@std@@@2@@std@@@3@@std@@IAEXIABV?$_Iterator@$00@?$list@U?$pair@$$CBIPAVFileNode@FileCollectorImpl@collector@tls@@@std@@V?$allocator@U?$pair@$$CBIPAVFileNode@FileCollectorImpl@collector@tls@@@std@@@2@@2@@Z 00454450 f i collector_static:file_collector_impl.obj
 0001:00053510       ?_Tidy@?$vector@V?$_Iterator@$00@?$list@U?$pair@$$CBIPAVFileNode@FileCollectorImpl@collector@tls@@@std@@V?$allocator@U?$pair@$$CBIPAVFileNode@FileCollectorImpl@collector@tls@@@std@@@2@@std@@V?$allocator@V?$_Iterator@$00@?$list@U?$pair@$$CBIPAVFileNode@FileCollectorImpl@collector@tls@@@std@@V?$allocator@U?$pair@$$CBIPAVFileNode@FileCollectorImpl@collector@tls@@@std@@@2@@std@@@3@@std@@IAEXXZ 00454510 f i collector_static:file_collector_impl.obj
 0001:000535a0       ??0?$_Const_iterator@$00@?$list@PAVCollectRule@FileCollectorImpl@collector@tls@@V?$allocator@PAVCollectRule@FileCollectorImpl@collector@tls@@@std@@@std@@QAE@PAU_Node@?$_List_nod@PAVCollectRule@FileCollectorImpl@collector@tls@@V?$allocator@PAVCollectRule@FileCollectorImpl@collector@tls@@@std@@@2@PBV12@@Z 004545a0 f i collector_static:file_collector_impl.obj
 0001:000535e0       ?_Mynode@?$_Const_iterator@$00@?$list@PAVCollectRule@FileCollectorImpl@collector@tls@@V?$allocator@PAVCollectRule@FileCollectorImpl@collector@tls@@@std@@@std@@QBEPAU_Node@?$_List_nod@PAVCollectRule@FileCollectorImpl@collector@tls@@V?$allocator@PAVCollectRule@FileCollectorImpl@collector@tls@@@std@@@3@XZ 004545e0 f i collector_static:file_collector_impl.obj
 0001:00053600       ?_Compat@?$_Const_iterator@$00@?$list@PAVCollectRule@FileCollectorImpl@collector@tls@@V?$allocator@PAVCollectRule@FileCollectorImpl@collector@tls@@@std@@@std@@QBEXABV123@@Z 00454600 f i collector_static:file_collector_impl.obj
 0001:000536a0       ??0?$_Iterator@$00@?$list@U?$pair@$$CBIPAVFileNode@FileCollectorImpl@collector@tls@@@std@@V?$allocator@U?$pair@$$CBIPAVFileNode@FileCollectorImpl@collector@tls@@@std@@@2@@std@@QAE@XZ 004546a0 f i collector_static:file_collector_impl.obj
 0001:000536d0       ??0?$_Iterator@$00@?$list@U?$pair@$$CBIPAVFileNode@FileCollectorImpl@collector@tls@@@std@@V?$allocator@U?$pair@$$CBIPAVFileNode@FileCollectorImpl@collector@tls@@@std@@@2@@std@@QAE@PAU_Node@?$_List_nod@U?$pair@$$CBIPAVFileNode@FileCollectorImpl@collector@tls@@@std@@V?$allocator@U?$pair@$$CBIPAVFileNode@FileCollectorImpl@collector@tls@@@std@@@2@@2@PBV12@@Z 004546d0 f i collector_static:file_collector_impl.obj
 0001:00053710       ??E?$_Iterator@$00@?$list@U?$pair@$$CBIPAVFileNode@FileCollectorImpl@collector@tls@@@std@@V?$allocator@U?$pair@$$CBIPAVFileNode@FileCollectorImpl@collector@tls@@@std@@@2@@std@@QAEAAV012@XZ 00454710 f i collector_static:file_collector_impl.obj
 0001:00053740       ??F?$_Iterator@$00@?$list@U?$pair@$$CBIPAVFileNode@FileCollectorImpl@collector@tls@@@std@@V?$allocator@U?$pair@$$CBIPAVFileNode@FileCollectorImpl@collector@tls@@@std@@@2@@std@@QAEAAV012@XZ 00454740 f i collector_static:file_collector_impl.obj
 0001:00053770       ??D?$_Const_iterator@$00@?$list@U?$pair@$$CBIPAVFileNode@FileCollectorImpl@collector@tls@@@std@@V?$allocator@U?$pair@$$CBIPAVFileNode@FileCollectorImpl@collector@tls@@@std@@@2@@std@@QBEABU?$pair@$$CBIPAVFileNode@FileCollectorImpl@collector@tls@@@2@XZ 00454770 f i collector_static:file_collector_impl.obj
 0001:00053820       ??0?$_Iterator@$00@?$list@U?$pair@$$CBUtwo_string_key_t@FileCollectorImpl@collector@tls@@PAVFileNode@234@@std@@V?$allocator@U?$pair@$$CBUtwo_string_key_t@FileCollectorImpl@collector@tls@@PAVFileNode@234@@std@@@2@@std@@QAE@PAU_Node@?$_List_nod@U?$pair@$$CBUtwo_string_key_t@FileCollectorImpl@collector@tls@@PAVFileNode@234@@std@@V?$allocator@U?$pair@$$CBUtwo_string_key_t@FileCollectorImpl@collector@tls@@PAVFileNode@234@@std@@@2@@2@PBV12@@Z 00454820 f i collector_static:file_collector_impl.obj
 0001:00053860       ??F?$_Iterator@$00@?$list@U?$pair@$$CBUtwo_string_key_t@FileCollectorImpl@collector@tls@@PAVFileNode@234@@std@@V?$allocator@U?$pair@$$CBUtwo_string_key_t@FileCollectorImpl@collector@tls@@PAVFileNode@234@@std@@@2@@std@@QAEAAV012@XZ 00454860 f i collector_static:file_collector_impl.obj
 0001:00053890       ??D?$_Const_iterator@$00@?$list@U?$pair@$$CBUtwo_string_key_t@FileCollectorImpl@collector@tls@@PAVFileNode@234@@std@@V?$allocator@U?$pair@$$CBUtwo_string_key_t@FileCollectorImpl@collector@tls@@PAVFileNode@234@@std@@@2@@std@@QBEABU?$pair@$$CBUtwo_string_key_t@FileCollectorImpl@collector@tls@@PAVFileNode@234@@2@XZ 00454890 f i collector_static:file_collector_impl.obj
 0001:00053940       ??0?$pair@V?$_Iterator@$00@?$list@U?$pair@$$CBUtwo_string_key_t@FileCollectorImpl@collector@tls@@PAVFileNode@234@@std@@V?$allocator@U?$pair@$$CBUtwo_string_key_t@FileCollectorImpl@collector@tls@@PAVFileNode@234@@std@@@2@@std@@_N@std@@QAE@ABV?$_Iterator@$00@?$list@U?$pair@$$CBUtwo_string_key_t@FileCollectorImpl@collector@tls@@PAVFileNode@234@@std@@V?$allocator@U?$pair@$$CBUtwo_string_key_t@FileCollectorImpl@collector@tls@@PAVFileNode@234@@std@@@2@@1@AB_N@Z 00454940 f i collector_static:file_collector_impl.obj
 0001:00053980       ??0?$pair@V?$_Iterator@$00@?$list@U?$pair@$$CBIPAVFileNode@FileCollectorImpl@collector@tls@@@std@@V?$allocator@U?$pair@$$CBIPAVFileNode@FileCollectorImpl@collector@tls@@@std@@@2@@std@@_N@std@@QAE@ABV?$_Iterator@$00@?$list@U?$pair@$$CBIPAVFileNode@FileCollectorImpl@collector@tls@@@std@@V?$allocator@U?$pair@$$CBIPAVFileNode@FileCollectorImpl@collector@tls@@@std@@@2@@1@AB_N@Z 00454980 f i collector_static:file_collector_impl.obj
 0001:000539c0       ??1?$_Vector_iterator@V?$_Iterator@$00@?$list@U?$pair@$$CBUtwo_string_key_t@FileCollectorImpl@collector@tls@@PAVFileNode@234@@std@@V?$allocator@U?$pair@$$CBUtwo_string_key_t@FileCollectorImpl@collector@tls@@PAVFileNode@234@@std@@@2@@std@@V?$allocator@V?$_Iterator@$00@?$list@U?$pair@$$CBUtwo_string_key_t@FileCollectorImpl@collector@tls@@PAVFileNode@234@@std@@V?$allocator@U?$pair@$$CBUtwo_string_key_t@FileCollectorImpl@collector@tls@@PAVFileNode@234@@std@@@2@@std@@@3@@std@@QAE@XZ 004549c0 f i collector_static:file_collector_impl.obj
 0001:000539f0       ??1?$_Vector_iterator@V?$_Iterator@$00@?$list@U?$pair@$$CBIPAVFileNode@FileCollectorImpl@collector@tls@@@std@@V?$allocator@U?$pair@$$CBIPAVFileNode@FileCollectorImpl@collector@tls@@@std@@@2@@std@@V?$allocator@V?$_Iterator@$00@?$list@U?$pair@$$CBIPAVFileNode@FileCollectorImpl@collector@tls@@@std@@V?$allocator@U?$pair@$$CBIPAVFileNode@FileCollectorImpl@collector@tls@@@std@@@2@@std@@@3@@std@@QAE@XZ 004549f0 f i collector_static:file_collector_impl.obj
 0001:00053a20       ??1?$_Vector_const_iterator@V?$_Iterator@$00@?$list@U?$pair@$$CBUtwo_string_key_t@FileCollectorImpl@collector@tls@@PAVFileNode@234@@std@@V?$allocator@U?$pair@$$CBUtwo_string_key_t@FileCollectorImpl@collector@tls@@PAVFileNode@234@@std@@@2@@std@@V?$allocator@V?$_Iterator@$00@?$list@U?$pair@$$CBUtwo_string_key_t@FileCollectorImpl@collector@tls@@PAVFileNode@234@@std@@V?$allocator@U?$pair@$$CBUtwo_string_key_t@FileCollectorImpl@collector@tls@@PAVFileNode@234@@std@@@2@@std@@@3@@std@@QAE@XZ 00454a20 f i collector_static:file_collector_impl.obj
 0001:00053a50       ??1?$_Vector_const_iterator@V?$_Iterator@$00@?$list@U?$pair@$$CBIPAVFileNode@FileCollectorImpl@collector@tls@@@std@@V?$allocator@U?$pair@$$CBIPAVFileNode@FileCollectorImpl@collector@tls@@@std@@@2@@std@@V?$allocator@V?$_Iterator@$00@?$list@U?$pair@$$CBIPAVFileNode@FileCollectorImpl@collector@tls@@@std@@V?$allocator@U?$pair@$$CBIPAVFileNode@FileCollectorImpl@collector@tls@@@std@@@2@@std@@@3@@std@@QAE@XZ 00454a50 f i collector_static:file_collector_impl.obj
 0001:00053a80       ??1?$_Ranit@V?$_Iterator@$00@?$list@U?$pair@$$CBUtwo_string_key_t@FileCollectorImpl@collector@tls@@PAVFileNode@234@@std@@V?$allocator@U?$pair@$$CBUtwo_string_key_t@FileCollectorImpl@collector@tls@@PAVFileNode@234@@std@@@2@@std@@HPBV123@ABV123@@std@@QAE@XZ 00454a80 f i collector_static:file_collector_impl.obj
 0001:00053ab0       ??1?$_Ranit@V?$_Iterator@$00@?$list@U?$pair@$$CBIPAVFileNode@FileCollectorImpl@collector@tls@@@std@@V?$allocator@U?$pair@$$CBIPAVFileNode@FileCollectorImpl@collector@tls@@@std@@@2@@std@@HPBV123@ABV123@@std@@QAE@XZ 00454ab0 f i collector_static:file_collector_impl.obj
 0001:00053ae0       ?max_size@?$list@PAVCollectRule@FileCollectorImpl@collector@tls@@V?$allocator@PAVCollectRule@FileCollectorImpl@collector@tls@@@std@@@std@@QBEIXZ 00454ae0 f i collector_static:file_collector_impl.obj
 0001:00053b10       ??0?$_List_nod@PAVCollectRule@FileCollectorImpl@collector@tls@@V?$allocator@PAVCollectRule@FileCollectorImpl@collector@tls@@@std@@@std@@IAE@V?$allocator@PAVCollectRule@FileCollectorImpl@collector@tls@@@1@@Z 00454b10 f i collector_static:file_collector_impl.obj
 0001:00053b50       ?construct@?$allocator@PAVCollectRule@FileCollectorImpl@collector@tls@@@std@@QAEXPAPAVCollectRule@FileCollectorImpl@collector@tls@@ABQAV3456@@Z 00454b50 f i collector_static:file_collector_impl.obj
 0001:00053b80       ??0?$allocator@U?$pair@$$CBUtwo_string_key_t@FileCollectorImpl@collector@tls@@PAVFileNode@234@@std@@@std@@QAE@ABV01@@Z 00454b80 f i collector_static:file_collector_impl.obj
 0001:00053ba0       ?_Myval@?$list@U?$pair@$$CBUtwo_string_key_t@FileCollectorImpl@collector@tls@@PAVFileNode@234@@std@@V?$allocator@U?$pair@$$CBUtwo_string_key_t@FileCollectorImpl@collector@tls@@PAVFileNode@234@@std@@@2@@std@@KAAAU?$pair@$$CBUtwo_string_key_t@FileCollectorImpl@collector@tls@@PAVFileNode@234@@2@PAU_Node@?$_List_nod@U?$pair@$$CBUtwo_string_key_t@FileCollectorImpl@collector@tls@@PAVFileNode@234@@std@@V?$allocator@U?$pair@$$CBUtwo_string_key_t@FileCollectorImpl@collector@tls@@PAVFileNode@234@@std@@@2@@2@@Z 00454ba0 f i collector_static:file_collector_impl.obj
 0001:00053bb0       ?size@?$list@U?$pair@$$CBUtwo_string_key_t@FileCollectorImpl@collector@tls@@PAVFileNode@234@@std@@V?$allocator@U?$pair@$$CBUtwo_string_key_t@FileCollectorImpl@collector@tls@@PAVFileNode@234@@std@@@2@@std@@QBEIXZ 00454bb0 f i collector_static:file_collector_impl.obj
 0001:00053bd0       ?_Insert@?$list@U?$pair@$$CBUtwo_string_key_t@FileCollectorImpl@collector@tls@@PAVFileNode@234@@std@@V?$allocator@U?$pair@$$CBUtwo_string_key_t@FileCollectorImpl@collector@tls@@PAVFileNode@234@@std@@@2@@std@@QAEXV?$_Iterator@$00@12@ABU?$pair@$$CBUtwo_string_key_t@FileCollectorImpl@collector@tls@@PAVFileNode@234@@2@@Z 00454bd0 f i collector_static:file_collector_impl.obj
 0001:00053c90       ?erase@?$list@U?$pair@$$CBUtwo_string_key_t@FileCollectorImpl@collector@tls@@PAVFileNode@234@@std@@V?$allocator@U?$pair@$$CBUtwo_string_key_t@FileCollectorImpl@collector@tls@@PAVFileNode@234@@std@@@2@@std@@QAE?AV?$_Iterator@$00@12@V312@0@Z 00454c90 f i collector_static:file_collector_impl.obj
 0001:00053df0       ?_Buynode@?$list@U?$pair@$$CBUtwo_string_key_t@FileCollectorImpl@collector@tls@@PAVFileNode@234@@std@@V?$allocator@U?$pair@$$CBUtwo_string_key_t@FileCollectorImpl@collector@tls@@PAVFileNode@234@@std@@@2@@std@@IAEPAU_Node@?$_List_nod@U?$pair@$$CBUtwo_string_key_t@FileCollectorImpl@collector@tls@@PAVFileNode@234@@std@@V?$allocator@U?$pair@$$CBUtwo_string_key_t@FileCollectorImpl@collector@tls@@PAVFileNode@234@@std@@@2@@2@XZ 00454df0 f i collector_static:file_collector_impl.obj
 0001:00053ee0       ?_Incsize@?$list@U?$pair@$$CBUtwo_string_key_t@FileCollectorImpl@collector@tls@@PAVFileNode@234@@std@@V?$allocator@U?$pair@$$CBUtwo_string_key_t@FileCollectorImpl@collector@tls@@PAVFileNode@234@@std@@@2@@std@@IAEXI@Z 00454ee0 f i collector_static:file_collector_impl.obj
 0001:00053f60       ??0?$_List_val@U?$pair@$$CBUtwo_string_key_t@FileCollectorImpl@collector@tls@@PAVFileNode@234@@std@@V?$allocator@U?$pair@$$CBUtwo_string_key_t@FileCollectorImpl@collector@tls@@PAVFileNode@234@@std@@@2@@std@@QAE@V?$allocator@U?$pair@$$CBUtwo_string_key_t@FileCollectorImpl@collector@tls@@PAVFileNode@234@@std@@@1@@Z 00454f60 f i collector_static:file_collector_impl.obj
 0001:00053fb0       ?destroy@?$allocator@PAU_Node@?$_List_nod@U?$pair@$$CBUtwo_string_key_t@FileCollectorImpl@collector@tls@@PAVFileNode@234@@std@@V?$allocator@U?$pair@$$CBUtwo_string_key_t@FileCollectorImpl@collector@tls@@PAVFileNode@234@@std@@@2@@std@@@std@@QAEXPAPAU_Node@?$_List_nod@U?$pair@$$CBUtwo_string_key_t@FileCollectorImpl@collector@tls@@PAVFileNode@234@@std@@V?$allocator@U?$pair@$$CBUtwo_string_key_t@FileCollectorImpl@collector@tls@@PAVFileNode@234@@std@@@2@@2@@Z 00454fb0 f i collector_static:file_collector_impl.obj
 0001:00053fe0       ?_Construct_n@?$vector@V?$_Iterator@$00@?$list@U?$pair@$$CBUtwo_string_key_t@FileCollectorImpl@collector@tls@@PAVFileNode@234@@std@@V?$allocator@U?$pair@$$CBUtwo_string_key_t@FileCollectorImpl@collector@tls@@PAVFileNode@234@@std@@@2@@std@@V?$allocator@V?$_Iterator@$00@?$list@U?$pair@$$CBUtwo_string_key_t@FileCollectorImpl@collector@tls@@PAVFileNode@234@@std@@V?$allocator@U?$pair@$$CBUtwo_string_key_t@FileCollectorImpl@collector@tls@@PAVFileNode@234@@std@@@2@@std@@@3@@std@@QAEXIABV?$_Iterator@$00@?$list@U?$pair@$$CBUtwo_string_key_t@FileCollectorImpl@collector@tls@@PAVFileNode@234@@std@@V?$allocator@U?$pair@$$CBUtwo_string_key_t@FileCollectorImpl@collector@tls@@PAVFileNode@234@@std@@@2@@2@@Z 00454fe0 f i collector_static:file_collector_impl.obj
 0001:00054040       ?begin@?$vector@V?$_Iterator@$00@?$list@U?$pair@$$CBUtwo_string_key_t@FileCollectorImpl@collector@tls@@PAVFileNode@234@@std@@V?$allocator@U?$pair@$$CBUtwo_string_key_t@FileCollectorImpl@collector@tls@@PAVFileNode@234@@std@@@2@@std@@V?$allocator@V?$_Iterator@$00@?$list@U?$pair@$$CBUtwo_string_key_t@FileCollectorImpl@collector@tls@@PAVFileNode@234@@std@@V?$allocator@U?$pair@$$CBUtwo_string_key_t@FileCollectorImpl@collector@tls@@PAVFileNode@234@@std@@@2@@std@@@3@@std@@QAE?AV?$_Vector_iterator@V?$_Iterator@$00@?$list@U?$pair@$$CBUtwo_string_key_t@FileCollectorImpl@collector@tls@@PAVFileNode@234@@std@@V?$allocator@U?$pair@$$CBUtwo_string_key_t@FileCollectorImpl@collector@tls@@PAVFileNode@234@@std@@@2@@std@@V?$allocator@V?$_Iterator@$00@?$list@U?$pair@$$CBUtwo_string_key_t@FileCollectorImpl@collector@tls@@PAVFileNode@234@@std@@V?$allocator@U?$pair@$$CBUtwo_string_key_t@FileCollectorImpl@collector@tls@@PAVFileNode@234@@std@@@2@@std@@@3@@2@XZ 00455040 f i collector_static:file_collector_impl.obj
 0001:00054080       ?end@?$vector@V?$_Iterator@$00@?$list@U?$pair@$$CBUtwo_string_key_t@FileCollectorImpl@collector@tls@@PAVFileNode@234@@std@@V?$allocator@U?$pair@$$CBUtwo_string_key_t@FileCollectorImpl@collector@tls@@PAVFileNode@234@@std@@@2@@std@@V?$allocator@V?$_Iterator@$00@?$list@U?$pair@$$CBUtwo_string_key_t@FileCollectorImpl@collector@tls@@PAVFileNode@234@@std@@V?$allocator@U?$pair@$$CBUtwo_string_key_t@FileCollectorImpl@collector@tls@@PAVFileNode@234@@std@@@2@@std@@@3@@std@@QAE?AV?$_Vector_iterator@V?$_Iterator@$00@?$list@U?$pair@$$CBUtwo_string_key_t@FileCollectorImpl@collector@tls@@PAVFileNode@234@@std@@V?$allocator@U?$pair@$$CBUtwo_string_key_t@FileCollectorImpl@collector@tls@@PAVFileNode@234@@std@@@2@@std@@V?$allocator@V?$_Iterator@$00@?$list@U?$pair@$$CBUtwo_string_key_t@FileCollectorImpl@collector@tls@@PAVFileNode@234@@std@@V?$allocator@U?$pair@$$CBUtwo_string_key_t@FileCollectorImpl@collector@tls@@PAVFileNode@234@@std@@@2@@std@@@3@@2@XZ 00455080 f i collector_static:file_collector_impl.obj
 0001:000540c0       ?insert@?$vector@V?$_Iterator@$00@?$list@U?$pair@$$CBUtwo_string_key_t@FileCollectorImpl@collector@tls@@PAVFileNode@234@@std@@V?$allocator@U?$pair@$$CBUtwo_string_key_t@FileCollectorImpl@collector@tls@@PAVFileNode@234@@std@@@2@@std@@V?$allocator@V?$_Iterator@$00@?$list@U?$pair@$$CBUtwo_string_key_t@FileCollectorImpl@collector@tls@@PAVFileNode@234@@std@@V?$allocator@U?$pair@$$CBUtwo_string_key_t@FileCollectorImpl@collector@tls@@PAVFileNode@234@@std@@@2@@std@@@3@@std@@QAEXV?$_Vector_iterator@V?$_Iterator@$00@?$list@U?$pair@$$CBUtwo_string_key_t@FileCollectorImpl@collector@tls@@PAVFileNode@234@@std@@V?$allocator@U?$pair@$$CBUtwo_string_key_t@FileCollectorImpl@collector@tls@@PAVFileNode@234@@std@@@2@@std@@V?$allocator@V?$_Iterator@$00@?$list@U?$pair@$$CBUtwo_string_key_t@FileCollectorImpl@collector@tls@@PAVFileNode@234@@std@@V?$allocator@U?$pair@$$CBUtwo_string_key_t@FileCollectorImpl@collector@tls@@PAVFileNode@234@@std@@@2@@std@@@3@@2@IABV?$_Iterator@$00@?$list@U?$pair@$$CBUtwo_string_key_t@FileCollectorImpl@collector@tls@@PAVFileNode@234@@std@@V?$allocator@U?$pair@$$CBUtwo_string_key_t@FileCollectorImpl@collector@tls@@PAVFileNode@234@@std@@@2@@2@@Z 004550c0 f i collector_static:file_collector_impl.obj
 0001:00054110       ?erase@?$vector@V?$_Iterator@$00@?$list@U?$pair@$$CBUtwo_string_key_t@FileCollectorImpl@collector@tls@@PAVFileNode@234@@std@@V?$allocator@U?$pair@$$CBUtwo_string_key_t@FileCollectorImpl@collector@tls@@PAVFileNode@234@@std@@@2@@std@@V?$allocator@V?$_Iterator@$00@?$list@U?$pair@$$CBUtwo_string_key_t@FileCollectorImpl@collector@tls@@PAVFileNode@234@@std@@V?$allocator@U?$pair@$$CBUtwo_string_key_t@FileCollectorImpl@collector@tls@@PAVFileNode@234@@std@@@2@@std@@@3@@std@@QAE?AV?$_Vector_iterator@V?$_Iterator@$00@?$list@U?$pair@$$CBUtwo_string_key_t@FileCollectorImpl@collector@tls@@PAVFileNode@234@@std@@V?$allocator@U?$pair@$$CBUtwo_string_key_t@FileCollectorImpl@collector@tls@@PAVFileNode@234@@std@@@2@@std@@V?$allocator@V?$_Iterator@$00@?$list@U?$pair@$$CBUtwo_string_key_t@FileCollectorImpl@collector@tls@@PAVFileNode@234@@std@@V?$allocator@U?$pair@$$CBUtwo_string_key_t@FileCollectorImpl@collector@tls@@PAVFileNode@234@@std@@@2@@std@@@3@@2@V32@0@Z 00455110 f i collector_static:file_collector_impl.obj
 0001:00054210       ?_Destroy@?$vector@V?$_Iterator@$00@?$list@U?$pair@$$CBUtwo_string_key_t@FileCollectorImpl@collector@tls@@PAVFileNode@234@@std@@V?$allocator@U?$pair@$$CBUtwo_string_key_t@FileCollectorImpl@collector@tls@@PAVFileNode@234@@std@@@2@@std@@V?$allocator@V?$_Iterator@$00@?$list@U?$pair@$$CBUtwo_string_key_t@FileCollectorImpl@collector@tls@@PAVFileNode@234@@std@@V?$allocator@U?$pair@$$CBUtwo_string_key_t@FileCollectorImpl@collector@tls@@PAVFileNode@234@@std@@@2@@std@@@3@@std@@IAEXPAV?$_Iterator@$00@?$list@U?$pair@$$CBUtwo_string_key_t@FileCollectorImpl@collector@tls@@PAVFileNode@234@@std@@V?$allocator@U?$pair@$$CBUtwo_string_key_t@FileCollectorImpl@collector@tls@@PAVFileNode@234@@std@@@2@@2@0@Z 00455210 f i collector_static:file_collector_impl.obj
 0001:00054250       ?_Insert_n@?$vector@V?$_Iterator@$00@?$list@U?$pair@$$CBUtwo_string_key_t@FileCollectorImpl@collector@tls@@PAVFileNode@234@@std@@V?$allocator@U?$pair@$$CBUtwo_string_key_t@FileCollectorImpl@collector@tls@@PAVFileNode@234@@std@@@2@@std@@V?$allocator@V?$_Iterator@$00@?$list@U?$pair@$$CBUtwo_string_key_t@FileCollectorImpl@collector@tls@@PAVFileNode@234@@std@@V?$allocator@U?$pair@$$CBUtwo_string_key_t@FileCollectorImpl@collector@tls@@PAVFileNode@234@@std@@@2@@std@@@3@@std@@IAEXV?$_Vector_iterator@V?$_Iterator@$00@?$list@U?$pair@$$CBUtwo_string_key_t@FileCollectorImpl@collector@tls@@PAVFileNode@234@@std@@V?$allocator@U?$pair@$$CBUtwo_string_key_t@FileCollectorImpl@collector@tls@@PAVFileNode@234@@std@@@2@@std@@V?$allocator@V?$_Iterator@$00@?$list@U?$pair@$$CBUtwo_string_key_t@FileCollectorImpl@collector@tls@@PAVFileNode@234@@std@@V?$allocator@U?$pair@$$CBUtwo_string_key_t@FileCollectorImpl@collector@tls@@PAVFileNode@234@@std@@@2@@std@@@3@@2@IABV?$_Iterator@$00@?$list@U?$pair@$$CBUtwo_string_key_t@FileCollectorImpl@collector@tls@@PAVFileNode@234@@std@@V?$allocator@U?$pair@$$CBUtwo_string_key_t@FileCollectorImpl@collector@tls@@PAVFileNode@234@@std@@@2@@2@@Z 00455250 f i collector_static:file_collector_impl.obj
 0001:000545f0       ??0?$_Vector_val@V?$_Iterator@$00@?$list@U?$pair@$$CBUtwo_string_key_t@FileCollectorImpl@collector@tls@@PAVFileNode@234@@std@@V?$allocator@U?$pair@$$CBUtwo_string_key_t@FileCollectorImpl@collector@tls@@PAVFileNode@234@@std@@@2@@std@@V?$allocator@V?$_Iterator@$00@?$list@U?$pair@$$CBUtwo_string_key_t@FileCollectorImpl@collector@tls@@PAVFileNode@234@@std@@V?$allocator@U?$pair@$$CBUtwo_string_key_t@FileCollectorImpl@collector@tls@@PAVFileNode@234@@std@@@2@@std@@@3@@std@@IAE@V?$allocator@V?$_Iterator@$00@?$list@U?$pair@$$CBUtwo_string_key_t@FileCollectorImpl@collector@tls@@PAVFileNode@234@@std@@V?$allocator@U?$pair@$$CBUtwo_string_key_t@FileCollectorImpl@collector@tls@@PAVFileNode@234@@std@@@2@@std@@@1@@Z 004555f0 f i collector_static:file_collector_impl.obj
 0001:00054630       ??0?$allocator@V?$_Iterator@$00@?$list@U?$pair@$$CBUtwo_string_key_t@FileCollectorImpl@collector@tls@@PAVFileNode@234@@std@@V?$allocator@U?$pair@$$CBUtwo_string_key_t@FileCollectorImpl@collector@tls@@PAVFileNode@234@@std@@@2@@std@@@std@@QAE@ABV01@@Z 00455630 f i collector_static:file_collector_impl.obj
 0001:00054650       ?deallocate@?$allocator@V?$_Iterator@$00@?$list@U?$pair@$$CBUtwo_string_key_t@FileCollectorImpl@collector@tls@@PAVFileNode@234@@std@@V?$allocator@U?$pair@$$CBUtwo_string_key_t@FileCollectorImpl@collector@tls@@PAVFileNode@234@@std@@@2@@std@@@std@@QAEXPAV?$_Iterator@$00@?$list@U?$pair@$$CBUtwo_string_key_t@FileCollectorImpl@collector@tls@@PAVFileNode@234@@std@@V?$allocator@U?$pair@$$CBUtwo_string_key_t@FileCollectorImpl@collector@tls@@PAVFileNode@234@@std@@@2@@2@I@Z 00455650 f i collector_static:file_collector_impl.obj
 0001:00054680       ??0?$allocator@U?$pair@$$CBIPAVFileNode@FileCollectorImpl@collector@tls@@@std@@@std@@QAE@ABV01@@Z 00455680 f i collector_static:file_collector_impl.obj
 0001:000546a0       ??R?$less@I@std@@QBE_NABI0@Z 004556a0 f i collector_static:file_collector_impl.obj
 0001:000546d0       ?_Myval@?$list@U?$pair@$$CBIPAVFileNode@FileCollectorImpl@collector@tls@@@std@@V?$allocator@U?$pair@$$CBIPAVFileNode@FileCollectorImpl@collector@tls@@@std@@@2@@std@@KAAAU?$pair@$$CBIPAVFileNode@FileCollectorImpl@collector@tls@@@2@PAU_Node@?$_List_nod@U?$pair@$$CBIPAVFileNode@FileCollectorImpl@collector@tls@@@std@@V?$allocator@U?$pair@$$CBIPAVFileNode@FileCollectorImpl@collector@tls@@@std@@@2@@2@@Z 004556d0 f i collector_static:file_collector_impl.obj
 0001:000546e0       ?size@?$list@U?$pair@$$CBIPAVFileNode@FileCollectorImpl@collector@tls@@@std@@V?$allocator@U?$pair@$$CBIPAVFileNode@FileCollectorImpl@collector@tls@@@std@@@2@@std@@QBEIXZ 004556e0 f i collector_static:file_collector_impl.obj
 0001:00054700       ?_Insert@?$list@U?$pair@$$CBIPAVFileNode@FileCollectorImpl@collector@tls@@@std@@V?$allocator@U?$pair@$$CBIPAVFileNode@FileCollectorImpl@collector@tls@@@std@@@2@@std@@QAEXV?$_Iterator@$00@12@ABU?$pair@$$CBIPAVFileNode@FileCollectorImpl@collector@tls@@@2@@Z 00455700 f i collector_static:file_collector_impl.obj
 0001:000547c0       ?erase@?$list@U?$pair@$$CBIPAVFileNode@FileCollectorImpl@collector@tls@@@std@@V?$allocator@U?$pair@$$CBIPAVFileNode@FileCollectorImpl@collector@tls@@@std@@@2@@std@@QAE?AV?$_Iterator@$00@12@V312@0@Z 004557c0 f i collector_static:file_collector_impl.obj
 0001:00054920       ?_Buynode@?$list@U?$pair@$$CBIPAVFileNode@FileCollectorImpl@collector@tls@@@std@@V?$allocator@U?$pair@$$CBIPAVFileNode@FileCollectorImpl@collector@tls@@@std@@@2@@std@@IAEPAU_Node@?$_List_nod@U?$pair@$$CBIPAVFileNode@FileCollectorImpl@collector@tls@@@std@@V?$allocator@U?$pair@$$CBIPAVFileNode@FileCollectorImpl@collector@tls@@@std@@@2@@2@XZ 00455920 f i collector_static:file_collector_impl.obj
 0001:00054a10       ?_Incsize@?$list@U?$pair@$$CBIPAVFileNode@FileCollectorImpl@collector@tls@@@std@@V?$allocator@U?$pair@$$CBIPAVFileNode@FileCollectorImpl@collector@tls@@@std@@@2@@std@@IAEXI@Z 00455a10 f i collector_static:file_collector_impl.obj
 0001:00054a90       ??0?$_List_val@U?$pair@$$CBIPAVFileNode@FileCollectorImpl@collector@tls@@@std@@V?$allocator@U?$pair@$$CBIPAVFileNode@FileCollectorImpl@collector@tls@@@std@@@2@@std@@QAE@V?$allocator@U?$pair@$$CBIPAVFileNode@FileCollectorImpl@collector@tls@@@std@@@1@@Z 00455a90 f i collector_static:file_collector_impl.obj
 0001:00054ae0       ?destroy@?$allocator@PAU_Node@?$_List_nod@U?$pair@$$CBIPAVFileNode@FileCollectorImpl@collector@tls@@@std@@V?$allocator@U?$pair@$$CBIPAVFileNode@FileCollectorImpl@collector@tls@@@std@@@2@@std@@@std@@QAEXPAPAU_Node@?$_List_nod@U?$pair@$$CBIPAVFileNode@FileCollectorImpl@collector@tls@@@std@@V?$allocator@U?$pair@$$CBIPAVFileNode@FileCollectorImpl@collector@tls@@@std@@@2@@2@@Z 00455ae0 f i collector_static:file_collector_impl.obj
 0001:00054b10       ?_Construct_n@?$vector@V?$_Iterator@$00@?$list@U?$pair@$$CBIPAVFileNode@FileCollectorImpl@collector@tls@@@std@@V?$allocator@U?$pair@$$CBIPAVFileNode@FileCollectorImpl@collector@tls@@@std@@@2@@std@@V?$allocator@V?$_Iterator@$00@?$list@U?$pair@$$CBIPAVFileNode@FileCollectorImpl@collector@tls@@@std@@V?$allocator@U?$pair@$$CBIPAVFileNode@FileCollectorImpl@collector@tls@@@std@@@2@@std@@@3@@std@@QAEXIABV?$_Iterator@$00@?$list@U?$pair@$$CBIPAVFileNode@FileCollectorImpl@collector@tls@@@std@@V?$allocator@U?$pair@$$CBIPAVFileNode@FileCollectorImpl@collector@tls@@@std@@@2@@2@@Z 00455b10 f i collector_static:file_collector_impl.obj
 0001:00054b70       ?begin@?$vector@V?$_Iterator@$00@?$list@U?$pair@$$CBIPAVFileNode@FileCollectorImpl@collector@tls@@@std@@V?$allocator@U?$pair@$$CBIPAVFileNode@FileCollectorImpl@collector@tls@@@std@@@2@@std@@V?$allocator@V?$_Iterator@$00@?$list@U?$pair@$$CBIPAVFileNode@FileCollectorImpl@collector@tls@@@std@@V?$allocator@U?$pair@$$CBIPAVFileNode@FileCollectorImpl@collector@tls@@@std@@@2@@std@@@3@@std@@QAE?AV?$_Vector_iterator@V?$_Iterator@$00@?$list@U?$pair@$$CBIPAVFileNode@FileCollectorImpl@collector@tls@@@std@@V?$allocator@U?$pair@$$CBIPAVFileNode@FileCollectorImpl@collector@tls@@@std@@@2@@std@@V?$allocator@V?$_Iterator@$00@?$list@U?$pair@$$CBIPAVFileNode@FileCollectorImpl@collector@tls@@@std@@V?$allocator@U?$pair@$$CBIPAVFileNode@FileCollectorImpl@collector@tls@@@std@@@2@@std@@@3@@2@XZ 00455b70 f i collector_static:file_collector_impl.obj
 0001:00054bb0       ?end@?$vector@V?$_Iterator@$00@?$list@U?$pair@$$CBIPAVFileNode@FileCollectorImpl@collector@tls@@@std@@V?$allocator@U?$pair@$$CBIPAVFileNode@FileCollectorImpl@collector@tls@@@std@@@2@@std@@V?$allocator@V?$_Iterator@$00@?$list@U?$pair@$$CBIPAVFileNode@FileCollectorImpl@collector@tls@@@std@@V?$allocator@U?$pair@$$CBIPAVFileNode@FileCollectorImpl@collector@tls@@@std@@@2@@std@@@3@@std@@QAE?AV?$_Vector_iterator@V?$_Iterator@$00@?$list@U?$pair@$$CBIPAVFileNode@FileCollectorImpl@collector@tls@@@std@@V?$allocator@U?$pair@$$CBIPAVFileNode@FileCollectorImpl@collector@tls@@@std@@@2@@std@@V?$allocator@V?$_Iterator@$00@?$list@U?$pair@$$CBIPAVFileNode@FileCollectorImpl@collector@tls@@@std@@V?$allocator@U?$pair@$$CBIPAVFileNode@FileCollectorImpl@collector@tls@@@std@@@2@@std@@@3@@2@XZ 00455bb0 f i collector_static:file_collector_impl.obj
 0001:00054bf0       ?insert@?$vector@V?$_Iterator@$00@?$list@U?$pair@$$CBIPAVFileNode@FileCollectorImpl@collector@tls@@@std@@V?$allocator@U?$pair@$$CBIPAVFileNode@FileCollectorImpl@collector@tls@@@std@@@2@@std@@V?$allocator@V?$_Iterator@$00@?$list@U?$pair@$$CBIPAVFileNode@FileCollectorImpl@collector@tls@@@std@@V?$allocator@U?$pair@$$CBIPAVFileNode@FileCollectorImpl@collector@tls@@@std@@@2@@std@@@3@@std@@QAEXV?$_Vector_iterator@V?$_Iterator@$00@?$list@U?$pair@$$CBIPAVFileNode@FileCollectorImpl@collector@tls@@@std@@V?$allocator@U?$pair@$$CBIPAVFileNode@FileCollectorImpl@collector@tls@@@std@@@2@@std@@V?$allocator@V?$_Iterator@$00@?$list@U?$pair@$$CBIPAVFileNode@FileCollectorImpl@collector@tls@@@std@@V?$allocator@U?$pair@$$CBIPAVFileNode@FileCollectorImpl@collector@tls@@@std@@@2@@std@@@3@@2@IABV?$_Iterator@$00@?$list@U?$pair@$$CBIPAVFileNode@FileCollectorImpl@collector@tls@@@std@@V?$allocator@U?$pair@$$CBIPAVFileNode@FileCollectorImpl@collector@tls@@@std@@@2@@2@@Z 00455bf0 f i collector_static:file_collector_impl.obj
 0001:00054c40       ?erase@?$vector@V?$_Iterator@$00@?$list@U?$pair@$$CBIPAVFileNode@FileCollectorImpl@collector@tls@@@std@@V?$allocator@U?$pair@$$CBIPAVFileNode@FileCollectorImpl@collector@tls@@@std@@@2@@std@@V?$allocator@V?$_Iterator@$00@?$list@U?$pair@$$CBIPAVFileNode@FileCollectorImpl@collector@tls@@@std@@V?$allocator@U?$pair@$$CBIPAVFileNode@FileCollectorImpl@collector@tls@@@std@@@2@@std@@@3@@std@@QAE?AV?$_Vector_iterator@V?$_Iterator@$00@?$list@U?$pair@$$CBIPAVFileNode@FileCollectorImpl@collector@tls@@@std@@V?$allocator@U?$pair@$$CBIPAVFileNode@FileCollectorImpl@collector@tls@@@std@@@2@@std@@V?$allocator@V?$_Iterator@$00@?$list@U?$pair@$$CBIPAVFileNode@FileCollectorImpl@collector@tls@@@std@@V?$allocator@U?$pair@$$CBIPAVFileNode@FileCollectorImpl@collector@tls@@@std@@@2@@std@@@3@@2@V32@0@Z 00455c40 f i collector_static:file_collector_impl.obj
 0001:00054d40       ?_Destroy@?$vector@V?$_Iterator@$00@?$list@U?$pair@$$CBIPAVFileNode@FileCollectorImpl@collector@tls@@@std@@V?$allocator@U?$pair@$$CBIPAVFileNode@FileCollectorImpl@collector@tls@@@std@@@2@@std@@V?$allocator@V?$_Iterator@$00@?$list@U?$pair@$$CBIPAVFileNode@FileCollectorImpl@collector@tls@@@std@@V?$allocator@U?$pair@$$CBIPAVFileNode@FileCollectorImpl@collector@tls@@@std@@@2@@std@@@3@@std@@IAEXPAV?$_Iterator@$00@?$list@U?$pair@$$CBIPAVFileNode@FileCollectorImpl@collector@tls@@@std@@V?$allocator@U?$pair@$$CBIPAVFileNode@FileCollectorImpl@collector@tls@@@std@@@2@@2@0@Z 00455d40 f i collector_static:file_collector_impl.obj
 0001:00054d80       ?_Insert_n@?$vector@V?$_Iterator@$00@?$list@U?$pair@$$CBIPAVFileNode@FileCollectorImpl@collector@tls@@@std@@V?$allocator@U?$pair@$$CBIPAVFileNode@FileCollectorImpl@collector@tls@@@std@@@2@@std@@V?$allocator@V?$_Iterator@$00@?$list@U?$pair@$$CBIPAVFileNode@FileCollectorImpl@collector@tls@@@std@@V?$allocator@U?$pair@$$CBIPAVFileNode@FileCollectorImpl@collector@tls@@@std@@@2@@std@@@3@@std@@IAEXV?$_Vector_iterator@V?$_Iterator@$00@?$list@U?$pair@$$CBIPAVFileNode@FileCollectorImpl@collector@tls@@@std@@V?$allocator@U?$pair@$$CBIPAVFileNode@FileCollectorImpl@collector@tls@@@std@@@2@@std@@V?$allocator@V?$_Iterator@$00@?$list@U?$pair@$$CBIPAVFileNode@FileCollectorImpl@collector@tls@@@std@@V?$allocator@U?$pair@$$CBIPAVFileNode@FileCollectorImpl@collector@tls@@@std@@@2@@std@@@3@@2@IABV?$_Iterator@$00@?$list@U?$pair@$$CBIPAVFileNode@FileCollectorImpl@collector@tls@@@std@@V?$allocator@U?$pair@$$CBIPAVFileNode@FileCollectorImpl@collector@tls@@@std@@@2@@2@@Z 00455d80 f i collector_static:file_collector_impl.obj
 0001:00055120       ??0?$_Vector_val@V?$_Iterator@$00@?$list@U?$pair@$$CBIPAVFileNode@FileCollectorImpl@collector@tls@@@std@@V?$allocator@U?$pair@$$CBIPAVFileNode@FileCollectorImpl@collector@tls@@@std@@@2@@std@@V?$allocator@V?$_Iterator@$00@?$list@U?$pair@$$CBIPAVFileNode@FileCollectorImpl@collector@tls@@@std@@V?$allocator@U?$pair@$$CBIPAVFileNode@FileCollectorImpl@collector@tls@@@std@@@2@@std@@@3@@std@@IAE@V?$allocator@V?$_Iterator@$00@?$list@U?$pair@$$CBIPAVFileNode@FileCollectorImpl@collector@tls@@@std@@V?$allocator@U?$pair@$$CBIPAVFileNode@FileCollectorImpl@collector@tls@@@std@@@2@@std@@@1@@Z 00456120 f i collector_static:file_collector_impl.obj
 0001:00055160       ??0?$allocator@V?$_Iterator@$00@?$list@U?$pair@$$CBIPAVFileNode@FileCollectorImpl@collector@tls@@@std@@V?$allocator@U?$pair@$$CBIPAVFileNode@FileCollectorImpl@collector@tls@@@std@@@2@@std@@@std@@QAE@ABV01@@Z 00456160 f i collector_static:file_collector_impl.obj
 0001:00055180       ?deallocate@?$allocator@V?$_Iterator@$00@?$list@U?$pair@$$CBIPAVFileNode@FileCollectorImpl@collector@tls@@@std@@V?$allocator@U?$pair@$$CBIPAVFileNode@FileCollectorImpl@collector@tls@@@std@@@2@@std@@@std@@QAEXPAV?$_Iterator@$00@?$list@U?$pair@$$CBIPAVFileNode@FileCollectorImpl@collector@tls@@@std@@V?$allocator@U?$pair@$$CBIPAVFileNode@FileCollectorImpl@collector@tls@@@std@@@2@@2@I@Z 00456180 f i collector_static:file_collector_impl.obj
 0001:000551b0       ??E?$_Iterator@$00@?$list@U?$pair@$$CBIPAVFileNode@FileCollectorImpl@collector@tls@@@std@@V?$allocator@U?$pair@$$CBIPAVFileNode@FileCollectorImpl@collector@tls@@@std@@@2@@std@@QAE?AV012@H@Z 004561b0 f i collector_static:file_collector_impl.obj
 0001:00055240       ??0?$_Const_iterator@$00@?$list@U?$pair@$$CBIPAVFileNode@FileCollectorImpl@collector@tls@@@std@@V?$allocator@U?$pair@$$CBIPAVFileNode@FileCollectorImpl@collector@tls@@@std@@@2@@std@@QAE@XZ 00456240 f i collector_static:file_collector_impl.obj
 0001:00055280       ??0?$_Const_iterator@$00@?$list@U?$pair@$$CBIPAVFileNode@FileCollectorImpl@collector@tls@@@std@@V?$allocator@U?$pair@$$CBIPAVFileNode@FileCollectorImpl@collector@tls@@@std@@@2@@std@@QAE@PAU_Node@?$_List_nod@U?$pair@$$CBIPAVFileNode@FileCollectorImpl@collector@tls@@@std@@V?$allocator@U?$pair@$$CBIPAVFileNode@FileCollectorImpl@collector@tls@@@std@@@2@@2@PBV12@@Z 00456280 f i collector_static:file_collector_impl.obj
 0001:000552c0       ??E?$_Const_iterator@$00@?$list@U?$pair@$$CBIPAVFileNode@FileCollectorImpl@collector@tls@@@std@@V?$allocator@U?$pair@$$CBIPAVFileNode@FileCollectorImpl@collector@tls@@@std@@@2@@std@@QAEAAV012@XZ 004562c0 f i collector_static:file_collector_impl.obj
 0001:00055380       ??F?$_Const_iterator@$00@?$list@U?$pair@$$CBIPAVFileNode@FileCollectorImpl@collector@tls@@@std@@V?$allocator@U?$pair@$$CBIPAVFileNode@FileCollectorImpl@collector@tls@@@std@@@2@@std@@QAEAAV012@XZ 00456380 f i collector_static:file_collector_impl.obj
 0001:00055440       ?_Mynode@?$_Const_iterator@$00@?$list@U?$pair@$$CBIPAVFileNode@FileCollectorImpl@collector@tls@@@std@@V?$allocator@U?$pair@$$CBIPAVFileNode@FileCollectorImpl@collector@tls@@@std@@@2@@std@@QBEPAU_Node@?$_List_nod@U?$pair@$$CBIPAVFileNode@FileCollectorImpl@collector@tls@@@std@@V?$allocator@U?$pair@$$CBIPAVFileNode@FileCollectorImpl@collector@tls@@@std@@@2@@3@XZ 00456440 f i collector_static:file_collector_impl.obj
 0001:00055460       ??E?$_Iterator@$00@?$list@U?$pair@$$CBUtwo_string_key_t@FileCollectorImpl@collector@tls@@PAVFileNode@234@@std@@V?$allocator@U?$pair@$$CBUtwo_string_key_t@FileCollectorImpl@collector@tls@@PAVFileNode@234@@std@@@2@@std@@QAE?AV012@H@Z 00456460 f i collector_static:file_collector_impl.obj
 0001:000554f0       ??0?$_Const_iterator@$00@?$list@U?$pair@$$CBUtwo_string_key_t@FileCollectorImpl@collector@tls@@PAVFileNode@234@@std@@V?$allocator@U?$pair@$$CBUtwo_string_key_t@FileCollectorImpl@collector@tls@@PAVFileNode@234@@std@@@2@@std@@QAE@PAU_Node@?$_List_nod@U?$pair@$$CBUtwo_string_key_t@FileCollectorImpl@collector@tls@@PAVFileNode@234@@std@@V?$allocator@U?$pair@$$CBUtwo_string_key_t@FileCollectorImpl@collector@tls@@PAVFileNode@234@@std@@@2@@2@PBV12@@Z 004564f0 f i collector_static:file_collector_impl.obj
 0001:00055530       ??F?$_Const_iterator@$00@?$list@U?$pair@$$CBUtwo_string_key_t@FileCollectorImpl@collector@tls@@PAVFileNode@234@@std@@V?$allocator@U?$pair@$$CBUtwo_string_key_t@FileCollectorImpl@collector@tls@@PAVFileNode@234@@std@@@2@@std@@QAEAAV012@XZ 00456530 f i collector_static:file_collector_impl.obj
 0001:000555f0       ?_Mynode@?$_Const_iterator@$00@?$list@U?$pair@$$CBUtwo_string_key_t@FileCollectorImpl@collector@tls@@PAVFileNode@234@@std@@V?$allocator@U?$pair@$$CBUtwo_string_key_t@FileCollectorImpl@collector@tls@@PAVFileNode@234@@std@@@2@@std@@QBEPAU_Node@?$_List_nod@U?$pair@$$CBUtwo_string_key_t@FileCollectorImpl@collector@tls@@PAVFileNode@234@@std@@V?$allocator@U?$pair@$$CBUtwo_string_key_t@FileCollectorImpl@collector@tls@@PAVFileNode@234@@std@@@2@@3@XZ 004565f0 f i collector_static:file_collector_impl.obj
 0001:00055610       ??H?$_Vector_iterator@V?$_Iterator@$00@?$list@U?$pair@$$CBUtwo_string_key_t@FileCollectorImpl@collector@tls@@PAVFileNode@234@@std@@V?$allocator@U?$pair@$$CBUtwo_string_key_t@FileCollectorImpl@collector@tls@@PAVFileNode@234@@std@@@2@@std@@V?$allocator@V?$_Iterator@$00@?$list@U?$pair@$$CBUtwo_string_key_t@FileCollectorImpl@collector@tls@@PAVFileNode@234@@std@@V?$allocator@U?$pair@$$CBUtwo_string_key_t@FileCollectorImpl@collector@tls@@PAVFileNode@234@@std@@@2@@std@@@3@@std@@QBE?AV01@H@Z 00456610 f i collector_static:file_collector_impl.obj
 0001:000556a0       ??H?$_Vector_iterator@V?$_Iterator@$00@?$list@U?$pair@$$CBIPAVFileNode@FileCollectorImpl@collector@tls@@@std@@V?$allocator@U?$pair@$$CBIPAVFileNode@FileCollectorImpl@collector@tls@@@std@@@2@@std@@V?$allocator@V?$_Iterator@$00@?$list@U?$pair@$$CBIPAVFileNode@FileCollectorImpl@collector@tls@@@std@@V?$allocator@U?$pair@$$CBIPAVFileNode@FileCollectorImpl@collector@tls@@@std@@@2@@std@@@3@@std@@QBE?AV01@H@Z 004566a0 f i collector_static:file_collector_impl.obj
 0001:00055730       ??0?$_Vector_iterator@V?$_Iterator@$00@?$list@U?$pair@$$CBUtwo_string_key_t@FileCollectorImpl@collector@tls@@PAVFileNode@234@@std@@V?$allocator@U?$pair@$$CBUtwo_string_key_t@FileCollectorImpl@collector@tls@@PAVFileNode@234@@std@@@2@@std@@V?$allocator@V?$_Iterator@$00@?$list@U?$pair@$$CBUtwo_string_key_t@FileCollectorImpl@collector@tls@@PAVFileNode@234@@std@@V?$allocator@U?$pair@$$CBUtwo_string_key_t@FileCollectorImpl@collector@tls@@PAVFileNode@234@@std@@@2@@std@@@3@@std@@QAE@ABV01@@Z 00456730 f i collector_static:file_collector_impl.obj
 0001:00055760       ??0?$_Vector_iterator@V?$_Iterator@$00@?$list@U?$pair@$$CBIPAVFileNode@FileCollectorImpl@collector@tls@@@std@@V?$allocator@U?$pair@$$CBIPAVFileNode@FileCollectorImpl@collector@tls@@@std@@@2@@std@@V?$allocator@V?$_Iterator@$00@?$list@U?$pair@$$CBIPAVFileNode@FileCollectorImpl@collector@tls@@@std@@V?$allocator@U?$pair@$$CBIPAVFileNode@FileCollectorImpl@collector@tls@@@std@@@2@@std@@@3@@std@@QAE@ABV01@@Z 00456760 f i collector_static:file_collector_impl.obj
 0001:00055790       ??0?$_Bidit@U?$pair@$$CBIPAVFileNode@FileCollectorImpl@collector@tls@@@std@@HPBU12@ABU12@@std@@QAE@XZ 00456790 f i collector_static:file_collector_impl.obj
 0001:000557c0       ??0?$_Vector_const_iterator@V?$_Iterator@$00@?$list@U?$pair@$$CBUtwo_string_key_t@FileCollectorImpl@collector@tls@@PAVFileNode@234@@std@@V?$allocator@U?$pair@$$CBUtwo_string_key_t@FileCollectorImpl@collector@tls@@PAVFileNode@234@@std@@@2@@std@@V?$allocator@V?$_Iterator@$00@?$list@U?$pair@$$CBUtwo_string_key_t@FileCollectorImpl@collector@tls@@PAVFileNode@234@@std@@V?$allocator@U?$pair@$$CBUtwo_string_key_t@FileCollectorImpl@collector@tls@@PAVFileNode@234@@std@@@2@@std@@@3@@std@@QAE@ABV01@@Z 004567c0 f i collector_static:file_collector_impl.obj
 0001:00055800       ??0?$_Vector_const_iterator@V?$_Iterator@$00@?$list@U?$pair@$$CBIPAVFileNode@FileCollectorImpl@collector@tls@@@std@@V?$allocator@U?$pair@$$CBIPAVFileNode@FileCollectorImpl@collector@tls@@@std@@@2@@std@@V?$allocator@V?$_Iterator@$00@?$list@U?$pair@$$CBIPAVFileNode@FileCollectorImpl@collector@tls@@@std@@V?$allocator@U?$pair@$$CBIPAVFileNode@FileCollectorImpl@collector@tls@@@std@@@2@@std@@@3@@std@@QAE@ABV01@@Z 00456800 f i collector_static:file_collector_impl.obj
 0001:00055840       ??0?$_Ranit@V?$_Iterator@$00@?$list@U?$pair@$$CBUtwo_string_key_t@FileCollectorImpl@collector@tls@@PAVFileNode@234@@std@@V?$allocator@U?$pair@$$CBUtwo_string_key_t@FileCollectorImpl@collector@tls@@PAVFileNode@234@@std@@@2@@std@@HPBV123@ABV123@@std@@QAE@ABU01@@Z 00456840 f i collector_static:file_collector_impl.obj
 0001:00055870       ??0?$_Ranit@V?$_Iterator@$00@?$list@U?$pair@$$CBIPAVFileNode@FileCollectorImpl@collector@tls@@@std@@V?$allocator@U?$pair@$$CBIPAVFileNode@FileCollectorImpl@collector@tls@@@std@@@2@@std@@HPBV123@ABV123@@std@@QAE@ABU01@@Z 00456870 f i collector_static:file_collector_impl.obj
 0001:000558a0       ?max_size@?$allocator@PAVCollectRule@FileCollectorImpl@collector@tls@@@std@@QBEIXZ 004568a0 f i collector_static:file_collector_impl.obj
 0001:000558f0       ?max_size@?$list@U?$pair@$$CBUtwo_string_key_t@FileCollectorImpl@collector@tls@@PAVFileNode@234@@std@@V?$allocator@U?$pair@$$CBUtwo_string_key_t@FileCollectorImpl@collector@tls@@PAVFileNode@234@@std@@@2@@std@@QBEIXZ 004568f0 f i collector_static:file_collector_impl.obj
 0001:00055920       ?erase@?$list@U?$pair@$$CBUtwo_string_key_t@FileCollectorImpl@collector@tls@@PAVFileNode@234@@std@@V?$allocator@U?$pair@$$CBUtwo_string_key_t@FileCollectorImpl@collector@tls@@PAVFileNode@234@@std@@@2@@std@@QAE?AV?$_Iterator@$00@12@V312@@Z 00456920 f i collector_static:file_collector_impl.obj
 0001:00055a50       ?_Buynode@?$list@U?$pair@$$CBUtwo_string_key_t@FileCollectorImpl@collector@tls@@PAVFileNode@234@@std@@V?$allocator@U?$pair@$$CBUtwo_string_key_t@FileCollectorImpl@collector@tls@@PAVFileNode@234@@std@@@2@@std@@IAEPAU_Node@?$_List_nod@U?$pair@$$CBUtwo_string_key_t@FileCollectorImpl@collector@tls@@PAVFileNode@234@@std@@V?$allocator@U?$pair@$$CBUtwo_string_key_t@FileCollectorImpl@collector@tls@@PAVFileNode@234@@std@@@2@@2@PAU342@0ABU?$pair@$$CBUtwo_string_key_t@FileCollectorImpl@collector@tls@@PAVFileNode@234@@2@@Z 00456a50 f i collector_static:file_collector_impl.obj
 0001:00055b50       ??0?$_List_ptr@U?$pair@$$CBUtwo_string_key_t@FileCollectorImpl@collector@tls@@PAVFileNode@234@@std@@V?$allocator@U?$pair@$$CBUtwo_string_key_t@FileCollectorImpl@collector@tls@@PAVFileNode@234@@std@@@2@@std@@IAE@V?$allocator@U?$pair@$$CBUtwo_string_key_t@FileCollectorImpl@collector@tls@@PAVFileNode@234@@std@@@1@@Z 00456b50 f i collector_static:file_collector_impl.obj
 0001:00055ba0       ?allocate@?$allocator@U_Node@?$_List_nod@U?$pair@$$CBUtwo_string_key_t@FileCollectorImpl@collector@tls@@PAVFileNode@234@@std@@V?$allocator@U?$pair@$$CBUtwo_string_key_t@FileCollectorImpl@collector@tls@@PAVFileNode@234@@std@@@2@@std@@@std@@QAEPAU_Node@?$_List_nod@U?$pair@$$CBUtwo_string_key_t@FileCollectorImpl@collector@tls@@PAVFileNode@234@@std@@V?$allocator@U?$pair@$$CBUtwo_string_key_t@FileCollectorImpl@collector@tls@@PAVFileNode@234@@std@@@2@@2@I@Z 00456ba0 f i collector_static:file_collector_impl.obj
 0001:00055bd0       ?construct@?$allocator@PAU_Node@?$_List_nod@U?$pair@$$CBUtwo_string_key_t@FileCollectorImpl@collector@tls@@PAVFileNode@234@@std@@V?$allocator@U?$pair@$$CBUtwo_string_key_t@FileCollectorImpl@collector@tls@@PAVFileNode@234@@std@@@2@@std@@@std@@QAEXPAPAU_Node@?$_List_nod@U?$pair@$$CBUtwo_string_key_t@FileCollectorImpl@collector@tls@@PAVFileNode@234@@std@@V?$allocator@U?$pair@$$CBUtwo_string_key_t@FileCollectorImpl@collector@tls@@PAVFileNode@234@@std@@@2@@2@ABQAU342@@Z 00456bd0 f i collector_static:file_collector_impl.obj
 0001:00055c00       ?capacity@?$vector@V?$_Iterator@$00@?$list@U?$pair@$$CBUtwo_string_key_t@FileCollectorImpl@collector@tls@@PAVFileNode@234@@std@@V?$allocator@U?$pair@$$CBUtwo_string_key_t@FileCollectorImpl@collector@tls@@PAVFileNode@234@@std@@@2@@std@@V?$allocator@V?$_Iterator@$00@?$list@U?$pair@$$CBUtwo_string_key_t@FileCollectorImpl@collector@tls@@PAVFileNode@234@@std@@V?$allocator@U?$pair@$$CBUtwo_string_key_t@FileCollectorImpl@collector@tls@@PAVFileNode@234@@std@@@2@@std@@@3@@std@@QBEIXZ 00456c00 f i collector_static:file_collector_impl.obj
 0001:00055c50       ?max_size@?$vector@V?$_Iterator@$00@?$list@U?$pair@$$CBUtwo_string_key_t@FileCollectorImpl@collector@tls@@PAVFileNode@234@@std@@V?$allocator@U?$pair@$$CBUtwo_string_key_t@FileCollectorImpl@collector@tls@@PAVFileNode@234@@std@@@2@@std@@V?$allocator@V?$_Iterator@$00@?$list@U?$pair@$$CBUtwo_string_key_t@FileCollectorImpl@collector@tls@@PAVFileNode@234@@std@@V?$allocator@U?$pair@$$CBUtwo_string_key_t@FileCollectorImpl@collector@tls@@PAVFileNode@234@@std@@@2@@std@@@3@@std@@QBEIXZ 00456c50 f i collector_static:file_collector_impl.obj
