 parsertc50

 Timestamp is 5684c3bd (Thu Dec 31 13:57:17 2015)

 Preferred load address is 130d0000

 Start         Length     Name                   Class
 0001:00000000 00096d0fH .text                   CODE
 0001:00096d10 00001233H .text$x                 CODE
 0001:00097f50 00001023H .text$yc                CODE
 0001:00098f80 0000103aH .text$yd                CODE
 0002:00000000 00000104H .CRT$XCA                DATA
 0002:00000104 00000104H .CRT$XCC                DATA
 0002:00000208 00000104H .CRT$XCZ                DATA
 0002:0000030c 00000104H .CRT$XIA                DATA
 0002:00000410 00000118H .CRT$XIC                DATA
 0002:00000528 00000104H .CRT$XIZ                DATA
 0002:0000062c 00000104H .CRT$XPA                DATA
 0002:00000730 00000109H .CRT$XPX                DATA
 0002:0000083c 00000104H .CRT$XPXA               DATA
 0002:00000940 00000104H .CRT$XPZ                DATA
 0002:00000a44 00000104H .CRT$XTA                DATA
 0002:00000b48 00000104H .CRT$XTZ                DATA
 0002:00000c50 00025451H .rdata                  DATA
 0002:000260a4 00000179H .rdata$debug            DATA
 0002:00026220 000006b8H .rdata$r                DATA
 0002:000268e0 00000148H .rdata$sxdata           DATA
 0002:00026a28 00000104H .rtc$IAA                DATA
 0002:00026b2c 0000014cH .rtc$IMZ                DATA
 0002:00026c78 00000104H .rtc$IZZ                DATA
 0002:00026d7c 00000104H .rtc$TAA                DATA
 0002:00026e80 0000014cH .rtc$TMZ                DATA
 0002:00026fcc 00000104H .rtc$TZZ                DATA
 0002:000270d0 0000151eH .xdata$x                DATA
 0002:000285f0 00000168H .edata                  DATA
 0003:00000000 00008401H .data                   DATA
 0003:00008420 000021b0H .bss                    DATA
 0004:00000000 00000028H .idata$2                DATA
 0004:00000028 00000014H .idata$3                DATA
 0004:0000003c 000002b8H .idata$4                DATA
 0004:000002f4 000002b8H .idata$5                DATA
 0004:000005ac 00000c4fH .idata$6                DATA
 0005:00000000 00000169H .rsrc$01                DATA
 0005:00000170 000001b6H .rsrc$02                DATA

  Address         Publics by Value              Rva+Base       Lib:Object

 0000:00000000       __except_list              00000000     <absolute>
 0000:0000000f       ___safe_se_handler_count   0000000f     <absolute>
 0000:00000000       ___ImageBase               130d0000     <linker-defined>
 0001:000001c0       ?Release@ModuleImpl@aggregator@tls@@UAEXXZ 130d11c0 f   module_impl.obj
 0001:00000230       ??_GModuleImpl@aggregator@tls@@QAEPAXI@Z 130d1230 f i module_impl.obj
 0001:00000280       ?Init@ModuleImpl@aggregator@tls@@UAE?AW4rc_e@@PAUIAggregatorBase@23@@Z 130d1280 f   module_impl.obj
 0001:00000450       ?GetThreadNum@ParserTC50@aggregator@tls@@QBEIXZ 130d1450 f i module_impl.obj
 0001:00000480       ?DeInit@ModuleImpl@aggregator@tls@@UAEXXZ 130d1480 f   module_impl.obj
 0001:00000590       ?TickProc@ModuleImpl@aggregator@tls@@UAEXI@Z 130d1590 f   module_impl.obj
 0001:00000620       ?CheckPoint@ModuleImpl@aggregator@tls@@UAEXXZ 130d1620 f   module_impl.obj
 0001:00000680       ??0ModuleImpl@aggregator@tls@@QAE@XZ 130d1680 f   module_impl.obj
 0001:00000720       ?GetName@ModuleImpl@aggregator@tls@@UBEPBDXZ 130d1720 f i module_impl.obj
 0001:00000750       ?GetName@ParserTC50@aggregator@tls@@SAPBDXZ 130d1750 f i module_impl.obj
 0001:00000760       ?NeedMoreThread@ModuleImpl@aggregator@tls@@UBEIXZ 130d1760 f i module_impl.obj
 0001:00000790       ??0IModule@aggregator@tls@@QAE@XZ 130d1790 f i module_impl.obj
 0001:000007c0       ??1ModuleImpl@aggregator@tls@@QAE@XZ 130d17c0 f   module_impl.obj
 0001:00000810       ?Module_CreateInstance@aggregator@tls@@YAPAUIModule@12@XZ 130d1810 f   module_impl.obj
 0001:00000880       ?Release@WtDict2@aggregator@tls@@UAEXXZ 130d1880 f   parse_wtcom.obj
 0001:000008f0       ??_GWtDict2@aggregator@tls@@QAEPAXI@Z 130d18f0 f i parse_wtcom.obj
 0001:00000940       ?GetVersion@WtDict2@aggregator@tls@@UAEIXZ 130d1940 f   parse_wtcom.obj
 0001:00000990       ?isValid@WtDict2@aggregator@tls@@UAEIXZ 130d1990 f   parse_wtcom.obj
 0001:00000a10       ?Load@WtDict2@aggregator@tls@@UAEIPBEI@Z 130d1a10 f   parse_wtcom.obj
 0001:00000aa0       ?GetDict@WtDict2@aggregator@tls@@UBEPAXXZ 130d1aa0 f   parse_wtcom.obj
 0001:00000ac0       ??0WtDict2@aggregator@tls@@QAE@PBEI@Z 130d1ac0 f   parse_wtcom.obj
 0001:00000b40       ??0IDictIX@aggregator@tls@@QAE@XZ 130d1b40 f i parse_wtcom.obj
 0001:00000b70       ??1WtDict2@aggregator@tls@@QAE@XZ 130d1b70 f   parse_wtcom.obj
 0001:00000bc0       ?makeDict@WtDict2@aggregator@tls@@AAEXXZ 130d1bc0 f   parse_wtcom.obj
 0001:00000be0       ?HaveFuncID@WtDict2@aggregator@tls@@UBE?AW4rc_e@@GGPAG@Z 130d1be0 f   parse_wtcom.obj
 0001:00000ce0       ?Release@ParseWtcom2@aggregator@tls@@UAEXXZ 130d1ce0 f   parse_wtcom.obj
 0001:00000d50       ??_GParseWtcom2@aggregator@tls@@QAEPAXI@Z 130d1d50 f i parse_wtcom.obj
 0001:00000da0       ?SetDict@ParseWtcom2@aggregator@tls@@UAE?AW4rc_e@@PBUIDictIX@23@@Z 130d1da0 f   parse_wtcom.obj
 0001:00000e40       ?Parse@ParseWtcom2@aggregator@tls@@UAE?AW4rc_e@@GPBDI@Z 130d1e40 f   parse_wtcom.obj
 0001:00000ed0       ?get_data@ParseWtcom2@aggregator@tls@@UAE?AW4rc_e@@GPADI@Z 130d1ed0 f   parse_wtcom.obj
 0001:00000f70       ?get_data@ParseWtcom2@aggregator@tls@@UAE?AW4rc_e@@GPAI@Z 130d1f70 f   parse_wtcom.obj
 0001:00001030       ?GetReturnNo@ParseWtcom2@aggregator@tls@@UAE?AW4rc_e@@PAH@Z 130d2030 f   parse_wtcom.obj
 0001:000010b0       ?GetErrmsg@ParseWtcom2@aggregator@tls@@UAE?AW4rc_e@@PADI@Z 130d20b0 f   parse_wtcom.obj
 0001:00001140       ?GetLineCount@ParseWtcom2@aggregator@tls@@UAEIXZ 130d2140 f   parse_wtcom.obj
 0001:000011b0       ?GetCookies@ParseWtcom2@aggregator@tls@@UAE?AW4rc_e@@PADI@Z 130d21b0 f   parse_wtcom.obj
 0001:00001240       ?Next@ParseWtcom2@aggregator@tls@@UAE?AW4rc_e@@XZ 130d2240 f   parse_wtcom.obj
 0001:000012c0       ?HaveFuncID@ParseWtcom2@aggregator@tls@@UBE?AW4rc_e@@GGPAG@Z 130d22c0 f   parse_wtcom.obj
 0001:00001370       ??0ParseWtcom2@aggregator@tls@@QAE@PBUIDictIX@12@@Z 130d2370 f   parse_wtcom.obj
 0001:000013f0       ?isValid@ParseWtcom2@aggregator@tls@@UBEIXZ 130d23f0 f i parse_wtcom.obj
 0001:00001420       ??0IParseIX@aggregator@tls@@QAE@XZ 130d2420 f i parse_wtcom.obj
 0001:00001450       ??1ParseWtcom2@aggregator@tls@@QAE@XZ 130d2450 f   parse_wtcom.obj
 0001:000014a0       ?CreateInstance@IDictIX@aggregator@tls@@SAPAU123@PBDPBEI@Z 130d24a0 f   parse_wtcom.obj
 0001:00001530       ?CreateInstance@IParseIX@aggregator@tls@@SAPAU123@PBDPBUIDictIX@23@@Z 130d2530 f   parse_wtcom.obj
 0001:000015c0       ?Start@ParserTC50@aggregator@tls@@UAE?AW4rc_e@@XZ 130d25c0 f   parsertc50_static:parser_tc50.obj
 0001:00001710       ?StrLogType@LogTypeTC50@aggregator@tls@@SAPBDXZ 130d2710 f i parsertc50_static:parser_tc50.obj
 0001:00001720       ?Stop@ParserTC50@aggregator@tls@@UAEXXZ 130d2720 f   parsertc50_static:parser_tc50.obj
 0001:00001770       ?GetName@ParserTC50@aggregator@tls@@UBE?BW4rc_e@@PADPAI@Z 130d2770 f   parsertc50_static:parser_tc50.obj
 0001:000017d0       ?GetStatus@ParserTC50@aggregator@tls@@UBE?BW4rc_e@@XZ 130d27d0 f   parsertc50_static:parser_tc50.obj
 0001:000017f0       ?GetResourceSize@ParserTC50@aggregator@tls@@UBE?BW4rc_e@@PA_K0@Z 130d27f0 f   parsertc50_static:parser_tc50.obj
 0001:00001840       ?GetLastErr@ParserTC50@aggregator@tls@@UBE?BW4rc_e@@PAIPAD0@Z 130d2840 f   parsertc50_static:parser_tc50.obj
 0001:000018b0       ?GetInfo@ParserTC50@aggregator@tls@@UBE?BW4rc_e@@PADPAI@Z 130d28b0 f   parsertc50_static:parser_tc50.obj
 0001:00001a00       ?GetLastAliveTime@ParserTC50@aggregator@tls@@UBE?BW4rc_e@@PAI@Z 130d2a00 f   parsertc50_static:parser_tc50.obj
 0001:00001a40       ??0ParserTC50@aggregator@tls@@QAE@XZ 130d2a40 f   parsertc50_static:parser_tc50.obj
 0001:00001c80       ??0atomic_count@base@tls@@QAE@J@Z 130d2c80 f i parsertc50_static:parser_tc50.obj
 0001:00001ca0       ?GetUUID@ParserTC50@aggregator@tls@@UBEABIXZ 130d2ca0 f i parsertc50_static:parser_tc50.obj
 0001:00001cc0       ?ConstCast@ParserTC50@aggregator@tls@@UBEPBXABI@Z 130d2cc0 f i parsertc50_static:parser_tc50.obj
 0001:00001d00       ?Cast@ParserTC50@aggregator@tls@@UAEPAXABI@Z 130d2d00 f i parsertc50_static:parser_tc50.obj
 0001:00001d40       ?Release@ParserTC50@aggregator@tls@@UAEXXZ 130d2d40 f i parsertc50_static:parser_tc50.obj
 0001:00001d60       ??0IParser@aggregator@tls@@QAE@XZ 130d2d60 f i parsertc50_static:parser_tc50.obj
 0001:00001db0       ??0IFileIteratorCallBack@IFileIteratorBase@aggregator@tls@@QAE@XZ 130d2db0 f i parsertc50_static:parser_tc50.obj
 0001:00001dd0       ??0IObject@tls@@QAE@XZ     130d2dd0 f i parsertc50_static:parser_tc50.obj
 0001:00001df0       ??0IResource@tls@@QAE@XZ   130d2df0 f i parsertc50_static:parser_tc50.obj
 0001:00001e10       ??1ParserTC50@aggregator@tls@@QAE@XZ 130d2e10 f   parsertc50_static:parser_tc50.obj
 0001:00001ed0       ??1?$hash_map@IVLogFileNode@ParserTC50@aggregator@tls@@V?$hash_compare@IU?$less@I@std@@@stdext@@V?$allocator@U?$pair@$$CBIVLogFileNode@ParserTC50@aggregator@tls@@@std@@@std@@@stdext@@QAE@XZ 130d2ed0 f i parsertc50_static:parser_tc50.obj
 0001:00001f00       ??1?$queue@PAVLogFileNode@ParserTC50@aggregator@tls@@V?$deque@PAVLogFileNode@ParserTC50@aggregator@tls@@V?$allocator@PAVLogFileNode@ParserTC50@aggregator@tls@@@std@@@std@@@std@@QAE@XZ 130d2f00 f i parsertc50_static:parser_tc50.obj
 0001:00001f30       ??1ParserThread@ParserTC50@aggregator@tls@@QAE@XZ 130d2f30 f i parsertc50_static:parser_tc50.obj
 0001:00001f80       ??1?$hash_set@PAVDictNode@ParserTC50@aggregator@tls@@Udict_node_hash@234@V?$allocator@PAVDictNode@ParserTC50@aggregator@tls@@@std@@@stdext@@QAE@XZ 130d2f80 f i parsertc50_static:parser_tc50.obj
 0001:00001fb0       ?Init@ParserTC50@aggregator@tls@@QAE?AW4rc_e@@PAUIAggregatorBase@23@@Z 130d2fb0 f   parsertc50_static:parser_tc50.obj
 0001:00002150       ?IsValid@ParserThread@ParserTC50@aggregator@tls@@QAEIXZ 130d3150 f i parsertc50_static:parser_tc50.obj
 0001:00002180       ?Begin@ParserTC50@aggregator@tls@@UAE?AW4rc_e@@PAUIFileIteratorBase@23@@Z 130d3180 f   parsertc50_static:parser_tc50.obj
 0001:000022f0       ?SetDispatch@LogFileNode@ParserTC50@aggregator@tls@@QAEXI@Z 130d32f0 f i parsertc50_static:parser_tc50.obj
 0001:00002310       ??1?$_Iterator@$00@?$list@U?$pair@$$CBIVLogFileNode@ParserTC50@aggregator@tls@@@std@@V?$allocator@U?$pair@$$CBIVLogFileNode@ParserTC50@aggregator@tls@@@std@@@2@@std@@QAE@XZ 130d3310 f i parsertc50_static:parser_tc50.obj
 0001:00002340       ??4?$_Iterator@$00@?$list@U?$pair@$$CBIVLogFileNode@ParserTC50@aggregator@tls@@@std@@V?$allocator@U?$pair@$$CBIVLogFileNode@ParserTC50@aggregator@tls@@@std@@@2@@std@@QAEAAV012@ABV012@@Z 130d3340 f i parsertc50_static:parser_tc50.obj
 0001:00002370       ??1?$_Const_iterator@$00@?$list@U?$pair@$$CBIVLogFileNode@ParserTC50@aggregator@tls@@@std@@V?$allocator@U?$pair@$$CBIVLogFileNode@ParserTC50@aggregator@tls@@@std@@@2@@std@@QAE@XZ 130d3370 f i parsertc50_static:parser_tc50.obj
 0001:000023a0       ??4?$_Const_iterator@$00@?$list@U?$pair@$$CBIVLogFileNode@ParserTC50@aggregator@tls@@@std@@V?$allocator@U?$pair@$$CBIVLogFileNode@ParserTC50@aggregator@tls@@@std@@@2@@std@@QAEAAV012@ABV012@@Z 130d33a0 f i parsertc50_static:parser_tc50.obj
 0001:000023e0       ??1?$_Bidit@U?$pair@$$CBIVLogFileNode@ParserTC50@aggregator@tls@@@std@@HPBU12@ABU12@@std@@QAE@XZ 130d33e0 f i parsertc50_static:parser_tc50.obj
 0001:00002410       ??1_Iterator_base@std@@QAE@XZ 130d3410 f i parsertc50_static:parser_tc50.obj
 0001:00002480       ?_Orphan_me@_Iterator_base@std@@QAEXXZ 130d3480 f i parsertc50_static:parser_tc50.obj
 0001:00002520       ??4?$_Bidit@U?$pair@$$CBIVLogFileNode@ParserTC50@aggregator@tls@@@std@@HPBU12@ABU12@@std@@QAEAAU01@ABU01@@Z 130d3520 f i parsertc50_static:parser_tc50.obj
 0001:00002550       ??4_Iterator_base@std@@QAEAAV01@ABV01@@Z 130d3550 f i parsertc50_static:parser_tc50.obj
 0001:000025e0       ?_Adopt@_Iterator_base@std@@QAEXPBV_Container_base@2@@Z 130d35e0 f i parsertc50_static:parser_tc50.obj
 0001:00002690       ?End@ParserTC50@aggregator@tls@@UAE?AW4rc_e@@XZ 130d3690 f   parsertc50_static:parser_tc50.obj
 0001:00002720       ??4atomic_count@base@tls@@QAEXJ@Z 130d3720 f i parsertc50_static:parser_tc50.obj
 0001:00002740       ?FileProc@ParserTC50@aggregator@tls@@UAE?AW4rc_e@@PAUIFileIteratorBase@23@PBUIFileNode@23@@Z 130d3740 f   parsertc50_static:parser_tc50.obj
 0001:00002940       ?GetDispatch@LogFileNode@ParserTC50@aggregator@tls@@QBEIXZ 130d3940 f i parsertc50_static:parser_tc50.obj
 0001:00002960       ?SetHasError@LogFileNode@ParserTC50@aggregator@tls@@QAEXI@Z 130d3960 f i parsertc50_static:parser_tc50.obj
 0001:00002980       ?popQueueFileNode@ParserTC50@aggregator@tls@@AAEPAVLogFileNode@123@XZ 130d3980 f   parsertc50_static:parser_tc50.obj
 0001:00002a50       ??0AutoLock@base@tls@@QAE@AAVLock@12@@Z 130d3a50 f i parsertc50_static:parser_tc50.obj
 0001:00002a90       ??1AutoLock@base@tls@@QAE@XZ 130d3a90 f i parsertc50_static:parser_tc50.obj
 0001:00002ac0       ?AssertAcquired@Lock@base@tls@@QBEXXZ 130d3ac0 f i parsertc50_static:parser_tc50.obj
 0001:00002ae0       ?pushQueueFileNode@ParserTC50@aggregator@tls@@AAEXPAVLogFileNode@123@@Z 130d3ae0 f   parsertc50_static:parser_tc50.obj
 0001:00002b70       ?ThreadProc@ParserTC50@aggregator@tls@@QAEXI@Z 130d3b70 f   parsertc50_static:parser_tc50.obj
 0001:00002ef0       ?GetPos@LogFileNode@ParserTC50@aggregator@tls@@QBE_JXZ 130d3ef0 f i parsertc50_static:parser_tc50.obj
 0001:00002f10       ?SetPos@LogFileNode@ParserTC50@aggregator@tls@@QAEX_J@Z 130d3f10 f i parsertc50_static:parser_tc50.obj
 0001:00002f40       ?GetFileNode@LogFileNode@ParserTC50@aggregator@tls@@QAEPBUIFileNode@34@XZ 130d3f40 f i parsertc50_static:parser_tc50.obj
 0001:00002f60       ??1?$_Iterator@$00@?$list@ULogFileNodePos@?1??ThreadProc@ParserTC50@aggregator@tls@@QAEXI@Z@V?$allocator@ULogFileNodePos@?1??ThreadProc@ParserTC50@aggregator@tls@@QAEXI@Z@@std@@@std@@QAE@XZ 130d3f60 f i parsertc50_static:parser_tc50.obj
 0001:00002f90       ??4?$_Iterator@$00@?$list@ULogFileNodePos@?1??ThreadProc@ParserTC50@aggregator@tls@@QAEXI@Z@V?$allocator@ULogFileNodePos@?1??ThreadProc@ParserTC50@aggregator@tls@@QAEXI@Z@@std@@@std@@QAEAAV012@ABV012@@Z 130d3f90 f i parsertc50_static:parser_tc50.obj
 0001:00002fc0       ??1?$_Const_iterator@$00@?$list@ULogFileNodePos@?1??ThreadProc@ParserTC50@aggregator@tls@@QAEXI@Z@V?$allocator@ULogFileNodePos@?1??ThreadProc@ParserTC50@aggregator@tls@@QAEXI@Z@@std@@@std@@QAE@XZ 130d3fc0 f i parsertc50_static:parser_tc50.obj
 0001:00002ff0       ??4?$_Const_iterator@$00@?$list@ULogFileNodePos@?1??ThreadProc@ParserTC50@aggregator@tls@@QAEXI@Z@V?$allocator@ULogFileNodePos@?1??ThreadProc@ParserTC50@aggregator@tls@@QAEXI@Z@@std@@@std@@QAEAAV012@ABV012@@Z 130d3ff0 f i parsertc50_static:parser_tc50.obj
 0001:00003030       ??1?$_Bidit@ULogFileNodePos@?1??ThreadProc@ParserTC50@aggregator@tls@@QAEXI@Z@HPBU1?1??2345@QAEXI@Z@ABU1?1??2345@QAEXI@Z@@std@@QAE@XZ 130d4030 f i parsertc50_static:parser_tc50.obj
 0001:00003060       ??4?$_Bidit@ULogFileNodePos@?1??ThreadProc@ParserTC50@aggregator@tls@@QAEXI@Z@HPBU1?1??2345@QAEXI@Z@ABU1?1??2345@QAEXI@Z@@std@@QAEAAU01@ABU01@@Z 130d4060 f i parsertc50_static:parser_tc50.obj
 0001:00003090       ?logParse_tc50@ParserTC50@aggregator@tls@@AAE?AW4rc_e@@IPBUIFileNode@23@PAUIFileIteratorBase@23@AAVLogFileNode@123@@Z 130d4090 f   parsertc50_static:parser_tc50.obj
 0001:00003dd0       ?UpdatePos@LogFileNode@ParserTC50@aggregator@tls@@QAEX_J@Z 130d4dd0 f i parsertc50_static:parser_tc50.obj
 0001:00003e00       ?didMathLogRule@ParserTC50@aggregator@tls@@AAEII@Z 130d4e00 f i parsertc50_static:parser_tc50.obj
 0001:00003e40       ?logParse_tc50_dict@ParserTC50@aggregator@tls@@AAE?AW4rc_e@@PAUIFileIteratorBase@23@AAVLogFileNode@123@PBUIFileNode@23@@Z 130d4e40 f   parsertc50_static:parser_tc50.obj
 0001:00004000       ?AddDict@ParserTC50@aggregator@tls@@QAE?AW4rc_e@@PBD0I_K@Z 130d5000 f i parsertc50_static:parser_tc50.obj
 0001:00004040       ?to_second@micro_time@base@tls@@SA?B_K_K@Z 130d5040 f i parsertc50_static:parser_tc50.obj
 0001:00004060       ?isFileOver@ParserTC50@aggregator@tls@@AAEII@Z 130d5060 f   parsertc50_static:parser_tc50.obj
 0001:00004080       ?clearFileMap@ParserTC50@aggregator@tls@@AAEXXZ 130d5080 f   parsertc50_static:parser_tc50.obj
 0001:000040b0       ?AddToFileMap@ParserTC50@aggregator@tls@@QAE?AW4rc_e@@I_J@Z 130d50b0 f   parsertc50_static:parser_tc50.obj
 0001:000041a0       ??0LogFileNode@ParserTC50@aggregator@tls@@QAE@_J@Z 130d51a0 f i parsertc50_static:parser_tc50.obj
 0001:00004200       ??1LogFileNode@ParserTC50@aggregator@tls@@QAE@XZ 130d5200 f i parsertc50_static:parser_tc50.obj
 0001:00004220       ??4LogFileNode@ParserTC50@aggregator@tls@@QAEXABV0123@@Z 130d5220 f i parsertc50_static:parser_tc50.obj
 0001:00004250       ?copy@LogFileNode@ParserTC50@aggregator@tls@@AAEXABV1234@@Z 130d5250 f i parsertc50_static:parser_tc50.obj
 0001:000042b0       ?loadParseFile@ParserTC50@aggregator@tls@@AAE?AW4rc_e@@XZ 130d52b0 f   parsertc50_static:parser_tc50.obj
 0001:000043c0       ??0ParseFileReulst@aggregator@tls@@QAE@PAVParserTC50@12@@Z 130d53c0 f i parsertc50_static:parser_tc50.obj
 0001:000043f0       ?loadLogRule@ParserTC50@aggregator@tls@@AAE?AW4rc_e@@XZ 130d53f0 f   parsertc50_static:parser_tc50.obj
 0001:000044d0       ?getCollectorDict@ParserTC50@aggregator@tls@@AAE?AW4rc_e@@XZ 130d54d0 f   parsertc50_static:parser_tc50.obj
 0001:000045e0       ??0DictFileReulst@aggregator@tls@@QAE@PAVParserTC50@12@@Z 130d55e0 f i parsertc50_static:parser_tc50.obj
 0001:00004620       ?loadConfig@ParserTC50@aggregator@tls@@AAE?AW4rc_e@@XZ 130d5620 f   parsertc50_static:parser_tc50.obj
 0001:00004730       ??0ReadSettingReulst@aggregator@tls@@QAE@PAVParserTC50@12@@Z 130d5730 f i parsertc50_static:parser_tc50.obj
 0001:00004770       ?getDBConn@ParserTC50@aggregator@tls@@AAEPAXXZ 130d5770 f i parsertc50_static:parser_tc50.obj
 0001:000047f0       ?execSQL@ParserTC50@aggregator@tls@@AAE?AW4rc_e@@IPBE@Z 130d57f0 f   parsertc50_static:parser_tc50.obj
 0001:000048d0       ?logDB@ParserTC50@aggregator@tls@@AAE?AW4rc_e@@W4log_lv_e@ILogWriter@3@PBDPBEI2I@Z 130d58d0 f   parsertc50_static:parser_tc50.obj
 0001:000049b0       ?updateParseFile@ParserTC50@aggregator@tls@@AAE?AW4rc_e@@II_J@Z 130d59b0 f   parsertc50_static:parser_tc50.obj
 0001:00004ac0       ?setFailedLog@ParserTC50@aggregator@tls@@AAE?AW4rc_e@@IIPBDI_J1PBEI@Z 130d5ac0 f   parsertc50_static:parser_tc50.obj
 0001:00004bd0       ?writeLog@ParserTC50@aggregator@tls@@AAE?AW4rc_e@@IPBDI_JIPAVTC50Log@23@@Z 130d5bd0 f   parsertc50_static:parser_tc50.obj
 0001:00005490       ??0ParserThread@ParserTC50@aggregator@tls@@QAE@XZ 130d6490 f   parsertc50_static:parser_tc50.obj
 0001:00005510       ?SetFileNode@LogFileNode@ParserTC50@aggregator@tls@@QAEXPBUIFileNode@34@@Z 130d6510 f   parsertc50_static:parser_tc50.obj
 0001:000055b0       ?waitThread@ParserTC50@aggregator@tls@@AAEXXZ 130d65b0 f   parsertc50_static:parser_tc50.obj
 0001:000055f0       ??Batomic_count@base@tls@@QBEJXZ 130d65f0 f i parsertc50_static:parser_tc50.obj
 0001:00005610       ?wakeUpThread@ParserTC50@aggregator@tls@@AAEXXZ 130d6610 f   parsertc50_static:parser_tc50.obj
 0001:00005670       ?CheckPoint@ParserTC50@aggregator@tls@@QAEXXZ 130d6670 f   parsertc50_static:parser_tc50.obj
 0001:00006880       ??_H@YGXPAXIHP6EPAX0@Z@Z   130d7880 f i parsertc50_static:parser_tc50.obj
 0001:000068c0       ??_I@YGXPAXIHP6EX0@Z@Z     130d78c0 f i parsertc50_static:parser_tc50.obj
 0001:00006910       ??0?$AutoRelease@PAE@tls@@QAE@PAE@Z 130d7910 f i parsertc50_static:parser_tc50.obj
 0001:00006930       ??1?$AutoRelease@PAE@tls@@QAE@XZ 130d7930 f i parsertc50_static:parser_tc50.obj
 0001:00006960       ?Release@?$AutoRelease@PAE@tls@@QAEXXZ 130d7960 f i parsertc50_static:parser_tc50.obj
 0001:000069a0       ??B?$AutoRelease@PAE@tls@@QAEPAEXZ 130d79a0 f i parsertc50_static:parser_tc50.obj
 0001:000069c0       ??0?$AutoRelease@PAUIParseIX@aggregator@tls@@@tls@@QAE@PAUIParseIX@aggregator@1@@Z 130d79c0 f i parsertc50_static:parser_tc50.obj
 0001:000069e0       ??1?$AutoRelease@PAUIParseIX@aggregator@tls@@@tls@@QAE@XZ 130d79e0 f i parsertc50_static:parser_tc50.obj
 0001:00006a10       ??B?$AutoRelease@PAUIParseIX@aggregator@tls@@@tls@@QAEPAUIParseIX@aggregator@1@XZ 130d7a10 f i parsertc50_static:parser_tc50.obj
 0001:00006a30       ?Set@?$AutoRelease@PAUIParseIX@aggregator@tls@@@tls@@QAEXPAUIParseIX@aggregator@2@@Z 130d7a30 f i parsertc50_static:parser_tc50.obj
 0001:00006a60       ??0?$hash_map@IVLogFileNode@ParserTC50@aggregator@tls@@V?$hash_compare@IU?$less@I@std@@@stdext@@V?$allocator@U?$pair@$$CBIVLogFileNode@ParserTC50@aggregator@tls@@@std@@@std@@@stdext@@QAE@XZ 130d7a60 f i parsertc50_static:parser_tc50.obj
 0001:00006ab0       ??A?$hash_map@IVLogFileNode@ParserTC50@aggregator@tls@@V?$hash_compare@IU?$less@I@std@@@stdext@@V?$allocator@U?$pair@$$CBIVLogFileNode@ParserTC50@aggregator@tls@@@std@@@std@@@stdext@@QAEAAVLogFileNode@ParserTC50@aggregator@tls@@ABI@Z 130d7ab0 f i parsertc50_static:parser_tc50.obj
 0001:00006bb0       ??0LogFileNode@ParserTC50@aggregator@tls@@QAE@XZ 130d7bb0 f i parsertc50_static:parser_tc50.obj
 0001:00006c10       ??1?$_Hash@V?$_Hmap_traits@IVLogFileNode@ParserTC50@aggregator@tls@@V?$hash_compare@IU?$less@I@std@@@stdext@@V?$allocator@U?$pair@$$CBIVLogFileNode@ParserTC50@aggregator@tls@@@std@@@std@@$0A@@stdext@@@stdext@@QAE@XZ 130d7c10 f i parsertc50_static:parser_tc50.obj
 0001:00006c50       ?begin@?$_Hash@V?$_Hmap_traits@IVLogFileNode@ParserTC50@aggregator@tls@@V?$hash_compare@IU?$less@I@std@@@stdext@@V?$allocator@U?$pair@$$CBIVLogFileNode@ParserTC50@aggregator@tls@@@std@@@std@@$0A@@stdext@@@stdext@@QAE?AV?$_Iterator@$00@?$list@U?$pair@$$CBIVLogFileNode@ParserTC50@aggregator@tls@@@std@@V?$allocator@U?$pair@$$CBIVLogFileNode@ParserTC50@aggregator@tls@@@std@@@2@@std@@XZ 130d7c50 f i parsertc50_static:parser_tc50.obj
 0001:00006c80       ?end@?$_Hash@V?$_Hmap_traits@IVLogFileNode@ParserTC50@aggregator@tls@@V?$hash_compare@IU?$less@I@std@@@stdext@@V?$allocator@U?$pair@$$CBIVLogFileNode@ParserTC50@aggregator@tls@@@std@@@std@@$0A@@stdext@@@stdext@@QAE?AV?$_Iterator@$00@?$list@U?$pair@$$CBIVLogFileNode@ParserTC50@aggregator@tls@@@std@@V?$allocator@U?$pair@$$CBIVLogFileNode@ParserTC50@aggregator@tls@@@std@@@2@@std@@XZ 130d7c80 f i parsertc50_static:parser_tc50.obj
 0001:00006cb0       ?clear@?$_Hash@V?$_Hmap_traits@IVLogFileNode@ParserTC50@aggregator@tls@@V?$hash_compare@IU?$less@I@std@@@stdext@@V?$allocator@U?$pair@$$CBIVLogFileNode@ParserTC50@aggregator@tls@@@std@@@std@@$0A@@stdext@@@stdext@@QAEXXZ 130d7cb0 f i parsertc50_static:parser_tc50.obj
 0001:00006d20       ?find@?$_Hash@V?$_Hmap_traits@IVLogFileNode@ParserTC50@aggregator@tls@@V?$hash_compare@IU?$less@I@std@@@stdext@@V?$allocator@U?$pair@$$CBIVLogFileNode@ParserTC50@aggregator@tls@@@std@@@std@@$0A@@stdext@@@stdext@@QAE?AV?$_Iterator@$00@?$list@U?$pair@$$CBIVLogFileNode@ParserTC50@aggregator@tls@@@std@@V?$allocator@U?$pair@$$CBIVLogFileNode@ParserTC50@aggregator@tls@@@std@@@2@@std@@ABI@Z 130d7d20 f i parsertc50_static:parser_tc50.obj
 0001:00006d60       ??0?$AutoRelease@PAUIConnection@database@tls@@@tls@@QAE@PAUIConnection@database@1@@Z 130d7d60 f i parsertc50_static:parser_tc50.obj
 0001:00006d80       ??1?$AutoRelease@PAUIConnection@database@tls@@@tls@@QAE@XZ 130d7d80 f i parsertc50_static:parser_tc50.obj
 0001:00006db0       ??C?$AutoRelease@PAUIConnection@database@tls@@@tls@@QAEPAUIConnection@database@1@XZ 130d7db0 f i parsertc50_static:parser_tc50.obj
 0001:00006dd0       ??B?$AutoRelease@PAUIConnection@database@tls@@@tls@@QAEPAUIConnection@database@1@XZ 130d7dd0 f i parsertc50_static:parser_tc50.obj
 0001:00006df0       ?Set@?$AutoRelease@PAUIConnection@database@tls@@@tls@@QAEXPAUIConnection@database@2@@Z 130d7df0 f i parsertc50_static:parser_tc50.obj
 0001:00006e20       ??0?$queue@PAVLogFileNode@ParserTC50@aggregator@tls@@V?$deque@PAVLogFileNode@ParserTC50@aggregator@tls@@V?$allocator@PAVLogFileNode@ParserTC50@aggregator@tls@@@std@@@std@@@std@@QAE@XZ 130d7e20 f i parsertc50_static:parser_tc50.obj
 0001:00006e50       ?empty@?$queue@PAVLogFileNode@ParserTC50@aggregator@tls@@V?$deque@PAVLogFileNode@ParserTC50@aggregator@tls@@V?$allocator@PAVLogFileNode@ParserTC50@aggregator@tls@@@std@@@std@@@std@@QBE_NXZ 130d7e50 f i parsertc50_static:parser_tc50.obj
 0001:00006e80       ?front@?$queue@PAVLogFileNode@ParserTC50@aggregator@tls@@V?$deque@PAVLogFileNode@ParserTC50@aggregator@tls@@V?$allocator@PAVLogFileNode@ParserTC50@aggregator@tls@@@std@@@std@@@std@@QAEAAPAVLogFileNode@ParserTC50@aggregator@tls@@XZ 130d7e80 f i parsertc50_static:parser_tc50.obj
 0001:00006eb0       ?push@?$queue@PAVLogFileNode@ParserTC50@aggregator@tls@@V?$deque@PAVLogFileNode@ParserTC50@aggregator@tls@@V?$allocator@PAVLogFileNode@ParserTC50@aggregator@tls@@@std@@@std@@@std@@QAEXABQAVLogFileNode@ParserTC50@aggregator@tls@@@Z 130d7eb0 f i parsertc50_static:parser_tc50.obj
 0001:00006ee0       ?pop@?$queue@PAVLogFileNode@ParserTC50@aggregator@tls@@V?$deque@PAVLogFileNode@ParserTC50@aggregator@tls@@V?$allocator@PAVLogFileNode@ParserTC50@aggregator@tls@@@std@@@std@@@std@@QAEXXZ 130d7ee0 f i parsertc50_static:parser_tc50.obj
 0001:00006f10       ??1?$deque@PAVLogFileNode@ParserTC50@aggregator@tls@@V?$allocator@PAVLogFileNode@ParserTC50@aggregator@tls@@@std@@@std@@QAE@XZ 130d7f10 f i parsertc50_static:parser_tc50.obj
 0001:00006f40       ??0?$hash_set@PAVDictNode@ParserTC50@aggregator@tls@@Udict_node_hash@234@V?$allocator@PAVDictNode@ParserTC50@aggregator@tls@@@std@@@stdext@@QAE@XZ 130d7f40 f i parsertc50_static:parser_tc50.obj
 0001:00006f90       ??1?$_Hash@V?$_Hset_traits@PAVDictNode@ParserTC50@aggregator@tls@@Udict_node_hash@234@V?$allocator@PAVDictNode@ParserTC50@aggregator@tls@@@std@@$0A@@stdext@@@stdext@@QAE@XZ 130d7f90 f i parsertc50_static:parser_tc50.obj
 0001:00006fd0       ??0?$AutoRelease@PAUIFileIteratorBase@aggregator@tls@@@tls@@QAE@PAUIFileIteratorBase@aggregator@1@@Z 130d7fd0 f i parsertc50_static:parser_tc50.obj
 0001:00006ff0       ??1?$AutoRelease@PAUIFileIteratorBase@aggregator@tls@@@tls@@QAE@XZ 130d7ff0 f i parsertc50_static:parser_tc50.obj
 0001:00007020       ??C?$AutoRelease@PAUIFileIteratorBase@aggregator@tls@@@tls@@QAEPAUIFileIteratorBase@aggregator@1@XZ 130d8020 f i parsertc50_static:parser_tc50.obj
 0001:00007040       ??B?$AutoRelease@PAUIFileIteratorBase@aggregator@tls@@@tls@@QAEPAUIFileIteratorBase@aggregator@1@XZ 130d8040 f i parsertc50_static:parser_tc50.obj
 0001:00007060       ??0?$_Iterator@$00@?$list@U?$pair@$$CBIVLogFileNode@ParserTC50@aggregator@tls@@@std@@V?$allocator@U?$pair@$$CBIVLogFileNode@ParserTC50@aggregator@tls@@@std@@@2@@std@@QAE@XZ 130d8060 f i parsertc50_static:parser_tc50.obj
 0001:00007090       ??C?$_Iterator@$00@?$list@U?$pair@$$CBIVLogFileNode@ParserTC50@aggregator@tls@@@std@@V?$allocator@U?$pair@$$CBIVLogFileNode@ParserTC50@aggregator@tls@@@std@@@2@@std@@QBEPAU?$pair@$$CBIVLogFileNode@ParserTC50@aggregator@tls@@@2@XZ 130d8090 f i parsertc50_static:parser_tc50.obj
 0001:000070c0       ??E?$_Iterator@$00@?$list@U?$pair@$$CBIVLogFileNode@ParserTC50@aggregator@tls@@@std@@V?$allocator@U?$pair@$$CBIVLogFileNode@ParserTC50@aggregator@tls@@@std@@@2@@std@@QAEAAV012@XZ 130d80c0 f i parsertc50_static:parser_tc50.obj
 0001:000070f0       ??8?$_Const_iterator@$00@?$list@U?$pair@$$CBIVLogFileNode@ParserTC50@aggregator@tls@@@std@@V?$allocator@U?$pair@$$CBIVLogFileNode@ParserTC50@aggregator@tls@@@std@@@2@@std@@QBE_NABV012@@Z 130d80f0 f i parsertc50_static:parser_tc50.obj
 0001:00007130       ??9?$_Const_iterator@$00@?$list@U?$pair@$$CBIVLogFileNode@ParserTC50@aggregator@tls@@@std@@V?$allocator@U?$pair@$$CBIVLogFileNode@ParserTC50@aggregator@tls@@@std@@@2@@std@@QBE_NABV012@@Z 130d8130 f i parsertc50_static:parser_tc50.obj
 0001:00007170       ??0?$list@ULogFileNodePos@?1??ThreadProc@ParserTC50@aggregator@tls@@QAEXI@Z@V?$allocator@ULogFileNodePos@?1??ThreadProc@ParserTC50@aggregator@tls@@QAEXI@Z@@std@@@std@@QAE@XZ 130d8170 f i parsertc50_static:parser_tc50.obj
 0001:000071c0       ??1?$list@ULogFileNodePos@?1??ThreadProc@ParserTC50@aggregator@tls@@QAEXI@Z@V?$allocator@ULogFileNodePos@?1??ThreadProc@ParserTC50@aggregator@tls@@QAEXI@Z@@std@@@std@@QAE@XZ 130d81c0 f i parsertc50_static:parser_tc50.obj
 0001:000071f0       ?begin@?$list@ULogFileNodePos@?1??ThreadProc@ParserTC50@aggregator@tls@@QAEXI@Z@V?$allocator@ULogFileNodePos@?1??ThreadProc@ParserTC50@aggregator@tls@@QAEXI@Z@@std@@@std@@QAE?AV?$_Iterator@$00@12@XZ 130d81f0 f i parsertc50_static:parser_tc50.obj
 0001:00007230       ?end@?$list@ULogFileNodePos@?1??ThreadProc@ParserTC50@aggregator@tls@@QAEXI@Z@V?$allocator@ULogFileNodePos@?1??ThreadProc@ParserTC50@aggregator@tls@@QAEXI@Z@@std@@@std@@QAE?AV?$_Iterator@$00@12@XZ 130d8230 f i parsertc50_static:parser_tc50.obj
 0001:00007270       ?back@?$list@ULogFileNodePos@?1??ThreadProc@ParserTC50@aggregator@tls@@QAEXI@Z@V?$allocator@ULogFileNodePos@?1??ThreadProc@ParserTC50@aggregator@tls@@QAEXI@Z@@std@@@std@@QAEAAULogFileNodePos@?1??ThreadProc@ParserTC50@aggregator@tls@@QAEXI@Z@XZ 130d8270 f i parsertc50_static:parser_tc50.obj
 0001:000072d0       ?push_back@?$list@ULogFileNodePos@?1??ThreadProc@ParserTC50@aggregator@tls@@QAEXI@Z@V?$allocator@ULogFileNodePos@?1??ThreadProc@ParserTC50@aggregator@tls@@QAEXI@Z@@std@@@std@@QAEXABULogFileNodePos@?1??ThreadProc@ParserTC50@aggregator@tls@@QAEXI@Z@@Z 130d82d0 f i parsertc50_static:parser_tc50.obj
 0001:00007310       ?clear@?$list@ULogFileNodePos@?1??ThreadProc@ParserTC50@aggregator@tls@@QAEXI@Z@V?$allocator@ULogFileNodePos@?1??ThreadProc@ParserTC50@aggregator@tls@@QAEXI@Z@@std@@@std@@QAEXXZ 130d8310 f i parsertc50_static:parser_tc50.obj
 0001:000073e0       ??0?$_Iterator@$00@?$list@ULogFileNodePos@?1??ThreadProc@ParserTC50@aggregator@tls@@QAEXI@Z@V?$allocator@ULogFileNodePos@?1??ThreadProc@ParserTC50@aggregator@tls@@QAEXI@Z@@std@@@std@@QAE@XZ 130d83e0 f i parsertc50_static:parser_tc50.obj
 0001:00007410       ??D?$_Iterator@$00@?$list@ULogFileNodePos@?1??ThreadProc@ParserTC50@aggregator@tls@@QAEXI@Z@V?$allocator@ULogFileNodePos@?1??ThreadProc@ParserTC50@aggregator@tls@@QAEXI@Z@@std@@@std@@QBEAAULogFileNodePos@?1??ThreadProc@ParserTC50@aggregator@tls@@QAEXI@Z@XZ 130d8410 f i parsertc50_static:parser_tc50.obj
 0001:00007440       ??E?$_Iterator@$00@?$list@ULogFileNodePos@?1??ThreadProc@ParserTC50@aggregator@tls@@QAEXI@Z@V?$allocator@ULogFileNodePos@?1??ThreadProc@ParserTC50@aggregator@tls@@QAEXI@Z@@std@@@std@@QAEAAV012@XZ 130d8440 f i parsertc50_static:parser_tc50.obj
 0001:00007470       ??9?$_Const_iterator@$00@?$list@ULogFileNodePos@?1??ThreadProc@ParserTC50@aggregator@tls@@QAEXI@Z@V?$allocator@ULogFileNodePos@?1??ThreadProc@ParserTC50@aggregator@tls@@QAEXI@Z@@std@@@std@@QBE_NABV012@@Z 130d8470 f i parsertc50_static:parser_tc50.obj
 0001:000074b0       ??0?$AutoRelease@PAUIMemoryNode@tls@@@tls@@QAE@PAUIMemoryNode@1@@Z 130d84b0 f i parsertc50_static:parser_tc50.obj
 0001:000074d0       ??1?$AutoRelease@PAUIMemoryNode@tls@@@tls@@QAE@XZ 130d84d0 f i parsertc50_static:parser_tc50.obj
 0001:00007500       ??C?$AutoRelease@PAUIMemoryNode@tls@@@tls@@QAEPAUIMemoryNode@1@XZ 130d8500 f i parsertc50_static:parser_tc50.obj
 0001:00007520       ??B?$AutoRelease@PAUIMemoryNode@tls@@@tls@@QAEPAUIMemoryNode@1@XZ 130d8520 f i parsertc50_static:parser_tc50.obj
 0001:00007540       ?Set@?$AutoRelease@PAUIMemoryNode@tls@@@tls@@QAEXPAUIMemoryNode@2@@Z 130d8540 f i parsertc50_static:parser_tc50.obj
 0001:00007570       ??0?$GetSetParamImpl@PAUParseFileReulst@aggregator@tls@@@aggregator@tls@@QAE@PAUParseFileReulst@12@PBDI1I1I1I1I1I@Z 130d8570 f i parsertc50_static:parser_tc50.obj
 0001:000075e0       ?SetResult@?$GetSetParamImpl@PAUParseFileReulst@aggregator@tls@@@aggregator@tls@@UAEXIIPBDI@Z 130d85e0 f i parsertc50_static:parser_tc50.obj
 0001:000076b0       ?GetCondition@?$GetSetParamImpl@PAUParseFileReulst@aggregator@tls@@@aggregator@tls@@UBEPBDIPAI@Z 130d86b0 f i parsertc50_static:parser_tc50.obj
 0001:000076f0       ??0?$GetSetParamImpl@PAVParserTC50@aggregator@tls@@@aggregator@tls@@QAE@PAVParserTC50@12@PBDI1I1I1I1I1I@Z 130d86f0 f i parsertc50_static:parser_tc50.obj
 0001:00007760       ?SetResult@?$GetSetParamImpl@PAVParserTC50@aggregator@tls@@@aggregator@tls@@UAEXIIPBDI@Z 130d8760 f i parsertc50_static:parser_tc50.obj
 0001:000077d0       ?SetLogRule@ParserTC50@aggregator@tls@@QAEXI@Z 130d87d0 f i parsertc50_static:parser_tc50.obj
 0001:00007800       ?GetCondition@?$GetSetParamImpl@PAVParserTC50@aggregator@tls@@@aggregator@tls@@UBEPBDIPAI@Z 130d8800 f i parsertc50_static:parser_tc50.obj
 0001:00007840       ??0?$GetSetParamImpl@PAUDictFileReulst@aggregator@tls@@@aggregator@tls@@QAE@PAUDictFileReulst@12@PBDI1I1I1I1I1I@Z 130d8840 f i parsertc50_static:parser_tc50.obj
 0001:000078b0       ?SetResult@?$GetSetParamImpl@PAUDictFileReulst@aggregator@tls@@@aggregator@tls@@UAEXIIPBDI@Z 130d88b0 f i parsertc50_static:parser_tc50.obj
 0001:000079e0       ?GetCondition@?$GetSetParamImpl@PAUDictFileReulst@aggregator@tls@@@aggregator@tls@@UBEPBDIPAI@Z 130d89e0 f i parsertc50_static:parser_tc50.obj
 0001:00007a20       ??0?$GetSetParamImpl@PAUReadSettingReulst@aggregator@tls@@@aggregator@tls@@QAE@PAUReadSettingReulst@12@PBDI1I1I1I1I1I@Z 130d8a20 f i parsertc50_static:parser_tc50.obj
 0001:00007a90       ?SetResult@?$GetSetParamImpl@PAUReadSettingReulst@aggregator@tls@@@aggregator@tls@@UAEXIIPBDI@Z 130d8a90 f i parsertc50_static:parser_tc50.obj
 0001:00007d10       ?SetThreadNum@ParserTC50@aggregator@tls@@QAEXI@Z 130d8d10 f i parsertc50_static:parser_tc50.obj
 0001:00007d60       ?SetTransformRows@ParserTC50@aggregator@tls@@QAEXI@Z 130d8d60 f i parsertc50_static:parser_tc50.obj
 0001:00007d80       ?SetScheduleTime@ParserTC50@aggregator@tls@@QAEXI@Z 130d8d80 f i parsertc50_static:parser_tc50.obj
 0001:00007da0       ?SetHisDBName@ParserTC50@aggregator@tls@@QAEXPBD@Z 130d8da0 f i parsertc50_static:parser_tc50.obj
 0001:00007de0       ?SetScheduleEnable@ParserTC50@aggregator@tls@@QAEXI@Z 130d8de0 f i parsertc50_static:parser_tc50.obj
 0001:00007e00       ?SetHisDBEng@ParserTC50@aggregator@tls@@QAEXPBD@Z 130d8e00 f i parsertc50_static:parser_tc50.obj
 0001:00007e40       ?SetHisDBRemote@ParserTC50@aggregator@tls@@QAEXI@Z 130d8e40 f i parsertc50_static:parser_tc50.obj
 0001:00007e60       ?GetCondition@?$GetSetParamImpl@PAUReadSettingReulst@aggregator@tls@@@aggregator@tls@@UBEPBDIPAI@Z 130d8e60 f i parsertc50_static:parser_tc50.obj
 0001:00007ea0       ??0?$GetSetParamImpl@PAUNullClass@tls@@@aggregator@tls@@QAE@PAUNullClass@2@PBDI1I1I1I1I1I@Z 130d8ea0 f i parsertc50_static:parser_tc50.obj
 0001:00007f10       ?GetCondition@?$GetSetParamImpl@PAUNullClass@tls@@@aggregator@tls@@UBEPBDIPAI@Z 130d8f10 f i parsertc50_static:parser_tc50.obj
 0001:00007f50       ?SetResult@?$GetSetParamImpl@PAUNullClass@tls@@@aggregator@tls@@UAEXIIPBDI@Z 130d8f50 f i parsertc50_static:parser_tc50.obj
 0001:00007f70       ??0?$AutoRelease@PAUIRecordSet@database@tls@@@tls@@QAE@PAUIRecordSet@database@1@@Z 130d8f70 f i parsertc50_static:parser_tc50.obj
 0001:00007f90       ??1?$AutoRelease@PAUIRecordSet@database@tls@@@tls@@QAE@XZ 130d8f90 f i parsertc50_static:parser_tc50.obj
 0001:00007fc0       ??C?$AutoRelease@PAUIRecordSet@database@tls@@@tls@@QAEPAUIRecordSet@database@1@XZ 130d8fc0 f i parsertc50_static:parser_tc50.obj
 0001:00007fe0       ??B?$AutoRelease@PAUIRecordSet@database@tls@@@tls@@QAEPAUIRecordSet@database@1@XZ 130d8fe0 f i parsertc50_static:parser_tc50.obj
 0001:00008000       ??0?$AutoRelease@PAUIRecord@database@tls@@@tls@@QAE@PAUIRecord@database@1@@Z 130d9000 f i parsertc50_static:parser_tc50.obj
 0001:00008020       ??1?$AutoRelease@PAUIRecord@database@tls@@@tls@@QAE@XZ 130d9020 f i parsertc50_static:parser_tc50.obj
 0001:00008050       ??C?$AutoRelease@PAUIRecord@database@tls@@@tls@@QAEPAUIRecord@database@1@XZ 130d9050 f i parsertc50_static:parser_tc50.obj
 0001:00008070       ??B?$AutoRelease@PAUIRecord@database@tls@@@tls@@QAEPAUIRecord@database@1@XZ 130d9070 f i parsertc50_static:parser_tc50.obj
 0001:00008090       ??1?$pair@$$CBIVLogFileNode@ParserTC50@aggregator@tls@@@std@@QAE@XZ 130d9090 f i parsertc50_static:parser_tc50.obj
 0001:000080c0       ??1?$pair@V?$_Iterator@$00@?$list@U?$pair@$$CBIVLogFileNode@ParserTC50@aggregator@tls@@@std@@V?$allocator@U?$pair@$$CBIVLogFileNode@ParserTC50@aggregator@tls@@@std@@@2@@std@@_N@std@@QAE@XZ 130d90c0 f i parsertc50_static:parser_tc50.obj
 0001:000080f0       ??1?$_Hmap_traits@IVLogFileNode@ParserTC50@aggregator@tls@@V?$hash_compare@IU?$less@I@std@@@stdext@@V?$allocator@U?$pair@$$CBIVLogFileNode@ParserTC50@aggregator@tls@@@std@@@std@@$0A@@stdext@@QAE@XZ 130d90f0 f i parsertc50_static:parser_tc50.obj
 0001:00008120       ??1_Container_base@std@@QAE@XZ 130d9120 f i parsertc50_static:parser_tc50.obj
 0001:00008150       ?_Orphan_all@_Container_base@std@@QBEXXZ 130d9150 f i parsertc50_static:parser_tc50.obj
 0001:00008200       ??1?$_Deque_val@PAVLogFileNode@ParserTC50@aggregator@tls@@V?$allocator@PAVLogFileNode@ParserTC50@aggregator@tls@@@std@@@std@@QAE@XZ 130d9200 f i parsertc50_static:parser_tc50.obj
 0001:00008230       ??1?$_Hset_traits@PAVDictNode@ParserTC50@aggregator@tls@@Udict_node_hash@234@V?$allocator@PAVDictNode@ParserTC50@aggregator@tls@@@std@@$0A@@stdext@@QAE@XZ 130d9230 f i parsertc50_static:parser_tc50.obj
 0001:00008260       ??1?$_List_val@ULogFileNodePos@?1??ThreadProc@ParserTC50@aggregator@tls@@QAEXI@Z@V?$allocator@ULogFileNodePos@?1??ThreadProc@ParserTC50@aggregator@tls@@QAEXI@Z@@std@@@std@@QAE@XZ 130d9260 f i parsertc50_static:parser_tc50.obj
 0001:00008290       ??0IGetSetParam@aggregator@tls@@QAE@XZ 130d9290 f i parsertc50_static:parser_tc50.obj
 0001:000082b0       ??1?$_Deque_map@PAVLogFileNode@ParserTC50@aggregator@tls@@V?$allocator@PAVLogFileNode@ParserTC50@aggregator@tls@@@std@@@std@@QAE@XZ 130d92b0 f i parsertc50_static:parser_tc50.obj
 0001:000082e0       ??1?$_List_ptr@ULogFileNodePos@?1??ThreadProc@ParserTC50@aggregator@tls@@QAEXI@Z@V?$allocator@ULogFileNodePos@?1??ThreadProc@ParserTC50@aggregator@tls@@QAEXI@Z@@std@@@std@@QAE@XZ 130d92e0 f i parsertc50_static:parser_tc50.obj
 0001:00008310       ??1?$_List_nod@ULogFileNodePos@?1??ThreadProc@ParserTC50@aggregator@tls@@QAEXI@Z@V?$allocator@ULogFileNodePos@?1??ThreadProc@ParserTC50@aggregator@tls@@QAEXI@Z@@std@@@std@@QAE@XZ 130d9310 f i parsertc50_static:parser_tc50.obj
 0001:00008340       ?Release@?$AutoRelease@PAUIParseIX@aggregator@tls@@@tls@@QAEXXZ 130d9340 f i parsertc50_static:parser_tc50.obj
 0001:00008390       ??0?$_Hash@V?$_Hmap_traits@IVLogFileNode@ParserTC50@aggregator@tls@@V?$hash_compare@IU?$less@I@std@@@stdext@@V?$allocator@U?$pair@$$CBIVLogFileNode@ParserTC50@aggregator@tls@@@std@@@std@@$0A@@stdext@@@stdext@@QAE@ABV?$hash_compare@IU?$less@I@std@@@1@ABV?$allocator@U?$pair@$$CBIVLogFileNode@ParserTC50@aggregator@tls@@@std@@@std@@@Z 130d9390 f i parsertc50_static:parser_tc50.obj
 0001:00008430       ?insert@?$_Hash@V?$_Hmap_traits@IVLogFileNode@ParserTC50@aggregator@tls@@V?$hash_compare@IU?$less@I@std@@@stdext@@V?$allocator@U?$pair@$$CBIVLogFileNode@ParserTC50@aggregator@tls@@@std@@@std@@$0A@@stdext@@@stdext@@QAE?AU?$pair@V?$_Iterator@$00@?$list@U?$pair@$$CBIVLogFileNode@ParserTC50@aggregator@tls@@@std@@V?$allocator@U?$pair@$$CBIVLogFileNode@ParserTC50@aggregator@tls@@@std@@@2@@std@@_N@std@@ABU?$pair@$$CBIVLogFileNode@ParserTC50@aggregator@tls@@@4@@Z 130d9430 f i parsertc50_static:parser_tc50.obj
 0001:00008a10       ?lower_bound@?$_Hash@V?$_Hmap_traits@IVLogFileNode@ParserTC50@aggregator@tls@@V?$hash_compare@IU?$less@I@std@@@stdext@@V?$allocator@U?$pair@$$CBIVLogFileNode@ParserTC50@aggregator@tls@@@std@@@std@@$0A@@stdext@@@stdext@@QAE?AV?$_Iterator@$00@?$list@U?$pair@$$CBIVLogFileNode@ParserTC50@aggregator@tls@@@std@@V?$allocator@U?$pair@$$CBIVLogFileNode@ParserTC50@aggregator@tls@@@std@@@2@@std@@ABI@Z 130d9a10 f i parsertc50_static:parser_tc50.obj
 0001:00008ba0       ??0?$allocator@U?$pair@$$CBIVLogFileNode@ParserTC50@aggregator@tls@@@std@@@std@@QAE@XZ 130d9ba0 f i parsertc50_static:parser_tc50.obj
 0001:00008bc0       ??0?$hash_compare@IU?$less@I@std@@@stdext@@QAE@XZ 130d9bc0 f i parsertc50_static:parser_tc50.obj
 0001:00008be0       ??1?$list@U?$pair@$$CBIVLogFileNode@ParserTC50@aggregator@tls@@@std@@V?$allocator@U?$pair@$$CBIVLogFileNode@ParserTC50@aggregator@tls@@@std@@@2@@std@@QAE@XZ 130d9be0 f i parsertc50_static:parser_tc50.obj
 0001:00008c10       ?begin@?$list@U?$pair@$$CBIVLogFileNode@ParserTC50@aggregator@tls@@@std@@V?$allocator@U?$pair@$$CBIVLogFileNode@ParserTC50@aggregator@tls@@@std@@@2@@std@@QAE?AV?$_Iterator@$00@12@XZ 130d9c10 f i parsertc50_static:parser_tc50.obj
 0001:00008c50       ?end@?$list@U?$pair@$$CBIVLogFileNode@ParserTC50@aggregator@tls@@@std@@V?$allocator@U?$pair@$$CBIVLogFileNode@ParserTC50@aggregator@tls@@@std@@@2@@std@@QAE?AV?$_Iterator@$00@12@XZ 130d9c50 f i parsertc50_static:parser_tc50.obj
 0001:00008c90       ?clear@?$list@U?$pair@$$CBIVLogFileNode@ParserTC50@aggregator@tls@@@std@@V?$allocator@U?$pair@$$CBIVLogFileNode@ParserTC50@aggregator@tls@@@std@@@2@@std@@QAEXXZ 130d9c90 f i parsertc50_static:parser_tc50.obj
 0001:00008d60       ??1?$vector@V?$_Iterator@$00@?$list@U?$pair@$$CBIVLogFileNode@ParserTC50@aggregator@tls@@@std@@V?$allocator@U?$pair@$$CBIVLogFileNode@ParserTC50@aggregator@tls@@@std@@@2@@std@@V?$allocator@V?$_Iterator@$00@?$list@U?$pair@$$CBIVLogFileNode@ParserTC50@aggregator@tls@@@std@@V?$allocator@U?$pair@$$CBIVLogFileNode@ParserTC50@aggregator@tls@@@std@@@2@@std@@@3@@std@@QAE@XZ 130d9d60 f i parsertc50_static:parser_tc50.obj
 0001:00008d90       ?assign@?$vector@V?$_Iterator@$00@?$list@U?$pair@$$CBIVLogFileNode@ParserTC50@aggregator@tls@@@std@@V?$allocator@U?$pair@$$CBIVLogFileNode@ParserTC50@aggregator@tls@@@std@@@2@@std@@V?$allocator@V?$_Iterator@$00@?$list@U?$pair@$$CBIVLogFileNode@ParserTC50@aggregator@tls@@@std@@V?$allocator@U?$pair@$$CBIVLogFileNode@ParserTC50@aggregator@tls@@@std@@@2@@std@@@3@@std@@QAEXIABV?$_Iterator@$00@?$list@U?$pair@$$CBIVLogFileNode@ParserTC50@aggregator@tls@@@std@@V?$allocator@U?$pair@$$CBIVLogFileNode@ParserTC50@aggregator@tls@@@std@@@2@@2@@Z 130d9d90 f i parsertc50_static:parser_tc50.obj
 0001:00008dc0       ?Release@?$AutoRelease@PAUIConnection@database@tls@@@tls@@QAEXXZ 130d9dc0 f i parsertc50_static:parser_tc50.obj
 0001:00008e10       ??0?$deque@PAVLogFileNode@ParserTC50@aggregator@tls@@V?$allocator@PAVLogFileNode@ParserTC50@aggregator@tls@@@std@@@std@@QAE@XZ 130d9e10 f i parsertc50_static:parser_tc50.obj
 0001:00008e70       ?empty@?$deque@PAVLogFileNode@ParserTC50@aggregator@tls@@V?$allocator@PAVLogFileNode@ParserTC50@aggregator@tls@@@std@@@std@@QBE_NXZ 130d9e70 f i parsertc50_static:parser_tc50.obj
 0001:00008e90       ?front@?$deque@PAVLogFileNode@ParserTC50@aggregator@tls@@V?$allocator@PAVLogFileNode@ParserTC50@aggregator@tls@@@std@@@std@@QAEAAPAVLogFileNode@ParserTC50@aggregator@tls@@XZ 130d9e90 f i parsertc50_static:parser_tc50.obj
 0001:00008ee0       ?pop_front@?$deque@PAVLogFileNode@ParserTC50@aggregator@tls@@V?$allocator@PAVLogFileNode@ParserTC50@aggregator@tls@@@std@@@std@@QAEXXZ 130d9ee0 f i parsertc50_static:parser_tc50.obj
 0001:00008fd0       ?push_back@?$deque@PAVLogFileNode@ParserTC50@aggregator@tls@@V?$allocator@PAVLogFileNode@ParserTC50@aggregator@tls@@@std@@@std@@QAEXABQAVLogFileNode@ParserTC50@aggregator@tls@@@Z 130d9fd0 f i parsertc50_static:parser_tc50.obj
 0001:000090d0       ?_Tidy@?$deque@PAVLogFileNode@ParserTC50@aggregator@tls@@V?$allocator@PAVLogFileNode@ParserTC50@aggregator@tls@@@std@@@std@@IAEXXZ 130da0d0 f i parsertc50_static:parser_tc50.obj
 0001:000091a0       ??0?$_Hash@V?$_Hset_traits@PAVDictNode@ParserTC50@aggregator@tls@@Udict_node_hash@234@V?$allocator@PAVDictNode@ParserTC50@aggregator@tls@@@std@@$0A@@stdext@@@stdext@@QAE@ABUdict_node_hash@ParserTC50@aggregator@tls@@ABV?$allocator@PAVDictNode@ParserTC50@aggregator@tls@@@std@@@Z 130da1a0 f i parsertc50_static:parser_tc50.obj
 0001:00009240       ??0?$allocator@PAVDictNode@ParserTC50@aggregator@tls@@@std@@QAE@XZ 130da240 f i parsertc50_static:parser_tc50.obj
 0001:00009260       ??1?$list@PAVDictNode@ParserTC50@aggregator@tls@@V?$allocator@PAVDictNode@ParserTC50@aggregator@tls@@@std@@@std@@QAE@XZ 130da260 f i parsertc50_static:parser_tc50.obj
 0001:00009290       ??1?$vector@V?$_Iterator@$00@?$list@PAVDictNode@ParserTC50@aggregator@tls@@V?$allocator@PAVDictNode@ParserTC50@aggregator@tls@@@std@@@std@@V?$allocator@V?$_Iterator@$00@?$list@PAVDictNode@ParserTC50@aggregator@tls@@V?$allocator@PAVDictNode@ParserTC50@aggregator@tls@@@std@@@std@@@3@@std@@QAE@XZ 130da290 f i parsertc50_static:parser_tc50.obj
 0001:000092c0       ?Release@?$AutoRelease@PAUIFileIteratorBase@aggregator@tls@@@tls@@QAEXXZ 130da2c0 f i parsertc50_static:parser_tc50.obj
 0001:00009310       ??D?$_Iterator@$00@?$list@U?$pair@$$CBIVLogFileNode@ParserTC50@aggregator@tls@@@std@@V?$allocator@U?$pair@$$CBIVLogFileNode@ParserTC50@aggregator@tls@@@std@@@2@@std@@QBEAAU?$pair@$$CBIVLogFileNode@ParserTC50@aggregator@tls@@@2@XZ 130da310 f i parsertc50_static:parser_tc50.obj
 0001:00009340       ??0?$_Const_iterator@$00@?$list@U?$pair@$$CBIVLogFileNode@ParserTC50@aggregator@tls@@@std@@V?$allocator@U?$pair@$$CBIVLogFileNode@ParserTC50@aggregator@tls@@@std@@@2@@std@@QAE@XZ 130da340 f i parsertc50_static:parser_tc50.obj
 0001:00009380       ??E?$_Const_iterator@$00@?$list@U?$pair@$$CBIVLogFileNode@ParserTC50@aggregator@tls@@@std@@V?$allocator@U?$pair@$$CBIVLogFileNode@ParserTC50@aggregator@tls@@@std@@@2@@std@@QAEAAV012@XZ 130da380 f i parsertc50_static:parser_tc50.obj
 0001:00009440       ?_Compat@?$_Const_iterator@$00@?$list@U?$pair@$$CBIVLogFileNode@ParserTC50@aggregator@tls@@@std@@V?$allocator@U?$pair@$$CBIVLogFileNode@ParserTC50@aggregator@tls@@@std@@@2@@std@@QBEXABV123@@Z 130da440 f i parsertc50_static:parser_tc50.obj
 0001:000094e0       ??0?$pair@$$CBIVLogFileNode@ParserTC50@aggregator@tls@@@std@@QAE@ABIABVLogFileNode@ParserTC50@aggregator@tls@@@Z 130da4e0 f i parsertc50_static:parser_tc50.obj
 0001:00009520       ??0LogFileNode@ParserTC50@aggregator@tls@@QAE@ABV0123@@Z 130da520 f i parsertc50_static:parser_tc50.obj
 0001:00009550       ?_Nextnode@?$list@ULogFileNodePos@?1??ThreadProc@ParserTC50@aggregator@tls@@QAEXI@Z@V?$allocator@ULogFileNodePos@?1??ThreadProc@ParserTC50@aggregator@tls@@QAEXI@Z@@std@@@std@@KAAAPAU_Node@?$_List_nod@ULogFileNodePos@?1??ThreadProc@ParserTC50@aggregator@tls@@QAEXI@Z@V?$allocator@ULogFileNodePos@?1??ThreadProc@ParserTC50@aggregator@tls@@QAEXI@Z@@std@@@2@PAU342@@Z 130da550 f i parsertc50_static:parser_tc50.obj
 0001:00009560       ?_Prevnode@?$list@ULogFileNodePos@?1??ThreadProc@ParserTC50@aggregator@tls@@QAEXI@Z@V?$allocator@ULogFileNodePos@?1??ThreadProc@ParserTC50@aggregator@tls@@QAEXI@Z@@std@@@std@@KAAAPAU_Node@?$_List_nod@ULogFileNodePos@?1??ThreadProc@ParserTC50@aggregator@tls@@QAEXI@Z@V?$allocator@ULogFileNodePos@?1??ThreadProc@ParserTC50@aggregator@tls@@QAEXI@Z@@std@@@2@PAU342@@Z 130da560 f i parsertc50_static:parser_tc50.obj
 0001:00009570       ?_Insert@?$list@ULogFileNodePos@?1??ThreadProc@ParserTC50@aggregator@tls@@QAEXI@Z@V?$allocator@ULogFileNodePos@?1??ThreadProc@ParserTC50@aggregator@tls@@QAEXI@Z@@std@@@std@@QAEXV?$_Iterator@$00@12@ABULogFileNodePos@?1??ThreadProc@ParserTC50@aggregator@tls@@QAEXI@Z@@Z 130da570 f i parsertc50_static:parser_tc50.obj
 0001:00009630       ?_Buynode@?$list@ULogFileNodePos@?1??ThreadProc@ParserTC50@aggregator@tls@@QAEXI@Z@V?$allocator@ULogFileNodePos@?1??ThreadProc@ParserTC50@aggregator@tls@@QAEXI@Z@@std@@@std@@IAEPAU_Node@?$_List_nod@ULogFileNodePos@?1??ThreadProc@ParserTC50@aggregator@tls@@QAEXI@Z@V?$allocator@ULogFileNodePos@?1??ThreadProc@ParserTC50@aggregator@tls@@QAEXI@Z@@std@@@2@XZ 130da630 f i parsertc50_static:parser_tc50.obj
 0001:00009720       ?_Tidy@?$list@ULogFileNodePos@?1??ThreadProc@ParserTC50@aggregator@tls@@QAEXI@Z@V?$allocator@ULogFileNodePos@?1??ThreadProc@ParserTC50@aggregator@tls@@QAEXI@Z@@std@@@std@@IAEXXZ 130da720 f i parsertc50_static:parser_tc50.obj
 0001:000097a0       ?_Orphan_ptr@?$list@ULogFileNodePos@?1??ThreadProc@ParserTC50@aggregator@tls@@QAEXI@Z@V?$allocator@ULogFileNodePos@?1??ThreadProc@ParserTC50@aggregator@tls@@QAEXI@Z@@std@@@std@@IBEXAAV12@PAU_Node@?$_List_nod@ULogFileNodePos@?1??ThreadProc@ParserTC50@aggregator@tls@@QAEXI@Z@V?$allocator@ULogFileNodePos@?1??ThreadProc@ParserTC50@aggregator@tls@@QAEXI@Z@@std@@@2@@Z 130da7a0 f i parsertc50_static:parser_tc50.obj
 0001:00009870       ??0?$_List_val@ULogFileNodePos@?1??ThreadProc@ParserTC50@aggregator@tls@@QAEXI@Z@V?$allocator@ULogFileNodePos@?1??ThreadProc@ParserTC50@aggregator@tls@@QAEXI@Z@@std@@@std@@QAE@V?$allocator@ULogFileNodePos@?1??ThreadProc@ParserTC50@aggregator@tls@@QAEXI@Z@@1@@Z 130da870 f i parsertc50_static:parser_tc50.obj
 0001:000098c0       ??0?$allocator@ULogFileNodePos@?1??ThreadProc@ParserTC50@aggregator@tls@@QAEXI@Z@@std@@QAE@XZ 130da8c0 f i parsertc50_static:parser_tc50.obj
 0001:000098e0       ?deallocate@?$allocator@U_Node@?$_List_nod@ULogFileNodePos@?1??ThreadProc@ParserTC50@aggregator@tls@@QAEXI@Z@V?$allocator@ULogFileNodePos@?1??ThreadProc@ParserTC50@aggregator@tls@@QAEXI@Z@@std@@@std@@@std@@QAEXPAU_Node@?$_List_nod@ULogFileNodePos@?1??ThreadProc@ParserTC50@aggregator@tls@@QAEXI@Z@V?$allocator@ULogFileNodePos@?1??ThreadProc@ParserTC50@aggregator@tls@@QAEXI@Z@@std@@@2@I@Z 130da8e0 f i parsertc50_static:parser_tc50.obj
 0001:00009910       ?destroy@?$allocator@U_Node@?$_List_nod@ULogFileNodePos@?1??ThreadProc@ParserTC50@aggregator@tls@@QAEXI@Z@V?$allocator@ULogFileNodePos@?1??ThreadProc@ParserTC50@aggregator@tls@@QAEXI@Z@@std@@@std@@@std@@QAEXPAU_Node@?$_List_nod@ULogFileNodePos@?1??ThreadProc@ParserTC50@aggregator@tls@@QAEXI@Z@V?$allocator@ULogFileNodePos@?1??ThreadProc@ParserTC50@aggregator@tls@@QAEXI@Z@@std@@@2@@Z 130da910 f i parsertc50_static:parser_tc50.obj
 0001:00009940       ??0?$_Iterator@$00@?$list@ULogFileNodePos@?1??ThreadProc@ParserTC50@aggregator@tls@@QAEXI@Z@V?$allocator@ULogFileNodePos@?1??ThreadProc@ParserTC50@aggregator@tls@@QAEXI@Z@@std@@@std@@QAE@PAU_Node@?$_List_nod@ULogFileNodePos@?1??ThreadProc@ParserTC50@aggregator@tls@@QAEXI@Z@V?$allocator@ULogFileNodePos@?1??ThreadProc@ParserTC50@aggregator@tls@@QAEXI@Z@@std@@@2@PBV12@@Z 130da940 f i parsertc50_static:parser_tc50.obj
 0001:00009980       ??F?$_Iterator@$00@?$list@ULogFileNodePos@?1??ThreadProc@ParserTC50@aggregator@tls@@QAEXI@Z@V?$allocator@ULogFileNodePos@?1??ThreadProc@ParserTC50@aggregator@tls@@QAEXI@Z@@std@@@std@@QAEAAV012@XZ 130da980 f i parsertc50_static:parser_tc50.obj
 0001:000099b0       ??0?$_Const_iterator@$00@?$list@ULogFileNodePos@?1??ThreadProc@ParserTC50@aggregator@tls@@QAEXI@Z@V?$allocator@ULogFileNodePos@?1??ThreadProc@ParserTC50@aggregator@tls@@QAEXI@Z@@std@@@std@@QAE@XZ 130da9b0 f i parsertc50_static:parser_tc50.obj
 0001:000099f0       ??D?$_Const_iterator@$00@?$list@ULogFileNodePos@?1??ThreadProc@ParserTC50@aggregator@tls@@QAEXI@Z@V?$allocator@ULogFileNodePos@?1??ThreadProc@ParserTC50@aggregator@tls@@QAEXI@Z@@std@@@std@@QBEABULogFileNodePos@?1??ThreadProc@ParserTC50@aggregator@tls@@QAEXI@Z@XZ 130da9f0 f i parsertc50_static:parser_tc50.obj
 0001:00009aa0       ??E?$_Const_iterator@$00@?$list@ULogFileNodePos@?1??ThreadProc@ParserTC50@aggregator@tls@@QAEXI@Z@V?$allocator@ULogFileNodePos@?1??ThreadProc@ParserTC50@aggregator@tls@@QAEXI@Z@@std@@@std@@QAEAAV012@XZ 130daaa0 f i parsertc50_static:parser_tc50.obj
 0001:00009b60       ??8?$_Const_iterator@$00@?$list@ULogFileNodePos@?1??ThreadProc@ParserTC50@aggregator@tls@@QAEXI@Z@V?$allocator@ULogFileNodePos@?1??ThreadProc@ParserTC50@aggregator@tls@@QAEXI@Z@@std@@@std@@QBE_NABV012@@Z 130dab60 f i parsertc50_static:parser_tc50.obj
 0001:00009ba0       ?Release@?$AutoRelease@PAUIMemoryNode@tls@@@tls@@QAEXXZ 130daba0 f i parsertc50_static:parser_tc50.obj
 0001:00009bf0       ?SetParsm@?$GetSetParamImpl@PAUParseFileReulst@aggregator@tls@@@aggregator@tls@@QAEXPAUParseFileReulst@23@PBDI1I1I1I1I1I@Z 130dabf0 f i parsertc50_static:parser_tc50.obj
 0001:00009c80       ?SetParsm@?$GetSetParamImpl@PAVParserTC50@aggregator@tls@@@aggregator@tls@@QAEXPAVParserTC50@23@PBDI1I1I1I1I1I@Z 130dac80 f i parsertc50_static:parser_tc50.obj
 0001:00009d10       ?SetParsm@?$GetSetParamImpl@PAUDictFileReulst@aggregator@tls@@@aggregator@tls@@QAEXPAUDictFileReulst@23@PBDI1I1I1I1I1I@Z 130dad10 f i parsertc50_static:parser_tc50.obj
 0001:00009da0       ?SetParsm@?$GetSetParamImpl@PAUReadSettingReulst@aggregator@tls@@@aggregator@tls@@QAEXPAUReadSettingReulst@23@PBDI1I1I1I1I1I@Z 130dada0 f i parsertc50_static:parser_tc50.obj
 0001:00009e30       ?SetParsm@?$GetSetParamImpl@PAUNullClass@tls@@@aggregator@tls@@QAEXPAUNullClass@3@PBDI1I1I1I1I1I@Z 130dae30 f i parsertc50_static:parser_tc50.obj
 0001:00009ec0       ?Release@?$AutoRelease@PAUIRecordSet@database@tls@@@tls@@QAEXXZ 130daec0 f i parsertc50_static:parser_tc50.obj
 0001:00009f10       ?Release@?$AutoRelease@PAUIRecord@database@tls@@@tls@@QAEXXZ 130daf10 f i parsertc50_static:parser_tc50.obj
 0001:00009f60       ??0?$_Iterator@$00@?$list@U?$pair@$$CBIVLogFileNode@ParserTC50@aggregator@tls@@@std@@V?$allocator@U?$pair@$$CBIVLogFileNode@ParserTC50@aggregator@tls@@@std@@@2@@std@@QAE@ABV012@@Z 130daf60 f i parsertc50_static:parser_tc50.obj
 0001:00009f90       ??1?$_List_val@U?$pair@$$CBIVLogFileNode@ParserTC50@aggregator@tls@@@std@@V?$allocator@U?$pair@$$CBIVLogFileNode@ParserTC50@aggregator@tls@@@std@@@2@@std@@QAE@XZ 130daf90 f i parsertc50_static:parser_tc50.obj
 0001:00009fc0       ??1?$_Vector_val@V?$_Iterator@$00@?$list@U?$pair@$$CBIVLogFileNode@ParserTC50@aggregator@tls@@@std@@V?$allocator@U?$pair@$$CBIVLogFileNode@ParserTC50@aggregator@tls@@@std@@@2@@std@@V?$allocator@V?$_Iterator@$00@?$list@U?$pair@$$CBIVLogFileNode@ParserTC50@aggregator@tls@@@std@@V?$allocator@U?$pair@$$CBIVLogFileNode@ParserTC50@aggregator@tls@@@std@@@2@@std@@@3@@std@@QAE@XZ 130dafc0 f i parsertc50_static:parser_tc50.obj
 0001:00009ff0       ??1?$_Deque_iterator@PAVLogFileNode@ParserTC50@aggregator@tls@@V?$allocator@PAVLogFileNode@ParserTC50@aggregator@tls@@@std@@$00@std@@QAE@XZ 130daff0 f i parsertc50_static:parser_tc50.obj
 0001:0000a020       ??1?$_Iterator@$00@?$list@PAVDictNode@ParserTC50@aggregator@tls@@V?$allocator@PAVDictNode@ParserTC50@aggregator@tls@@@std@@@std@@QAE@XZ 130db020 f i parsertc50_static:parser_tc50.obj
 0001:0000a050       ??1?$_List_val@PAVDictNode@ParserTC50@aggregator@tls@@V?$allocator@PAVDictNode@ParserTC50@aggregator@tls@@@std@@@std@@QAE@XZ 130db050 f i parsertc50_static:parser_tc50.obj
 0001:0000a080       ??1?$_Vector_val@V?$_Iterator@$00@?$list@PAVDictNode@ParserTC50@aggregator@tls@@V?$allocator@PAVDictNode@ParserTC50@aggregator@tls@@@std@@@std@@V?$allocator@V?$_Iterator@$00@?$list@PAVDictNode@ParserTC50@aggregator@tls@@V?$allocator@PAVDictNode@ParserTC50@aggregator@tls@@@std@@@std@@@3@@std@@QAE@XZ 130db080 f i parsertc50_static:parser_tc50.obj
 0001:0000a0b0       ??0?$_Bidit@U?$pair@$$CBIVLogFileNode@ParserTC50@aggregator@tls@@@std@@HPBU12@ABU12@@std@@QAE@XZ 130db0b0 f i parsertc50_static:parser_tc50.obj
 0001:0000a0e0       ??0_Iterator_base@std@@QAE@XZ 130db0e0 f i parsertc50_static:parser_tc50.obj
 0001:0000a110       ??0?$_Bidit@ULogFileNodePos@?1??ThreadProc@ParserTC50@aggregator@tls@@QAEXI@Z@HPBU1?1??2345@QAEXI@Z@ABU1?1??2345@QAEXI@Z@@std@@QAE@XZ 130db110 f i parsertc50_static:parser_tc50.obj
 0001:0000a140       ??0?$_Const_iterator@$00@?$list@U?$pair@$$CBIVLogFileNode@ParserTC50@aggregator@tls@@@std@@V?$allocator@U?$pair@$$CBIVLogFileNode@ParserTC50@aggregator@tls@@@std@@@2@@std@@QAE@ABV012@@Z 130db140 f i parsertc50_static:parser_tc50.obj
 0001:0000a180       ??1?$_List_ptr@U?$pair@$$CBIVLogFileNode@ParserTC50@aggregator@tls@@@std@@V?$allocator@U?$pair@$$CBIVLogFileNode@ParserTC50@aggregator@tls@@@std@@@2@@std@@QAE@XZ 130db180 f i parsertc50_static:parser_tc50.obj
 0001:0000a1b0       ??1?$_Deque_const_iterator@PAVLogFileNode@ParserTC50@aggregator@tls@@V?$allocator@PAVLogFileNode@ParserTC50@aggregator@tls@@@std@@$00@std@@QAE@XZ 130db1b0 f i parsertc50_static:parser_tc50.obj
 0001:0000a1e0       ??1?$_Const_iterator@$00@?$list@PAVDictNode@ParserTC50@aggregator@tls@@V?$allocator@PAVDictNode@ParserTC50@aggregator@tls@@@std@@@std@@QAE@XZ 130db1e0 f i parsertc50_static:parser_tc50.obj
 0001:0000a210       ??1?$_List_ptr@PAVDictNode@ParserTC50@aggregator@tls@@V?$allocator@PAVDictNode@ParserTC50@aggregator@tls@@@std@@@std@@QAE@XZ 130db210 f i parsertc50_static:parser_tc50.obj
 0001:0000a240       ??0?$_Bidit@U?$pair@$$CBIVLogFileNode@ParserTC50@aggregator@tls@@@std@@HPBU12@ABU12@@std@@QAE@ABU01@@Z 130db240 f i parsertc50_static:parser_tc50.obj
 0001:0000a270       ??0_Iterator_base@std@@QAE@ABV01@@Z 130db270 f i parsertc50_static:parser_tc50.obj
 0001:0000a2b0       ??1?$_List_nod@U?$pair@$$CBIVLogFileNode@ParserTC50@aggregator@tls@@@std@@V?$allocator@U?$pair@$$CBIVLogFileNode@ParserTC50@aggregator@tls@@@std@@@2@@std@@QAE@XZ 130db2b0 f i parsertc50_static:parser_tc50.obj
 0001:0000a2e0       ??1?$_Ranit@PAVLogFileNode@ParserTC50@aggregator@tls@@HPBQAV1234@ABQAV1234@@std@@QAE@XZ 130db2e0 f i parsertc50_static:parser_tc50.obj
 0001:0000a310       ??1?$_Bidit@PAVDictNode@ParserTC50@aggregator@tls@@HPBQAV1234@ABQAV1234@@std@@QAE@XZ 130db310 f i parsertc50_static:parser_tc50.obj
 0001:0000a340       ??1?$_List_nod@PAVDictNode@ParserTC50@aggregator@tls@@V?$allocator@PAVDictNode@ParserTC50@aggregator@tls@@@std@@@std@@QAE@XZ 130db340 f i parsertc50_static:parser_tc50.obj
 0001:0000a370       ?_Get_iter_from_vec@?$_Hash@V?$_Hmap_traits@IVLogFileNode@ParserTC50@aggregator@tls@@V?$hash_compare@IU?$less@I@std@@@stdext@@V?$allocator@U?$pair@$$CBIVLogFileNode@ParserTC50@aggregator@tls@@@std@@@std@@$0A@@stdext@@@stdext@@QBE?AV?$_Iterator@$00@?$list@U?$pair@$$CBIVLogFileNode@ParserTC50@aggregator@tls@@@std@@V?$allocator@U?$pair@$$CBIVLogFileNode@ParserTC50@aggregator@tls@@@std@@@2@@std@@ABV345@@Z 130db370 f i parsertc50_static:parser_tc50.obj
 0001:0000a3a0       ?size@?$_Hash@V?$_Hmap_traits@IVLogFileNode@ParserTC50@aggregator@tls@@V?$hash_compare@IU?$less@I@std@@@stdext@@V?$allocator@U?$pair@$$CBIVLogFileNode@ParserTC50@aggregator@tls@@@std@@@std@@$0A@@stdext@@@stdext@@QBEIXZ 130db3a0 f i parsertc50_static:parser_tc50.obj
 0001:0000a3d0       ?_Hashval@?$_Hash@V?$_Hmap_traits@IVLogFileNode@ParserTC50@aggregator@tls@@V?$hash_compare@IU?$less@I@std@@@stdext@@V?$allocator@U?$pair@$$CBIVLogFileNode@ParserTC50@aggregator@tls@@@std@@@std@@$0A@@stdext@@@stdext@@IBEIABI@Z 130db3d0 f i parsertc50_static:parser_tc50.obj
 0001:0000a430       ??0?$_Hmap_traits@IVLogFileNode@ParserTC50@aggregator@tls@@V?$hash_compare@IU?$less@I@std@@@stdext@@V?$allocator@U?$pair@$$CBIVLogFileNode@ParserTC50@aggregator@tls@@@std@@@std@@$0A@@stdext@@QAE@ABV?$hash_compare@IU?$less@I@std@@@1@@Z 130db430 f i parsertc50_static:parser_tc50.obj
 0001:0000a470       ??0_Container_base@std@@QAE@XZ 130db470 f i parsertc50_static:parser_tc50.obj
 0001:0000a490       ?_Kfn@?$_Hmap_traits@IVLogFileNode@ParserTC50@aggregator@tls@@V?$hash_compare@IU?$less@I@std@@@stdext@@V?$allocator@U?$pair@$$CBIVLogFileNode@ParserTC50@aggregator@tls@@@std@@@std@@$0A@@stdext@@SAABIABU?$pair@$$CBIVLogFileNode@ParserTC50@aggregator@tls@@@std@@@Z 130db490 f i parsertc50_static:parser_tc50.obj
 0001:0000a4a0       ??R?$hash_compare@IU?$less@I@std@@@stdext@@QBEIABI@Z 130db4a0 f i parsertc50_static:parser_tc50.obj
 0001:0000a560       ??R?$hash_compare@IU?$less@I@std@@@stdext@@QBE_NABI0@Z 130db560 f i parsertc50_static:parser_tc50.obj
 0001:0000a590       ?_Nextnode@?$list@U?$pair@$$CBIVLogFileNode@ParserTC50@aggregator@tls@@@std@@V?$allocator@U?$pair@$$CBIVLogFileNode@ParserTC50@aggregator@tls@@@std@@@2@@std@@KAAAPAU_Node@?$_List_nod@U?$pair@$$CBIVLogFileNode@ParserTC50@aggregator@tls@@@std@@V?$allocator@U?$pair@$$CBIVLogFileNode@ParserTC50@aggregator@tls@@@std@@@2@@2@PAU342@@Z 130db590 f i parsertc50_static:parser_tc50.obj
 0001:0000a5a0       ?_Prevnode@?$list@U?$pair@$$CBIVLogFileNode@ParserTC50@aggregator@tls@@@std@@V?$allocator@U?$pair@$$CBIVLogFileNode@ParserTC50@aggregator@tls@@@std@@@2@@std@@KAAAPAU_Node@?$_List_nod@U?$pair@$$CBIVLogFileNode@ParserTC50@aggregator@tls@@@std@@V?$allocator@U?$pair@$$CBIVLogFileNode@ParserTC50@aggregator@tls@@@std@@@2@@2@PAU342@@Z 130db5a0 f i parsertc50_static:parser_tc50.obj
 0001:0000a5b0       ??0?$list@U?$pair@$$CBIVLogFileNode@ParserTC50@aggregator@tls@@@std@@V?$allocator@U?$pair@$$CBIVLogFileNode@ParserTC50@aggregator@tls@@@std@@@2@@std@@QAE@ABV?$allocator@U?$pair@$$CBIVLogFileNode@ParserTC50@aggregator@tls@@@std@@@1@@Z 130db5b0 f i parsertc50_static:parser_tc50.obj
 0001:0000a610       ?insert@?$list@U?$pair@$$CBIVLogFileNode@ParserTC50@aggregator@tls@@@std@@V?$allocator@U?$pair@$$CBIVLogFileNode@ParserTC50@aggregator@tls@@@std@@@2@@std@@QAE?AV?$_Iterator@$00@12@V312@ABU?$pair@$$CBIVLogFileNode@ParserTC50@aggregator@tls@@@2@@Z 130db610 f i parsertc50_static:parser_tc50.obj
 0001:0000a670       ?_Splice@?$list@U?$pair@$$CBIVLogFileNode@ParserTC50@aggregator@tls@@@std@@V?$allocator@U?$pair@$$CBIVLogFileNode@ParserTC50@aggregator@tls@@@std@@@2@@std@@QAEXV?$_Iterator@$00@12@AAV12@00I_N@Z 130db670 f i parsertc50_static:parser_tc50.obj
 0001:0000a900       ?_Tidy@?$list@U?$pair@$$CBIVLogFileNode@ParserTC50@aggregator@tls@@@std@@V?$allocator@U?$pair@$$CBIVLogFileNode@ParserTC50@aggregator@tls@@@std@@@2@@std@@IAEXXZ 130db900 f i parsertc50_static:parser_tc50.obj
 0001:0000a980       ?_Orphan_ptr@?$list@U?$pair@$$CBIVLogFileNode@ParserTC50@aggregator@tls@@@std@@V?$allocator@U?$pair@$$CBIVLogFileNode@ParserTC50@aggregator@tls@@@std@@@2@@std@@IBEXAAV12@PAU_Node@?$_List_nod@U?$pair@$$CBIVLogFileNode@ParserTC50@aggregator@tls@@@std@@V?$allocator@U?$pair@$$CBIVLogFileNode@ParserTC50@aggregator@tls@@@std@@@2@@2@@Z 130db980 f i parsertc50_static:parser_tc50.obj
 0001:0000aa50       ?deallocate@?$allocator@U_Node@?$_List_nod@U?$pair@$$CBIVLogFileNode@ParserTC50@aggregator@tls@@@std@@V?$allocator@U?$pair@$$CBIVLogFileNode@ParserTC50@aggregator@tls@@@std@@@2@@std@@@std@@QAEXPAU_Node@?$_List_nod@U?$pair@$$CBIVLogFileNode@ParserTC50@aggregator@tls@@@std@@V?$allocator@U?$pair@$$CBIVLogFileNode@ParserTC50@aggregator@tls@@@std@@@2@@2@I@Z 130dba50 f i parsertc50_static:parser_tc50.obj
 0001:0000aa80       ?destroy@?$allocator@U_Node@?$_List_nod@U?$pair@$$CBIVLogFileNode@ParserTC50@aggregator@tls@@@std@@V?$allocator@U?$pair@$$CBIVLogFileNode@ParserTC50@aggregator@tls@@@std@@@2@@std@@@std@@QAEXPAU_Node@?$_List_nod@U?$pair@$$CBIVLogFileNode@ParserTC50@aggregator@tls@@@std@@V?$allocator@U?$pair@$$CBIVLogFileNode@ParserTC50@aggregator@tls@@@std@@@2@@2@@Z 130dba80 f i parsertc50_static:parser_tc50.obj
 0001:0000aab0       ??0?$vector@V?$_Iterator@$00@?$list@U?$pair@$$CBIVLogFileNode@ParserTC50@aggregator@tls@@@std@@V?$allocator@U?$pair@$$CBIVLogFileNode@ParserTC50@aggregator@tls@@@std@@@2@@std@@V?$allocator@V?$_Iterator@$00@?$list@U?$pair@$$CBIVLogFileNode@ParserTC50@aggregator@tls@@@std@@V?$allocator@U?$pair@$$CBIVLogFileNode@ParserTC50@aggregator@tls@@@std@@@2@@std@@@3@@std@@QAE@IABV?$_Iterator@$00@?$list@U?$pair@$$CBIVLogFileNode@ParserTC50@aggregator@tls@@@std@@V?$allocator@U?$pair@$$CBIVLogFileNode@ParserTC50@aggregator@tls@@@std@@@2@@1@ABV?$allocator@V?$_Iterator@$00@?$list@U?$pair@$$CBIVLogFileNode@ParserTC50@aggregator@tls@@@std@@V?$allocator@U?$pair@$$CBIVLogFileNode@ParserTC50@aggregator@tls@@@std@@@2@@std@@@1@@Z 130dbab0 f i parsertc50_static:parser_tc50.obj
 0001:0000ab00       ?resize@?$vector@V?$_Iterator@$00@?$list@U?$pair@$$CBIVLogFileNode@ParserTC50@aggregator@tls@@@std@@V?$allocator@U?$pair@$$CBIVLogFileNode@ParserTC50@aggregator@tls@@@std@@@2@@std@@V?$allocator@V?$_Iterator@$00@?$list@U?$pair@$$CBIVLogFileNode@ParserTC50@aggregator@tls@@@std@@V?$allocator@U?$pair@$$CBIVLogFileNode@ParserTC50@aggregator@tls@@@std@@@2@@std@@@3@@std@@QAEXIV?$_Iterator@$00@?$list@U?$pair@$$CBIVLogFileNode@ParserTC50@aggregator@tls@@@std@@V?$allocator@U?$pair@$$CBIVLogFileNode@ParserTC50@aggregator@tls@@@std@@@2@@2@@Z 130dbb00 f i parsertc50_static:parser_tc50.obj
 0001:0000abc0       ?size@?$vector@V?$_Iterator@$00@?$list@U?$pair@$$CBIVLogFileNode@ParserTC50@aggregator@tls@@@std@@V?$allocator@U?$pair@$$CBIVLogFileNode@ParserTC50@aggregator@tls@@@std@@@2@@std@@V?$allocator@V?$_Iterator@$00@?$list@U?$pair@$$CBIVLogFileNode@ParserTC50@aggregator@tls@@@std@@V?$allocator@U?$pair@$$CBIVLogFileNode@ParserTC50@aggregator@tls@@@std@@@2@@std@@@3@@std@@QBEIXZ 130dbbc0 f i parsertc50_static:parser_tc50.obj
 0001:0000ac10       ??A?$vector@V?$_Iterator@$00@?$list@U?$pair@$$CBIVLogFileNode@ParserTC50@aggregator@tls@@@std@@V?$allocator@U?$pair@$$CBIVLogFileNode@ParserTC50@aggregator@tls@@@std@@@2@@std@@V?$allocator@V?$_Iterator@$00@?$list@U?$pair@$$CBIVLogFileNode@ParserTC50@aggregator@tls@@@std@@V?$allocator@U?$pair@$$CBIVLogFileNode@ParserTC50@aggregator@tls@@@std@@@2@@std@@@3@@std@@QAEAAV?$_Iterator@$00@?$list@U?$pair@$$CBIVLogFileNode@ParserTC50@aggregator@tls@@@std@@V?$allocator@U?$pair@$$CBIVLogFileNode@ParserTC50@aggregator@tls@@@std@@@2@@1@I@Z 130dbc10 f i parsertc50_static:parser_tc50.obj
 0001:0000ad00       ?_Assign_n@?$vector@V?$_Iterator@$00@?$list@U?$pair@$$CBIVLogFileNode@ParserTC50@aggregator@tls@@@std@@V?$allocator@U?$pair@$$CBIVLogFileNode@ParserTC50@aggregator@tls@@@std@@@2@@std@@V?$allocator@V?$_Iterator@$00@?$list@U?$pair@$$CBIVLogFileNode@ParserTC50@aggregator@tls@@@std@@V?$allocator@U?$pair@$$CBIVLogFileNode@ParserTC50@aggregator@tls@@@std@@@2@@std@@@3@@std@@IAEXIABV?$_Iterator@$00@?$list@U?$pair@$$CBIVLogFileNode@ParserTC50@aggregator@tls@@@std@@V?$allocator@U?$pair@$$CBIVLogFileNode@ParserTC50@aggregator@tls@@@std@@@2@@2@@Z 130dbd00 f i parsertc50_static:parser_tc50.obj
 0001:0000adc0       ?_Tidy@?$vector@V?$_Iterator@$00@?$list@U?$pair@$$CBIVLogFileNode@ParserTC50@aggregator@tls@@@std@@V?$allocator@U?$pair@$$CBIVLogFileNode@ParserTC50@aggregator@tls@@@std@@@2@@std@@V?$allocator@V?$_Iterator@$00@?$list@U?$pair@$$CBIVLogFileNode@ParserTC50@aggregator@tls@@@std@@V?$allocator@U?$pair@$$CBIVLogFileNode@ParserTC50@aggregator@tls@@@std@@@2@@std@@@3@@std@@IAEXXZ 130dbdc0 f i parsertc50_static:parser_tc50.obj
 0001:0000ae50       ?begin@?$deque@PAVLogFileNode@ParserTC50@aggregator@tls@@V?$allocator@PAVLogFileNode@ParserTC50@aggregator@tls@@@std@@@std@@QAE?AV?$_Deque_iterator@PAVLogFileNode@ParserTC50@aggregator@tls@@V?$allocator@PAVLogFileNode@ParserTC50@aggregator@tls@@@std@@$00@2@XZ 130dbe50 f i parsertc50_static:parser_tc50.obj
 0001:0000ae90       ?pop_back@?$deque@PAVLogFileNode@ParserTC50@aggregator@tls@@V?$allocator@PAVLogFileNode@ParserTC50@aggregator@tls@@@std@@@std@@QAEXXZ 130dbe90 f i parsertc50_static:parser_tc50.obj
 0001:0000af80       ?_Growmap@?$deque@PAVLogFileNode@ParserTC50@aggregator@tls@@V?$allocator@PAVLogFileNode@ParserTC50@aggregator@tls@@@std@@@std@@IAEXI@Z 130dbf80 f i parsertc50_static:parser_tc50.obj
 0001:0000b1d0       ?_Orphan_off@?$deque@PAVLogFileNode@ParserTC50@aggregator@tls@@V?$allocator@PAVLogFileNode@ParserTC50@aggregator@tls@@@std@@@std@@IBEXI@Z 130dc1d0 f i parsertc50_static:parser_tc50.obj
 0001:0000b2f0       ??0?$_Deque_val@PAVLogFileNode@ParserTC50@aggregator@tls@@V?$allocator@PAVLogFileNode@ParserTC50@aggregator@tls@@@std@@@std@@IAE@V?$allocator@PAVLogFileNode@ParserTC50@aggregator@tls@@@1@@Z 130dc2f0 f i parsertc50_static:parser_tc50.obj
 0001:0000b340       ??0?$allocator@PAVLogFileNode@ParserTC50@aggregator@tls@@@std@@QAE@XZ 130dc340 f i parsertc50_static:parser_tc50.obj
 0001:0000b360       ?deallocate@?$allocator@PAVLogFileNode@ParserTC50@aggregator@tls@@@std@@QAEXPAPAVLogFileNode@ParserTC50@aggregator@tls@@I@Z 130dc360 f i parsertc50_static:parser_tc50.obj
 0001:0000b390       ?allocate@?$allocator@PAVLogFileNode@ParserTC50@aggregator@tls@@@std@@QAEPAPAVLogFileNode@ParserTC50@aggregator@tls@@I@Z 130dc390 f i parsertc50_static:parser_tc50.obj
 0001:0000b3c0       ?construct@?$allocator@PAVLogFileNode@ParserTC50@aggregator@tls@@@std@@QAEXPAPAVLogFileNode@ParserTC50@aggregator@tls@@ABQAV3456@@Z 130dc3c0 f i parsertc50_static:parser_tc50.obj
 0001:0000b3f0       ?destroy@?$allocator@PAVLogFileNode@ParserTC50@aggregator@tls@@@std@@QAEXPAPAVLogFileNode@ParserTC50@aggregator@tls@@@Z 130dc3f0 f i parsertc50_static:parser_tc50.obj
 0001:0000b420       ?deallocate@?$allocator@PAPAVLogFileNode@ParserTC50@aggregator@tls@@@std@@QAEXPAPAPAVLogFileNode@ParserTC50@aggregator@tls@@I@Z 130dc420 f i parsertc50_static:parser_tc50.obj
 0001:0000b450       ?destroy@?$allocator@PAPAVLogFileNode@ParserTC50@aggregator@tls@@@std@@QAEXPAPAPAVLogFileNode@ParserTC50@aggregator@tls@@@Z 130dc450 f i parsertc50_static:parser_tc50.obj
 0001:0000b480       ?end@?$_Hash@V?$_Hset_traits@PAVDictNode@ParserTC50@aggregator@tls@@Udict_node_hash@234@V?$allocator@PAVDictNode@ParserTC50@aggregator@tls@@@std@@$0A@@stdext@@@stdext@@QAE?AV?$_Iterator@$00@?$list@PAVDictNode@ParserTC50@aggregator@tls@@V?$allocator@PAVDictNode@ParserTC50@aggregator@tls@@@std@@@std@@XZ 130dc480 f i parsertc50_static:parser_tc50.obj
 0001:0000b4b0       ??0?$_Hset_traits@PAVDictNode@ParserTC50@aggregator@tls@@Udict_node_hash@234@V?$allocator@PAVDictNode@ParserTC50@aggregator@tls@@@std@@$0A@@stdext@@QAE@ABUdict_node_hash@ParserTC50@aggregator@tls@@@Z 130dc4b0 f i parsertc50_static:parser_tc50.obj
 0001:0000b4e0       ??0?$list@PAVDictNode@ParserTC50@aggregator@tls@@V?$allocator@PAVDictNode@ParserTC50@aggregator@tls@@@std@@@std@@QAE@ABV?$allocator@PAVDictNode@ParserTC50@aggregator@tls@@@1@@Z 130dc4e0 f i parsertc50_static:parser_tc50.obj
 0001:0000b540       ?_Tidy@?$list@PAVDictNode@ParserTC50@aggregator@tls@@V?$allocator@PAVDictNode@ParserTC50@aggregator@tls@@@std@@@std@@IAEXXZ 130dc540 f i parsertc50_static:parser_tc50.obj
 0001:0000b5c0       ??0?$vector@V?$_Iterator@$00@?$list@PAVDictNode@ParserTC50@aggregator@tls@@V?$allocator@PAVDictNode@ParserTC50@aggregator@tls@@@std@@@std@@V?$allocator@V?$_Iterator@$00@?$list@PAVDictNode@ParserTC50@aggregator@tls@@V?$allocator@PAVDictNode@ParserTC50@aggregator@tls@@@std@@@std@@@3@@std@@QAE@IABV?$_Iterator@$00@?$list@PAVDictNode@ParserTC50@aggregator@tls@@V?$allocator@PAVDictNode@ParserTC50@aggregator@tls@@@std@@@1@ABV?$allocator@V?$_Iterator@$00@?$list@PAVDictNode@ParserTC50@aggregator@tls@@V?$allocator@PAVDictNode@ParserTC50@aggregator@tls@@@std@@@std@@@1@@Z 130dc5c0 f i parsertc50_static:parser_tc50.obj
 0001:0000b610       ?_Tidy@?$vector@V?$_Iterator@$00@?$list@PAVDictNode@ParserTC50@aggregator@tls@@V?$allocator@PAVDictNode@ParserTC50@aggregator@tls@@@std@@@std@@V?$allocator@V?$_Iterator@$00@?$list@PAVDictNode@ParserTC50@aggregator@tls@@V?$allocator@PAVDictNode@ParserTC50@aggregator@tls@@@std@@@std@@@3@@std@@IAEXXZ 130dc610 f i parsertc50_static:parser_tc50.obj
 0001:0000b6a0       ??0?$_Iterator@$00@?$list@U?$pair@$$CBIVLogFileNode@ParserTC50@aggregator@tls@@@std@@V?$allocator@U?$pair@$$CBIVLogFileNode@ParserTC50@aggregator@tls@@@std@@@2@@std@@QAE@PAU_Node@?$_List_nod@U?$pair@$$CBIVLogFileNode@ParserTC50@aggregator@tls@@@std@@V?$allocator@U?$pair@$$CBIVLogFileNode@ParserTC50@aggregator@tls@@@std@@@2@@2@PBV12@@Z 130dc6a0 f i parsertc50_static:parser_tc50.obj
 0001:0000b6e0       ??F?$_Iterator@$00@?$list@U?$pair@$$CBIVLogFileNode@ParserTC50@aggregator@tls@@@std@@V?$allocator@U?$pair@$$CBIVLogFileNode@ParserTC50@aggregator@tls@@@std@@@2@@std@@QAEAAV012@XZ 130dc6e0 f i parsertc50_static:parser_tc50.obj
 0001:0000b710       ??D?$_Const_iterator@$00@?$list@U?$pair@$$CBIVLogFileNode@ParserTC50@aggregator@tls@@@std@@V?$allocator@U?$pair@$$CBIVLogFileNode@ParserTC50@aggregator@tls@@@std@@@2@@std@@QBEABU?$pair@$$CBIVLogFileNode@ParserTC50@aggregator@tls@@@2@XZ 130dc710 f i parsertc50_static:parser_tc50.obj
 0001:0000b7c0       ?_Myval@?$list@ULogFileNodePos@?1??ThreadProc@ParserTC50@aggregator@tls@@QAEXI@Z@V?$allocator@ULogFileNodePos@?1??ThreadProc@ParserTC50@aggregator@tls@@QAEXI@Z@@std@@@std@@KAAAULogFileNodePos@?1??ThreadProc@ParserTC50@aggregator@tls@@QAEXI@Z@PAU_Node@?$_List_nod@ULogFileNodePos@?1??ThreadProc@ParserTC50@aggregator@tls@@QAEXI@Z@V?$allocator@ULogFileNodePos@?1??ThreadProc@ParserTC50@aggregator@tls@@QAEXI@Z@@std@@@2@@Z 130dc7c0 f i parsertc50_static:parser_tc50.obj
 0001:0000b7d0       ?_Buynode@?$list@ULogFileNodePos@?1??ThreadProc@ParserTC50@aggregator@tls@@QAEXI@Z@V?$allocator@ULogFileNodePos@?1??ThreadProc@ParserTC50@aggregator@tls@@QAEXI@Z@@std@@@std@@IAEPAU_Node@?$_List_nod@ULogFileNodePos@?1??ThreadProc@ParserTC50@aggregator@tls@@QAEXI@Z@V?$allocator@ULogFileNodePos@?1??ThreadProc@ParserTC50@aggregator@tls@@QAEXI@Z@@std@@@2@PAU342@0ABULogFileNodePos@?1??ThreadProc@ParserTC50@aggregator@tls@@QAEXI@Z@@Z 130dc7d0 f i parsertc50_static:parser_tc50.obj
 0001:0000b8d0       ?_Incsize@?$list@ULogFileNodePos@?1??ThreadProc@ParserTC50@aggregator@tls@@QAEXI@Z@V?$allocator@ULogFileNodePos@?1??ThreadProc@ParserTC50@aggregator@tls@@QAEXI@Z@@std@@@std@@IAEXI@Z 130dc8d0 f i parsertc50_static:parser_tc50.obj
 0001:0000b950       ?_Raise@exception@stdext@@QBEXXZ 130dc950 f i parsertc50_static:parser_tc50.obj
 0001:0000b9b0       ??0length_error@std@@QAE@ABV?$basic_string@DU?$char_traits@D@std@@V?$allocator@D@2@@1@@Z 130dc9b0 f i parsertc50_static:parser_tc50.obj
 0001:0000b9f0       ??0logic_error@std@@QAE@ABV?$basic_string@DU?$char_traits@D@std@@V?$allocator@D@2@@1@@Z 130dc9f0 f i parsertc50_static:parser_tc50.obj
 0001:0000ba40       ??0exception@stdext@@QAE@PBDH@Z 130dca40 f i parsertc50_static:parser_tc50.obj
 0001:0000ba70       ?what@exception@stdext@@UBEPBDXZ 130dca70 f i parsertc50_static:parser_tc50.obj
 0001:0000ba90       ?_Doraise@exception@stdext@@MBEXXZ 130dca90 f i parsertc50_static:parser_tc50.obj
 0001:0000bab0       ??_Gexception@stdext@@UAEPAXI@Z 130dcab0 f i parsertc50_static:parser_tc50.obj
 0001:0000bab0       ??_Eexception@stdext@@UAEPAXI@Z 130dcab0 f i parsertc50_static:parser_tc50.obj
 0001:0000baf0       ??1exception@stdext@@UAE@XZ 130dcaf0 f i parsertc50_static:parser_tc50.obj
 0001:0000bb10       ?what@logic_error@std@@UBEPBDXZ 130dcb10 f i parsertc50_static:parser_tc50.obj
 0001:0000bb40       ?_Doraise@logic_error@std@@MBEXXZ 130dcb40 f i parsertc50_static:parser_tc50.obj
 0001:0000bb70       ??_Glogic_error@std@@UAEPAXI@Z 130dcb70 f i parsertc50_static:parser_tc50.obj
 0001:0000bb70       ??_Elogic_error@std@@UAEPAXI@Z 130dcb70 f i parsertc50_static:parser_tc50.obj
 0001:0000bbb0       ??1logic_error@std@@UAE@XZ 130dcbb0 f i parsertc50_static:parser_tc50.obj
 0001:0000bbf0       ??1length_error@std@@UAE@XZ 130dcbf0 f i parsertc50_static:parser_tc50.obj
 0001:0000bc20       ?_Doraise@length_error@std@@MBEXXZ 130dcc20 f i parsertc50_static:parser_tc50.obj
 0001:0000bc50       ??_Elength_error@std@@UAEPAXI@Z 130dcc50 f i parsertc50_static:parser_tc50.obj
 0001:0000bc50       ??_Glength_error@std@@UAEPAXI@Z 130dcc50 f i parsertc50_static:parser_tc50.obj
 0001:0000bc90       ??0?$basic_string@DU?$char_traits@D@std@@V?$allocator@D@2@@std@@QAE@ABV01@@Z 130dcc90 f i parsertc50_static:parser_tc50.obj
 0001:0000bce0       ??1?$basic_string@DU?$char_traits@D@std@@V?$allocator@D@2@@std@@QAE@XZ 130dcce0 f i parsertc50_static:parser_tc50.obj
 0001:0000bd10       ?c_str@?$basic_string@DU?$char_traits@D@std@@V?$allocator@D@2@@std@@QBEPBDXZ 130dcd10 f i parsertc50_static:parser_tc50.obj
 0001:0000bd40       ??1?$_String_val@DV?$allocator@D@std@@@std@@QAE@XZ 130dcd40 f i parsertc50_static:parser_tc50.obj
 0001:0000bd70       ??1_String_base@std@@QAE@XZ 130dcd70 f i parsertc50_static:parser_tc50.obj
 0001:0000bda0       ?assign@?$basic_string@DU?$char_traits@D@std@@V?$allocator@D@2@@std@@QAEAAV12@ABV12@II@Z 130dcda0 f i parsertc50_static:parser_tc50.obj
 0001:0000be70       ?_Tidy@?$basic_string@DU?$char_traits@D@std@@V?$allocator@D@2@@std@@IAEX_NI@Z 130dce70 f i parsertc50_static:parser_tc50.obj
 0001:0000bf10       ?_Myptr@?$basic_string@DU?$char_traits@D@std@@V?$allocator@D@2@@std@@IBEPBDXZ 130dcf10 f i parsertc50_static:parser_tc50.obj
 0001:0000bf50       ??0?$_String_val@DV?$allocator@D@std@@@std@@QAE@ABV01@@Z 130dcf50 f i parsertc50_static:parser_tc50.obj
 0001:0000bfa0       ??0_String_base@std@@QAE@XZ 130dcfa0 f i parsertc50_static:parser_tc50.obj
 0001:0000bfd0       ?erase@?$basic_string@DU?$char_traits@D@std@@V?$allocator@D@2@@std@@QAEAAV12@II@Z 130dcfd0 f i parsertc50_static:parser_tc50.obj
 0001:0000c080       ?size@?$basic_string@DU?$char_traits@D@std@@V?$allocator@D@2@@std@@QBEIXZ 130dd080 f i parsertc50_static:parser_tc50.obj
 0001:0000c0a0       ?_Eos@?$basic_string@DU?$char_traits@D@std@@V?$allocator@D@2@@std@@IAEXI@Z 130dd0a0 f i parsertc50_static:parser_tc50.obj
 0001:0000c0f0       ?assign@?$char_traits@D@std@@SAXAADABD@Z 130dd0f0 f i parsertc50_static:parser_tc50.obj
 0001:0000c100       ?_Grow@?$basic_string@DU?$char_traits@D@std@@V?$allocator@D@2@@std@@IAE_NI_N@Z 130dd100 f i parsertc50_static:parser_tc50.obj
 0001:0000c1b0       ?_Myptr@?$basic_string@DU?$char_traits@D@std@@V?$allocator@D@2@@std@@IAEPADXZ 130dd1b0 f i parsertc50_static:parser_tc50.obj
 0001:0000c1f0       ??0?$allocator@D@std@@QAE@ABV01@@Z 130dd1f0 f i parsertc50_static:parser_tc50.obj
 0001:0000c210       ?deallocate@?$allocator@D@std@@QAEXPADI@Z 130dd210 f i parsertc50_static:parser_tc50.obj
 0001:0000c240       ??0?$_List_ptr@ULogFileNodePos@?1??ThreadProc@ParserTC50@aggregator@tls@@QAEXI@Z@V?$allocator@ULogFileNodePos@?1??ThreadProc@ParserTC50@aggregator@tls@@QAEXI@Z@@std@@@std@@IAE@V?$allocator@ULogFileNodePos@?1??ThreadProc@ParserTC50@aggregator@tls@@QAEXI@Z@@1@@Z 130dd240 f i parsertc50_static:parser_tc50.obj
 0001:0000c290       ??0?$allocator@ULogFileNodePos@?1??ThreadProc@ParserTC50@aggregator@tls@@QAEXI@Z@@std@@QAE@ABV01@@Z 130dd290 f i parsertc50_static:parser_tc50.obj
 0001:0000c2b0       ?allocate@?$allocator@U_Node@?$_List_nod@ULogFileNodePos@?1??ThreadProc@ParserTC50@aggregator@tls@@QAEXI@Z@V?$allocator@ULogFileNodePos@?1??ThreadProc@ParserTC50@aggregator@tls@@QAEXI@Z@@std@@@std@@@std@@QAEPAU_Node@?$_List_nod@ULogFileNodePos@?1??ThreadProc@ParserTC50@aggregator@tls@@QAEXI@Z@V?$allocator@ULogFileNodePos@?1??ThreadProc@ParserTC50@aggregator@tls@@QAEXI@Z@@std@@@2@I@Z 130dd2b0 f i parsertc50_static:parser_tc50.obj
 0001:0000c2e0       ?construct@?$allocator@PAU_Node@?$_List_nod@ULogFileNodePos@?1??ThreadProc@ParserTC50@aggregator@tls@@QAEXI@Z@V?$allocator@ULogFileNodePos@?1??ThreadProc@ParserTC50@aggregator@tls@@QAEXI@Z@@std@@@std@@@std@@QAEXPAPAU_Node@?$_List_nod@ULogFileNodePos@?1??ThreadProc@ParserTC50@aggregator@tls@@QAEXI@Z@V?$allocator@ULogFileNodePos@?1??ThreadProc@ParserTC50@aggregator@tls@@QAEXI@Z@@std@@@2@ABQAU342@@Z 130dd2e0 f i parsertc50_static:parser_tc50.obj
 0001:0000c310       ?destroy@?$allocator@PAU_Node@?$_List_nod@ULogFileNodePos@?1??ThreadProc@ParserTC50@aggregator@tls@@QAEXI@Z@V?$allocator@ULogFileNodePos@?1??ThreadProc@ParserTC50@aggregator@tls@@QAEXI@Z@@std@@@std@@@std@@QAEXPAPAU_Node@?$_List_nod@ULogFileNodePos@?1??ThreadProc@ParserTC50@aggregator@tls@@QAEXI@Z@V?$allocator@ULogFileNodePos@?1??ThreadProc@ParserTC50@aggregator@tls@@QAEXI@Z@@std@@@2@@Z 130dd310 f i parsertc50_static:parser_tc50.obj
 0001:0000c340       ??0?$_Const_iterator@$00@?$list@ULogFileNodePos@?1??ThreadProc@ParserTC50@aggregator@tls@@QAEXI@Z@V?$allocator@ULogFileNodePos@?1??ThreadProc@ParserTC50@aggregator@tls@@QAEXI@Z@@std@@@std@@QAE@PAU_Node@?$_List_nod@ULogFileNodePos@?1??ThreadProc@ParserTC50@aggregator@tls@@QAEXI@Z@V?$allocator@ULogFileNodePos@?1??ThreadProc@ParserTC50@aggregator@tls@@QAEXI@Z@@std@@@2@PBV12@@Z 130dd340 f i parsertc50_static:parser_tc50.obj
 0001:0000c380       ??F?$_Const_iterator@$00@?$list@ULogFileNodePos@?1??ThreadProc@ParserTC50@aggregator@tls@@QAEXI@Z@V?$allocator@ULogFileNodePos@?1??ThreadProc@ParserTC50@aggregator@tls@@QAEXI@Z@@std@@@std@@QAEAAV012@XZ 130dd380 f i parsertc50_static:parser_tc50.obj
 0001:0000c440       ?_Mynode@?$_Const_iterator@$00@?$list@ULogFileNodePos@?1??ThreadProc@ParserTC50@aggregator@tls@@QAEXI@Z@V?$allocator@ULogFileNodePos@?1??ThreadProc@ParserTC50@aggregator@tls@@QAEXI@Z@@std@@@std@@QBEPAU_Node@?$_List_nod@ULogFileNodePos@?1??ThreadProc@ParserTC50@aggregator@tls@@QAEXI@Z@V?$allocator@ULogFileNodePos@?1??ThreadProc@ParserTC50@aggregator@tls@@QAEXI@Z@@std@@@3@XZ 130dd440 f i parsertc50_static:parser_tc50.obj
 0001:0000c460       ?_Compat@?$_Const_iterator@$00@?$list@ULogFileNodePos@?1??ThreadProc@ParserTC50@aggregator@tls@@QAEXI@Z@V?$allocator@ULogFileNodePos@?1??ThreadProc@ParserTC50@aggregator@tls@@QAEXI@Z@@std@@@std@@QBEXABV123@@Z 130dd460 f i parsertc50_static:parser_tc50.obj
 0001:0000c500       ??0?$pair@V?$_Iterator@$00@?$list@U?$pair@$$CBIVLogFileNode@ParserTC50@aggregator@tls@@@std@@V?$allocator@U?$pair@$$CBIVLogFileNode@ParserTC50@aggregator@tls@@@std@@@2@@std@@_N@std@@QAE@ABV?$_Iterator@$00@?$list@U?$pair@$$CBIVLogFileNode@ParserTC50@aggregator@tls@@@std@@V?$allocator@U?$pair@$$CBIVLogFileNode@ParserTC50@aggregator@tls@@@std@@@2@@1@AB_N@Z 130dd500 f i parsertc50_static:parser_tc50.obj
 0001:0000c540       ??D?$_Deque_iterator@PAVLogFileNode@ParserTC50@aggregator@tls@@V?$allocator@PAVLogFileNode@ParserTC50@aggregator@tls@@@std@@$00@std@@QBEAAPAVLogFileNode@ParserTC50@aggregator@tls@@XZ 130dd540 f i parsertc50_static:parser_tc50.obj
 0001:0000c570       ??1?$_Vector_iterator@V?$_Iterator@$00@?$list@U?$pair@$$CBIVLogFileNode@ParserTC50@aggregator@tls@@@std@@V?$allocator@U?$pair@$$CBIVLogFileNode@ParserTC50@aggregator@tls@@@std@@@2@@std@@V?$allocator@V?$_Iterator@$00@?$list@U?$pair@$$CBIVLogFileNode@ParserTC50@aggregator@tls@@@std@@V?$allocator@U?$pair@$$CBIVLogFileNode@ParserTC50@aggregator@tls@@@std@@@2@@std@@@3@@std@@QAE@XZ 130dd570 f i parsertc50_static:parser_tc50.obj
 0001:0000c5a0       ??1?$_Vector_const_iterator@V?$_Iterator@$00@?$list@U?$pair@$$CBIVLogFileNode@ParserTC50@aggregator@tls@@@std@@V?$allocator@U?$pair@$$CBIVLogFileNode@ParserTC50@aggregator@tls@@@std@@@2@@std@@V?$allocator@V?$_Iterator@$00@?$list@U?$pair@$$CBIVLogFileNode@ParserTC50@aggregator@tls@@@std@@V?$allocator@U?$pair@$$CBIVLogFileNode@ParserTC50@aggregator@tls@@@std@@@2@@std@@@3@@std@@QAE@XZ 130dd5a0 f i parsertc50_static:parser_tc50.obj
 0001:0000c5d0       ??1?$_Ranit@V?$_Iterator@$00@?$list@U?$pair@$$CBIVLogFileNode@ParserTC50@aggregator@tls@@@std@@V?$allocator@U?$pair@$$CBIVLogFileNode@ParserTC50@aggregator@tls@@@std@@@2@@std@@HPBV123@ABV123@@std@@QAE@XZ 130dd5d0 f i parsertc50_static:parser_tc50.obj
 0001:0000c600       ??0?$basic_string@DU?$char_traits@D@std@@V?$allocator@D@2@@std@@QAE@PBD@Z 130dd600 f i parsertc50_static:parser_tc50.obj
 0001:0000c660       ?max_size@?$basic_string@DU?$char_traits@D@std@@V?$allocator@D@2@@std@@QBEIXZ 130dd660 f i parsertc50_static:parser_tc50.obj
 0001:0000c6c0       ?_Copy@?$basic_string@DU?$char_traits@D@std@@V?$allocator@D@2@@std@@IAEXII@Z 130dd6c0 f i parsertc50_static:parser_tc50.obj
 0001:0000c7f0       ??0?$allocator@U?$pair@$$CBIVLogFileNode@ParserTC50@aggregator@tls@@@std@@@std@@QAE@ABV01@@Z 130dd7f0 f i parsertc50_static:parser_tc50.obj
 0001:0000c810       ??R?$less@I@std@@QBE_NABI0@Z 130dd810 f i parsertc50_static:parser_tc50.obj
 0001:0000c840       ?_Myval@?$list@U?$pair@$$CBIVLogFileNode@ParserTC50@aggregator@tls@@@std@@V?$allocator@U?$pair@$$CBIVLogFileNode@ParserTC50@aggregator@tls@@@std@@@2@@std@@KAAAU?$pair@$$CBIVLogFileNode@ParserTC50@aggregator@tls@@@2@PAU_Node@?$_List_nod@U?$pair@$$CBIVLogFileNode@ParserTC50@aggregator@tls@@@std@@V?$allocator@U?$pair@$$CBIVLogFileNode@ParserTC50@aggregator@tls@@@std@@@2@@2@@Z 130dd840 f i parsertc50_static:parser_tc50.obj
 0001:0000c850       ?size@?$list@U?$pair@$$CBIVLogFileNode@ParserTC50@aggregator@tls@@@std@@V?$allocator@U?$pair@$$CBIVLogFileNode@ParserTC50@aggregator@tls@@@std@@@2@@std@@QBEIXZ 130dd850 f i parsertc50_static:parser_tc50.obj
 0001:0000c870       ?_Insert@?$list@U?$pair@$$CBIVLogFileNode@ParserTC50@aggregator@tls@@@std@@V?$allocator@U?$pair@$$CBIVLogFileNode@ParserTC50@aggregator@tls@@@std@@@2@@std@@QAEXV?$_Iterator@$00@12@ABU?$pair@$$CBIVLogFileNode@ParserTC50@aggregator@tls@@@2@@Z 130dd870 f i parsertc50_static:parser_tc50.obj
 0001:0000c930       ?erase@?$list@U?$pair@$$CBIVLogFileNode@ParserTC50@aggregator@tls@@@std@@V?$allocator@U?$pair@$$CBIVLogFileNode@ParserTC50@aggregator@tls@@@std@@@2@@std@@QAE?AV?$_Iterator@$00@12@V312@0@Z 130dd930 f i parsertc50_static:parser_tc50.obj
 0001:0000ca90       ?_Buynode@?$list@U?$pair@$$CBIVLogFileNode@ParserTC50@aggregator@tls@@@std@@V?$allocator@U?$pair@$$CBIVLogFileNode@ParserTC50@aggregator@tls@@@std@@@2@@std@@IAEPAU_Node@?$_List_nod@U?$pair@$$CBIVLogFileNode@ParserTC50@aggregator@tls@@@std@@V?$allocator@U?$pair@$$CBIVLogFileNode@ParserTC50@aggregator@tls@@@std@@@2@@2@XZ 130dda90 f i parsertc50_static:parser_tc50.obj
 0001:0000cb80       ?_Incsize@?$list@U?$pair@$$CBIVLogFileNode@ParserTC50@aggregator@tls@@@std@@V?$allocator@U?$pair@$$CBIVLogFileNode@ParserTC50@aggregator@tls@@@std@@@2@@std@@IAEXI@Z 130ddb80 f i parsertc50_static:parser_tc50.obj
 0001:0000cc00       ??0?$_List_val@U?$pair@$$CBIVLogFileNode@ParserTC50@aggregator@tls@@@std@@V?$allocator@U?$pair@$$CBIVLogFileNode@ParserTC50@aggregator@tls@@@std@@@2@@std@@QAE@V?$allocator@U?$pair@$$CBIVLogFileNode@ParserTC50@aggregator@tls@@@std@@@1@@Z 130ddc00 f i parsertc50_static:parser_tc50.obj
 0001:0000cc50       ?destroy@?$allocator@PAU_Node@?$_List_nod@U?$pair@$$CBIVLogFileNode@ParserTC50@aggregator@tls@@@std@@V?$allocator@U?$pair@$$CBIVLogFileNode@ParserTC50@aggregator@tls@@@std@@@2@@std@@@std@@QAEXPAPAU_Node@?$_List_nod@U?$pair@$$CBIVLogFileNode@ParserTC50@aggregator@tls@@@std@@V?$allocator@U?$pair@$$CBIVLogFileNode@ParserTC50@aggregator@tls@@@std@@@2@@2@@Z 130ddc50 f i parsertc50_static:parser_tc50.obj
 0001:0000cc80       ?_Construct_n@?$vector@V?$_Iterator@$00@?$list@U?$pair@$$CBIVLogFileNode@ParserTC50@aggregator@tls@@@std@@V?$allocator@U?$pair@$$CBIVLogFileNode@ParserTC50@aggregator@tls@@@std@@@2@@std@@V?$allocator@V?$_Iterator@$00@?$list@U?$pair@$$CBIVLogFileNode@ParserTC50@aggregator@tls@@@std@@V?$allocator@U?$pair@$$CBIVLogFileNode@ParserTC50@aggregator@tls@@@std@@@2@@std@@@3@@std@@QAEXIABV?$_Iterator@$00@?$list@U?$pair@$$CBIVLogFileNode@ParserTC50@aggregator@tls@@@std@@V?$allocator@U?$pair@$$CBIVLogFileNode@ParserTC50@aggregator@tls@@@std@@@2@@2@@Z 130ddc80 f i parsertc50_static:parser_tc50.obj
 0001:0000cce0       ?begin@?$vector@V?$_Iterator@$00@?$list@U?$pair@$$CBIVLogFileNode@ParserTC50@aggregator@tls@@@std@@V?$allocator@U?$pair@$$CBIVLogFileNode@ParserTC50@aggregator@tls@@@std@@@2@@std@@V?$allocator@V?$_Iterator@$00@?$list@U?$pair@$$CBIVLogFileNode@ParserTC50@aggregator@tls@@@std@@V?$allocator@U?$pair@$$CBIVLogFileNode@ParserTC50@aggregator@tls@@@std@@@2@@std@@@3@@std@@QAE?AV?$_Vector_iterator@V?$_Iterator@$00@?$list@U?$pair@$$CBIVLogFileNode@ParserTC50@aggregator@tls@@@std@@V?$allocator@U?$pair@$$CBIVLogFileNode@ParserTC50@aggregator@tls@@@std@@@2@@std@@V?$allocator@V?$_Iterator@$00@?$list@U?$pair@$$CBIVLogFileNode@ParserTC50@aggregator@tls@@@std@@V?$allocator@U?$pair@$$CBIVLogFileNode@ParserTC50@aggregator@tls@@@std@@@2@@std@@@3@@2@XZ 130ddce0 f i parsertc50_static:parser_tc50.obj
 0001:0000cd20       ?end@?$vector@V?$_Iterator@$00@?$list@U?$pair@$$CBIVLogFileNode@ParserTC50@aggregator@tls@@@std@@V?$allocator@U?$pair@$$CBIVLogFileNode@ParserTC50@aggregator@tls@@@std@@@2@@std@@V?$allocator@V?$_Iterator@$00@?$list@U?$pair@$$CBIVLogFileNode@ParserTC50@aggregator@tls@@@std@@V?$allocator@U?$pair@$$CBIVLogFileNode@ParserTC50@aggregator@tls@@@std@@@2@@std@@@3@@std@@QAE?AV?$_Vector_iterator@V?$_Iterator@$00@?$list@U?$pair@$$CBIVLogFileNode@ParserTC50@aggregator@tls@@@std@@V?$allocator@U?$pair@$$CBIVLogFileNode@ParserTC50@aggregator@tls@@@std@@@2@@std@@V?$allocator@V?$_Iterator@$00@?$list@U?$pair@$$CBIVLogFileNode@ParserTC50@aggregator@tls@@@std@@V?$allocator@U?$pair@$$CBIVLogFileNode@ParserTC50@aggregator@tls@@@std@@@2@@std@@@3@@2@XZ 130ddd20 f i parsertc50_static:parser_tc50.obj
 0001:0000cd60       ?insert@?$vector@V?$_Iterator@$00@?$list@U?$pair@$$CBIVLogFileNode@ParserTC50@aggregator@tls@@@std@@V?$allocator@U?$pair@$$CBIVLogFileNode@ParserTC50@aggregator@tls@@@std@@@2@@std@@V?$allocator@V?$_Iterator@$00@?$list@U?$pair@$$CBIVLogFileNode@ParserTC50@aggregator@tls@@@std@@V?$allocator@U?$pair@$$CBIVLogFileNode@ParserTC50@aggregator@tls@@@std@@@2@@std@@@3@@std@@QAEXV?$_Vector_iterator@V?$_Iterator@$00@?$list@U?$pair@$$CBIVLogFileNode@ParserTC50@aggregator@tls@@@std@@V?$allocator@U?$pair@$$CBIVLogFileNode@ParserTC50@aggregator@tls@@@std@@@2@@std@@V?$allocator@V?$_Iterator@$00@?$list@U?$pair@$$CBIVLogFileNode@ParserTC50@aggregator@tls@@@std@@V?$allocator@U?$pair@$$CBIVLogFileNode@ParserTC50@aggregator@tls@@@std@@@2@@std@@@3@@2@IABV?$_Iterator@$00@?$list@U?$pair@$$CBIVLogFileNode@ParserTC50@aggregator@tls@@@std@@V?$allocator@U?$pair@$$CBIVLogFileNode@ParserTC50@aggregator@tls@@@std@@@2@@2@@Z 130ddd60 f i parsertc50_static:parser_tc50.obj
 0001:0000cdb0       ?erase@?$vector@V?$_Iterator@$00@?$list@U?$pair@$$CBIVLogFileNode@ParserTC50@aggregator@tls@@@std@@V?$allocator@U?$pair@$$CBIVLogFileNode@ParserTC50@aggregator@tls@@@std@@@2@@std@@V?$allocator@V?$_Iterator@$00@?$list@U?$pair@$$CBIVLogFileNode@ParserTC50@aggregator@tls@@@std@@V?$allocator@U?$pair@$$CBIVLogFileNode@ParserTC50@aggregator@tls@@@std@@@2@@std@@@3@@std@@QAE?AV?$_Vector_iterator@V?$_Iterator@$00@?$list@U?$pair@$$CBIVLogFileNode@ParserTC50@aggregator@tls@@@std@@V?$allocator@U?$pair@$$CBIVLogFileNode@ParserTC50@aggregator@tls@@@std@@@2@@std@@V?$allocator@V?$_Iterator@$00@?$list@U?$pair@$$CBIVLogFileNode@ParserTC50@aggregator@tls@@@std@@V?$allocator@U?$pair@$$CBIVLogFileNode@ParserTC50@aggregator@tls@@@std@@@2@@std@@@3@@2@V32@0@Z 130dddb0 f i parsertc50_static:parser_tc50.obj
 0001:0000ceb0       ?_Destroy@?$vector@V?$_Iterator@$00@?$list@U?$pair@$$CBIVLogFileNode@ParserTC50@aggregator@tls@@@std@@V?$allocator@U?$pair@$$CBIVLogFileNode@ParserTC50@aggregator@tls@@@std@@@2@@std@@V?$allocator@V?$_Iterator@$00@?$list@U?$pair@$$CBIVLogFileNode@ParserTC50@aggregator@tls@@@std@@V?$allocator@U?$pair@$$CBIVLogFileNode@ParserTC50@aggregator@tls@@@std@@@2@@std@@@3@@std@@IAEXPAV?$_Iterator@$00@?$list@U?$pair@$$CBIVLogFileNode@ParserTC50@aggregator@tls@@@std@@V?$allocator@U?$pair@$$CBIVLogFileNode@ParserTC50@aggregator@tls@@@std@@@2@@2@0@Z 130ddeb0 f i parsertc50_static:parser_tc50.obj
 0001:0000cef0       ?_Insert_n@?$vector@V?$_Iterator@$00@?$list@U?$pair@$$CBIVLogFileNode@ParserTC50@aggregator@tls@@@std@@V?$allocator@U?$pair@$$CBIVLogFileNode@ParserTC50@aggregator@tls@@@std@@@2@@std@@V?$allocator@V?$_Iterator@$00@?$list@U?$pair@$$CBIVLogFileNode@ParserTC50@aggregator@tls@@@std@@V?$allocator@U?$pair@$$CBIVLogFileNode@ParserTC50@aggregator@tls@@@std@@@2@@std@@@3@@std@@IAEXV?$_Vector_iterator@V?$_Iterator@$00@?$list@U?$pair@$$CBIVLogFileNode@ParserTC50@aggregator@tls@@@std@@V?$allocator@U?$pair@$$CBIVLogFileNode@ParserTC50@aggregator@tls@@@std@@@2@@std@@V?$allocator@V?$_Iterator@$00@?$list@U?$pair@$$CBIVLogFileNode@ParserTC50@aggregator@tls@@@std@@V?$allocator@U?$pair@$$CBIVLogFileNode@ParserTC50@aggregator@tls@@@std@@@2@@std@@@3@@2@IABV?$_Iterator@$00@?$list@U?$pair@$$CBIVLogFileNode@ParserTC50@aggregator@tls@@@std@@V?$allocator@U?$pair@$$CBIVLogFileNode@ParserTC50@aggregator@tls@@@std@@@2@@2@@Z 130ddef0 f i parsertc50_static:parser_tc50.obj
 0001:0000d290       ??0?$_Vector_val@V?$_Iterator@$00@?$list@U?$pair@$$CBIVLogFileNode@ParserTC50@aggregator@tls@@@std@@V?$allocator@U?$pair@$$CBIVLogFileNode@ParserTC50@aggregator@tls@@@std@@@2@@std@@V?$allocator@V?$_Iterator@$00@?$list@U?$pair@$$CBIVLogFileNode@ParserTC50@aggregator@tls@@@std@@V?$allocator@U?$pair@$$CBIVLogFileNode@ParserTC50@aggregator@tls@@@std@@@2@@std@@@3@@std@@IAE@V?$allocator@V?$_Iterator@$00@?$list@U?$pair@$$CBIVLogFileNode@ParserTC50@aggregator@tls@@@std@@V?$allocator@U?$pair@$$CBIVLogFileNode@ParserTC50@aggregator@tls@@@std@@@2@@std@@@1@@Z 130de290 f i parsertc50_static:parser_tc50.obj
 0001:0000d2d0       ??0?$allocator@V?$_Iterator@$00@?$list@U?$pair@$$CBIVLogFileNode@ParserTC50@aggregator@tls@@@std@@V?$allocator@U?$pair@$$CBIVLogFileNode@ParserTC50@aggregator@tls@@@std@@@2@@std@@@std@@QAE@ABV01@@Z 130de2d0 f i parsertc50_static:parser_tc50.obj
 0001:0000d2f0       ?deallocate@?$allocator@V?$_Iterator@$00@?$list@U?$pair@$$CBIVLogFileNode@ParserTC50@aggregator@tls@@@std@@V?$allocator@U?$pair@$$CBIVLogFileNode@ParserTC50@aggregator@tls@@@std@@@2@@std@@@std@@QAEXPAV?$_Iterator@$00@?$list@U?$pair@$$CBIVLogFileNode@ParserTC50@aggregator@tls@@@std@@V?$allocator@U?$pair@$$CBIVLogFileNode@ParserTC50@aggregator@tls@@@std@@@2@@2@I@Z 130de2f0 f i parsertc50_static:parser_tc50.obj
 0001:0000d320       ?max_size@?$deque@PAVLogFileNode@ParserTC50@aggregator@tls@@V?$allocator@PAVLogFileNode@ParserTC50@aggregator@tls@@@std@@@std@@QBEIXZ 130de320 f i parsertc50_static:parser_tc50.obj
 0001:0000d350       ?_Xlen@?$deque@PAVLogFileNode@ParserTC50@aggregator@tls@@V?$allocator@PAVLogFileNode@ParserTC50@aggregator@tls@@@std@@@std@@KAXXZ 130de350 f i parsertc50_static:parser_tc50.obj
 0001:0000d3b0       ??0?$_Deque_map@PAVLogFileNode@ParserTC50@aggregator@tls@@V?$allocator@PAVLogFileNode@ParserTC50@aggregator@tls@@@std@@@std@@IAE@V?$allocator@PAVLogFileNode@ParserTC50@aggregator@tls@@@1@@Z 130de3b0 f i parsertc50_static:parser_tc50.obj
 0001:0000d3f0       ??0?$allocator@PAVLogFileNode@ParserTC50@aggregator@tls@@@std@@QAE@ABV01@@Z 130de3f0 f i parsertc50_static:parser_tc50.obj
 0001:0000d410       ?allocate@?$allocator@PAPAVLogFileNode@ParserTC50@aggregator@tls@@@std@@QAEPAPAPAVLogFileNode@ParserTC50@aggregator@tls@@I@Z 130de410 f i parsertc50_static:parser_tc50.obj
 0001:0000d440       ??0?$allocator@PAVDictNode@ParserTC50@aggregator@tls@@@std@@QAE@ABV01@@Z 130de440 f i parsertc50_static:parser_tc50.obj
 0001:0000d460       ?_Nextnode@?$list@PAVDictNode@ParserTC50@aggregator@tls@@V?$allocator@PAVDictNode@ParserTC50@aggregator@tls@@@std@@@std@@KAAAPAU_Node@?$_List_nod@PAVDictNode@ParserTC50@aggregator@tls@@V?$allocator@PAVDictNode@ParserTC50@aggregator@tls@@@std@@@2@PAU342@@Z 130de460 f i parsertc50_static:parser_tc50.obj
 0001:0000d470       ?_Prevnode@?$list@PAVDictNode@ParserTC50@aggregator@tls@@V?$allocator@PAVDictNode@ParserTC50@aggregator@tls@@@std@@@std@@KAAAPAU_Node@?$_List_nod@PAVDictNode@ParserTC50@aggregator@tls@@V?$allocator@PAVDictNode@ParserTC50@aggregator@tls@@@std@@@2@PAU342@@Z 130de470 f i parsertc50_static:parser_tc50.obj
 0001:0000d480       ?end@?$list@PAVDictNode@ParserTC50@aggregator@tls@@V?$allocator@PAVDictNode@ParserTC50@aggregator@tls@@@std@@@std@@QAE?AV?$_Iterator@$00@12@XZ 130de480 f i parsertc50_static:parser_tc50.obj
 0001:0000d4c0       ?clear@?$list@PAVDictNode@ParserTC50@aggregator@tls@@V?$allocator@PAVDictNode@ParserTC50@aggregator@tls@@@std@@@std@@QAEXXZ 130de4c0 f i parsertc50_static:parser_tc50.obj
 0001:0000d590       ?_Buynode@?$list@PAVDictNode@ParserTC50@aggregator@tls@@V?$allocator@PAVDictNode@ParserTC50@aggregator@tls@@@std@@@std@@IAEPAU_Node@?$_List_nod@PAVDictNode@ParserTC50@aggregator@tls@@V?$allocator@PAVDictNode@ParserTC50@aggregator@tls@@@std@@@2@XZ 130de590 f i parsertc50_static:parser_tc50.obj
 0001:0000d680       ??0?$_List_val@PAVDictNode@ParserTC50@aggregator@tls@@V?$allocator@PAVDictNode@ParserTC50@aggregator@tls@@@std@@@std@@QAE@V?$allocator@PAVDictNode@ParserTC50@aggregator@tls@@@1@@Z 130de680 f i parsertc50_static:parser_tc50.obj
 0001:0000d6d0       ?deallocate@?$allocator@U_Node@?$_List_nod@PAVDictNode@ParserTC50@aggregator@tls@@V?$allocator@PAVDictNode@ParserTC50@aggregator@tls@@@std@@@std@@@std@@QAEXPAU_Node@?$_List_nod@PAVDictNode@ParserTC50@aggregator@tls@@V?$allocator@PAVDictNode@ParserTC50@aggregator@tls@@@std@@@2@I@Z 130de6d0 f i parsertc50_static:parser_tc50.obj
 0001:0000d700       ?destroy@?$allocator@PAU_Node@?$_List_nod@PAVDictNode@ParserTC50@aggregator@tls@@V?$allocator@PAVDictNode@ParserTC50@aggregator@tls@@@std@@@std@@@std@@QAEXPAPAU_Node@?$_List_nod@PAVDictNode@ParserTC50@aggregator@tls@@V?$allocator@PAVDictNode@ParserTC50@aggregator@tls@@@std@@@2@@Z 130de700 f i parsertc50_static:parser_tc50.obj
 0001:0000d730       ?_Construct_n@?$vector@V?$_Iterator@$00@?$list@PAVDictNode@ParserTC50@aggregator@tls@@V?$allocator@PAVDictNode@ParserTC50@aggregator@tls@@@std@@@std@@V?$allocator@V?$_Iterator@$00@?$list@PAVDictNode@ParserTC50@aggregator@tls@@V?$allocator@PAVDictNode@ParserTC50@aggregator@tls@@@std@@@std@@@3@@std@@QAEXIABV?$_Iterator@$00@?$list@PAVDictNode@ParserTC50@aggregator@tls@@V?$allocator@PAVDictNode@ParserTC50@aggregator@tls@@@std@@@2@@Z 130de730 f i parsertc50_static:parser_tc50.obj
 0001:0000d790       ?_Destroy@?$vector@V?$_Iterator@$00@?$list@PAVDictNode@ParserTC50@aggregator@tls@@V?$allocator@PAVDictNode@ParserTC50@aggregator@tls@@@std@@@std@@V?$allocator@V?$_Iterator@$00@?$list@PAVDictNode@ParserTC50@aggregator@tls@@V?$allocator@PAVDictNode@ParserTC50@aggregator@tls@@@std@@@std@@@3@@std@@IAEXPAV?$_Iterator@$00@?$list@PAVDictNode@ParserTC50@aggregator@tls@@V?$allocator@PAVDictNode@ParserTC50@aggregator@tls@@@std@@@2@0@Z 130de790 f i parsertc50_static:parser_tc50.obj
 0001:0000d7d0       ??0?$_Vector_val@V?$_Iterator@$00@?$list@PAVDictNode@ParserTC50@aggregator@tls@@V?$allocator@PAVDictNode@ParserTC50@aggregator@tls@@@std@@@std@@V?$allocator@V?$_Iterator@$00@?$list@PAVDictNode@ParserTC50@aggregator@tls@@V?$allocator@PAVDictNode@ParserTC50@aggregator@tls@@@std@@@std@@@3@@std@@IAE@V?$allocator@V?$_Iterator@$00@?$list@PAVDictNode@ParserTC50@aggregator@tls@@V?$allocator@PAVDictNode@ParserTC50@aggregator@tls@@@std@@@std@@@1@@Z 130de7d0 f i parsertc50_static:parser_tc50.obj
 0001:0000d810       ??0?$allocator@V?$_Iterator@$00@?$list@PAVDictNode@ParserTC50@aggregator@tls@@V?$allocator@PAVDictNode@ParserTC50@aggregator@tls@@@std@@@std@@@std@@QAE@ABV01@@Z 130de810 f i parsertc50_static:parser_tc50.obj
 0001:0000d830       ?deallocate@?$allocator@V?$_Iterator@$00@?$list@PAVDictNode@ParserTC50@aggregator@tls@@V?$allocator@PAVDictNode@ParserTC50@aggregator@tls@@@std@@@std@@@std@@QAEXPAV?$_Iterator@$00@?$list@PAVDictNode@ParserTC50@aggregator@tls@@V?$allocator@PAVDictNode@ParserTC50@aggregator@tls@@@std@@@2@I@Z 130de830 f i parsertc50_static:parser_tc50.obj
 0001:0000d860       ??E?$_Iterator@$00@?$list@U?$pair@$$CBIVLogFileNode@ParserTC50@aggregator@tls@@@std@@V?$allocator@U?$pair@$$CBIVLogFileNode@ParserTC50@aggregator@tls@@@std@@@2@@std@@QAE?AV012@H@Z 130de860 f i parsertc50_static:parser_tc50.obj
 0001:0000d8f0       ??0?$_Const_iterator@$00@?$list@U?$pair@$$CBIVLogFileNode@ParserTC50@aggregator@tls@@@std@@V?$allocator@U?$pair@$$CBIVLogFileNode@ParserTC50@aggregator@tls@@@std@@@2@@std@@QAE@PAU_Node@?$_List_nod@U?$pair@$$CBIVLogFileNode@ParserTC50@aggregator@tls@@@std@@V?$allocator@U?$pair@$$CBIVLogFileNode@ParserTC50@aggregator@tls@@@std@@@2@@2@PBV12@@Z 130de8f0 f i parsertc50_static:parser_tc50.obj
 0001:0000d930       ??F?$_Const_iterator@$00@?$list@U?$pair@$$CBIVLogFileNode@ParserTC50@aggregator@tls@@@std@@V?$allocator@U?$pair@$$CBIVLogFileNode@ParserTC50@aggregator@tls@@@std@@@2@@std@@QAEAAV012@XZ 130de930 f i parsertc50_static:parser_tc50.obj
 0001:0000d9f0       ?_Mynode@?$_Const_iterator@$00@?$list@U?$pair@$$CBIVLogFileNode@ParserTC50@aggregator@tls@@@std@@V?$allocator@U?$pair@$$CBIVLogFileNode@ParserTC50@aggregator@tls@@@std@@@2@@std@@QBEPAU_Node@?$_List_nod@U?$pair@$$CBIVLogFileNode@ParserTC50@aggregator@tls@@@std@@V?$allocator@U?$pair@$$CBIVLogFileNode@ParserTC50@aggregator@tls@@@std@@@2@@3@XZ 130de9f0 f i parsertc50_static:parser_tc50.obj
 0001:0000da10       ?max_size@?$list@ULogFileNodePos@?1??ThreadProc@ParserTC50@aggregator@tls@@QAEXI@Z@V?$allocator@ULogFileNodePos@?1??ThreadProc@ParserTC50@aggregator@tls@@QAEXI@Z@@std@@@std@@QBEIXZ 130dea10 f i parsertc50_static:parser_tc50.obj
 0001:0000da40       ??0?$_List_nod@ULogFileNodePos@?1??ThreadProc@ParserTC50@aggregator@tls@@QAEXI@Z@V?$allocator@ULogFileNodePos@?1??ThreadProc@ParserTC50@aggregator@tls@@QAEXI@Z@@std@@@std@@IAE@V?$allocator@ULogFileNodePos@?1??ThreadProc@ParserTC50@aggregator@tls@@QAEXI@Z@@1@@Z 130dea40 f i parsertc50_static:parser_tc50.obj
 0001:0000da80       ?construct@?$allocator@ULogFileNodePos@?1??ThreadProc@ParserTC50@aggregator@tls@@QAEXI@Z@@std@@QAEXPAULogFileNodePos@?1??ThreadProc@ParserTC50@aggregator@tls@@QAEXI@Z@ABU3?1??4567@QAEXI@Z@@Z 130dea80 f i parsertc50_static:parser_tc50.obj
 0001:0000dab0       ??0?$_Deque_iterator@PAVLogFileNode@ParserTC50@aggregator@tls@@V?$allocator@PAVLogFileNode@ParserTC50@aggregator@tls@@@std@@$00@std@@QAE@IPBV_Container_base@1@@Z 130deab0 f i parsertc50_static:parser_tc50.obj
 0001:0000daf0       ??D?$_Deque_const_iterator@PAVLogFileNode@ParserTC50@aggregator@tls@@V?$allocator@PAVLogFileNode@ParserTC50@aggregator@tls@@@std@@$00@std@@QBEABQAVLogFileNode@ParserTC50@aggregator@tls@@XZ 130deaf0 f i parsertc50_static:parser_tc50.obj
 0001:0000dbf0       ??H?$_Vector_iterator@V?$_Iterator@$00@?$list@U?$pair@$$CBIVLogFileNode@ParserTC50@aggregator@tls@@@std@@V?$allocator@U?$pair@$$CBIVLogFileNode@ParserTC50@aggregator@tls@@@std@@@2@@std@@V?$allocator@V?$_Iterator@$00@?$list@U?$pair@$$CBIVLogFileNode@ParserTC50@aggregator@tls@@@std@@V?$allocator@U?$pair@$$CBIVLogFileNode@ParserTC50@aggregator@tls@@@std@@@2@@std@@@3@@std@@QBE?AV01@H@Z 130debf0 f i parsertc50_static:parser_tc50.obj
 0001:0000dc80       ??0?$_Vector_iterator@V?$_Iterator@$00@?$list@U?$pair@$$CBIVLogFileNode@ParserTC50@aggregator@tls@@@std@@V?$allocator@U?$pair@$$CBIVLogFileNode@ParserTC50@aggregator@tls@@@std@@@2@@std@@V?$allocator@V?$_Iterator@$00@?$list@U?$pair@$$CBIVLogFileNode@ParserTC50@aggregator@tls@@@std@@V?$allocator@U?$pair@$$CBIVLogFileNode@ParserTC50@aggregator@tls@@@std@@@2@@std@@@3@@std@@QAE@ABV01@@Z 130dec80 f i parsertc50_static:parser_tc50.obj
 0001:0000dcb0       ??0?$_Vector_const_iterator@V?$_Iterator@$00@?$list@U?$pair@$$CBIVLogFileNode@ParserTC50@aggregator@tls@@@std@@V?$allocator@U?$pair@$$CBIVLogFileNode@ParserTC50@aggregator@tls@@@std@@@2@@std@@V?$allocator@V?$_Iterator@$00@?$list@U?$pair@$$CBIVLogFileNode@ParserTC50@aggregator@tls@@@std@@V?$allocator@U?$pair@$$CBIVLogFileNode@ParserTC50@aggregator@tls@@@std@@@2@@std@@@3@@std@@QAE@ABV01@@Z 130decb0 f i parsertc50_static:parser_tc50.obj
 0001:0000dcf0       ??0?$_Ranit@V?$_Iterator@$00@?$list@U?$pair@$$CBIVLogFileNode@ParserTC50@aggregator@tls@@@std@@V?$allocator@U?$pair@$$CBIVLogFileNode@ParserTC50@aggregator@tls@@@std@@@2@@std@@HPBV123@ABV123@@std@@QAE@ABU01@@Z 130decf0 f i parsertc50_static:parser_tc50.obj
 0001:0000dd20       ?assign@?$basic_string@DU?$char_traits@D@std@@V?$allocator@D@2@@std@@QAEAAV12@PBD@Z 130ded20 f i parsertc50_static:parser_tc50.obj
 0001:0000dd60       ?length@?$char_traits@D@std@@SAIPBD@Z 130ded60 f i parsertc50_static:parser_tc50.obj
 0001:0000dd80       ??0?$_String_val@DV?$allocator@D@std@@@std@@IAE@V?$allocator@D@1@@Z 130ded80 f i parsertc50_static:parser_tc50.obj
 0001:0000ddc0       ??0?$allocator@D@std@@QAE@XZ 130dedc0 f i parsertc50_static:parser_tc50.obj
 0001:0000dde0       ?allocate@?$allocator@D@std@@QAEPADI@Z 130dede0 f i parsertc50_static:parser_tc50.obj
 0001:0000de10       ?max_size@?$allocator@D@std@@QBEIXZ 130dee10 f i parsertc50_static:parser_tc50.obj
 0001:0000de60       ?max_size@?$list@U?$pair@$$CBIVLogFileNode@ParserTC50@aggregator@tls@@@std@@V?$allocator@U?$pair@$$CBIVLogFileNode@ParserTC50@aggregator@tls@@@std@@@2@@std@@QBEIXZ 130dee60 f i parsertc50_static:parser_tc50.obj
 0001:0000de90       ?erase@?$list@U?$pair@$$CBIVLogFileNode@ParserTC50@aggregator@tls@@@std@@V?$allocator@U?$pair@$$CBIVLogFileNode@ParserTC50@aggregator@tls@@@std@@@2@@std@@QAE?AV?$_Iterator@$00@12@V312@@Z 130dee90 f i parsertc50_static:parser_tc50.obj
 0001:0000dfc0       ?_Buynode@?$list@U?$pair@$$CBIVLogFileNode@ParserTC50@aggregator@tls@@@std@@V?$allocator@U?$pair@$$CBIVLogFileNode@ParserTC50@aggregator@tls@@@std@@@2@@std@@IAEPAU_Node@?$_List_nod@U?$pair@$$CBIVLogFileNode@ParserTC50@aggregator@tls@@@std@@V?$allocator@U?$pair@$$CBIVLogFileNode@ParserTC50@aggregator@tls@@@std@@@2@@2@PAU342@0ABU?$pair@$$CBIVLogFileNode@ParserTC50@aggregator@tls@@@2@@Z 130defc0 f i parsertc50_static:parser_tc50.obj
 0001:0000e0c0       ??0?$_List_ptr@U?$pair@$$CBIVLogFileNode@ParserTC50@aggregator@tls@@@std@@V?$allocator@U?$pair@$$CBIVLogFileNode@ParserTC50@aggregator@tls@@@std@@@2@@std@@IAE@V?$allocator@U?$pair@$$CBIVLogFileNode@ParserTC50@aggregator@tls@@@std@@@1@@Z 130df0c0 f i parsertc50_static:parser_tc50.obj
 0001:0000e110       ?allocate@?$allocator@U_Node@?$_List_nod@U?$pair@$$CBIVLogFileNode@ParserTC50@aggregator@tls@@@std@@V?$allocator@U?$pair@$$CBIVLogFileNode@ParserTC50@aggregator@tls@@@std@@@2@@std@@@std@@QAEPAU_Node@?$_List_nod@U?$pair@$$CBIVLogFileNode@ParserTC50@aggregator@tls@@@std@@V?$allocator@U?$pair@$$CBIVLogFileNode@ParserTC50@aggregator@tls@@@std@@@2@@2@I@Z 130df110 f i parsertc50_static:parser_tc50.obj
 0001:0000e140       ?construct@?$allocator@PAU_Node@?$_List_nod@U?$pair@$$CBIVLogFileNode@ParserTC50@aggregator@tls@@@std@@V?$allocator@U?$pair@$$CBIVLogFileNode@ParserTC50@aggregator@tls@@@std@@@2@@std@@@std@@QAEXPAPAU_Node@?$_List_nod@U?$pair@$$CBIVLogFileNode@ParserTC50@aggregator@tls@@@std@@V?$allocator@U?$pair@$$CBIVLogFileNode@ParserTC50@aggregator@tls@@@std@@@2@@2@ABQAU342@@Z 130df140 f i parsertc50_static:parser_tc50.obj
 0001:0000e170       ?capacity@?$vector@V?$_Iterator@$00@?$list@U?$pair@$$CBIVLogFileNode@ParserTC50@aggregator@tls@@@std@@V?$allocator@U?$pair@$$CBIVLogFileNode@ParserTC50@aggregator@tls@@@std@@@2@@std@@V?$allocator@V?$_Iterator@$00@?$list@U?$pair@$$CBIVLogFileNode@ParserTC50@aggregator@tls@@@std@@V?$allocator@U?$pair@$$CBIVLogFileNode@ParserTC50@aggregator@tls@@@std@@@2@@std@@@3@@std@@QBEIXZ 130df170 f i parsertc50_static:parser_tc50.obj
 0001:0000e1c0       ?max_size@?$vector@V?$_Iterator@$00@?$list@U?$pair@$$CBIVLogFileNode@ParserTC50@aggregator@tls@@@std@@V?$allocator@U?$pair@$$CBIVLogFileNode@ParserTC50@aggregator@tls@@@std@@@2@@std@@V?$allocator@V?$_Iterator@$00@?$list@U?$pair@$$CBIVLogFileNode@ParserTC50@aggregator@tls@@@std@@V?$allocator@U?$pair@$$CBIVLogFileNode@ParserTC50@aggregator@tls@@@std@@@2@@std@@@3@@std@@QBEIXZ 130df1c0 f i parsertc50_static:parser_tc50.obj
 0001:0000e1f0       ?_Buy@?$vector@V?$_Iterator@$00@?$list@U?$pair@$$CBIVLogFileNode@ParserTC50@aggregator@tls@@@std@@V?$allocator@U?$pair@$$CBIVLogFileNode@ParserTC50@aggregator@tls@@@std@@@2@@std@@V?$allocator@V?$_Iterator@$00@?$list@U?$pair@$$CBIVLogFileNode@ParserTC50@aggregator@tls@@@std@@V?$allocator@U?$pair@$$CBIVLogFileNode@ParserTC50@aggregator@tls@@@std@@@2@@std@@@3@@std@@IAE_NI@Z 130df1f0 f i parsertc50_static:parser_tc50.obj
 0001:0000e290       ?_Ufill@?$vector@V?$_Iterator@$00@?$list@U?$pair@$$CBIVLogFileNode@ParserTC50@aggregator@tls@@@std@@V?$allocator@U?$pair@$$CBIVLogFileNode@ParserTC50@aggregator@tls@@@std@@@2@@std@@V?$allocator@V?$_Iterator@$00@?$list@U?$pair@$$CBIVLogFileNode@ParserTC50@aggregator@tls@@@std@@V?$allocator@U?$pair@$$CBIVLogFileNode@ParserTC50@aggregator@tls@@@std@@@2@@std@@@3@@std@@IAEPAV?$_Iterator@$00@?$list@U?$pair@$$CBIVLogFileNode@ParserTC50@aggregator@tls@@@std@@V?$allocator@U?$pair@$$CBIVLogFileNode@ParserTC50@aggregator@tls@@@std@@@2@@2@PAV342@IABV342@@Z 130df290 f i parsertc50_static:parser_tc50.obj
 0001:0000e2e0       ?_Xlen@?$vector@V?$_Iterator@$00@?$list@U?$pair@$$CBIVLogFileNode@ParserTC50@aggregator@tls@@@std@@V?$allocator@U?$pair@$$CBIVLogFileNode@ParserTC50@aggregator@tls@@@std@@@2@@std@@V?$allocator@V?$_Iterator@$00@?$list@U?$pair@$$CBIVLogFileNode@ParserTC50@aggregator@tls@@@std@@V?$allocator@U?$pair@$$CBIVLogFileNode@ParserTC50@aggregator@tls@@@std@@@2@@std@@@3@@std@@KAXXZ 130df2e0 f i parsertc50_static:parser_tc50.obj
 0001:0000e340       ?_Orphan_range@?$vector@V?$_Iterator@$00@?$list@U?$pair@$$CBIVLogFileNode@ParserTC50@aggregator@tls@@@std@@V?$allocator@U?$pair@$$CBIVLogFileNode@ParserTC50@aggregator@tls@@@std@@@2@@std@@V?$allocator@V?$_Iterator@$00@?$list@U?$pair@$$CBIVLogFileNode@ParserTC50@aggregator@tls@@@std@@V?$allocator@U?$pair@$$CBIVLogFileNode@ParserTC50@aggregator@tls@@@std@@@2@@std@@@3@@std@@IBEXPAV?$_Iterator@$00@?$list@U?$pair@$$CBIVLogFileNode@ParserTC50@aggregator@tls@@@std@@V?$allocator@U?$pair@$$CBIVLogFileNode@ParserTC50@aggregator@tls@@@std@@@2@@2@0@Z 130df340 f i parsertc50_static:parser_tc50.obj
 0001:0000e400       ?allocate@?$allocator@V?$_Iterator@$00@?$list@U?$pair@$$CBIVLogFileNode@ParserTC50@aggregator@tls@@@std@@V?$allocator@U?$pair@$$CBIVLogFileNode@ParserTC50@aggregator@tls@@@std@@@2@@std@@@std@@QAEPAV?$_Iterator@$00@?$list@U?$pair@$$CBIVLogFileNode@ParserTC50@aggregator@tls@@@std@@V?$allocator@U?$pair@$$CBIVLogFileNode@ParserTC50@aggregator@tls@@@std@@@2@@2@I@Z 130df400 f i parsertc50_static:parser_tc50.obj
 0001:0000e430       ?max_size@?$allocator@PAVLogFileNode@ParserTC50@aggregator@tls@@@std@@QBEIXZ 130df430 f i parsertc50_static:parser_tc50.obj
 0001:0000e480       ?_Orphan_ptr@?$list@PAVDictNode@ParserTC50@aggregator@tls@@V?$allocator@PAVDictNode@ParserTC50@aggregator@tls@@@std@@@std@@IBEXAAV12@PAU_Node@?$_List_nod@PAVDictNode@ParserTC50@aggregator@tls@@V?$allocator@PAVDictNode@ParserTC50@aggregator@tls@@@std@@@2@@Z 130df480 f i parsertc50_static:parser_tc50.obj
 0001:0000e550       ??0?$_List_ptr@PAVDictNode@ParserTC50@aggregator@tls@@V?$allocator@PAVDictNode@ParserTC50@aggregator@tls@@@std@@@std@@IAE@V?$allocator@PAVDictNode@ParserTC50@aggregator@tls@@@1@@Z 130df550 f i parsertc50_static:parser_tc50.obj
 0001:0000e5a0       ?allocate@?$allocator@U_Node@?$_List_nod@PAVDictNode@ParserTC50@aggregator@tls@@V?$allocator@PAVDictNode@ParserTC50@aggregator@tls@@@std@@@std@@@std@@QAEPAU_Node@?$_List_nod@PAVDictNode@ParserTC50@aggregator@tls@@V?$allocator@PAVDictNode@ParserTC50@aggregator@tls@@@std@@@2@I@Z 130df5a0 f i parsertc50_static:parser_tc50.obj
 0001:0000e5d0       ?destroy@?$allocator@U_Node@?$_List_nod@PAVDictNode@ParserTC50@aggregator@tls@@V?$allocator@PAVDictNode@ParserTC50@aggregator@tls@@@std@@@std@@@std@@QAEXPAU_Node@?$_List_nod@PAVDictNode@ParserTC50@aggregator@tls@@V?$allocator@PAVDictNode@ParserTC50@aggregator@tls@@@std@@@2@@Z 130df5d0 f i parsertc50_static:parser_tc50.obj
 0001:0000e600       ?construct@?$allocator@PAU_Node@?$_List_nod@PAVDictNode@ParserTC50@aggregator@tls@@V?$allocator@PAVDictNode@ParserTC50@aggregator@tls@@@std@@@std@@@std@@QAEXPAPAU_Node@?$_List_nod@PAVDictNode@ParserTC50@aggregator@tls@@V?$allocator@PAVDictNode@ParserTC50@aggregator@tls@@@std@@@2@ABQAU342@@Z 130df600 f i parsertc50_static:parser_tc50.obj
 0001:0000e630       ?_Buy@?$vector@V?$_Iterator@$00@?$list@PAVDictNode@ParserTC50@aggregator@tls@@V?$allocator@PAVDictNode@ParserTC50@aggregator@tls@@@std@@@std@@V?$allocator@V?$_Iterator@$00@?$list@PAVDictNode@ParserTC50@aggregator@tls@@V?$allocator@PAVDictNode@ParserTC50@aggregator@tls@@@std@@@std@@@3@@std@@IAE_NI@Z 130df630 f i parsertc50_static:parser_tc50.obj
 0001:0000e6d0       ?_Ufill@?$vector@V?$_Iterator@$00@?$list@PAVDictNode@ParserTC50@aggregator@tls@@V?$allocator@PAVDictNode@ParserTC50@aggregator@tls@@@std@@@std@@V?$allocator@V?$_Iterator@$00@?$list@PAVDictNode@ParserTC50@aggregator@tls@@V?$allocator@PAVDictNode@ParserTC50@aggregator@tls@@@std@@@std@@@3@@std@@IAEPAV?$_Iterator@$00@?$list@PAVDictNode@ParserTC50@aggregator@tls@@V?$allocator@PAVDictNode@ParserTC50@aggregator@tls@@@std@@@2@PAV342@IABV342@@Z 130df6d0 f i parsertc50_static:parser_tc50.obj
 0001:0000e720       ?max_size@?$allocator@ULogFileNodePos@?1??ThreadProc@ParserTC50@aggregator@tls@@QAEXI@Z@@std@@QBEIXZ 130df720 f i parsertc50_static:parser_tc50.obj
 0001:0000e770       ??0?$_Deque_const_iterator@PAVLogFileNode@ParserTC50@aggregator@tls@@V?$allocator@PAVLogFileNode@ParserTC50@aggregator@tls@@@std@@$00@std@@QAE@IPBV_Container_base@1@@Z 130df770 f i parsertc50_static:parser_tc50.obj
 0001:0000e820       ??0?$_Iterator@$00@?$list@PAVDictNode@ParserTC50@aggregator@tls@@V?$allocator@PAVDictNode@ParserTC50@aggregator@tls@@@std@@@std@@QAE@PAU_Node@?$_List_nod@PAVDictNode@ParserTC50@aggregator@tls@@V?$allocator@PAVDictNode@ParserTC50@aggregator@tls@@@std@@@2@PBV12@@Z 130df820 f i parsertc50_static:parser_tc50.obj
 0001:0000e860       ??0?$_Vector_iterator@V?$_Iterator@$00@?$list@U?$pair@$$CBIVLogFileNode@ParserTC50@aggregator@tls@@@std@@V?$allocator@U?$pair@$$CBIVLogFileNode@ParserTC50@aggregator@tls@@@std@@@2@@std@@V?$allocator@V?$_Iterator@$00@?$list@U?$pair@$$CBIVLogFileNode@ParserTC50@aggregator@tls@@@std@@V?$allocator@U?$pair@$$CBIVLogFileNode@ParserTC50@aggregator@tls@@@std@@@2@@std@@@3@@std@@QAE@PAV?$_Iterator@$00@?$list@U?$pair@$$CBIVLogFileNode@ParserTC50@aggregator@tls@@@std@@V?$allocator@U?$pair@$$CBIVLogFileNode@ParserTC50@aggregator@tls@@@std@@@2@@1@PBV_Container_base@1@@Z 130df860 f i parsertc50_static:parser_tc50.obj
 0001:0000e8a0       ??Y?$_Vector_iterator@V?$_Iterator@$00@?$list@U?$pair@$$CBIVLogFileNode@ParserTC50@aggregator@tls@@@std@@V?$allocator@U?$pair@$$CBIVLogFileNode@ParserTC50@aggregator@tls@@@std@@@2@@std@@V?$allocator@V?$_Iterator@$00@?$list@U?$pair@$$CBIVLogFileNode@ParserTC50@aggregator@tls@@@std@@V?$allocator@U?$pair@$$CBIVLogFileNode@ParserTC50@aggregator@tls@@@std@@@2@@std@@@3@@std@@QAEAAV01@H@Z 130df8a0 f i parsertc50_static:parser_tc50.obj
 0001:0000e8d0       ??9?$_Vector_const_iterator@V?$_Iterator@$00@?$list@U?$pair@$$CBIVLogFileNode@ParserTC50@aggregator@tls@@@std@@V?$allocator@U?$pair@$$CBIVLogFileNode@ParserTC50@aggregator@tls@@@std@@@2@@std@@V?$allocator@V?$_Iterator@$00@?$list@U?$pair@$$CBIVLogFileNode@ParserTC50@aggregator@tls@@@std@@V?$allocator@U?$pair@$$CBIVLogFileNode@ParserTC50@aggregator@tls@@@std@@@2@@std@@@3@@std@@QBE_NABV01@@Z 130df8d0 f i parsertc50_static:parser_tc50.obj
 0001:0000e910       ??M?$_Vector_const_iterator@V?$_Iterator@$00@?$list@U?$pair@$$CBIVLogFileNode@ParserTC50@aggregator@tls@@@std@@V?$allocator@U?$pair@$$CBIVLogFileNode@ParserTC50@aggregator@tls@@@std@@@2@@std@@V?$allocator@V?$_Iterator@$00@?$list@U?$pair@$$CBIVLogFileNode@ParserTC50@aggregator@tls@@@std@@V?$allocator@U?$pair@$$CBIVLogFileNode@ParserTC50@aggregator@tls@@@std@@@2@@std@@@3@@std@@QBE_NABV01@@Z 130df910 f i parsertc50_static:parser_tc50.obj
 0001:0000e950       ??0?$_Ranit@PAVLogFileNode@ParserTC50@aggregator@tls@@HPBQAV1234@ABQAV1234@@std@@QAE@XZ 130df950 f i parsertc50_static:parser_tc50.obj
 0001:0000e980       ?assign@?$basic_string@DU?$char_traits@D@std@@V?$allocator@D@2@@std@@QAEAAV12@PBDI@Z 130df980 f i parsertc50_static:parser_tc50.obj
 0001:0000ea20       ?construct@?$allocator@U?$pair@$$CBIVLogFileNode@ParserTC50@aggregator@tls@@@std@@@std@@QAEXPAU?$pair@$$CBIVLogFileNode@ParserTC50@aggregator@tls@@@2@ABU32@@Z 130dfa20 f i parsertc50_static:parser_tc50.obj
 0001:0000ea50       ?max_size@?$allocator@U?$pair@$$CBIVLogFileNode@ParserTC50@aggregator@tls@@@std@@@std@@QBEIXZ 130dfa50 f i parsertc50_static:parser_tc50.obj
 0001:0000eaa0       ??0?$_List_nod@U?$pair@$$CBIVLogFileNode@ParserTC50@aggregator@tls@@@std@@V?$allocator@U?$pair@$$CBIVLogFileNode@ParserTC50@aggregator@tls@@@std@@@2@@std@@IAE@V?$allocator@U?$pair@$$CBIVLogFileNode@ParserTC50@aggregator@tls@@@std@@@1@@Z 130dfaa0 f i parsertc50_static:parser_tc50.obj
 0001:0000eae0       ?max_size@?$allocator@V?$_Iterator@$00@?$list@U?$pair@$$CBIVLogFileNode@ParserTC50@aggregator@tls@@@std@@V?$allocator@U?$pair@$$CBIVLogFileNode@ParserTC50@aggregator@tls@@@std@@@2@@std@@@std@@QBEIXZ 130dfae0 f i parsertc50_static:parser_tc50.obj
 0001:0000eb30       ??0?$_List_nod@PAVDictNode@ParserTC50@aggregator@tls@@V?$allocator@PAVDictNode@ParserTC50@aggregator@tls@@@std@@@std@@IAE@V?$allocator@PAVDictNode@ParserTC50@aggregator@tls@@@1@@Z 130dfb30 f i parsertc50_static:parser_tc50.obj
 0001:0000eb70       ?max_size@?$vector@V?$_Iterator@$00@?$list@PAVDictNode@ParserTC50@aggregator@tls@@V?$allocator@PAVDictNode@ParserTC50@aggregator@tls@@@std@@@std@@V?$allocator@V?$_Iterator@$00@?$list@PAVDictNode@ParserTC50@aggregator@tls@@V?$allocator@PAVDictNode@ParserTC50@aggregator@tls@@@std@@@std@@@3@@std@@QBEIXZ 130dfb70 f i parsertc50_static:parser_tc50.obj
 0001:0000eba0       ?_Xlen@?$vector@V?$_Iterator@$00@?$list@PAVDictNode@ParserTC50@aggregator@tls@@V?$allocator@PAVDictNode@ParserTC50@aggregator@tls@@@std@@@std@@V?$allocator@V?$_Iterator@$00@?$list@PAVDictNode@ParserTC50@aggregator@tls@@V?$allocator@PAVDictNode@ParserTC50@aggregator@tls@@@std@@@std@@@3@@std@@KAXXZ 130dfba0 f i parsertc50_static:parser_tc50.obj
 0001:0000ec00       ?allocate@?$allocator@V?$_Iterator@$00@?$list@PAVDictNode@ParserTC50@aggregator@tls@@V?$allocator@PAVDictNode@ParserTC50@aggregator@tls@@@std@@@std@@@std@@QAEPAV?$_Iterator@$00@?$list@PAVDictNode@ParserTC50@aggregator@tls@@V?$allocator@PAVDictNode@ParserTC50@aggregator@tls@@@std@@@2@I@Z 130dfc00 f i parsertc50_static:parser_tc50.obj
 0001:0000ec30       ??0?$_Const_iterator@$00@?$list@PAVDictNode@ParserTC50@aggregator@tls@@V?$allocator@PAVDictNode@ParserTC50@aggregator@tls@@@std@@@std@@QAE@PAU_Node@?$_List_nod@PAVDictNode@ParserTC50@aggregator@tls@@V?$allocator@PAVDictNode@ParserTC50@aggregator@tls@@@std@@@2@PBV12@@Z 130dfc30 f i parsertc50_static:parser_tc50.obj
 0001:0000ec70       ??0?$_Vector_const_iterator@V?$_Iterator@$00@?$list@U?$pair@$$CBIVLogFileNode@ParserTC50@aggregator@tls@@@std@@V?$allocator@U?$pair@$$CBIVLogFileNode@ParserTC50@aggregator@tls@@@std@@@2@@std@@V?$allocator@V?$_Iterator@$00@?$list@U?$pair@$$CBIVLogFileNode@ParserTC50@aggregator@tls@@@std@@V?$allocator@U?$pair@$$CBIVLogFileNode@ParserTC50@aggregator@tls@@@std@@@2@@std@@@3@@std@@QAE@PAV?$_Iterator@$00@?$list@U?$pair@$$CBIVLogFileNode@ParserTC50@aggregator@tls@@@std@@V?$allocator@U?$pair@$$CBIVLogFileNode@ParserTC50@aggregator@tls@@@std@@@2@@1@PBV_Container_base@1@@Z 130dfc70 f i parsertc50_static:parser_tc50.obj
 0001:0000ed10       ??Y?$_Vector_const_iterator@V?$_Iterator@$00@?$list@U?$pair@$$CBIVLogFileNode@ParserTC50@aggregator@tls@@@std@@V?$allocator@U?$pair@$$CBIVLogFileNode@ParserTC50@aggregator@tls@@@std@@@2@@std@@V?$allocator@V?$_Iterator@$00@?$list@U?$pair@$$CBIVLogFileNode@ParserTC50@aggregator@tls@@@std@@V?$allocator@U?$pair@$$CBIVLogFileNode@ParserTC50@aggregator@tls@@@std@@@2@@std@@@3@@std@@QAEAAV01@H@Z 130dfd10 f i parsertc50_static:parser_tc50.obj
 0001:0000ee00       ??8?$_Vector_const_iterator@V?$_Iterator@$00@?$list@U?$pair@$$CBIVLogFileNode@ParserTC50@aggregator@tls@@@std@@V?$allocator@U?$pair@$$CBIVLogFileNode@ParserTC50@aggregator@tls@@@std@@@2@@std@@V?$allocator@V?$_Iterator@$00@?$list@U?$pair@$$CBIVLogFileNode@ParserTC50@aggregator@tls@@@std@@V?$allocator@U?$pair@$$CBIVLogFileNode@ParserTC50@aggregator@tls@@@std@@@2@@std@@@3@@std@@QBE_NABV01@@Z 130dfe00 f i parsertc50_static:parser_tc50.obj
 0001:0000ee40       ?_Compat@?$_Vector_const_iterator@V?$_Iterator@$00@?$list@U?$pair@$$CBIVLogFileNode@ParserTC50@aggregator@tls@@@std@@V?$allocator@U?$pair@$$CBIVLogFileNode@ParserTC50@aggregator@tls@@@std@@@2@@std@@V?$allocator@V?$_Iterator@$00@?$list@U?$pair@$$CBIVLogFileNode@ParserTC50@aggregator@tls@@@std@@V?$allocator@U?$pair@$$CBIVLogFileNode@ParserTC50@aggregator@tls@@@std@@@2@@std@@@3@@std@@QBEXABV12@@Z 130dfe40 f i parsertc50_static:parser_tc50.obj
 0001:0000eed0       ??0?$_Bidit@PAVDictNode@ParserTC50@aggregator@tls@@HPBQAV1234@ABQAV1234@@std@@QAE@XZ 130dfed0 f i parsertc50_static:parser_tc50.obj
 0001:0000ef00       ??0?$_Ranit@V?$_Iterator@$00@?$list@U?$pair@$$CBIVLogFileNode@ParserTC50@aggregator@tls@@@std@@V?$allocator@U?$pair@$$CBIVLogFileNode@ParserTC50@aggregator@tls@@@std@@@2@@std@@HPBV123@ABV123@@std@@QAE@XZ 130dff00 f i parsertc50_static:parser_tc50.obj
 0001:0000ef30       ?_Inside@?$basic_string@DU?$char_traits@D@std@@V?$allocator@D@2@@std@@IAE_NPBD@Z 130dff30 f i parsertc50_static:parser_tc50.obj
 0001:0000ef90       ?max_size@?$allocator@V?$_Iterator@$00@?$list@PAVDictNode@ParserTC50@aggregator@tls@@V?$allocator@PAVDictNode@ParserTC50@aggregator@tls@@@std@@@std@@@std@@QBEIXZ 130dff90 f i parsertc50_static:parser_tc50.obj
 0001:0000efe0       ??$_Debug_pointer@D@std@@YAXPBDPB_WI@Z 130dffe0 f i parsertc50_static:parser_tc50.obj
 0001:0000f010       ??$copy_s@U?$char_traits@D@std@@@_Traits_helper@std@@YAPADPADIPBDI@Z 130e0010 f i parsertc50_static:parser_tc50.obj
 0001:0000f050       ??$?0U?$pair@$$CBIVLogFileNode@ParserTC50@aggregator@tls@@@std@@@?$allocator@V?$_Iterator@$00@?$list@U?$pair@$$CBIVLogFileNode@ParserTC50@aggregator@tls@@@std@@V?$allocator@U?$pair@$$CBIVLogFileNode@ParserTC50@aggregator@tls@@@std@@@2@@std@@@std@@QAE@ABV?$allocator@U?$pair@$$CBIVLogFileNode@ParserTC50@aggregator@tls@@@std@@@1@@Z 130e0050 f i parsertc50_static:parser_tc50.obj
 0001:0000f070       ??$?0PAVDictNode@ParserTC50@aggregator@tls@@@?$allocator@V?$_Iterator@$00@?$list@PAVDictNode@ParserTC50@aggregator@tls@@V?$allocator@PAVDictNode@ParserTC50@aggregator@tls@@@std@@@std@@@std@@QAE@ABV?$allocator@PAVDictNode@ParserTC50@aggregator@tls@@@1@@Z 130e0070 f i parsertc50_static:parser_tc50.obj
 0001:0000f090       ??$_Destroy@U_Node@?$_List_nod@ULogFileNodePos@?1??ThreadProc@ParserTC50@aggregator@tls@@QAEXI@Z@V?$allocator@ULogFileNodePos@?1??ThreadProc@ParserTC50@aggregator@tls@@QAEXI@Z@@std@@@std@@@std@@YAXPAU_Node@?$_List_nod@ULogFileNodePos@?1??ThreadProc@ParserTC50@aggregator@tls@@QAEXI@Z@V?$allocator@ULogFileNodePos@?1??ThreadProc@ParserTC50@aggregator@tls@@QAEXI@Z@@std@@@0@@Z 130e0090 f i parsertc50_static:parser_tc50.obj
 0001:0000f0a0       ??$move_s@U?$char_traits@D@std@@@_Traits_helper@std@@YAPADPADIPBDI@Z 130e00a0 f i parsertc50_static:parser_tc50.obj
 0001:0000f0e0       ??$hash_value@I@stdext@@YAIABI@Z 130e00e0 f i parsertc50_static:parser_tc50.obj
 0001:0000f0f0       ??$?8U?$pair@$$CBIVLogFileNode@ParserTC50@aggregator@tls@@@std@@U01@@std@@YA_NABV?$allocator@U?$pair@$$CBIVLogFileNode@ParserTC50@aggregator@tls@@@std@@@0@0@Z 130e00f0 f i parsertc50_static:parser_tc50.obj
 0001:0000f100       ??$insert@V?$_Iterator@$00@?$list@U?$pair@$$CBIVLogFileNode@ParserTC50@aggregator@tls@@@std@@V?$allocator@U?$pair@$$CBIVLogFileNode@ParserTC50@aggregator@tls@@@std@@@2@@std@@@?$list@U?$pair@$$CBIVLogFileNode@ParserTC50@aggregator@tls@@@std@@V?$allocator@U?$pair@$$CBIVLogFileNode@ParserTC50@aggregator@tls@@@std@@@2@@std@@QAEXV?$_Iterator@$00@01@00@Z 130e0100 f i parsertc50_static:parser_tc50.obj
 0001:0000f190       ??$_Destroy@U_Node@?$_List_nod@U?$pair@$$CBIVLogFileNode@ParserTC50@aggregator@tls@@@std@@V?$allocator@U?$pair@$$CBIVLogFileNode@ParserTC50@aggregator@tls@@@std@@@2@@std@@@std@@YAXPAU_Node@?$_List_nod@U?$pair@$$CBIVLogFileNode@ParserTC50@aggregator@tls@@@std@@V?$allocator@U?$pair@$$CBIVLogFileNode@ParserTC50@aggregator@tls@@@std@@@2@@0@@Z 130e0190 f i parsertc50_static:parser_tc50.obj
 0001:0000f1b0       ??$unchecked_uninitialized_copy@PAPAPAVLogFileNode@ParserTC50@aggregator@tls@@PAPAPAV1234@V?$allocator@PAPAVLogFileNode@ParserTC50@aggregator@tls@@@std@@@stdext@@YAPAPAPAVLogFileNode@ParserTC50@aggregator@tls@@PAPAPAV1234@00AAV?$allocator@PAPAVLogFileNode@ParserTC50@aggregator@tls@@@std@@@Z 130e01b0 f i parsertc50_static:parser_tc50.obj
 0001:0000f220       ??$unchecked_uninitialized_fill_n@PAPAPAVLogFileNode@ParserTC50@aggregator@tls@@IPAPAV1234@V?$allocator@PAPAVLogFileNode@ParserTC50@aggregator@tls@@@std@@@stdext@@YAXPAPAPAVLogFileNode@ParserTC50@aggregator@tls@@IABQAPAV1234@AAV?$allocator@PAPAVLogFileNode@ParserTC50@aggregator@tls@@@std@@@Z 130e0220 f i parsertc50_static:parser_tc50.obj
 0001:0000f280       ??$_Destroy_range@PAPAVLogFileNode@ParserTC50@aggregator@tls@@V?$allocator@PAPAVLogFileNode@ParserTC50@aggregator@tls@@@std@@@std@@YAXPAPAPAVLogFileNode@ParserTC50@aggregator@tls@@0AAV?$allocator@PAPAVLogFileNode@ParserTC50@aggregator@tls@@@0@@Z 130e0280 f i parsertc50_static:parser_tc50.obj
 0001:0000f2d0       ??$_Allocate@PAVLogFileNode@ParserTC50@aggregator@tls@@@std@@YAPAPAVLogFileNode@ParserTC50@aggregator@tls@@IPAPAV1234@@Z 130e02d0 f i parsertc50_static:parser_tc50.obj
 0001:0000f340       ??0bad_alloc@stdext@@QAE@PBD@Z 130e0340 f i parsertc50_static:parser_tc50.obj
 0001:0000f380       ??1bad_alloc@stdext@@UAE@XZ 130e0380 f i parsertc50_static:parser_tc50.obj
 0001:0000f3b0       ?_Doraise@bad_alloc@stdext@@MBEXXZ 130e03b0 f i parsertc50_static:parser_tc50.obj
 0001:0000f3e0       ??_Ebad_alloc@stdext@@UAEPAXI@Z 130e03e0 f i parsertc50_static:parser_tc50.obj
 0001:0000f3e0       ??_Gbad_alloc@stdext@@UAEPAXI@Z 130e03e0 f i parsertc50_static:parser_tc50.obj
 0001:0000f420       ??$_Construct@PAVLogFileNode@ParserTC50@aggregator@tls@@PAV1234@@std@@YAXPAPAVLogFileNode@ParserTC50@aggregator@tls@@ABQAV1234@@Z 130e0420 f i parsertc50_static:parser_tc50.obj
 0001:0000f480       ??2@YAPAXIPAX@Z            130e0480 f i parsertc50_static:parser_tc50.obj
 0001:0000f490       ??$_Destroy@PAVLogFileNode@ParserTC50@aggregator@tls@@@std@@YAXPAPAVLogFileNode@ParserTC50@aggregator@tls@@@Z 130e0490 f i parsertc50_static:parser_tc50.obj
 0001:0000f4a0       ??$_Destroy@PAPAVLogFileNode@ParserTC50@aggregator@tls@@@std@@YAXPAPAPAVLogFileNode@ParserTC50@aggregator@tls@@@Z 130e04a0 f i parsertc50_static:parser_tc50.obj
 0001:0000f4b0       ??$?0ULogFileNodePos@?1??ThreadProc@ParserTC50@aggregator@tls@@QAEXI@Z@@?$allocator@PAU_Node@?$_List_nod@ULogFileNodePos@?1??ThreadProc@ParserTC50@aggregator@tls@@QAEXI@Z@V?$allocator@ULogFileNodePos@?1??ThreadProc@ParserTC50@aggregator@tls@@QAEXI@Z@@std@@@std@@@std@@QAE@ABV?$allocator@ULogFileNodePos@?1??ThreadProc@ParserTC50@aggregator@tls@@QAEXI@Z@@1@@Z 130e04b0 f i parsertc50_static:parser_tc50.obj
 0001:0000f4d0       ??$_Allocate@U_Node@?$_List_nod@ULogFileNodePos@?1??ThreadProc@ParserTC50@aggregator@tls@@QAEXI@Z@V?$allocator@ULogFileNodePos@?1??ThreadProc@ParserTC50@aggregator@tls@@QAEXI@Z@@std@@@std@@@std@@YAPAU_Node@?$_List_nod@ULogFileNodePos@?1??ThreadProc@ParserTC50@aggregator@tls@@QAEXI@Z@V?$allocator@ULogFileNodePos@?1??ThreadProc@ParserTC50@aggregator@tls@@QAEXI@Z@@std@@@0@IPAU120@@Z 130e04d0 f i parsertc50_static:parser_tc50.obj
 0001:0000f540       ??$_Construct@PAU_Node@?$_List_nod@ULogFileNodePos@?1??ThreadProc@ParserTC50@aggregator@tls@@QAEXI@Z@V?$allocator@ULogFileNodePos@?1??ThreadProc@ParserTC50@aggregator@tls@@QAEXI@Z@@std@@@std@@PAU123@@std@@YAXPAPAU_Node@?$_List_nod@ULogFileNodePos@?1??ThreadProc@ParserTC50@aggregator@tls@@QAEXI@Z@V?$allocator@ULogFileNodePos@?1??ThreadProc@ParserTC50@aggregator@tls@@QAEXI@Z@@std@@@0@ABQAU120@@Z 130e0540 f i parsertc50_static:parser_tc50.obj
 0001:0000f5a0       ??$_Destroy@PAU_Node@?$_List_nod@ULogFileNodePos@?1??ThreadProc@ParserTC50@aggregator@tls@@QAEXI@Z@V?$allocator@ULogFileNodePos@?1??ThreadProc@ParserTC50@aggregator@tls@@QAEXI@Z@@std@@@std@@@std@@YAXPAPAU_Node@?$_List_nod@ULogFileNodePos@?1??ThreadProc@ParserTC50@aggregator@tls@@QAEXI@Z@V?$allocator@ULogFileNodePos@?1??ThreadProc@ParserTC50@aggregator@tls@@QAEXI@Z@@std@@@0@@Z 130e05a0 f i parsertc50_static:parser_tc50.obj
 0001:0000f5b0       ??$_Destroy@PAU_Node@?$_List_nod@U?$pair@$$CBIVLogFileNode@ParserTC50@aggregator@tls@@@std@@V?$allocator@U?$pair@$$CBIVLogFileNode@ParserTC50@aggregator@tls@@@std@@@2@@std@@@std@@YAXPAPAU_Node@?$_List_nod@U?$pair@$$CBIVLogFileNode@ParserTC50@aggregator@tls@@@std@@V?$allocator@U?$pair@$$CBIVLogFileNode@ParserTC50@aggregator@tls@@@std@@@2@@0@@Z 130e05b0 f i parsertc50_static:parser_tc50.obj
 0001:0000f5c0       ??$unchecked_copy@PAV?$_Iterator@$00@?$list@U?$pair@$$CBIVLogFileNode@ParserTC50@aggregator@tls@@@std@@V?$allocator@U?$pair@$$CBIVLogFileNode@ParserTC50@aggregator@tls@@@std@@@2@@std@@PAV123@@stdext@@YAPAV?$_Iterator@$00@?$list@U?$pair@$$CBIVLogFileNode@ParserTC50@aggregator@tls@@@std@@V?$allocator@U?$pair@$$CBIVLogFileNode@ParserTC50@aggregator@tls@@@std@@@2@@std@@PAV123@00@Z 130e05c0 f i parsertc50_static:parser_tc50.obj
 0001:0000f640       ??$_Destroy_range@V?$_Iterator@$00@?$list@U?$pair@$$CBIVLogFileNode@ParserTC50@aggregator@tls@@@std@@V?$allocator@U?$pair@$$CBIVLogFileNode@ParserTC50@aggregator@tls@@@std@@@2@@std@@V?$allocator@V?$_Iterator@$00@?$list@U?$pair@$$CBIVLogFileNode@ParserTC50@aggregator@tls@@@std@@V?$allocator@U?$pair@$$CBIVLogFileNode@ParserTC50@aggregator@tls@@@std@@@2@@std@@@3@@std@@YAXPAV?$_Iterator@$00@?$list@U?$pair@$$CBIVLogFileNode@ParserTC50@aggregator@tls@@@std@@V?$allocator@U?$pair@$$CBIVLogFileNode@ParserTC50@aggregator@tls@@@std@@@2@@0@0AAV?$allocator@V?$_Iterator@$00@?$list@U?$pair@$$CBIVLogFileNode@ParserTC50@aggregator@tls@@@std@@V?$allocator@U?$pair@$$CBIVLogFileNode@ParserTC50@aggregator@tls@@@std@@@2@@std@@@0@@Z 130e0640 f i parsertc50_static:parser_tc50.obj
 0001:0000f690       ??$_Umove@PAV?$_Iterator@$00@?$list@U?$pair@$$CBIVLogFileNode@ParserTC50@aggregator@tls@@@std@@V?$allocator@U?$pair@$$CBIVLogFileNode@ParserTC50@aggregator@tls@@@std@@@2@@std@@@?$vector@V?$_Iterator@$00@?$list@U?$pair@$$CBIVLogFileNode@ParserTC50@aggregator@tls@@@std@@V?$allocator@U?$pair@$$CBIVLogFileNode@ParserTC50@aggregator@tls@@@std@@@2@@std@@V?$allocator@V?$_Iterator@$00@?$list@U?$pair@$$CBIVLogFileNode@ParserTC50@aggregator@tls@@@std@@V?$allocator@U?$pair@$$CBIVLogFileNode@ParserTC50@aggregator@tls@@@std@@@2@@std@@@3@@std@@IAEPAV?$_Iterator@$00@?$list@U?$pair@$$CBIVLogFileNode@ParserTC50@aggregator@tls@@@std@@V?$allocator@U?$pair@$$CBIVLogFileNode@ParserTC50@aggregator@tls@@@std@@@2@@1@PAV231@00@Z 130e0690 f i parsertc50_static:parser_tc50.obj
 0001:0000f6d0       ??$fill@PAV?$_Iterator@$00@?$list@U?$pair@$$CBIVLogFileNode@ParserTC50@aggregator@tls@@@std@@V?$allocator@U?$pair@$$CBIVLogFileNode@ParserTC50@aggregator@tls@@@std@@@2@@std@@V123@@std@@YAXPAV?$_Iterator@$00@?$list@U?$pair@$$CBIVLogFileNode@ParserTC50@aggregator@tls@@@std@@V?$allocator@U?$pair@$$CBIVLogFileNode@ParserTC50@aggregator@tls@@@std@@@2@@0@0ABV120@@Z 130e06d0 f i parsertc50_static:parser_tc50.obj
 0001:0000f710       ??$_Unchecked_move_backward@PAV?$_Iterator@$00@?$list@U?$pair@$$CBIVLogFileNode@ParserTC50@aggregator@tls@@@std@@V?$allocator@U?$pair@$$CBIVLogFileNode@ParserTC50@aggregator@tls@@@std@@@2@@std@@PAV123@@stdext@@YAPAV?$_Iterator@$00@?$list@U?$pair@$$CBIVLogFileNode@ParserTC50@aggregator@tls@@@std@@V?$allocator@U?$pair@$$CBIVLogFileNode@ParserTC50@aggregator@tls@@@std@@@2@@std@@PAV123@00@Z 130e0710 f i parsertc50_static:parser_tc50.obj
 0001:0000f790       ??$?0PAVLogFileNode@ParserTC50@aggregator@tls@@@?$allocator@PAPAVLogFileNode@ParserTC50@aggregator@tls@@@std@@QAE@ABV?$allocator@PAVLogFileNode@ParserTC50@aggregator@tls@@@1@@Z 130e0790 f i parsertc50_static:parser_tc50.obj
 0001:0000f7b0       ??$_Allocate@PAPAVLogFileNode@ParserTC50@aggregator@tls@@@std@@YAPAPAPAVLogFileNode@ParserTC50@aggregator@tls@@IPAPAPAV1234@@Z 130e07b0 f i parsertc50_static:parser_tc50.obj
 0001:0000f820       ??$_Destroy@PAU_Node@?$_List_nod@PAVDictNode@ParserTC50@aggregator@tls@@V?$allocator@PAVDictNode@ParserTC50@aggregator@tls@@@std@@@std@@@std@@YAXPAPAU_Node@?$_List_nod@PAVDictNode@ParserTC50@aggregator@tls@@V?$allocator@PAVDictNode@ParserTC50@aggregator@tls@@@std@@@0@@Z 130e0820 f i parsertc50_static:parser_tc50.obj
 0001:0000f830       ??$_Destroy_range@V?$_Iterator@$00@?$list@PAVDictNode@ParserTC50@aggregator@tls@@V?$allocator@PAVDictNode@ParserTC50@aggregator@tls@@@std@@@std@@V?$allocator@V?$_Iterator@$00@?$list@PAVDictNode@ParserTC50@aggregator@tls@@V?$allocator@PAVDictNode@ParserTC50@aggregator@tls@@@std@@@std@@@3@@std@@YAXPAV?$_Iterator@$00@?$list@PAVDictNode@ParserTC50@aggregator@tls@@V?$allocator@PAVDictNode@ParserTC50@aggregator@tls@@@std@@@0@0AAV?$allocator@V?$_Iterator@$00@?$list@PAVDictNode@ParserTC50@aggregator@tls@@V?$allocator@PAVDictNode@ParserTC50@aggregator@tls@@@std@@@std@@@0@@Z 130e0830 f i parsertc50_static:parser_tc50.obj
 0001:0000f880       ??$?0ULogFileNodePos@?1??ThreadProc@ParserTC50@aggregator@tls@@QAEXI@Z@@?$allocator@U_Node@?$_List_nod@ULogFileNodePos@?1??ThreadProc@ParserTC50@aggregator@tls@@QAEXI@Z@V?$allocator@ULogFileNodePos@?1??ThreadProc@ParserTC50@aggregator@tls@@QAEXI@Z@@std@@@std@@@std@@QAE@ABV?$allocator@ULogFileNodePos@?1??ThreadProc@ParserTC50@aggregator@tls@@QAEXI@Z@@1@@Z 130e0880 f i parsertc50_static:parser_tc50.obj
 0001:0000f8a0       ??$_Construct@ULogFileNodePos@?1??ThreadProc@ParserTC50@aggregator@tls@@QAEXI@Z@U1?1??2345@QAEXI@Z@@std@@YAXPAULogFileNodePos@?1??ThreadProc@ParserTC50@aggregator@tls@@QAEXI@Z@ABU1?1??2345@QAEXI@Z@@Z 130e08a0 f i parsertc50_static:parser_tc50.obj
 0001:0000f920       ??$_Allocate@D@std@@YAPADIPAD@Z 130e0920 f i parsertc50_static:parser_tc50.obj
 0001:0000f990       ??$?0U?$pair@$$CBIVLogFileNode@ParserTC50@aggregator@tls@@@std@@@?$allocator@PAU_Node@?$_List_nod@U?$pair@$$CBIVLogFileNode@ParserTC50@aggregator@tls@@@std@@V?$allocator@U?$pair@$$CBIVLogFileNode@ParserTC50@aggregator@tls@@@std@@@2@@std@@@std@@QAE@ABV?$allocator@U?$pair@$$CBIVLogFileNode@ParserTC50@aggregator@tls@@@std@@@1@@Z 130e0990 f i parsertc50_static:parser_tc50.obj
 0001:0000f9b0       ??$_Allocate@U_Node@?$_List_nod@U?$pair@$$CBIVLogFileNode@ParserTC50@aggregator@tls@@@std@@V?$allocator@U?$pair@$$CBIVLogFileNode@ParserTC50@aggregator@tls@@@std@@@2@@std@@@std@@YAPAU_Node@?$_List_nod@U?$pair@$$CBIVLogFileNode@ParserTC50@aggregator@tls@@@std@@V?$allocator@U?$pair@$$CBIVLogFileNode@ParserTC50@aggregator@tls@@@std@@@2@@0@IPAU120@@Z 130e09b0 f i parsertc50_static:parser_tc50.obj
 0001:0000fa20       ??$_Construct@PAU_Node@?$_List_nod@U?$pair@$$CBIVLogFileNode@ParserTC50@aggregator@tls@@@std@@V?$allocator@U?$pair@$$CBIVLogFileNode@ParserTC50@aggregator@tls@@@std@@@2@@std@@PAU123@@std@@YAXPAPAU_Node@?$_List_nod@U?$pair@$$CBIVLogFileNode@ParserTC50@aggregator@tls@@@std@@V?$allocator@U?$pair@$$CBIVLogFileNode@ParserTC50@aggregator@tls@@@std@@@2@@0@ABQAU120@@Z 130e0a20 f i parsertc50_static:parser_tc50.obj
 0001:0000fa80       ??$unchecked_uninitialized_fill_n@PAV?$_Iterator@$00@?$list@U?$pair@$$CBIVLogFileNode@ParserTC50@aggregator@tls@@@std@@V?$allocator@U?$pair@$$CBIVLogFileNode@ParserTC50@aggregator@tls@@@std@@@2@@std@@IV123@V?$allocator@V?$_Iterator@$00@?$list@U?$pair@$$CBIVLogFileNode@ParserTC50@aggregator@tls@@@std@@V?$allocator@U?$pair@$$CBIVLogFileNode@ParserTC50@aggregator@tls@@@std@@@2@@std@@@3@@stdext@@YAXPAV?$_Iterator@$00@?$list@U?$pair@$$CBIVLogFileNode@ParserTC50@aggregator@tls@@@std@@V?$allocator@U?$pair@$$CBIVLogFileNode@ParserTC50@aggregator@tls@@@std@@@2@@std@@IABV123@AAV?$allocator@V?$_Iterator@$00@?$list@U?$pair@$$CBIVLogFileNode@ParserTC50@aggregator@tls@@@std@@V?$allocator@U?$pair@$$CBIVLogFileNode@ParserTC50@aggregator@tls@@@std@@@2@@std@@@3@@Z 130e0a80 f i parsertc50_static:parser_tc50.obj
 0001:0000fae0       ??$_Allocate@V?$_Iterator@$00@?$list@U?$pair@$$CBIVLogFileNode@ParserTC50@aggregator@tls@@@std@@V?$allocator@U?$pair@$$CBIVLogFileNode@ParserTC50@aggregator@tls@@@std@@@2@@std@@@std@@YAPAV?$_Iterator@$00@?$list@U?$pair@$$CBIVLogFileNode@ParserTC50@aggregator@tls@@@std@@V?$allocator@U?$pair@$$CBIVLogFileNode@ParserTC50@aggregator@tls@@@std@@@2@@0@IPAV120@@Z 130e0ae0 f i parsertc50_static:parser_tc50.obj
 0001:0000fb50       ??$?0PAVDictNode@ParserTC50@aggregator@tls@@@?$allocator@PAU_Node@?$_List_nod@PAVDictNode@ParserTC50@aggregator@tls@@V?$allocator@PAVDictNode@ParserTC50@aggregator@tls@@@std@@@std@@@std@@QAE@ABV?$allocator@PAVDictNode@ParserTC50@aggregator@tls@@@1@@Z 130e0b50 f i parsertc50_static:parser_tc50.obj
 0001:0000fb70       ??$_Allocate@U_Node@?$_List_nod@PAVDictNode@ParserTC50@aggregator@tls@@V?$allocator@PAVDictNode@ParserTC50@aggregator@tls@@@std@@@std@@@std@@YAPAU_Node@?$_List_nod@PAVDictNode@ParserTC50@aggregator@tls@@V?$allocator@PAVDictNode@ParserTC50@aggregator@tls@@@std@@@0@IPAU120@@Z 130e0b70 f i parsertc50_static:parser_tc50.obj
 0001:0000fbe0       ??$_Destroy@U_Node@?$_List_nod@PAVDictNode@ParserTC50@aggregator@tls@@V?$allocator@PAVDictNode@ParserTC50@aggregator@tls@@@std@@@std@@@std@@YAXPAU_Node@?$_List_nod@PAVDictNode@ParserTC50@aggregator@tls@@V?$allocator@PAVDictNode@ParserTC50@aggregator@tls@@@std@@@0@@Z 130e0be0 f i parsertc50_static:parser_tc50.obj
 0001:0000fbf0       ??$_Construct@PAU_Node@?$_List_nod@PAVDictNode@ParserTC50@aggregator@tls@@V?$allocator@PAVDictNode@ParserTC50@aggregator@tls@@@std@@@std@@PAU123@@std@@YAXPAPAU_Node@?$_List_nod@PAVDictNode@ParserTC50@aggregator@tls@@V?$allocator@PAVDictNode@ParserTC50@aggregator@tls@@@std@@@0@ABQAU120@@Z 130e0bf0 f i parsertc50_static:parser_tc50.obj
 0001:0000fc50       ??$unchecked_uninitialized_fill_n@PAV?$_Iterator@$00@?$list@PAVDictNode@ParserTC50@aggregator@tls@@V?$allocator@PAVDictNode@ParserTC50@aggregator@tls@@@std@@@std@@IV123@V?$allocator@V?$_Iterator@$00@?$list@PAVDictNode@ParserTC50@aggregator@tls@@V?$allocator@PAVDictNode@ParserTC50@aggregator@tls@@@std@@@std@@@3@@stdext@@YAXPAV?$_Iterator@$00@?$list@PAVDictNode@ParserTC50@aggregator@tls@@V?$allocator@PAVDictNode@ParserTC50@aggregator@tls@@@std@@@std@@IABV123@AAV?$allocator@V?$_Iterator@$00@?$list@PAVDictNode@ParserTC50@aggregator@tls@@V?$allocator@PAVDictNode@ParserTC50@aggregator@tls@@@std@@@std@@@3@@Z 130e0c50 f i parsertc50_static:parser_tc50.obj
 0001:0000fcb0       ??$_Construct@U?$pair@$$CBIVLogFileNode@ParserTC50@aggregator@tls@@@std@@U12@@std@@YAXPAU?$pair@$$CBIVLogFileNode@ParserTC50@aggregator@tls@@@0@ABU10@@Z 130e0cb0 f i parsertc50_static:parser_tc50.obj
 0001:0000fd10       ??$?0U?$pair@$$CBIVLogFileNode@ParserTC50@aggregator@tls@@@std@@@?$allocator@U_Node@?$_List_nod@U?$pair@$$CBIVLogFileNode@ParserTC50@aggregator@tls@@@std@@V?$allocator@U?$pair@$$CBIVLogFileNode@ParserTC50@aggregator@tls@@@std@@@2@@std@@@std@@QAE@ABV?$allocator@U?$pair@$$CBIVLogFileNode@ParserTC50@aggregator@tls@@@std@@@1@@Z 130e0d10 f i parsertc50_static:parser_tc50.obj
 0001:0000fd30       ??$?0PAVDictNode@ParserTC50@aggregator@tls@@@?$allocator@U_Node@?$_List_nod@PAVDictNode@ParserTC50@aggregator@tls@@V?$allocator@PAVDictNode@ParserTC50@aggregator@tls@@@std@@@std@@@std@@QAE@ABV?$allocator@PAVDictNode@ParserTC50@aggregator@tls@@@1@@Z 130e0d30 f i parsertc50_static:parser_tc50.obj
 0001:0000fd50       ??$_Allocate@V?$_Iterator@$00@?$list@PAVDictNode@ParserTC50@aggregator@tls@@V?$allocator@PAVDictNode@ParserTC50@aggregator@tls@@@std@@@std@@@std@@YAPAV?$_Iterator@$00@?$list@PAVDictNode@ParserTC50@aggregator@tls@@V?$allocator@PAVDictNode@ParserTC50@aggregator@tls@@@std@@@0@IPAV120@@Z 130e0d50 f i parsertc50_static:parser_tc50.obj
 0001:0000fdc0       ??_G_Node@?$_List_nod@U?$pair@$$CBIVLogFileNode@ParserTC50@aggregator@tls@@@std@@V?$allocator@U?$pair@$$CBIVLogFileNode@ParserTC50@aggregator@tls@@@std@@@2@@std@@QAEPAXI@Z 130e0dc0 f i parsertc50_static:parser_tc50.obj
 0001:0000fe00       ??0?$pair@$$CBIVLogFileNode@ParserTC50@aggregator@tls@@@std@@QAE@ABU01@@Z 130e0e00 f i parsertc50_static:parser_tc50.obj
 0001:0000fe40       ??1_Node@?$_List_nod@U?$pair@$$CBIVLogFileNode@ParserTC50@aggregator@tls@@@std@@V?$allocator@U?$pair@$$CBIVLogFileNode@ParserTC50@aggregator@tls@@@std@@@2@@std@@QAE@XZ 130e0e40 f i parsertc50_static:parser_tc50.obj
 0001:0000fe70       ??$_Char_traits_cat@U?$char_traits@D@std@@@std@@YA?AU_Secure_char_traits_tag@0@XZ 130e0e70 f i parsertc50_static:parser_tc50.obj
 0001:0000fec0       ??$copy_s@U?$char_traits@D@std@@@_Traits_helper@std@@YAPADPADIPBDIU_Secure_char_traits_tag@1@@Z 130e0ec0 f i parsertc50_static:parser_tc50.obj
 0001:0000fef0       ?_Copy_s@?$char_traits@D@std@@SAPADPADIPBDI@Z 130e0ef0 f i parsertc50_static:parser_tc50.obj
 0001:0000ff20       ??$move_s@U?$char_traits@D@std@@@_Traits_helper@std@@YAPADPADIPBDIU_Secure_char_traits_tag@1@@Z 130e0f20 f i parsertc50_static:parser_tc50.obj
 0001:0000ff50       ?_Move_s@?$char_traits@D@std@@SAPADPADIPBDI@Z 130e0f50 f i parsertc50_static:parser_tc50.obj
 0001:0000ff80       ??$_Iter_cat@V?$_Iterator@$00@?$list@U?$pair@$$CBIVLogFileNode@ParserTC50@aggregator@tls@@@std@@V?$allocator@U?$pair@$$CBIVLogFileNode@ParserTC50@aggregator@tls@@@std@@@2@@std@@@std@@YA?AUbidirectional_iterator_tag@0@ABV?$_Iterator@$00@?$list@U?$pair@$$CBIVLogFileNode@ParserTC50@aggregator@tls@@@std@@V?$allocator@U?$pair@$$CBIVLogFileNode@ParserTC50@aggregator@tls@@@std@@@2@@0@@Z 130e0f80 f i parsertc50_static:parser_tc50.obj
 0001:0000ffd0       ??$_Insert@V?$_Iterator@$00@?$list@U?$pair@$$CBIVLogFileNode@ParserTC50@aggregator@tls@@@std@@V?$allocator@U?$pair@$$CBIVLogFileNode@ParserTC50@aggregator@tls@@@std@@@2@@std@@@?$list@U?$pair@$$CBIVLogFileNode@ParserTC50@aggregator@tls@@@std@@V?$allocator@U?$pair@$$CBIVLogFileNode@ParserTC50@aggregator@tls@@@std@@@2@@std@@QAEXV?$_Iterator@$00@01@00Uforward_iterator_tag@1@@Z 130e0fd0 f i parsertc50_static:parser_tc50.obj
 0001:00010160       ??$_Checked_base@PAPAPAVLogFileNode@ParserTC50@aggregator@tls@@@std@@YAPAPAPAVLogFileNode@ParserTC50@aggregator@tls@@AAPAPAPAV1234@@Z 130e1160 f i parsertc50_static:parser_tc50.obj
 0001:000101d0       ??$_Ptr_cat@PAPAPAVLogFileNode@ParserTC50@aggregator@tls@@PAPAPAV1234@@std@@YA?AU_Scalar_ptr_iterator_tag@0@AAPAPAPAVLogFileNode@ParserTC50@aggregator@tls@@0@Z 130e11d0 f i parsertc50_static:parser_tc50.obj
 0001:00010220       ??$_Uninit_copy@PAPAPAVLogFileNode@ParserTC50@aggregator@tls@@PAPAPAV1234@V?$allocator@PAPAVLogFileNode@ParserTC50@aggregator@tls@@@std@@@std@@YAPAPAPAVLogFileNode@ParserTC50@aggregator@tls@@PAPAPAV1234@00AAV?$allocator@PAPAVLogFileNode@ParserTC50@aggregator@tls@@@0@U_Scalar_ptr_iterator_tag@0@U_Range_checked_iterator_tag@0@@Z 130e1220 f i parsertc50_static:parser_tc50.obj
 0001:000102b0       ??$_Uninit_fill_n@PAPAPAVLogFileNode@ParserTC50@aggregator@tls@@IPAPAV1234@V?$allocator@PAPAVLogFileNode@ParserTC50@aggregator@tls@@@std@@@std@@YAXPAPAPAVLogFileNode@ParserTC50@aggregator@tls@@IABQAPAV1234@AAV?$allocator@PAPAVLogFileNode@ParserTC50@aggregator@tls@@@0@U_Scalar_ptr_iterator_tag@0@U_Range_checked_iterator_tag@0@@Z 130e12b0 f i parsertc50_static:parser_tc50.obj
 0001:000102d0       ??$_Destroy_range@PAPAVLogFileNode@ParserTC50@aggregator@tls@@V?$allocator@PAPAVLogFileNode@ParserTC50@aggregator@tls@@@std@@@std@@YAXPAPAPAVLogFileNode@ParserTC50@aggregator@tls@@0AAV?$allocator@PAPAVLogFileNode@ParserTC50@aggregator@tls@@@0@U_Scalar_ptr_iterator_tag@0@@Z 130e12d0 f i parsertc50_static:parser_tc50.obj
 0001:000102e0       ??$_Checked_base@PAV?$_Iterator@$00@?$list@U?$pair@$$CBIVLogFileNode@ParserTC50@aggregator@tls@@@std@@V?$allocator@U?$pair@$$CBIVLogFileNode@ParserTC50@aggregator@tls@@@std@@@2@@std@@@std@@YAPAV?$_Iterator@$00@?$list@U?$pair@$$CBIVLogFileNode@ParserTC50@aggregator@tls@@@std@@V?$allocator@U?$pair@$$CBIVLogFileNode@ParserTC50@aggregator@tls@@@std@@@2@@0@AAPAV120@@Z 130e12e0 f i parsertc50_static:parser_tc50.obj
 0001:00010350       ??$_Iter_random@PAV?$_Iterator@$00@?$list@U?$pair@$$CBIVLogFileNode@ParserTC50@aggregator@tls@@@std@@V?$allocator@U?$pair@$$CBIVLogFileNode@ParserTC50@aggregator@tls@@@std@@@2@@std@@PAV123@@std@@YA?AUrandom_access_iterator_tag@0@ABQAV?$_Iterator@$00@?$list@U?$pair@$$CBIVLogFileNode@ParserTC50@aggregator@tls@@@std@@V?$allocator@U?$pair@$$CBIVLogFileNode@ParserTC50@aggregator@tls@@@std@@@2@@0@0@Z 130e1350 f i parsertc50_static:parser_tc50.obj
 0001:000103a0       ??$_Ptr_cat@PAV?$_Iterator@$00@?$list@U?$pair@$$CBIVLogFileNode@ParserTC50@aggregator@tls@@@std@@V?$allocator@U?$pair@$$CBIVLogFileNode@ParserTC50@aggregator@tls@@@std@@@2@@std@@PAV123@@std@@YA?AU_Nonscalar_ptr_iterator_tag@0@AAPAV?$_Iterator@$00@?$list@U?$pair@$$CBIVLogFileNode@ParserTC50@aggregator@tls@@@std@@V?$allocator@U?$pair@$$CBIVLogFileNode@ParserTC50@aggregator@tls@@@std@@@2@@0@0@Z 130e13a0 f i parsertc50_static:parser_tc50.obj
 0001:000103f0       ??$_Copy_opt@PAV?$_Iterator@$00@?$list@U?$pair@$$CBIVLogFileNode@ParserTC50@aggregator@tls@@@std@@V?$allocator@U?$pair@$$CBIVLogFileNode@ParserTC50@aggregator@tls@@@std@@@2@@std@@PAV123@@std@@YAPAV?$_Iterator@$00@?$list@U?$pair@$$CBIVLogFileNode@ParserTC50@aggregator@tls@@@std@@V?$allocator@U?$pair@$$CBIVLogFileNode@ParserTC50@aggregator@tls@@@std@@@2@@0@PAV120@00Urandom_access_iterator_tag@0@U_Nonscalar_ptr_iterator_tag@0@U_Range_checked_iterator_tag@0@@Z 130e13f0 f i parsertc50_static:parser_tc50.obj
 0001:00010460       ??$_Destroy_range@V?$_Iterator@$00@?$list@U?$pair@$$CBIVLogFileNode@ParserTC50@aggregator@tls@@@std@@V?$allocator@U?$pair@$$CBIVLogFileNode@ParserTC50@aggregator@tls@@@std@@@2@@std@@V?$allocator@V?$_Iterator@$00@?$list@U?$pair@$$CBIVLogFileNode@ParserTC50@aggregator@tls@@@std@@V?$allocator@U?$pair@$$CBIVLogFileNode@ParserTC50@aggregator@tls@@@std@@@2@@std@@@3@@std@@YAXPAV?$_Iterator@$00@?$list@U?$pair@$$CBIVLogFileNode@ParserTC50@aggregator@tls@@@std@@V?$allocator@U?$pair@$$CBIVLogFileNode@ParserTC50@aggregator@tls@@@std@@@2@@0@0AAV?$allocator@V?$_Iterator@$00@?$list@U?$pair@$$CBIVLogFileNode@ParserTC50@aggregator@tls@@@std@@V?$allocator@U?$pair@$$CBIVLogFileNode@ParserTC50@aggregator@tls@@@std@@@2@@std@@@0@U_Nonscalar_ptr_iterator_tag@0@@Z 130e1460 f i parsertc50_static:parser_tc50.obj
 0001:00010490       ??$_Unchecked_uninitialized_move@PAV?$_Iterator@$00@?$list@U?$pair@$$CBIVLogFileNode@ParserTC50@aggregator@tls@@@std@@V?$allocator@U?$pair@$$CBIVLogFileNode@ParserTC50@aggregator@tls@@@std@@@2@@std@@PAV123@V?$allocator@V?$_Iterator@$00@?$list@U?$pair@$$CBIVLogFileNode@ParserTC50@aggregator@tls@@@std@@V?$allocator@U?$pair@$$CBIVLogFileNode@ParserTC50@aggregator@tls@@@std@@@2@@std@@@3@@stdext@@YAPAV?$_Iterator@$00@?$list@U?$pair@$$CBIVLogFileNode@ParserTC50@aggregator@tls@@@std@@V?$allocator@U?$pair@$$CBIVLogFileNode@ParserTC50@aggregator@tls@@@std@@@2@@std@@PAV123@00AAV?$allocator@V?$_Iterator@$00@?$list@U?$pair@$$CBIVLogFileNode@ParserTC50@aggregator@tls@@@std@@V?$allocator@U?$pair@$$CBIVLogFileNode@ParserTC50@aggregator@tls@@@std@@@2@@std@@@3@@Z 130e1490 f i parsertc50_static:parser_tc50.obj
 0001:000104f0       ??$_Fill@PAV?$_Iterator@$00@?$list@U?$pair@$$CBIVLogFileNode@ParserTC50@aggregator@tls@@@std@@V?$allocator@U?$pair@$$CBIVLogFileNode@ParserTC50@aggregator@tls@@@std@@@2@@std@@V123@@std@@YAXPAV?$_Iterator@$00@?$list@U?$pair@$$CBIVLogFileNode@ParserTC50@aggregator@tls@@@std@@V?$allocator@U?$pair@$$CBIVLogFileNode@ParserTC50@aggregator@tls@@@std@@@2@@0@0ABV120@@Z 130e14f0 f i parsertc50_static:parser_tc50.obj
 0001:00010540       ??$_Move_cat@PAV?$_Iterator@$00@?$list@U?$pair@$$CBIVLogFileNode@ParserTC50@aggregator@tls@@@std@@V?$allocator@U?$pair@$$CBIVLogFileNode@ParserTC50@aggregator@tls@@@std@@@2@@std@@@std@@YA?AU_Undefined_move_tag@0@ABQAV?$_Iterator@$00@?$list@U?$pair@$$CBIVLogFileNode@ParserTC50@aggregator@tls@@@std@@V?$allocator@U?$pair@$$CBIVLogFileNode@ParserTC50@aggregator@tls@@@std@@@2@@0@@Z 130e1540 f i parsertc50_static:parser_tc50.obj
 0001:00010590       ??$_Move_backward_opt@PAV?$_Iterator@$00@?$list@U?$pair@$$CBIVLogFileNode@ParserTC50@aggregator@tls@@@std@@V?$allocator@U?$pair@$$CBIVLogFileNode@ParserTC50@aggregator@tls@@@std@@@2@@std@@PAV123@Urandom_access_iterator_tag@3@U_Undefined_move_tag@3@@std@@YAPAV?$_Iterator@$00@?$list@U?$pair@$$CBIVLogFileNode@ParserTC50@aggregator@tls@@@std@@V?$allocator@U?$pair@$$CBIVLogFileNode@ParserTC50@aggregator@tls@@@std@@@2@@0@PAV120@00Urandom_access_iterator_tag@0@U_Undefined_move_tag@0@U_Range_checked_iterator_tag@0@@Z 130e1590 f i parsertc50_static:parser_tc50.obj
 0001:000105f0       ??$_Ptr_cat@PAV?$_Iterator@$00@?$list@PAVDictNode@ParserTC50@aggregator@tls@@V?$allocator@PAVDictNode@ParserTC50@aggregator@tls@@@std@@@std@@PAV123@@std@@YA?AU_Nonscalar_ptr_iterator_tag@0@AAPAV?$_Iterator@$00@?$list@PAVDictNode@ParserTC50@aggregator@tls@@V?$allocator@PAVDictNode@ParserTC50@aggregator@tls@@@std@@@0@0@Z 130e15f0 f i parsertc50_static:parser_tc50.obj
 0001:00010640       ??$_Destroy_range@V?$_Iterator@$00@?$list@PAVDictNode@ParserTC50@aggregator@tls@@V?$allocator@PAVDictNode@ParserTC50@aggregator@tls@@@std@@@std@@V?$allocator@V?$_Iterator@$00@?$list@PAVDictNode@ParserTC50@aggregator@tls@@V?$allocator@PAVDictNode@ParserTC50@aggregator@tls@@@std@@@std@@@3@@std@@YAXPAV?$_Iterator@$00@?$list@PAVDictNode@ParserTC50@aggregator@tls@@V?$allocator@PAVDictNode@ParserTC50@aggregator@tls@@@std@@@0@0AAV?$allocator@V?$_Iterator@$00@?$list@PAVDictNode@ParserTC50@aggregator@tls@@V?$allocator@PAVDictNode@ParserTC50@aggregator@tls@@@std@@@std@@@0@U_Nonscalar_ptr_iterator_tag@0@@Z 130e1640 f i parsertc50_static:parser_tc50.obj
 0001:00010670       ??$_Uninit_fill_n@PAV?$_Iterator@$00@?$list@U?$pair@$$CBIVLogFileNode@ParserTC50@aggregator@tls@@@std@@V?$allocator@U?$pair@$$CBIVLogFileNode@ParserTC50@aggregator@tls@@@std@@@2@@std@@IV123@V?$allocator@V?$_Iterator@$00@?$list@U?$pair@$$CBIVLogFileNode@ParserTC50@aggregator@tls@@@std@@V?$allocator@U?$pair@$$CBIVLogFileNode@ParserTC50@aggregator@tls@@@std@@@2@@std@@@3@@std@@YAXPAV?$_Iterator@$00@?$list@U?$pair@$$CBIVLogFileNode@ParserTC50@aggregator@tls@@@std@@V?$allocator@U?$pair@$$CBIVLogFileNode@ParserTC50@aggregator@tls@@@std@@@2@@0@IABV120@AAV?$allocator@V?$_Iterator@$00@?$list@U?$pair@$$CBIVLogFileNode@ParserTC50@aggregator@tls@@@std@@V?$allocator@U?$pair@$$CBIVLogFileNode@ParserTC50@aggregator@tls@@@std@@@2@@std@@@0@U_Nonscalar_ptr_iterator_tag@0@U_Range_checked_iterator_tag@0@@Z 130e1670 f i parsertc50_static:parser_tc50.obj
 0001:000106e0       ??$_Uninit_fill_n@PAV?$_Iterator@$00@?$list@PAVDictNode@ParserTC50@aggregator@tls@@V?$allocator@PAVDictNode@ParserTC50@aggregator@tls@@@std@@@std@@IV123@V?$allocator@V?$_Iterator@$00@?$list@PAVDictNode@ParserTC50@aggregator@tls@@V?$allocator@PAVDictNode@ParserTC50@aggregator@tls@@@std@@@std@@@3@@std@@YAXPAV?$_Iterator@$00@?$list@PAVDictNode@ParserTC50@aggregator@tls@@V?$allocator@PAVDictNode@ParserTC50@aggregator@tls@@@std@@@0@IABV120@AAV?$allocator@V?$_Iterator@$00@?$list@PAVDictNode@ParserTC50@aggregator@tls@@V?$allocator@PAVDictNode@ParserTC50@aggregator@tls@@@std@@@std@@@0@U_Nonscalar_ptr_iterator_tag@0@U_Range_checked_iterator_tag@0@@Z 130e16e0 f i parsertc50_static:parser_tc50.obj
 0001:00010750       ?construct@?$allocator@V?$_Iterator@$00@?$list@U?$pair@$$CBIVLogFileNode@ParserTC50@aggregator@tls@@@std@@V?$allocator@U?$pair@$$CBIVLogFileNode@ParserTC50@aggregator@tls@@@std@@@2@@std@@@std@@QAEXPAV?$_Iterator@$00@?$list@U?$pair@$$CBIVLogFileNode@ParserTC50@aggregator@tls@@@std@@V?$allocator@U?$pair@$$CBIVLogFileNode@ParserTC50@aggregator@tls@@@std@@@2@@2@ABV342@@Z 130e1750 f i parsertc50_static:parser_tc50.obj
 0001:00010780       ?destroy@?$allocator@V?$_Iterator@$00@?$list@U?$pair@$$CBIVLogFileNode@ParserTC50@aggregator@tls@@@std@@V?$allocator@U?$pair@$$CBIVLogFileNode@ParserTC50@aggregator@tls@@@std@@@2@@std@@@std@@QAEXPAV?$_Iterator@$00@?$list@U?$pair@$$CBIVLogFileNode@ParserTC50@aggregator@tls@@@std@@V?$allocator@U?$pair@$$CBIVLogFileNode@ParserTC50@aggregator@tls@@@std@@@2@@2@@Z 130e1780 f i parsertc50_static:parser_tc50.obj
 0001:000107b0       ?construct@?$allocator@V?$_Iterator@$00@?$list@PAVDictNode@ParserTC50@aggregator@tls@@V?$allocator@PAVDictNode@ParserTC50@aggregator@tls@@@std@@@std@@@std@@QAEXPAV?$_Iterator@$00@?$list@PAVDictNode@ParserTC50@aggregator@tls@@V?$allocator@PAVDictNode@ParserTC50@aggregator@tls@@@std@@@2@ABV342@@Z 130e17b0 f i parsertc50_static:parser_tc50.obj
 0001:000107e0       ?destroy@?$allocator@V?$_Iterator@$00@?$list@PAVDictNode@ParserTC50@aggregator@tls@@V?$allocator@PAVDictNode@ParserTC50@aggregator@tls@@@std@@@std@@@std@@QAEXPAV?$_Iterator@$00@?$list@PAVDictNode@ParserTC50@aggregator@tls@@V?$allocator@PAVDictNode@ParserTC50@aggregator@tls@@@std@@@2@@Z 130e17e0 f i parsertc50_static:parser_tc50.obj
 0001:00010810       ??$_Debug_range@V?$_Iterator@$00@?$list@U?$pair@$$CBIVLogFileNode@ParserTC50@aggregator@tls@@@std@@V?$allocator@U?$pair@$$CBIVLogFileNode@ParserTC50@aggregator@tls@@@std@@@2@@std@@@std@@YAXV?$_Iterator@$00@?$list@U?$pair@$$CBIVLogFileNode@ParserTC50@aggregator@tls@@@std@@V?$allocator@U?$pair@$$CBIVLogFileNode@ParserTC50@aggregator@tls@@@std@@@2@@0@0PB_WI@Z 130e1810 f i parsertc50_static:parser_tc50.obj
 0001:00010890       ??$_Debug_get_cont@V?$_Iterator@$00@?$list@U?$pair@$$CBIVLogFileNode@ParserTC50@aggregator@tls@@@std@@V?$allocator@U?$pair@$$CBIVLogFileNode@ParserTC50@aggregator@tls@@@std@@@2@@std@@@std@@YAPBV_Container_base@0@ABV?$_Iterator@$00@?$list@U?$pair@$$CBIVLogFileNode@ParserTC50@aggregator@tls@@@std@@V?$allocator@U?$pair@$$CBIVLogFileNode@ParserTC50@aggregator@tls@@@std@@@2@@0@@Z 130e1890 f i parsertc50_static:parser_tc50.obj
 0001:000108a0       ??$_Checked_base@PAPAPAVLogFileNode@ParserTC50@aggregator@tls@@@std@@YAPAPAPAVLogFileNode@ParserTC50@aggregator@tls@@AAPAPAPAV1234@U_Unchanged_checked_iterator_base_type_tag@0@@Z 130e18a0 f i parsertc50_static:parser_tc50.obj
 0001:000108b0       ??$_Debug_range@PAPAPAVLogFileNode@ParserTC50@aggregator@tls@@@std@@YAXPAPAPAVLogFileNode@ParserTC50@aggregator@tls@@0PB_WI@Z 130e18b0 f i parsertc50_static:parser_tc50.obj
 0001:00010900       ??$_Debug_pointer@PAPAVLogFileNode@ParserTC50@aggregator@tls@@@std@@YAXPAPAPAVLogFileNode@ParserTC50@aggregator@tls@@PB_WI@Z 130e1900 f i parsertc50_static:parser_tc50.obj
 0001:00010930       ??$unchecked_fill_n@PAPAPAVLogFileNode@ParserTC50@aggregator@tls@@IPAPAV1234@@stdext@@YAXPAPAPAVLogFileNode@ParserTC50@aggregator@tls@@IABQAPAV1234@@Z 130e1930 f i parsertc50_static:parser_tc50.obj
 0001:00010980       ??$_Checked_base@PAV?$_Iterator@$00@?$list@U?$pair@$$CBIVLogFileNode@ParserTC50@aggregator@tls@@@std@@V?$allocator@U?$pair@$$CBIVLogFileNode@ParserTC50@aggregator@tls@@@std@@@2@@std@@@std@@YAPAV?$_Iterator@$00@?$list@U?$pair@$$CBIVLogFileNode@ParserTC50@aggregator@tls@@@std@@V?$allocator@U?$pair@$$CBIVLogFileNode@ParserTC50@aggregator@tls@@@std@@@2@@0@AAPAV120@U_Unchanged_checked_iterator_base_type_tag@0@@Z 130e1980 f i parsertc50_static:parser_tc50.obj
 0001:00010990       ??$_Copy_opt@PAV?$_Iterator@$00@?$list@U?$pair@$$CBIVLogFileNode@ParserTC50@aggregator@tls@@@std@@V?$allocator@U?$pair@$$CBIVLogFileNode@ParserTC50@aggregator@tls@@@std@@@2@@std@@PAV123@Uforward_iterator_tag@3@@std@@YAPAV?$_Iterator@$00@?$list@U?$pair@$$CBIVLogFileNode@ParserTC50@aggregator@tls@@@std@@V?$allocator@U?$pair@$$CBIVLogFileNode@ParserTC50@aggregator@tls@@@std@@@2@@0@PAV120@00Uforward_iterator_tag@0@U_Nonscalar_ptr_iterator_tag@0@U_Range_checked_iterator_tag@0@@Z 130e1990 f i parsertc50_static:parser_tc50.obj
 0001:000109f0       ??$_Uninit_move@PAV?$_Iterator@$00@?$list@U?$pair@$$CBIVLogFileNode@ParserTC50@aggregator@tls@@@std@@V?$allocator@U?$pair@$$CBIVLogFileNode@ParserTC50@aggregator@tls@@@std@@@2@@std@@PAV123@V?$allocator@V?$_Iterator@$00@?$list@U?$pair@$$CBIVLogFileNode@ParserTC50@aggregator@tls@@@std@@V?$allocator@U?$pair@$$CBIVLogFileNode@ParserTC50@aggregator@tls@@@std@@@2@@std@@@3@U_Undefined_move_tag@3@@std@@YAPAV?$_Iterator@$00@?$list@U?$pair@$$CBIVLogFileNode@ParserTC50@aggregator@tls@@@std@@V?$allocator@U?$pair@$$CBIVLogFileNode@ParserTC50@aggregator@tls@@@std@@@2@@0@PAV120@00AAV?$allocator@V?$_Iterator@$00@?$list@U?$pair@$$CBIVLogFileNode@ParserTC50@aggregator@tls@@@std@@V?$allocator@U?$pair@$$CBIVLogFileNode@ParserTC50@aggregator@tls@@@std@@@2@@std@@@0@U_Undefined_move_tag@0@U_Range_checked_iterator_tag@0@@Z 130e19f0 f i parsertc50_static:parser_tc50.obj
 0001:00010a20       ??$_Debug_range@PAV?$_Iterator@$00@?$list@U?$pair@$$CBIVLogFileNode@ParserTC50@aggregator@tls@@@std@@V?$allocator@U?$pair@$$CBIVLogFileNode@ParserTC50@aggregator@tls@@@std@@@2@@std@@@std@@YAXPAV?$_Iterator@$00@?$list@U?$pair@$$CBIVLogFileNode@ParserTC50@aggregator@tls@@@std@@V?$allocator@U?$pair@$$CBIVLogFileNode@ParserTC50@aggregator@tls@@@std@@@2@@0@0PB_WI@Z 130e1a20 f i parsertc50_static:parser_tc50.obj
 0001:00010a70       ??$_Copy_backward_opt@PAV?$_Iterator@$00@?$list@U?$pair@$$CBIVLogFileNode@ParserTC50@aggregator@tls@@@std@@V?$allocator@U?$pair@$$CBIVLogFileNode@ParserTC50@aggregator@tls@@@std@@@2@@std@@PAV123@@std@@YAPAV?$_Iterator@$00@?$list@U?$pair@$$CBIVLogFileNode@ParserTC50@aggregator@tls@@@std@@V?$allocator@U?$pair@$$CBIVLogFileNode@ParserTC50@aggregator@tls@@@std@@@2@@0@PAV120@00Urandom_access_iterator_tag@0@U_Nonscalar_ptr_iterator_tag@0@U_Range_checked_iterator_tag@0@@Z 130e1a70 f i parsertc50_static:parser_tc50.obj
 0001:00010af0       ??$_Construct@V?$_Iterator@$00@?$list@U?$pair@$$CBIVLogFileNode@ParserTC50@aggregator@tls@@@std@@V?$allocator@U?$pair@$$CBIVLogFileNode@ParserTC50@aggregator@tls@@@std@@@2@@std@@V123@@std@@YAXPAV?$_Iterator@$00@?$list@U?$pair@$$CBIVLogFileNode@ParserTC50@aggregator@tls@@@std@@V?$allocator@U?$pair@$$CBIVLogFileNode@ParserTC50@aggregator@tls@@@std@@@2@@0@ABV120@@Z 130e1af0 f i parsertc50_static:parser_tc50.obj
 0001:00010b50       ??$_Destroy@V?$_Iterator@$00@?$list@U?$pair@$$CBIVLogFileNode@ParserTC50@aggregator@tls@@@std@@V?$allocator@U?$pair@$$CBIVLogFileNode@ParserTC50@aggregator@tls@@@std@@@2@@std@@@std@@YAXPAV?$_Iterator@$00@?$list@U?$pair@$$CBIVLogFileNode@ParserTC50@aggregator@tls@@@std@@V?$allocator@U?$pair@$$CBIVLogFileNode@ParserTC50@aggregator@tls@@@std@@@2@@0@@Z 130e1b50 f i parsertc50_static:parser_tc50.obj
 0001:00010b70       ??$_Construct@V?$_Iterator@$00@?$list@PAVDictNode@ParserTC50@aggregator@tls@@V?$allocator@PAVDictNode@ParserTC50@aggregator@tls@@@std@@@std@@V123@@std@@YAXPAV?$_Iterator@$00@?$list@PAVDictNode@ParserTC50@aggregator@tls@@V?$allocator@PAVDictNode@ParserTC50@aggregator@tls@@@std@@@0@ABV120@@Z 130e1b70 f i parsertc50_static:parser_tc50.obj
 0001:00010bd0       ??$_Destroy@V?$_Iterator@$00@?$list@PAVDictNode@ParserTC50@aggregator@tls@@V?$allocator@PAVDictNode@ParserTC50@aggregator@tls@@@std@@@std@@@std@@YAXPAV?$_Iterator@$00@?$list@PAVDictNode@ParserTC50@aggregator@tls@@V?$allocator@PAVDictNode@ParserTC50@aggregator@tls@@@std@@@0@@Z 130e1bd0 f i parsertc50_static:parser_tc50.obj
 0001:00010bf0       ??_G?$_Iterator@$00@?$list@U?$pair@$$CBIVLogFileNode@ParserTC50@aggregator@tls@@@std@@V?$allocator@U?$pair@$$CBIVLogFileNode@ParserTC50@aggregator@tls@@@std@@@2@@std@@QAEPAXI@Z 130e1bf0 f i parsertc50_static:parser_tc50.obj
 0001:00010c30       ??0?$_Iterator@$00@?$list@PAVDictNode@ParserTC50@aggregator@tls@@V?$allocator@PAVDictNode@ParserTC50@aggregator@tls@@@std@@@std@@QAE@ABV012@@Z 130e1c30 f i parsertc50_static:parser_tc50.obj
 0001:00010c60       ??_G?$_Iterator@$00@?$list@PAVDictNode@ParserTC50@aggregator@tls@@V?$allocator@PAVDictNode@ParserTC50@aggregator@tls@@@std@@@std@@QAEPAXI@Z 130e1c60 f i parsertc50_static:parser_tc50.obj
 0001:00010ca0       ??0?$_Const_iterator@$00@?$list@PAVDictNode@ParserTC50@aggregator@tls@@V?$allocator@PAVDictNode@ParserTC50@aggregator@tls@@@std@@@std@@QAE@ABV012@@Z 130e1ca0 f i parsertc50_static:parser_tc50.obj
 0001:00010ce0       ??0?$_Bidit@PAVDictNode@ParserTC50@aggregator@tls@@HPBQAV1234@ABQAV1234@@std@@QAE@ABU01@@Z 130e1ce0 f i parsertc50_static:parser_tc50.obj
 0001:00010d10       ??$_Debug_range2@V?$_Iterator@$00@?$list@U?$pair@$$CBIVLogFileNode@ParserTC50@aggregator@tls@@@std@@V?$allocator@U?$pair@$$CBIVLogFileNode@ParserTC50@aggregator@tls@@@std@@@2@@std@@@std@@YAXV?$_Iterator@$00@?$list@U?$pair@$$CBIVLogFileNode@ParserTC50@aggregator@tls@@@std@@V?$allocator@U?$pair@$$CBIVLogFileNode@ParserTC50@aggregator@tls@@@std@@@2@@0@0PB_WIUinput_iterator_tag@0@@Z 130e1d10 f i parsertc50_static:parser_tc50.obj
 0001:00010d30       ??$_Iter_cat@PAPAPAVLogFileNode@ParserTC50@aggregator@tls@@@std@@YA?AUrandom_access_iterator_tag@0@ABQAPAPAVLogFileNode@ParserTC50@aggregator@tls@@@Z 130e1d30 f i parsertc50_static:parser_tc50.obj
 0001:00010d80       ??$_Debug_range2@PAPAPAVLogFileNode@ParserTC50@aggregator@tls@@@std@@YAXPAPAPAVLogFileNode@ParserTC50@aggregator@tls@@0PB_WIUrandom_access_iterator_tag@0@@Z 130e1d80 f i parsertc50_static:parser_tc50.obj
 0001:00010de0       ??$_Fill_n@PAPAPAVLogFileNode@ParserTC50@aggregator@tls@@IPAPAV1234@@std@@YAXPAPAPAVLogFileNode@ParserTC50@aggregator@tls@@IABQAPAV1234@Urandom_access_iterator_tag@0@U_Range_checked_iterator_tag@0@@Z 130e1de0 f i parsertc50_static:parser_tc50.obj
 0001:00010e40       ??$unchecked_uninitialized_copy@PAV?$_Iterator@$00@?$list@U?$pair@$$CBIVLogFileNode@ParserTC50@aggregator@tls@@@std@@V?$allocator@U?$pair@$$CBIVLogFileNode@ParserTC50@aggregator@tls@@@std@@@2@@std@@PAV123@V?$allocator@V?$_Iterator@$00@?$list@U?$pair@$$CBIVLogFileNode@ParserTC50@aggregator@tls@@@std@@V?$allocator@U?$pair@$$CBIVLogFileNode@ParserTC50@aggregator@tls@@@std@@@2@@std@@@3@@stdext@@YAPAV?$_Iterator@$00@?$list@U?$pair@$$CBIVLogFileNode@ParserTC50@aggregator@tls@@@std@@V?$allocator@U?$pair@$$CBIVLogFileNode@ParserTC50@aggregator@tls@@@std@@@2@@std@@PAV123@00AAV?$allocator@V?$_Iterator@$00@?$list@U?$pair@$$CBIVLogFileNode@ParserTC50@aggregator@tls@@@std@@V?$allocator@U?$pair@$$CBIVLogFileNode@ParserTC50@aggregator@tls@@@std@@@2@@std@@@3@@Z 130e1e40 f i parsertc50_static:parser_tc50.obj
 0001:00010eb0       ??$_Iter_cat@PAV?$_Iterator@$00@?$list@U?$pair@$$CBIVLogFileNode@ParserTC50@aggregator@tls@@@std@@V?$allocator@U?$pair@$$CBIVLogFileNode@ParserTC50@aggregator@tls@@@std@@@2@@std@@@std@@YA?AUrandom_access_iterator_tag@0@ABQAV?$_Iterator@$00@?$list@U?$pair@$$CBIVLogFileNode@ParserTC50@aggregator@tls@@@std@@V?$allocator@U?$pair@$$CBIVLogFileNode@ParserTC50@aggregator@tls@@@std@@@2@@0@@Z 130e1eb0 f i parsertc50_static:parser_tc50.obj
 0001:00010f00       ??$_Debug_range2@PAV?$_Iterator@$00@?$list@U?$pair@$$CBIVLogFileNode@ParserTC50@aggregator@tls@@@std@@V?$allocator@U?$pair@$$CBIVLogFileNode@ParserTC50@aggregator@tls@@@std@@@2@@std@@@std@@YAXPAV?$_Iterator@$00@?$list@U?$pair@$$CBIVLogFileNode@ParserTC50@aggregator@tls@@@std@@V?$allocator@U?$pair@$$CBIVLogFileNode@ParserTC50@aggregator@tls@@@std@@@2@@0@0PB_WIUrandom_access_iterator_tag@0@@Z 130e1f00 f i parsertc50_static:parser_tc50.obj
 0001:00010f60       ??$_Copy_backward_opt@PAV?$_Iterator@$00@?$list@U?$pair@$$CBIVLogFileNode@ParserTC50@aggregator@tls@@@std@@V?$allocator@U?$pair@$$CBIVLogFileNode@ParserTC50@aggregator@tls@@@std@@@2@@std@@PAV123@Uforward_iterator_tag@3@@std@@YAPAV?$_Iterator@$00@?$list@U?$pair@$$CBIVLogFileNode@ParserTC50@aggregator@tls@@@std@@V?$allocator@U?$pair@$$CBIVLogFileNode@ParserTC50@aggregator@tls@@@std@@@2@@0@PAV120@00Uforward_iterator_tag@0@U_Nonscalar_ptr_iterator_tag@0@U_Range_checked_iterator_tag@0@@Z 130e1f60 f i parsertc50_static:parser_tc50.obj
 0001:00010fc0       ??$_Fill_n@PAPAPAVLogFileNode@ParserTC50@aggregator@tls@@IPAPAV1234@@std@@YAXPAPAPAVLogFileNode@ParserTC50@aggregator@tls@@IABQAPAV1234@U_Range_checked_iterator_tag@0@@Z 130e1fc0 f i parsertc50_static:parser_tc50.obj
 0001:00010ff0       ??$_Uninit_copy@PAV?$_Iterator@$00@?$list@U?$pair@$$CBIVLogFileNode@ParserTC50@aggregator@tls@@@std@@V?$allocator@U?$pair@$$CBIVLogFileNode@ParserTC50@aggregator@tls@@@std@@@2@@std@@PAV123@V?$allocator@V?$_Iterator@$00@?$list@U?$pair@$$CBIVLogFileNode@ParserTC50@aggregator@tls@@@std@@V?$allocator@U?$pair@$$CBIVLogFileNode@ParserTC50@aggregator@tls@@@std@@@2@@std@@@3@@std@@YAPAV?$_Iterator@$00@?$list@U?$pair@$$CBIVLogFileNode@ParserTC50@aggregator@tls@@@std@@V?$allocator@U?$pair@$$CBIVLogFileNode@ParserTC50@aggregator@tls@@@std@@@2@@0@PAV120@00AAV?$allocator@V?$_Iterator@$00@?$list@U?$pair@$$CBIVLogFileNode@ParserTC50@aggregator@tls@@@std@@V?$allocator@U?$pair@$$CBIVLogFileNode@ParserTC50@aggregator@tls@@@std@@@2@@std@@@0@U_Nonscalar_ptr_iterator_tag@0@U_Range_checked_iterator_tag@0@@Z 130e1ff0 f i parsertc50_static:parser_tc50.obj
 0001:00011090       ??$_Debug_pointer@V?$_Iterator@$00@?$list@U?$pair@$$CBIVLogFileNode@ParserTC50@aggregator@tls@@@std@@V?$allocator@U?$pair@$$CBIVLogFileNode@ParserTC50@aggregator@tls@@@std@@@2@@std@@@std@@YAXPAV?$_Iterator@$00@?$list@U?$pair@$$CBIVLogFileNode@ParserTC50@aggregator@tls@@@std@@V?$allocator@U?$pair@$$CBIVLogFileNode@ParserTC50@aggregator@tls@@@std@@@2@@0@PB_WI@Z 130e2090 f i parsertc50_static:parser_tc50.obj
 0001:000110c0       ?GetName@LogTypeTC50@aggregator@tls@@UBE?BW4rc_e@@PADPAI@Z 130e20c0 f   parsertc50_static:logtype_tc50.obj
 0001:00011120       ?GetStatus@LogTypeTC50@aggregator@tls@@UBE?BW4rc_e@@XZ 130e2120 f   parsertc50_static:logtype_tc50.obj
 0001:00011140       ?GetResourceSize@LogTypeTC50@aggregator@tls@@UBE?BW4rc_e@@PA_K0@Z 130e2140 f   parsertc50_static:logtype_tc50.obj
 0001:00011190       ?GetLastErr@LogTypeTC50@aggregator@tls@@UBE?BW4rc_e@@PAIPAD0@Z 130e2190 f   parsertc50_static:logtype_tc50.obj
 0001:00011200       ?GetInfo@LogTypeTC50@aggregator@tls@@UBE?BW4rc_e@@PADPAI@Z 130e2200 f   parsertc50_static:logtype_tc50.obj
 0001:00011270       ?GetLastAliveTime@LogTypeTC50@aggregator@tls@@UBE?BW4rc_e@@PAI@Z 130e2270 f   parsertc50_static:logtype_tc50.obj
 0001:000112a0       ?LogType@LogTypeTC50@aggregator@tls@@UAEPBDPBUIFileNode@23@PBUIMemoryNode@3@@Z 130e22a0 f   parsertc50_static:logtype_tc50.obj
 0001:000114a0       ?didCompile@RegEx@@QBEIXZ  130e24a0 f i parsertc50_static:logtype_tc50.obj
 0001:000114c0       ?isMatchOnly@RegEx@@QAEIPBDI@Z 130e24c0 f i parsertc50_static:logtype_tc50.obj
 0001:00011550       ??1?$_Iterator@$00@?$list@ULogTypeRule@aggregator@tls@@V?$allocator@ULogTypeRule@aggregator@tls@@@std@@@std@@QAE@XZ 130e2550 f i parsertc50_static:logtype_tc50.obj
 0001:00011580       ??4?$_Iterator@$00@?$list@ULogTypeRule@aggregator@tls@@V?$allocator@ULogTypeRule@aggregator@tls@@@std@@@std@@QAEAAV012@ABV012@@Z 130e2580 f i parsertc50_static:logtype_tc50.obj
 0001:000115b0       ??1?$_Const_iterator@$00@?$list@ULogTypeRule@aggregator@tls@@V?$allocator@ULogTypeRule@aggregator@tls@@@std@@@std@@QAE@XZ 130e25b0 f i parsertc50_static:logtype_tc50.obj
 0001:000115e0       ??4?$_Const_iterator@$00@?$list@ULogTypeRule@aggregator@tls@@V?$allocator@ULogTypeRule@aggregator@tls@@@std@@@std@@QAEAAV012@ABV012@@Z 130e25e0 f i parsertc50_static:logtype_tc50.obj
 0001:00011620       ??1?$_Bidit@ULogTypeRule@aggregator@tls@@HPBU123@ABU123@@std@@QAE@XZ 130e2620 f i parsertc50_static:logtype_tc50.obj
 0001:00011650       ??4?$_Bidit@ULogTypeRule@aggregator@tls@@HPBU123@ABU123@@std@@QAEAAU01@ABU01@@Z 130e2650 f i parsertc50_static:logtype_tc50.obj
 0001:00011680       ??0LogTypeTC50@aggregator@tls@@QAE@XZ 130e2680 f   parsertc50_static:logtype_tc50.obj
 0001:000116f0       ?GetUUID@LogTypeTC50@aggregator@tls@@UBEABIXZ 130e26f0 f i parsertc50_static:logtype_tc50.obj
 0001:00011710       ?ConstCast@LogTypeTC50@aggregator@tls@@UBEPBXABI@Z 130e2710 f i parsertc50_static:logtype_tc50.obj
 0001:00011750       ?Cast@LogTypeTC50@aggregator@tls@@UAEPAXABI@Z 130e2750 f i parsertc50_static:logtype_tc50.obj
 0001:00011790       ?Release@LogTypeTC50@aggregator@tls@@UAEXXZ 130e2790 f i parsertc50_static:logtype_tc50.obj
 0001:000117b0       ?LogType@LogTypeTC50@aggregator@tls@@UBEPBDXZ 130e27b0 f i parsertc50_static:logtype_tc50.obj
 0001:000117e0       ??0ILogType@aggregator@tls@@QAE@XZ 130e27e0 f i parsertc50_static:logtype_tc50.obj
 0001:00011830       ??1LogTypeTC50@aggregator@tls@@QAE@XZ 130e2830 f   parsertc50_static:logtype_tc50.obj
 0001:00011870       ?Init@LogTypeTC50@aggregator@tls@@QAE?AW4rc_e@@PAUIAggregatorBase@23@@Z 130e2870 f   parsertc50_static:logtype_tc50.obj
 0001:000118b0       ?loadLogTypeRule@LogTypeTC50@aggregator@tls@@AAE?AW4rc_e@@XZ 130e28b0 f   parsertc50_static:logtype_tc50.obj
 0001:000119b0       ??0LogTypeRuleReulst@aggregator@tls@@QAE@PAVLogTypeTC50@12@@Z 130e29b0 f i parsertc50_static:logtype_tc50.obj
 0001:000119e0       ?getFileName@LogTypeTC50@aggregator@tls@@AAEPBDPBD@Z 130e29e0 f   parsertc50_static:logtype_tc50.obj
 0001:00011a80       ??0?$list@ULogTypeRule@aggregator@tls@@V?$allocator@ULogTypeRule@aggregator@tls@@@std@@@std@@QAE@XZ 130e2a80 f i parsertc50_static:logtype_tc50.obj
 0001:00011ad0       ??1?$list@ULogTypeRule@aggregator@tls@@V?$allocator@ULogTypeRule@aggregator@tls@@@std@@@std@@QAE@XZ 130e2ad0 f i parsertc50_static:logtype_tc50.obj
 0001:00011b00       ?begin@?$list@ULogTypeRule@aggregator@tls@@V?$allocator@ULogTypeRule@aggregator@tls@@@std@@@std@@QAE?AV?$_Iterator@$00@12@XZ 130e2b00 f i parsertc50_static:logtype_tc50.obj
 0001:00011b40       ?end@?$list@ULogTypeRule@aggregator@tls@@V?$allocator@ULogTypeRule@aggregator@tls@@@std@@@std@@QAE?AV?$_Iterator@$00@12@XZ 130e2b40 f i parsertc50_static:logtype_tc50.obj
 0001:00011b80       ??0?$_Iterator@$00@?$list@ULogTypeRule@aggregator@tls@@V?$allocator@ULogTypeRule@aggregator@tls@@@std@@@std@@QAE@XZ 130e2b80 f i parsertc50_static:logtype_tc50.obj
 0001:00011bb0       ??D?$_Iterator@$00@?$list@ULogTypeRule@aggregator@tls@@V?$allocator@ULogTypeRule@aggregator@tls@@@std@@@std@@QBEAAULogTypeRule@aggregator@tls@@XZ 130e2bb0 f i parsertc50_static:logtype_tc50.obj
 0001:00011be0       ??E?$_Iterator@$00@?$list@ULogTypeRule@aggregator@tls@@V?$allocator@ULogTypeRule@aggregator@tls@@@std@@@std@@QAEAAV012@XZ 130e2be0 f i parsertc50_static:logtype_tc50.obj
 0001:00011c10       ??9?$_Const_iterator@$00@?$list@ULogTypeRule@aggregator@tls@@V?$allocator@ULogTypeRule@aggregator@tls@@@std@@@std@@QBE_NABV012@@Z 130e2c10 f i parsertc50_static:logtype_tc50.obj
 0001:00011c50       ??0?$GetSetParamImpl@PAULogTypeRuleReulst@aggregator@tls@@@aggregator@tls@@QAE@PAULogTypeRuleReulst@12@PBDI1I1I1I1I1I@Z 130e2c50 f i parsertc50_static:logtype_tc50.obj
 0001:00011cc0       ?SetResult@?$GetSetParamImpl@PAULogTypeRuleReulst@aggregator@tls@@@aggregator@tls@@UAEXIIPBDI@Z 130e2cc0 f i parsertc50_static:logtype_tc50.obj
 0001:00011f10       ?Compile@RegEx@@QAEIPBDH@Z 130e2f10 f i parsertc50_static:logtype_tc50.obj
 0001:00011fb0       ??0LogTypeRule@aggregator@tls@@QAE@XZ 130e2fb0 f i parsertc50_static:logtype_tc50.obj
 0001:00012030       ??0RegEx@@QAE@I@Z          130e3030 f i parsertc50_static:logtype_tc50.obj
 0001:00012090       ??1LogTypeRule@aggregator@tls@@QAE@XZ 130e3090 f i parsertc50_static:logtype_tc50.obj
 0001:000120d0       ??1RegEx@@QAE@XZ           130e30d0 f i parsertc50_static:logtype_tc50.obj
 0001:00012120       ?back@?$list@ULogTypeRule@aggregator@tls@@V?$allocator@ULogTypeRule@aggregator@tls@@@std@@@std@@QAEAAULogTypeRule@aggregator@tls@@XZ 130e3120 f i parsertc50_static:logtype_tc50.obj
 0001:00012180       ?push_back@?$list@ULogTypeRule@aggregator@tls@@V?$allocator@ULogTypeRule@aggregator@tls@@@std@@@std@@QAEXABULogTypeRule@aggregator@tls@@@Z 130e3180 f i parsertc50_static:logtype_tc50.obj
 0001:000121c0       ?GetCondition@?$GetSetParamImpl@PAULogTypeRuleReulst@aggregator@tls@@@aggregator@tls@@UBEPBDIPAI@Z 130e31c0 f i parsertc50_static:logtype_tc50.obj
 0001:00012200       ??1?$_List_val@ULogTypeRule@aggregator@tls@@V?$allocator@ULogTypeRule@aggregator@tls@@@std@@@std@@QAE@XZ 130e3200 f i parsertc50_static:logtype_tc50.obj
 0001:00012230       ??1?$_List_ptr@ULogTypeRule@aggregator@tls@@V?$allocator@ULogTypeRule@aggregator@tls@@@std@@@std@@QAE@XZ 130e3230 f i parsertc50_static:logtype_tc50.obj
 0001:00012260       ??1?$_List_nod@ULogTypeRule@aggregator@tls@@V?$allocator@ULogTypeRule@aggregator@tls@@@std@@@std@@QAE@XZ 130e3260 f i parsertc50_static:logtype_tc50.obj
 0001:00012290       ?_Nextnode@?$list@ULogTypeRule@aggregator@tls@@V?$allocator@ULogTypeRule@aggregator@tls@@@std@@@std@@KAAAPAU_Node@?$_List_nod@ULogTypeRule@aggregator@tls@@V?$allocator@ULogTypeRule@aggregator@tls@@@std@@@2@PAU342@@Z 130e3290 f i parsertc50_static:logtype_tc50.obj
 0001:000122a0       ?_Insert@?$list@ULogTypeRule@aggregator@tls@@V?$allocator@ULogTypeRule@aggregator@tls@@@std@@@std@@QAEXV?$_Iterator@$00@12@ABULogTypeRule@aggregator@tls@@@Z 130e32a0 f i parsertc50_static:logtype_tc50.obj
 0001:00012360       ?_Buynode@?$list@ULogTypeRule@aggregator@tls@@V?$allocator@ULogTypeRule@aggregator@tls@@@std@@@std@@IAEPAU_Node@?$_List_nod@ULogTypeRule@aggregator@tls@@V?$allocator@ULogTypeRule@aggregator@tls@@@std@@@2@XZ 130e3360 f i parsertc50_static:logtype_tc50.obj
 0001:00012450       ?_Tidy@?$list@ULogTypeRule@aggregator@tls@@V?$allocator@ULogTypeRule@aggregator@tls@@@std@@@std@@IAEXXZ 130e3450 f i parsertc50_static:logtype_tc50.obj
 0001:000124d0       ??0?$_List_val@ULogTypeRule@aggregator@tls@@V?$allocator@ULogTypeRule@aggregator@tls@@@std@@@std@@QAE@V?$allocator@ULogTypeRule@aggregator@tls@@@1@@Z 130e34d0 f i parsertc50_static:logtype_tc50.obj
 0001:00012520       ??0?$allocator@ULogTypeRule@aggregator@tls@@@std@@QAE@XZ 130e3520 f i parsertc50_static:logtype_tc50.obj
 0001:00012540       ??0?$_Iterator@$00@?$list@ULogTypeRule@aggregator@tls@@V?$allocator@ULogTypeRule@aggregator@tls@@@std@@@std@@QAE@PAU_Node@?$_List_nod@ULogTypeRule@aggregator@tls@@V?$allocator@ULogTypeRule@aggregator@tls@@@std@@@2@PBV12@@Z 130e3540 f i parsertc50_static:logtype_tc50.obj
 0001:00012580       ??F?$_Iterator@$00@?$list@ULogTypeRule@aggregator@tls@@V?$allocator@ULogTypeRule@aggregator@tls@@@std@@@std@@QAEAAV012@XZ 130e3580 f i parsertc50_static:logtype_tc50.obj
 0001:000125b0       ??0?$_Const_iterator@$00@?$list@ULogTypeRule@aggregator@tls@@V?$allocator@ULogTypeRule@aggregator@tls@@@std@@@std@@QAE@XZ 130e35b0 f i parsertc50_static:logtype_tc50.obj
 0001:000125f0       ??D?$_Const_iterator@$00@?$list@ULogTypeRule@aggregator@tls@@V?$allocator@ULogTypeRule@aggregator@tls@@@std@@@std@@QBEABULogTypeRule@aggregator@tls@@XZ 130e35f0 f i parsertc50_static:logtype_tc50.obj
 0001:000126a0       ??E?$_Const_iterator@$00@?$list@ULogTypeRule@aggregator@tls@@V?$allocator@ULogTypeRule@aggregator@tls@@@std@@@std@@QAEAAV012@XZ 130e36a0 f i parsertc50_static:logtype_tc50.obj
 0001:00012760       ??8?$_Const_iterator@$00@?$list@ULogTypeRule@aggregator@tls@@V?$allocator@ULogTypeRule@aggregator@tls@@@std@@@std@@QBE_NABV012@@Z 130e3760 f i parsertc50_static:logtype_tc50.obj
 0001:000127a0       ?SetParsm@?$GetSetParamImpl@PAULogTypeRuleReulst@aggregator@tls@@@aggregator@tls@@QAEXPAULogTypeRuleReulst@23@PBDI1I1I1I1I1I@Z 130e37a0 f i parsertc50_static:logtype_tc50.obj
 0001:00012830       ??0?$_Bidit@ULogTypeRule@aggregator@tls@@HPBU123@ABU123@@std@@QAE@XZ 130e3830 f i parsertc50_static:logtype_tc50.obj
 0001:00012860       ?_Prevnode@?$list@ULogTypeRule@aggregator@tls@@V?$allocator@ULogTypeRule@aggregator@tls@@@std@@@std@@KAAAPAU_Node@?$_List_nod@ULogTypeRule@aggregator@tls@@V?$allocator@ULogTypeRule@aggregator@tls@@@std@@@2@PAU342@@Z 130e3860 f i parsertc50_static:logtype_tc50.obj
 0001:00012870       ?_Myval@?$list@ULogTypeRule@aggregator@tls@@V?$allocator@ULogTypeRule@aggregator@tls@@@std@@@std@@KAAAULogTypeRule@aggregator@tls@@PAU_Node@?$_List_nod@ULogTypeRule@aggregator@tls@@V?$allocator@ULogTypeRule@aggregator@tls@@@std@@@2@@Z 130e3870 f i parsertc50_static:logtype_tc50.obj
 0001:00012880       ?clear@?$list@ULogTypeRule@aggregator@tls@@V?$allocator@ULogTypeRule@aggregator@tls@@@std@@@std@@QAEXXZ 130e3880 f i parsertc50_static:logtype_tc50.obj
 0001:00012950       ?_Buynode@?$list@ULogTypeRule@aggregator@tls@@V?$allocator@ULogTypeRule@aggregator@tls@@@std@@@std@@IAEPAU_Node@?$_List_nod@ULogTypeRule@aggregator@tls@@V?$allocator@ULogTypeRule@aggregator@tls@@@std@@@2@PAU342@0ABULogTypeRule@aggregator@tls@@@Z 130e3950 f i parsertc50_static:logtype_tc50.obj
 0001:00012a50       ?_Incsize@?$list@ULogTypeRule@aggregator@tls@@V?$allocator@ULogTypeRule@aggregator@tls@@@std@@@std@@IAEXI@Z 130e3a50 f i parsertc50_static:logtype_tc50.obj
 0001:00012ad0       ??0?$_List_ptr@ULogTypeRule@aggregator@tls@@V?$allocator@ULogTypeRule@aggregator@tls@@@std@@@std@@IAE@V?$allocator@ULogTypeRule@aggregator@tls@@@1@@Z 130e3ad0 f i parsertc50_static:logtype_tc50.obj
 0001:00012b20       ??0?$allocator@ULogTypeRule@aggregator@tls@@@std@@QAE@ABV01@@Z 130e3b20 f i parsertc50_static:logtype_tc50.obj
 0001:00012b40       ?deallocate@?$allocator@U_Node@?$_List_nod@ULogTypeRule@aggregator@tls@@V?$allocator@ULogTypeRule@aggregator@tls@@@std@@@std@@@std@@QAEXPAU_Node@?$_List_nod@ULogTypeRule@aggregator@tls@@V?$allocator@ULogTypeRule@aggregator@tls@@@std@@@2@I@Z 130e3b40 f i parsertc50_static:logtype_tc50.obj
 0001:00012b70       ?allocate@?$allocator@U_Node@?$_List_nod@ULogTypeRule@aggregator@tls@@V?$allocator@ULogTypeRule@aggregator@tls@@@std@@@std@@@std@@QAEPAU_Node@?$_List_nod@ULogTypeRule@aggregator@tls@@V?$allocator@ULogTypeRule@aggregator@tls@@@std@@@2@I@Z 130e3b70 f i parsertc50_static:logtype_tc50.obj
 0001:00012ba0       ?construct@?$allocator@PAU_Node@?$_List_nod@ULogTypeRule@aggregator@tls@@V?$allocator@ULogTypeRule@aggregator@tls@@@std@@@std@@@std@@QAEXPAPAU_Node@?$_List_nod@ULogTypeRule@aggregator@tls@@V?$allocator@ULogTypeRule@aggregator@tls@@@std@@@2@ABQAU342@@Z 130e3ba0 f i parsertc50_static:logtype_tc50.obj
 0001:00012bd0       ?destroy@?$allocator@PAU_Node@?$_List_nod@ULogTypeRule@aggregator@tls@@V?$allocator@ULogTypeRule@aggregator@tls@@@std@@@std@@@std@@QAEXPAPAU_Node@?$_List_nod@ULogTypeRule@aggregator@tls@@V?$allocator@ULogTypeRule@aggregator@tls@@@std@@@2@@Z 130e3bd0 f i parsertc50_static:logtype_tc50.obj
 0001:00012c00       ??0?$_Const_iterator@$00@?$list@ULogTypeRule@aggregator@tls@@V?$allocator@ULogTypeRule@aggregator@tls@@@std@@@std@@QAE@PAU_Node@?$_List_nod@ULogTypeRule@aggregator@tls@@V?$allocator@ULogTypeRule@aggregator@tls@@@std@@@2@PBV12@@Z 130e3c00 f i parsertc50_static:logtype_tc50.obj
 0001:00012c40       ??F?$_Const_iterator@$00@?$list@ULogTypeRule@aggregator@tls@@V?$allocator@ULogTypeRule@aggregator@tls@@@std@@@std@@QAEAAV012@XZ 130e3c40 f i parsertc50_static:logtype_tc50.obj
 0001:00012d00       ?_Mynode@?$_Const_iterator@$00@?$list@ULogTypeRule@aggregator@tls@@V?$allocator@ULogTypeRule@aggregator@tls@@@std@@@std@@QBEPAU_Node@?$_List_nod@ULogTypeRule@aggregator@tls@@V?$allocator@ULogTypeRule@aggregator@tls@@@std@@@3@XZ 130e3d00 f i parsertc50_static:logtype_tc50.obj
 0001:00012d20       ?_Compat@?$_Const_iterator@$00@?$list@ULogTypeRule@aggregator@tls@@V?$allocator@ULogTypeRule@aggregator@tls@@@std@@@std@@QBEXABV123@@Z 130e3d20 f i parsertc50_static:logtype_tc50.obj
 0001:00012dc0       ?max_size@?$list@ULogTypeRule@aggregator@tls@@V?$allocator@ULogTypeRule@aggregator@tls@@@std@@@std@@QBEIXZ 130e3dc0 f i parsertc50_static:logtype_tc50.obj
 0001:00012df0       ?_Orphan_ptr@?$list@ULogTypeRule@aggregator@tls@@V?$allocator@ULogTypeRule@aggregator@tls@@@std@@@std@@IBEXAAV12@PAU_Node@?$_List_nod@ULogTypeRule@aggregator@tls@@V?$allocator@ULogTypeRule@aggregator@tls@@@std@@@2@@Z 130e3df0 f i parsertc50_static:logtype_tc50.obj
 0001:00012ec0       ??0?$_List_nod@ULogTypeRule@aggregator@tls@@V?$allocator@ULogTypeRule@aggregator@tls@@@std@@@std@@IAE@V?$allocator@ULogTypeRule@aggregator@tls@@@1@@Z 130e3ec0 f i parsertc50_static:logtype_tc50.obj
 0001:00012f00       ?construct@?$allocator@ULogTypeRule@aggregator@tls@@@std@@QAEXPAULogTypeRule@aggregator@tls@@ABU345@@Z 130e3f00 f i parsertc50_static:logtype_tc50.obj
 0001:00012f30       ?destroy@?$allocator@U_Node@?$_List_nod@ULogTypeRule@aggregator@tls@@V?$allocator@ULogTypeRule@aggregator@tls@@@std@@@std@@@std@@QAEXPAU_Node@?$_List_nod@ULogTypeRule@aggregator@tls@@V?$allocator@ULogTypeRule@aggregator@tls@@@std@@@2@@Z 130e3f30 f i parsertc50_static:logtype_tc50.obj
 0001:00012f60       ?max_size@?$allocator@ULogTypeRule@aggregator@tls@@@std@@QBEIXZ 130e3f60 f i parsertc50_static:logtype_tc50.obj
 0001:00012fb0       ??$?0ULogTypeRule@aggregator@tls@@@?$allocator@PAU_Node@?$_List_nod@ULogTypeRule@aggregator@tls@@V?$allocator@ULogTypeRule@aggregator@tls@@@std@@@std@@@std@@QAE@ABV?$allocator@ULogTypeRule@aggregator@tls@@@1@@Z 130e3fb0 f i parsertc50_static:logtype_tc50.obj
 0001:00012fd0       ??$_Allocate@U_Node@?$_List_nod@ULogTypeRule@aggregator@tls@@V?$allocator@ULogTypeRule@aggregator@tls@@@std@@@std@@@std@@YAPAU_Node@?$_List_nod@ULogTypeRule@aggregator@tls@@V?$allocator@ULogTypeRule@aggregator@tls@@@std@@@0@IPAU120@@Z 130e3fd0 f i parsertc50_static:logtype_tc50.obj
 0001:00013040       ??$_Construct@PAU_Node@?$_List_nod@ULogTypeRule@aggregator@tls@@V?$allocator@ULogTypeRule@aggregator@tls@@@std@@@std@@PAU123@@std@@YAXPAPAU_Node@?$_List_nod@ULogTypeRule@aggregator@tls@@V?$allocator@ULogTypeRule@aggregator@tls@@@std@@@0@ABQAU120@@Z 130e4040 f i parsertc50_static:logtype_tc50.obj
 0001:000130a0       ??$_Destroy@PAU_Node@?$_List_nod@ULogTypeRule@aggregator@tls@@V?$allocator@ULogTypeRule@aggregator@tls@@@std@@@std@@@std@@YAXPAPAU_Node@?$_List_nod@ULogTypeRule@aggregator@tls@@V?$allocator@ULogTypeRule@aggregator@tls@@@std@@@0@@Z 130e40a0 f i parsertc50_static:logtype_tc50.obj
 0001:000130b0       ??$?0ULogTypeRule@aggregator@tls@@@?$allocator@U_Node@?$_List_nod@ULogTypeRule@aggregator@tls@@V?$allocator@ULogTypeRule@aggregator@tls@@@std@@@std@@@std@@QAE@ABV?$allocator@ULogTypeRule@aggregator@tls@@@1@@Z 130e40b0 f i parsertc50_static:logtype_tc50.obj
 0001:000130d0       ??$_Construct@ULogTypeRule@aggregator@tls@@U123@@std@@YAXPAULogTypeRule@aggregator@tls@@ABU123@@Z 130e40d0 f i parsertc50_static:logtype_tc50.obj
 0001:00013140       ??$_Destroy@U_Node@?$_List_nod@ULogTypeRule@aggregator@tls@@V?$allocator@ULogTypeRule@aggregator@tls@@@std@@@std@@@std@@YAXPAU_Node@?$_List_nod@ULogTypeRule@aggregator@tls@@V?$allocator@ULogTypeRule@aggregator@tls@@@std@@@0@@Z 130e4140 f i parsertc50_static:logtype_tc50.obj
 0001:00013160       ??_G_Node@?$_List_nod@ULogTypeRule@aggregator@tls@@V?$allocator@ULogTypeRule@aggregator@tls@@@std@@@std@@QAEPAXI@Z 130e4160 f i parsertc50_static:logtype_tc50.obj
 0001:000131a0       ??1_Node@?$_List_nod@ULogTypeRule@aggregator@tls@@V?$allocator@ULogTypeRule@aggregator@tls@@@std@@@std@@QAE@XZ 130e41a0 f i parsertc50_static:logtype_tc50.obj
 0001:000131d0       ?setLogType@TC50Log@aggregator@tls@@AAEXXZ 130e41d0 f   parsertc50_static:tc50_log.obj
 0001:00013240       ?toTime@TC50Log@aggregator@tls@@AAE_KXZ 130e4240 f   parsertc50_static:tc50_log.obj
 0001:000132c0       ?setDict@TC50Log@aggregator@tls@@AAE?AW4rc_e@@PAVTC50Dict@23@PAUIFileIteratorBase@23@PBD2@Z 130e42c0 f   parsertc50_static:tc50_log.obj
 0001:00013500       ?Parse@TC50Log@aggregator@tls@@QAE?AW4rc_e@@PBDPAIPAVTC50Dict@23@PAUIFileIteratorBase@23@00@Z 130e4500 f   parsertc50_static:tc50_log.obj
 0001:000157c0       ?didMathLogRule@TC50Log@aggregator@tls@@AAEII@Z 130e67c0 f i parsertc50_static:tc50_log.obj
 0001:00015c70       ??0TC50Log@aggregator@tls@@QAE@PBE@Z 130e6c70 f   parsertc50_static:tc50_log.obj
 0001:00015d30       ??1TC50Log@aggregator@tls@@QAE@XZ 130e6d30 f   parsertc50_static:tc50_log.obj
 0001:00015d60       ?SetFuncRule@TC50Log@aggregator@tls@@QAEXPBE@Z 130e6d60 f   parsertc50_static:tc50_log.obj
 0001:00015d80       ?reset@TC50Log@aggregator@tls@@AAEXXZ 130e6d80 f   parsertc50_static:tc50_log.obj
 0001:000163b0       ?ResetCount@TC50Log@aggregator@tls@@QAEXXZ 130e73b0 f   parsertc50_static:tc50_log.obj
 0001:00016430       ?FixData@TC50Log@aggregator@tls@@QAEXXZ 130e7430 f   parsertc50_static:tc50_log.obj
 0001:000169b0       ?fixTime@TC50Log@aggregator@tls@@AAEXXZ 130e79b0 f   parsertc50_static:tc50_log.obj
 0001:00016a70       ??C?$AutoRelease@PAUIParseIX@aggregator@tls@@@tls@@QAEPAUIParseIX@aggregator@1@XZ 130e7a70 f i parsertc50_static:tc50_log.obj
 0001:00016a90       ?AddDict@TC50Dict@aggregator@tls@@QAE?AW4rc_e@@PBD0I_K@Z 130e7a90 f   parsertc50_static:tc50_dict.obj
 0001:00016be0       ??0DictNode@TC50Dict@aggregator@tls@@QAE@PBD0I_K@Z 130e7be0 f i parsertc50_static:tc50_dict.obj
 0001:00016df0       ??Rchar_t_hash@base@tls@@QBEIPBD@Z 130e7df0 f i parsertc50_static:tc50_dict.obj
 0001:00016e70       ??1iterator@?$_Tree@V?$_Tset_traits@PAVDictNode@TC50Dict@aggregator@tls@@Udict_node_hash@234@V?$allocator@PAVDictNode@TC50Dict@aggregator@tls@@@std@@$0A@@std@@@std@@QAE@XZ 130e7e70 f i parsertc50_static:tc50_dict.obj
 0001:00016ea0       ??1?$pair@Viterator@?$_Tree@V?$_Tset_traits@PAVDictNode@TC50Dict@aggregator@tls@@Udict_node_hash@234@V?$allocator@PAVDictNode@TC50Dict@aggregator@tls@@@std@@$0A@@std@@@std@@_N@std@@QAE@XZ 130e7ea0 f i parsertc50_static:tc50_dict.obj
 0001:00016ed0       ??1const_iterator@?$_Tree@V?$_Tset_traits@PAVDictNode@TC50Dict@aggregator@tls@@Udict_node_hash@234@V?$allocator@PAVDictNode@TC50Dict@aggregator@tls@@@std@@$0A@@std@@@std@@QAE@XZ 130e7ed0 f i parsertc50_static:tc50_dict.obj
 0001:00016f00       ??1?$_Bidit@PAVDictNode@TC50Dict@aggregator@tls@@HPBQAV1234@ABQAV1234@@std@@QAE@XZ 130e7f00 f i parsertc50_static:tc50_dict.obj
 0001:00016f30       ?FindNearDict_Simple@TC50Dict@aggregator@tls@@QAEPAUIDictIX@23@PAUIFileIteratorBase@23@PBD1_K@Z 130e7f30 f   parsertc50_static:tc50_dict.obj
 0001:00017010       ?FindNearDict_Common@TC50Dict@aggregator@tls@@QAEPAUIDictIX@23@PAUIFileIteratorBase@23@PBD1_K@Z 130e8010 f   parsertc50_static:tc50_dict.obj
 0001:000170f0       ?FindNearDict_Scntr@TC50Dict@aggregator@tls@@QAEPAUIDictIX@23@PAUIFileIteratorBase@23@PBD1_K@Z 130e80f0 f   parsertc50_static:tc50_dict.obj
 0001:000171d0       ?GetDefDict_Simple@TC50Dict@aggregator@tls@@QAEPAUIDictIX@23@XZ 130e81d0 f   parsertc50_static:tc50_dict.obj
 0001:00017260       ?GetDefDict_Common@TC50Dict@aggregator@tls@@QAEPAUIDictIX@23@XZ 130e8260 f   parsertc50_static:tc50_dict.obj
 0001:000172f0       ?GetDefDict_Scntr@TC50Dict@aggregator@tls@@QAEPAUIDictIX@23@XZ 130e82f0 f   parsertc50_static:tc50_dict.obj
 0001:00017380       ??0TC50Dict@aggregator@tls@@QAE@XZ 130e8380 f   parsertc50_static:tc50_dict.obj
 0001:00017410       ??1TC50Dict@aggregator@tls@@QAE@XZ 130e8410 f   parsertc50_static:tc50_dict.obj
 0001:00017440       ??1?$set@PAVDictNode@TC50Dict@aggregator@tls@@Udict_node_hash@234@V?$allocator@PAVDictNode@TC50Dict@aggregator@tls@@@std@@@std@@QAE@XZ 130e8440 f i parsertc50_static:tc50_dict.obj
 0001:00017470       ?LoadDefaultDict@TC50Dict@aggregator@tls@@QAE?AW4rc_e@@PBD@Z 130e8470 f   parsertc50_static:tc50_dict.obj
 0001:00017690       ?clearDictMap@TC50Dict@aggregator@tls@@AAEXXZ 130e8690 f   parsertc50_static:tc50_dict.obj
 0001:000177f0       ??4iterator@?$_Tree@V?$_Tset_traits@PAVDictNode@TC50Dict@aggregator@tls@@Udict_node_hash@234@V?$allocator@PAVDictNode@TC50Dict@aggregator@tls@@@std@@$0A@@std@@@std@@QAEAAV012@ABV012@@Z 130e87f0 f i parsertc50_static:tc50_dict.obj
 0001:00017820       ??_GDictNode@TC50Dict@aggregator@tls@@QAEPAXI@Z 130e8820 f i parsertc50_static:tc50_dict.obj
 0001:00017860       ??1DictNode@TC50Dict@aggregator@tls@@QAE@XZ 130e8860 f i parsertc50_static:tc50_dict.obj
 0001:000178a0       ??4const_iterator@?$_Tree@V?$_Tset_traits@PAVDictNode@TC50Dict@aggregator@tls@@Udict_node_hash@234@V?$allocator@PAVDictNode@TC50Dict@aggregator@tls@@@std@@$0A@@std@@@std@@QAEAAV012@ABV012@@Z 130e88a0 f i parsertc50_static:tc50_dict.obj
 0001:000178e0       ??4?$_Bidit@PAVDictNode@TC50Dict@aggregator@tls@@HPBQAV1234@ABQAV1234@@std@@QAEAAU01@ABU01@@Z 130e88e0 f i parsertc50_static:tc50_dict.obj
 0001:00017910       ?getNearDict@TC50Dict@aggregator@tls@@AAEPAVDictNode@123@PAUIFileIteratorBase@23@PBD1_K@Z 130e8910 f   parsertc50_static:tc50_dict.obj
 0001:00017cb0       ?FileID@DictNode@TC50Dict@aggregator@tls@@QBEIXZ 130e8cb0 f i parsertc50_static:tc50_dict.obj
 0001:00017cd0       ?findDict@TC50Dict@aggregator@tls@@AAEPAVDictNode@123@PBD0_K@Z 130e8cd0 f   parsertc50_static:tc50_dict.obj
 0001:00017e00       ?LoadDictFromFile@DictNode@TC50Dict@aggregator@tls@@QAE?AW4rc_e@@PBEI@Z 130e8e00 f   parsertc50_static:tc50_dict.obj
 0001:00018010       ?LoadDictFromFile@DictNode@TC50Dict@aggregator@tls@@QAE?AW4rc_e@@PAEIPAUIFileIteratorBase@34@@Z 130e9010 f   parsertc50_static:tc50_dict.obj
 0001:00018230       ??0?$AutoRelease@PAUIDictIX@aggregator@tls@@@tls@@QAE@PAUIDictIX@aggregator@1@@Z 130e9230 f i parsertc50_static:tc50_dict.obj
 0001:00018250       ??1?$AutoRelease@PAUIDictIX@aggregator@tls@@@tls@@QAE@XZ 130e9250 f i parsertc50_static:tc50_dict.obj
 0001:00018280       ??C?$AutoRelease@PAUIDictIX@aggregator@tls@@@tls@@QAEPAUIDictIX@aggregator@1@XZ 130e9280 f i parsertc50_static:tc50_dict.obj
 0001:000182a0       ??B?$AutoRelease@PAUIDictIX@aggregator@tls@@@tls@@QAEPAUIDictIX@aggregator@1@XZ 130e92a0 f i parsertc50_static:tc50_dict.obj
 0001:000182c0       ??0?$set@PAVDictNode@TC50Dict@aggregator@tls@@Udict_node_hash@234@V?$allocator@PAVDictNode@TC50Dict@aggregator@tls@@@std@@@std@@QAE@XZ 130e92c0 f i parsertc50_static:tc50_dict.obj
 0001:00018310       ??1?$_Tree@V?$_Tset_traits@PAVDictNode@TC50Dict@aggregator@tls@@Udict_node_hash@234@V?$allocator@PAVDictNode@TC50Dict@aggregator@tls@@@std@@$0A@@std@@@std@@QAE@XZ 130e9310 f i parsertc50_static:tc50_dict.obj
 0001:00018340       ?begin@?$_Tree@V?$_Tset_traits@PAVDictNode@TC50Dict@aggregator@tls@@Udict_node_hash@234@V?$allocator@PAVDictNode@TC50Dict@aggregator@tls@@@std@@$0A@@std@@@std@@QAE?AViterator@12@XZ 130e9340 f i parsertc50_static:tc50_dict.obj
 0001:00018380       ?end@?$_Tree@V?$_Tset_traits@PAVDictNode@TC50Dict@aggregator@tls@@Udict_node_hash@234@V?$allocator@PAVDictNode@TC50Dict@aggregator@tls@@@std@@$0A@@std@@@std@@QAE?AViterator@12@XZ 130e9380 f i parsertc50_static:tc50_dict.obj
 0001:000183c0       ?insert@?$_Tree@V?$_Tset_traits@PAVDictNode@TC50Dict@aggregator@tls@@Udict_node_hash@234@V?$allocator@PAVDictNode@TC50Dict@aggregator@tls@@@std@@$0A@@std@@@std@@QAE?AU?$pair@Viterator@?$_Tree@V?$_Tset_traits@PAVDictNode@TC50Dict@aggregator@tls@@Udict_node_hash@234@V?$allocator@PAVDictNode@TC50Dict@aggregator@tls@@@std@@$0A@@std@@@std@@_N@2@ABQAVDictNode@TC50Dict@aggregator@tls@@@Z 130e93c0 f i parsertc50_static:tc50_dict.obj
 0001:00018630       ?clear@?$_Tree@V?$_Tset_traits@PAVDictNode@TC50Dict@aggregator@tls@@Udict_node_hash@234@V?$allocator@PAVDictNode@TC50Dict@aggregator@tls@@@std@@$0A@@std@@@std@@QAEXXZ 130e9630 f i parsertc50_static:tc50_dict.obj
 0001:000186b0       ?find@?$_Tree@V?$_Tset_traits@PAVDictNode@TC50Dict@aggregator@tls@@Udict_node_hash@234@V?$allocator@PAVDictNode@TC50Dict@aggregator@tls@@@std@@$0A@@std@@@std@@QAE?AViterator@12@ABQAVDictNode@TC50Dict@aggregator@tls@@@Z 130e96b0 f i parsertc50_static:tc50_dict.obj
 0001:000187e0       ?upper_bound@?$_Tree@V?$_Tset_traits@PAVDictNode@TC50Dict@aggregator@tls@@Udict_node_hash@234@V?$allocator@PAVDictNode@TC50Dict@aggregator@tls@@@std@@$0A@@std@@@std@@QAE?AViterator@12@ABQAVDictNode@TC50Dict@aggregator@tls@@@Z 130e97e0 f i parsertc50_static:tc50_dict.obj
 0001:00018820       ??0?$AutoRelease@PAU_iobuf@@@tls@@QAE@PAU_iobuf@@@Z 130e9820 f i parsertc50_static:tc50_dict.obj
 0001:00018840       ??1?$AutoRelease@PAU_iobuf@@@tls@@QAE@XZ 130e9840 f i parsertc50_static:tc50_dict.obj
 0001:00018870       ?Release@?$AutoRelease@PAU_iobuf@@@tls@@QAEXXZ 130e9870 f i parsertc50_static:tc50_dict.obj
 0001:000188b0       ??B?$AutoRelease@PAU_iobuf@@@tls@@QAEPAU_iobuf@@XZ 130e98b0 f i parsertc50_static:tc50_dict.obj
 0001:000188d0       ??0iterator@?$_Tree@V?$_Tset_traits@PAVDictNode@TC50Dict@aggregator@tls@@Udict_node_hash@234@V?$allocator@PAVDictNode@TC50Dict@aggregator@tls@@@std@@$0A@@std@@@std@@QAE@XZ 130e98d0 f i parsertc50_static:tc50_dict.obj
 0001:00018900       ??Diterator@?$_Tree@V?$_Tset_traits@PAVDictNode@TC50Dict@aggregator@tls@@Udict_node_hash@234@V?$allocator@PAVDictNode@TC50Dict@aggregator@tls@@@std@@$0A@@std@@@std@@QBEAAPAVDictNode@TC50Dict@aggregator@tls@@XZ 130e9900 f i parsertc50_static:tc50_dict.obj
 0001:00018930       ??Eiterator@?$_Tree@V?$_Tset_traits@PAVDictNode@TC50Dict@aggregator@tls@@Udict_node_hash@234@V?$allocator@PAVDictNode@TC50Dict@aggregator@tls@@@std@@$0A@@std@@@std@@QAEAAV012@XZ 130e9930 f i parsertc50_static:tc50_dict.obj
 0001:00018960       ??8const_iterator@?$_Tree@V?$_Tset_traits@PAVDictNode@TC50Dict@aggregator@tls@@Udict_node_hash@234@V?$allocator@PAVDictNode@TC50Dict@aggregator@tls@@@std@@$0A@@std@@@std@@QBE_NABV012@@Z 130e9960 f i parsertc50_static:tc50_dict.obj
 0001:00018a00       ??9const_iterator@?$_Tree@V?$_Tset_traits@PAVDictNode@TC50Dict@aggregator@tls@@Udict_node_hash@234@V?$allocator@PAVDictNode@TC50Dict@aggregator@tls@@@std@@$0A@@std@@@std@@QBE_NABV012@@Z 130e9a00 f i parsertc50_static:tc50_dict.obj
 0001:00018a40       ??1?$_Tree_val@V?$_Tset_traits@PAVDictNode@TC50Dict@aggregator@tls@@Udict_node_hash@234@V?$allocator@PAVDictNode@TC50Dict@aggregator@tls@@@std@@$0A@@std@@@std@@QAE@XZ 130e9a40 f i parsertc50_static:tc50_dict.obj
 0001:00018a70       ??0iterator@?$_Tree@V?$_Tset_traits@PAVDictNode@TC50Dict@aggregator@tls@@Udict_node_hash@234@V?$allocator@PAVDictNode@TC50Dict@aggregator@tls@@@std@@$0A@@std@@@std@@QAE@ABV012@@Z 130e9a70 f i parsertc50_static:tc50_dict.obj
 0001:00018aa0       ??1?$_Tree_ptr@V?$_Tset_traits@PAVDictNode@TC50Dict@aggregator@tls@@Udict_node_hash@234@V?$allocator@PAVDictNode@TC50Dict@aggregator@tls@@@std@@$0A@@std@@@std@@QAE@XZ 130e9aa0 f i parsertc50_static:tc50_dict.obj
 0001:00018ad0       ??0const_iterator@?$_Tree@V?$_Tset_traits@PAVDictNode@TC50Dict@aggregator@tls@@Udict_node_hash@234@V?$allocator@PAVDictNode@TC50Dict@aggregator@tls@@@std@@$0A@@std@@@std@@QAE@ABV012@@Z 130e9ad0 f i parsertc50_static:tc50_dict.obj
 0001:00018b10       ??1?$_Tree_nod@V?$_Tset_traits@PAVDictNode@TC50Dict@aggregator@tls@@Udict_node_hash@234@V?$allocator@PAVDictNode@TC50Dict@aggregator@tls@@@std@@$0A@@std@@@std@@QAE@XZ 130e9b10 f i parsertc50_static:tc50_dict.obj
 0001:00018b40       ??0?$_Bidit@PAVDictNode@TC50Dict@aggregator@tls@@HPBQAV1234@ABQAV1234@@std@@QAE@ABU01@@Z 130e9b40 f i parsertc50_static:tc50_dict.obj
 0001:00018b70       ??1?$_Tset_traits@PAVDictNode@TC50Dict@aggregator@tls@@Udict_node_hash@234@V?$allocator@PAVDictNode@TC50Dict@aggregator@tls@@@std@@$0A@@std@@QAE@XZ 130e9b70 f i parsertc50_static:tc50_dict.obj
 0001:00018ba0       ?Release@?$AutoRelease@PAUIDictIX@aggregator@tls@@@tls@@QAEXXZ 130e9ba0 f i parsertc50_static:tc50_dict.obj
 0001:00018bf0       ?_Isnil@?$_Tree@V?$_Tset_traits@PAVDictNode@TC50Dict@aggregator@tls@@Udict_node_hash@234@V?$allocator@PAVDictNode@TC50Dict@aggregator@tls@@@std@@$0A@@std@@@std@@KAAADPAU_Node@?$_Tree_nod@V?$_Tset_traits@PAVDictNode@TC50Dict@aggregator@tls@@Udict_node_hash@234@V?$allocator@PAVDictNode@TC50Dict@aggregator@tls@@@std@@$0A@@std@@@2@@Z 130e9bf0 f i parsertc50_static:tc50_dict.obj
 0001:00018c00       ?_Key@?$_Tree@V?$_Tset_traits@PAVDictNode@TC50Dict@aggregator@tls@@Udict_node_hash@234@V?$allocator@PAVDictNode@TC50Dict@aggregator@tls@@@std@@$0A@@std@@@std@@KAABQAVDictNode@TC50Dict@aggregator@tls@@PAU_Node@?$_Tree_nod@V?$_Tset_traits@PAVDictNode@TC50Dict@aggregator@tls@@Udict_node_hash@234@V?$allocator@PAVDictNode@TC50Dict@aggregator@tls@@@std@@$0A@@std@@@2@@Z 130e9c00 f i parsertc50_static:tc50_dict.obj
 0001:00018c30       ?_Left@?$_Tree@V?$_Tset_traits@PAVDictNode@TC50Dict@aggregator@tls@@Udict_node_hash@234@V?$allocator@PAVDictNode@TC50Dict@aggregator@tls@@@std@@$0A@@std@@@std@@KAAAPAU_Node@?$_Tree_nod@V?$_Tset_traits@PAVDictNode@TC50Dict@aggregator@tls@@Udict_node_hash@234@V?$allocator@PAVDictNode@TC50Dict@aggregator@tls@@@std@@$0A@@std@@@2@PAU342@@Z 130e9c30 f i parsertc50_static:tc50_dict.obj
 0001:00018c40       ?_Right@?$_Tree@V?$_Tset_traits@PAVDictNode@TC50Dict@aggregator@tls@@Udict_node_hash@234@V?$allocator@PAVDictNode@TC50Dict@aggregator@tls@@@std@@$0A@@std@@@std@@KAAAPAU_Node@?$_Tree_nod@V?$_Tset_traits@PAVDictNode@TC50Dict@aggregator@tls@@Udict_node_hash@234@V?$allocator@PAVDictNode@TC50Dict@aggregator@tls@@@std@@$0A@@std@@@2@PAU342@@Z 130e9c40 f i parsertc50_static:tc50_dict.obj
 0001:00018c50       ??0?$_Tree@V?$_Tset_traits@PAVDictNode@TC50Dict@aggregator@tls@@Udict_node_hash@234@V?$allocator@PAVDictNode@TC50Dict@aggregator@tls@@@std@@$0A@@std@@@std@@QAE@ABUdict_node_hash@TC50Dict@aggregator@tls@@ABV?$allocator@PAVDictNode@TC50Dict@aggregator@tls@@@1@@Z 130e9c50 f i parsertc50_static:tc50_dict.obj
 0001:00018ca0       ?lower_bound@?$_Tree@V?$_Tset_traits@PAVDictNode@TC50Dict@aggregator@tls@@Udict_node_hash@234@V?$allocator@PAVDictNode@TC50Dict@aggregator@tls@@@std@@$0A@@std@@@std@@QAE?AViterator@12@ABQAVDictNode@TC50Dict@aggregator@tls@@@Z 130e9ca0 f i parsertc50_static:tc50_dict.obj
 0001:00018ce0       ?_Erase@?$_Tree@V?$_Tset_traits@PAVDictNode@TC50Dict@aggregator@tls@@Udict_node_hash@234@V?$allocator@PAVDictNode@TC50Dict@aggregator@tls@@@std@@$0A@@std@@@std@@IAEXPAU_Node@?$_Tree_nod@V?$_Tset_traits@PAVDictNode@TC50Dict@aggregator@tls@@Udict_node_hash@234@V?$allocator@PAVDictNode@TC50Dict@aggregator@tls@@@std@@$0A@@std@@@2@@Z 130e9ce0 f i parsertc50_static:tc50_dict.obj
 0001:00018d80       ?_Insert@?$_Tree@V?$_Tset_traits@PAVDictNode@TC50Dict@aggregator@tls@@Udict_node_hash@234@V?$allocator@PAVDictNode@TC50Dict@aggregator@tls@@@std@@$0A@@std@@@std@@IAE?AViterator@12@_NPAU_Node@?$_Tree_nod@V?$_Tset_traits@PAVDictNode@TC50Dict@aggregator@tls@@Udict_node_hash@234@V?$allocator@PAVDictNode@TC50Dict@aggregator@tls@@@std@@$0A@@std@@@2@ABQAVDictNode@TC50Dict@aggregator@tls@@@Z 130e9d80 f i parsertc50_static:tc50_dict.obj
 0001:000191e0       ?_Lmost@?$_Tree@V?$_Tset_traits@PAVDictNode@TC50Dict@aggregator@tls@@Udict_node_hash@234@V?$allocator@PAVDictNode@TC50Dict@aggregator@tls@@@std@@$0A@@std@@@std@@IBEAAPAU_Node@?$_Tree_nod@V?$_Tset_traits@PAVDictNode@TC50Dict@aggregator@tls@@Udict_node_hash@234@V?$allocator@PAVDictNode@TC50Dict@aggregator@tls@@@std@@$0A@@std@@@2@XZ 130ea1e0 f i parsertc50_static:tc50_dict.obj
 0001:00019210       ?_Rmost@?$_Tree@V?$_Tset_traits@PAVDictNode@TC50Dict@aggregator@tls@@Udict_node_hash@234@V?$allocator@PAVDictNode@TC50Dict@aggregator@tls@@@std@@$0A@@std@@@std@@IBEAAPAU_Node@?$_Tree_nod@V?$_Tset_traits@PAVDictNode@TC50Dict@aggregator@tls@@Udict_node_hash@234@V?$allocator@PAVDictNode@TC50Dict@aggregator@tls@@@std@@$0A@@std@@@2@XZ 130ea210 f i parsertc50_static:tc50_dict.obj
 0001:00019240       ?_Root@?$_Tree@V?$_Tset_traits@PAVDictNode@TC50Dict@aggregator@tls@@Udict_node_hash@234@V?$allocator@PAVDictNode@TC50Dict@aggregator@tls@@@std@@$0A@@std@@@std@@IBEAAPAU_Node@?$_Tree_nod@V?$_Tset_traits@PAVDictNode@TC50Dict@aggregator@tls@@Udict_node_hash@234@V?$allocator@PAVDictNode@TC50Dict@aggregator@tls@@@std@@$0A@@std@@@2@XZ 130ea240 f i parsertc50_static:tc50_dict.obj
 0001:00019270       ?_Ubound@?$_Tree@V?$_Tset_traits@PAVDictNode@TC50Dict@aggregator@tls@@Udict_node_hash@234@V?$allocator@PAVDictNode@TC50Dict@aggregator@tls@@@std@@$0A@@std@@@std@@IBEPAU_Node@?$_Tree_nod@V?$_Tset_traits@PAVDictNode@TC50Dict@aggregator@tls@@Udict_node_hash@234@V?$allocator@PAVDictNode@TC50Dict@aggregator@tls@@@std@@$0A@@std@@@2@ABQAVDictNode@TC50Dict@aggregator@tls@@@Z 130ea270 f i parsertc50_static:tc50_dict.obj
 0001:00019330       ?_Orphan_ptr@?$_Tree@V?$_Tset_traits@PAVDictNode@TC50Dict@aggregator@tls@@Udict_node_hash@234@V?$allocator@PAVDictNode@TC50Dict@aggregator@tls@@@std@@$0A@@std@@@std@@IBEXAAV12@PAU_Node@?$_Tree_nod@V?$_Tset_traits@PAVDictNode@TC50Dict@aggregator@tls@@Udict_node_hash@234@V?$allocator@PAVDictNode@TC50Dict@aggregator@tls@@@std@@$0A@@std@@@2@@Z 130ea330 f i parsertc50_static:tc50_dict.obj
 0001:00019400       ?_Tidy@?$_Tree@V?$_Tset_traits@PAVDictNode@TC50Dict@aggregator@tls@@Udict_node_hash@234@V?$allocator@PAVDictNode@TC50Dict@aggregator@tls@@@std@@$0A@@std@@@std@@IAEXXZ 130ea400 f i parsertc50_static:tc50_dict.obj
 0001:000194e0       ?_Kfn@?$_Tset_traits@PAVDictNode@TC50Dict@aggregator@tls@@Udict_node_hash@234@V?$allocator@PAVDictNode@TC50Dict@aggregator@tls@@@std@@$0A@@std@@SAABQAVDictNode@TC50Dict@aggregator@tls@@ABQAV3456@@Z 130ea4e0 f i parsertc50_static:tc50_dict.obj
 0001:000194f0       ??0?$allocator@PAVDictNode@TC50Dict@aggregator@tls@@@std@@QAE@XZ 130ea4f0 f i parsertc50_static:tc50_dict.obj
 0001:00019510       ??0iterator@?$_Tree@V?$_Tset_traits@PAVDictNode@TC50Dict@aggregator@tls@@Udict_node_hash@234@V?$allocator@PAVDictNode@TC50Dict@aggregator@tls@@@std@@$0A@@std@@@std@@QAE@PAU_Node@?$_Tree_nod@V?$_Tset_traits@PAVDictNode@TC50Dict@aggregator@tls@@Udict_node_hash@234@V?$allocator@PAVDictNode@TC50Dict@aggregator@tls@@@std@@$0A@@std@@@2@PBV12@@Z 130ea510 f i parsertc50_static:tc50_dict.obj
 0001:00019550       ??Fiterator@?$_Tree@V?$_Tset_traits@PAVDictNode@TC50Dict@aggregator@tls@@Udict_node_hash@234@V?$allocator@PAVDictNode@TC50Dict@aggregator@tls@@@std@@$0A@@std@@@std@@QAEAAV012@XZ 130ea550 f i parsertc50_static:tc50_dict.obj
 0001:00019580       ??0const_iterator@?$_Tree@V?$_Tset_traits@PAVDictNode@TC50Dict@aggregator@tls@@Udict_node_hash@234@V?$allocator@PAVDictNode@TC50Dict@aggregator@tls@@@std@@$0A@@std@@@std@@QAE@XZ 130ea580 f i parsertc50_static:tc50_dict.obj
 0001:000195c0       ??Dconst_iterator@?$_Tree@V?$_Tset_traits@PAVDictNode@TC50Dict@aggregator@tls@@Udict_node_hash@234@V?$allocator@PAVDictNode@TC50Dict@aggregator@tls@@@std@@$0A@@std@@@std@@QBEABQAVDictNode@TC50Dict@aggregator@tls@@XZ 130ea5c0 f i parsertc50_static:tc50_dict.obj
 0001:00019660       ??Econst_iterator@?$_Tree@V?$_Tset_traits@PAVDictNode@TC50Dict@aggregator@tls@@Udict_node_hash@234@V?$allocator@PAVDictNode@TC50Dict@aggregator@tls@@@std@@$0A@@std@@@std@@QAEAAV012@XZ 130ea660 f i parsertc50_static:tc50_dict.obj
 0001:00019690       ?_Mynode@const_iterator@?$_Tree@V?$_Tset_traits@PAVDictNode@TC50Dict@aggregator@tls@@Udict_node_hash@234@V?$allocator@PAVDictNode@TC50Dict@aggregator@tls@@@std@@$0A@@std@@@std@@QBEPAU_Node@?$_Tree_nod@V?$_Tset_traits@PAVDictNode@TC50Dict@aggregator@tls@@Udict_node_hash@234@V?$allocator@PAVDictNode@TC50Dict@aggregator@tls@@@std@@$0A@@std@@@3@XZ 130ea690 f i parsertc50_static:tc50_dict.obj
 0001:000196b0       ??0?$pair@Viterator@?$_Tree@V?$_Tset_traits@PAVDictNode@TC50Dict@aggregator@tls@@Udict_node_hash@234@V?$allocator@PAVDictNode@TC50Dict@aggregator@tls@@@std@@$0A@@std@@@std@@_N@std@@QAE@ABViterator@?$_Tree@V?$_Tset_traits@PAVDictNode@TC50Dict@aggregator@tls@@Udict_node_hash@234@V?$allocator@PAVDictNode@TC50Dict@aggregator@tls@@@std@@$0A@@std@@@1@AB_N@Z 130ea6b0 f i parsertc50_static:tc50_dict.obj
 0001:000196f0       ??0?$_Bidit@PAVDictNode@TC50Dict@aggregator@tls@@HPBQAV1234@ABQAV1234@@std@@QAE@XZ 130ea6f0 f i parsertc50_static:tc50_dict.obj
 0001:00019720       ?_Color@?$_Tree@V?$_Tset_traits@PAVDictNode@TC50Dict@aggregator@tls@@Udict_node_hash@234@V?$allocator@PAVDictNode@TC50Dict@aggregator@tls@@@std@@$0A@@std@@@std@@KAAADPAU_Node@?$_Tree_nod@V?$_Tset_traits@PAVDictNode@TC50Dict@aggregator@tls@@Udict_node_hash@234@V?$allocator@PAVDictNode@TC50Dict@aggregator@tls@@@std@@$0A@@std@@@2@@Z 130ea720 f i parsertc50_static:tc50_dict.obj
 0001:00019730       ?_Parent@?$_Tree@V?$_Tset_traits@PAVDictNode@TC50Dict@aggregator@tls@@Udict_node_hash@234@V?$allocator@PAVDictNode@TC50Dict@aggregator@tls@@@std@@$0A@@std@@@std@@KAAAPAU_Node@?$_Tree_nod@V?$_Tset_traits@PAVDictNode@TC50Dict@aggregator@tls@@Udict_node_hash@234@V?$allocator@PAVDictNode@TC50Dict@aggregator@tls@@@std@@$0A@@std@@@2@PAU342@@Z 130ea730 f i parsertc50_static:tc50_dict.obj
 0001:00019740       ?_Myval@?$_Tree@V?$_Tset_traits@PAVDictNode@TC50Dict@aggregator@tls@@Udict_node_hash@234@V?$allocator@PAVDictNode@TC50Dict@aggregator@tls@@@std@@$0A@@std@@@std@@KAAAPAVDictNode@TC50Dict@aggregator@tls@@PAU_Node@?$_Tree_nod@V?$_Tset_traits@PAVDictNode@TC50Dict@aggregator@tls@@Udict_node_hash@234@V?$allocator@PAVDictNode@TC50Dict@aggregator@tls@@@std@@$0A@@std@@@2@@Z 130ea740 f i parsertc50_static:tc50_dict.obj
 0001:00019750       ?max_size@?$_Tree@V?$_Tset_traits@PAVDictNode@TC50Dict@aggregator@tls@@Udict_node_hash@234@V?$allocator@PAVDictNode@TC50Dict@aggregator@tls@@@std@@$0A@@std@@@std@@QBEIXZ 130ea750 f i parsertc50_static:tc50_dict.obj
 0001:00019780       ?erase@?$_Tree@V?$_Tset_traits@PAVDictNode@TC50Dict@aggregator@tls@@Udict_node_hash@234@V?$allocator@PAVDictNode@TC50Dict@aggregator@tls@@@std@@$0A@@std@@@std@@QAE?AViterator@12@V312@0@Z 130ea780 f i parsertc50_static:tc50_dict.obj
 0001:000198d0       ?_Init@?$_Tree@V?$_Tset_traits@PAVDictNode@TC50Dict@aggregator@tls@@Udict_node_hash@234@V?$allocator@PAVDictNode@TC50Dict@aggregator@tls@@@std@@$0A@@std@@@std@@IAEXXZ 130ea8d0 f i parsertc50_static:tc50_dict.obj
 0001:00019950       ?_Lbound@?$_Tree@V?$_Tset_traits@PAVDictNode@TC50Dict@aggregator@tls@@Udict_node_hash@234@V?$allocator@PAVDictNode@TC50Dict@aggregator@tls@@@std@@$0A@@std@@@std@@IBEPAU_Node@?$_Tree_nod@V?$_Tset_traits@PAVDictNode@TC50Dict@aggregator@tls@@Udict_node_hash@234@V?$allocator@PAVDictNode@TC50Dict@aggregator@tls@@@std@@$0A@@std@@@2@ABQAVDictNode@TC50Dict@aggregator@tls@@@Z 130ea950 f i parsertc50_static:tc50_dict.obj
 0001:00019a10       ?_Lrotate@?$_Tree@V?$_Tset_traits@PAVDictNode@TC50Dict@aggregator@tls@@Udict_node_hash@234@V?$allocator@PAVDictNode@TC50Dict@aggregator@tls@@@std@@$0A@@std@@@std@@IAEXPAU_Node@?$_Tree_nod@V?$_Tset_traits@PAVDictNode@TC50Dict@aggregator@tls@@Udict_node_hash@234@V?$allocator@PAVDictNode@TC50Dict@aggregator@tls@@@std@@$0A@@std@@@2@@Z 130eaa10 f i parsertc50_static:tc50_dict.obj
 0001:00019b60       ?_Rrotate@?$_Tree@V?$_Tset_traits@PAVDictNode@TC50Dict@aggregator@tls@@Udict_node_hash@234@V?$allocator@PAVDictNode@TC50Dict@aggregator@tls@@@std@@$0A@@std@@@std@@IAEXPAU_Node@?$_Tree_nod@V?$_Tset_traits@PAVDictNode@TC50Dict@aggregator@tls@@Udict_node_hash@234@V?$allocator@PAVDictNode@TC50Dict@aggregator@tls@@@std@@$0A@@std@@@2@@Z 130eab60 f i parsertc50_static:tc50_dict.obj
 0001:00019cb0       ?_Buynode@?$_Tree@V?$_Tset_traits@PAVDictNode@TC50Dict@aggregator@tls@@Udict_node_hash@234@V?$allocator@PAVDictNode@TC50Dict@aggregator@tls@@@std@@$0A@@std@@@std@@IAEPAU_Node@?$_Tree_nod@V?$_Tset_traits@PAVDictNode@TC50Dict@aggregator@tls@@Udict_node_hash@234@V?$allocator@PAVDictNode@TC50Dict@aggregator@tls@@@std@@$0A@@std@@@2@PAU342@00ABQAVDictNode@TC50Dict@aggregator@tls@@D@Z 130eacb0 f i parsertc50_static:tc50_dict.obj
 0001:00019d50       ??0?$_Tree_val@V?$_Tset_traits@PAVDictNode@TC50Dict@aggregator@tls@@Udict_node_hash@234@V?$allocator@PAVDictNode@TC50Dict@aggregator@tls@@@std@@$0A@@std@@@std@@IAE@ABUdict_node_hash@TC50Dict@aggregator@tls@@V?$allocator@PAVDictNode@TC50Dict@aggregator@tls@@@1@@Z 130ead50 f i parsertc50_static:tc50_dict.obj
 0001:00019db0       ??0?$allocator@PAVDictNode@TC50Dict@aggregator@tls@@@std@@QAE@ABV01@@Z 130eadb0 f i parsertc50_static:tc50_dict.obj
 0001:00019dd0       ?deallocate@?$allocator@U_Node@?$_Tree_nod@V?$_Tset_traits@PAVDictNode@TC50Dict@aggregator@tls@@Udict_node_hash@234@V?$allocator@PAVDictNode@TC50Dict@aggregator@tls@@@std@@$0A@@std@@@std@@@std@@QAEXPAU_Node@?$_Tree_nod@V?$_Tset_traits@PAVDictNode@TC50Dict@aggregator@tls@@Udict_node_hash@234@V?$allocator@PAVDictNode@TC50Dict@aggregator@tls@@@std@@$0A@@std@@@2@I@Z 130eadd0 f i parsertc50_static:tc50_dict.obj
 0001:00019e00       ?destroy@?$allocator@U_Node@?$_Tree_nod@V?$_Tset_traits@PAVDictNode@TC50Dict@aggregator@tls@@Udict_node_hash@234@V?$allocator@PAVDictNode@TC50Dict@aggregator@tls@@@std@@$0A@@std@@@std@@@std@@QAEXPAU_Node@?$_Tree_nod@V?$_Tset_traits@PAVDictNode@TC50Dict@aggregator@tls@@Udict_node_hash@234@V?$allocator@PAVDictNode@TC50Dict@aggregator@tls@@@std@@$0A@@std@@@2@@Z 130eae00 f i parsertc50_static:tc50_dict.obj
 0001:00019e30       ?destroy@?$allocator@PAU_Node@?$_Tree_nod@V?$_Tset_traits@PAVDictNode@TC50Dict@aggregator@tls@@Udict_node_hash@234@V?$allocator@PAVDictNode@TC50Dict@aggregator@tls@@@std@@$0A@@std@@@std@@@std@@QAEXPAPAU_Node@?$_Tree_nod@V?$_Tset_traits@PAVDictNode@TC50Dict@aggregator@tls@@Udict_node_hash@234@V?$allocator@PAVDictNode@TC50Dict@aggregator@tls@@@std@@$0A@@std@@@2@@Z 130eae30 f i parsertc50_static:tc50_dict.obj
 0001:00019e60       ??0const_iterator@?$_Tree@V?$_Tset_traits@PAVDictNode@TC50Dict@aggregator@tls@@Udict_node_hash@234@V?$allocator@PAVDictNode@TC50Dict@aggregator@tls@@@std@@$0A@@std@@@std@@QAE@PAU_Node@?$_Tree_nod@V?$_Tset_traits@PAVDictNode@TC50Dict@aggregator@tls@@Udict_node_hash@234@V?$allocator@PAVDictNode@TC50Dict@aggregator@tls@@@std@@$0A@@std@@@2@PBV12@@Z 130eae60 f i parsertc50_static:tc50_dict.obj
 0001:00019ea0       ??Fconst_iterator@?$_Tree@V?$_Tset_traits@PAVDictNode@TC50Dict@aggregator@tls@@Udict_node_hash@234@V?$allocator@PAVDictNode@TC50Dict@aggregator@tls@@@std@@$0A@@std@@@std@@QAEAAV012@XZ 130eaea0 f i parsertc50_static:tc50_dict.obj
 0001:00019ed0       ?_Inc@const_iterator@?$_Tree@V?$_Tset_traits@PAVDictNode@TC50Dict@aggregator@tls@@Udict_node_hash@234@V?$allocator@PAVDictNode@TC50Dict@aggregator@tls@@@std@@$0A@@std@@@std@@QAEXXZ 130eaed0 f i parsertc50_static:tc50_dict.obj
 0001:0001a010       ?erase@?$_Tree@V?$_Tset_traits@PAVDictNode@TC50Dict@aggregator@tls@@Udict_node_hash@234@V?$allocator@PAVDictNode@TC50Dict@aggregator@tls@@@std@@$0A@@std@@@std@@QAE?AViterator@12@V312@@Z 130eb010 f i parsertc50_static:tc50_dict.obj
 0001:0001a7d0       ?_Min@?$_Tree@V?$_Tset_traits@PAVDictNode@TC50Dict@aggregator@tls@@Udict_node_hash@234@V?$allocator@PAVDictNode@TC50Dict@aggregator@tls@@@std@@$0A@@std@@@std@@KAPAU_Node@?$_Tree_nod@V?$_Tset_traits@PAVDictNode@TC50Dict@aggregator@tls@@Udict_node_hash@234@V?$allocator@PAVDictNode@TC50Dict@aggregator@tls@@@std@@$0A@@std@@@2@PAU342@@Z 130eb7d0 f i parsertc50_static:tc50_dict.obj
 0001:0001a810       ?_Buynode@?$_Tree@V?$_Tset_traits@PAVDictNode@TC50Dict@aggregator@tls@@Udict_node_hash@234@V?$allocator@PAVDictNode@TC50Dict@aggregator@tls@@@std@@$0A@@std@@@std@@IAEPAU_Node@?$_Tree_nod@V?$_Tset_traits@PAVDictNode@TC50Dict@aggregator@tls@@Udict_node_hash@234@V?$allocator@PAVDictNode@TC50Dict@aggregator@tls@@@std@@$0A@@std@@@2@XZ 130eb810 f i parsertc50_static:tc50_dict.obj
 0001:0001a950       ??0?$_Tree_ptr@V?$_Tset_traits@PAVDictNode@TC50Dict@aggregator@tls@@Udict_node_hash@234@V?$allocator@PAVDictNode@TC50Dict@aggregator@tls@@@std@@$0A@@std@@@std@@QAE@ABUdict_node_hash@TC50Dict@aggregator@tls@@V?$allocator@PAVDictNode@TC50Dict@aggregator@tls@@@1@@Z 130eb950 f i parsertc50_static:tc50_dict.obj
 0001:0001a9b0       ?max_size@?$allocator@PAVDictNode@TC50Dict@aggregator@tls@@@std@@QBEIXZ 130eb9b0 f i parsertc50_static:tc50_dict.obj
 0001:0001aa00       ?allocate@?$allocator@U_Node@?$_Tree_nod@V?$_Tset_traits@PAVDictNode@TC50Dict@aggregator@tls@@Udict_node_hash@234@V?$allocator@PAVDictNode@TC50Dict@aggregator@tls@@@std@@$0A@@std@@@std@@@std@@QAEPAU_Node@?$_Tree_nod@V?$_Tset_traits@PAVDictNode@TC50Dict@aggregator@tls@@Udict_node_hash@234@V?$allocator@PAVDictNode@TC50Dict@aggregator@tls@@@std@@$0A@@std@@@2@I@Z 130eba00 f i parsertc50_static:tc50_dict.obj
 0001:0001aa30       ??Eiterator@?$_Tree@V?$_Tset_traits@PAVDictNode@TC50Dict@aggregator@tls@@Udict_node_hash@234@V?$allocator@PAVDictNode@TC50Dict@aggregator@tls@@@std@@$0A@@std@@@std@@QAE?AV012@H@Z 130eba30 f i parsertc50_static:tc50_dict.obj
 0001:0001aac0       ?_Dec@const_iterator@?$_Tree@V?$_Tset_traits@PAVDictNode@TC50Dict@aggregator@tls@@Udict_node_hash@234@V?$allocator@PAVDictNode@TC50Dict@aggregator@tls@@@std@@$0A@@std@@@std@@QAEXXZ 130ebac0 f i parsertc50_static:tc50_dict.obj
 0001:0001ad00       ??0_Node@?$_Tree_nod@V?$_Tset_traits@PAVDictNode@TC50Dict@aggregator@tls@@Udict_node_hash@234@V?$allocator@PAVDictNode@TC50Dict@aggregator@tls@@@std@@$0A@@std@@@std@@QAE@PAU012@00ABQAVDictNode@TC50Dict@aggregator@tls@@D@Z 130ebd00 f i parsertc50_static:tc50_dict.obj
 0001:0001ad50       ?_Max@?$_Tree@V?$_Tset_traits@PAVDictNode@TC50Dict@aggregator@tls@@Udict_node_hash@234@V?$allocator@PAVDictNode@TC50Dict@aggregator@tls@@@std@@$0A@@std@@@std@@KAPAU_Node@?$_Tree_nod@V?$_Tset_traits@PAVDictNode@TC50Dict@aggregator@tls@@Udict_node_hash@234@V?$allocator@PAVDictNode@TC50Dict@aggregator@tls@@@std@@$0A@@std@@@2@PAU342@@Z 130ebd50 f i parsertc50_static:tc50_dict.obj
 0001:0001ad90       ??0?$_Tree_nod@V?$_Tset_traits@PAVDictNode@TC50Dict@aggregator@tls@@Udict_node_hash@234@V?$allocator@PAVDictNode@TC50Dict@aggregator@tls@@@std@@$0A@@std@@@std@@IAE@ABUdict_node_hash@TC50Dict@aggregator@tls@@V?$allocator@PAVDictNode@TC50Dict@aggregator@tls@@@1@@Z 130ebd90 f i parsertc50_static:tc50_dict.obj
 0001:0001add0       ?construct@?$allocator@PAU_Node@?$_Tree_nod@V?$_Tset_traits@PAVDictNode@TC50Dict@aggregator@tls@@Udict_node_hash@234@V?$allocator@PAVDictNode@TC50Dict@aggregator@tls@@@std@@$0A@@std@@@std@@@std@@QAEXPAPAU_Node@?$_Tree_nod@V?$_Tset_traits@PAVDictNode@TC50Dict@aggregator@tls@@Udict_node_hash@234@V?$allocator@PAVDictNode@TC50Dict@aggregator@tls@@@std@@$0A@@std@@@2@ABQAU342@@Z 130ebdd0 f i parsertc50_static:tc50_dict.obj
 0001:0001ae00       ??0?$_Tset_traits@PAVDictNode@TC50Dict@aggregator@tls@@Udict_node_hash@234@V?$allocator@PAVDictNode@TC50Dict@aggregator@tls@@@std@@$0A@@std@@QAE@Udict_node_hash@TC50Dict@aggregator@tls@@@Z 130ebe00 f i parsertc50_static:tc50_dict.obj
 0001:0001ae30       ??$_snprintf_s@$0BAE@@@YAHAAY0BAE@DIPBDZZ 130ebe30 f i parsertc50_static:tc50_dict.obj
 0001:0001ae70       ??$_Debug_lt_pred@Udict_node_hash@TC50Dict@aggregator@tls@@PAVDictNode@234@PAV5234@@std@@YA_NUdict_node_hash@TC50Dict@aggregator@tls@@ABQAVDictNode@234@1PB_WI@Z 130ebe70 f i parsertc50_static:tc50_dict.obj
 0001:0001aed0       ??Rdict_node_hash@TC50Dict@aggregator@tls@@QBE_NPBVDictNode@123@0@Z 130ebed0 f i parsertc50_static:tc50_dict.obj
 0001:0001af80       ?GetHashValue@DictNode@TC50Dict@aggregator@tls@@QBEIXZ 130ebf80 f i parsertc50_static:tc50_dict.obj
 0001:0001afa0       ?GetFileTime@DictNode@TC50Dict@aggregator@tls@@QBE_KXZ 130ebfa0 f i parsertc50_static:tc50_dict.obj
 0001:0001afc0       ??$_Destroy@U_Node@?$_Tree_nod@V?$_Tset_traits@PAVDictNode@TC50Dict@aggregator@tls@@Udict_node_hash@234@V?$allocator@PAVDictNode@TC50Dict@aggregator@tls@@@std@@$0A@@std@@@std@@@std@@YAXPAU_Node@?$_Tree_nod@V?$_Tset_traits@PAVDictNode@TC50Dict@aggregator@tls@@Udict_node_hash@234@V?$allocator@PAVDictNode@TC50Dict@aggregator@tls@@@std@@$0A@@std@@@0@@Z 130ebfc0 f i parsertc50_static:tc50_dict.obj
 0001:0001afd0       ??$_Destroy@PAU_Node@?$_Tree_nod@V?$_Tset_traits@PAVDictNode@TC50Dict@aggregator@tls@@Udict_node_hash@234@V?$allocator@PAVDictNode@TC50Dict@aggregator@tls@@@std@@$0A@@std@@@std@@@std@@YAXPAPAU_Node@?$_Tree_nod@V?$_Tset_traits@PAVDictNode@TC50Dict@aggregator@tls@@Udict_node_hash@234@V?$allocator@PAVDictNode@TC50Dict@aggregator@tls@@@std@@$0A@@std@@@0@@Z 130ebfd0 f i parsertc50_static:tc50_dict.obj
 0001:0001afe0       ??$swap@D@std@@YAXAAD0@Z   130ebfe0 f i parsertc50_static:tc50_dict.obj
 0001:0001b010       ??$?0PAVDictNode@TC50Dict@aggregator@tls@@@?$allocator@PAU_Node@?$_Tree_nod@V?$_Tset_traits@PAVDictNode@TC50Dict@aggregator@tls@@Udict_node_hash@234@V?$allocator@PAVDictNode@TC50Dict@aggregator@tls@@@std@@$0A@@std@@@std@@@std@@QAE@ABV?$allocator@PAVDictNode@TC50Dict@aggregator@tls@@@1@@Z 130ec010 f i parsertc50_static:tc50_dict.obj
 0001:0001b030       ??$_Allocate@U_Node@?$_Tree_nod@V?$_Tset_traits@PAVDictNode@TC50Dict@aggregator@tls@@Udict_node_hash@234@V?$allocator@PAVDictNode@TC50Dict@aggregator@tls@@@std@@$0A@@std@@@std@@@std@@YAPAU_Node@?$_Tree_nod@V?$_Tset_traits@PAVDictNode@TC50Dict@aggregator@tls@@Udict_node_hash@234@V?$allocator@PAVDictNode@TC50Dict@aggregator@tls@@@std@@$0A@@std@@@0@IPAU120@@Z 130ec030 f i parsertc50_static:tc50_dict.obj
 0001:0001b0a0       ??$?0PAVDictNode@TC50Dict@aggregator@tls@@@?$allocator@U_Node@?$_Tree_nod@V?$_Tset_traits@PAVDictNode@TC50Dict@aggregator@tls@@Udict_node_hash@234@V?$allocator@PAVDictNode@TC50Dict@aggregator@tls@@@std@@$0A@@std@@@std@@@std@@QAE@ABV?$allocator@PAVDictNode@TC50Dict@aggregator@tls@@@1@@Z 130ec0a0 f i parsertc50_static:tc50_dict.obj
 0001:0001b0c0       ??$_Construct@PAU_Node@?$_Tree_nod@V?$_Tset_traits@PAVDictNode@TC50Dict@aggregator@tls@@Udict_node_hash@234@V?$allocator@PAVDictNode@TC50Dict@aggregator@tls@@@std@@$0A@@std@@@std@@PAU123@@std@@YAXPAPAU_Node@?$_Tree_nod@V?$_Tset_traits@PAVDictNode@TC50Dict@aggregator@tls@@Udict_node_hash@234@V?$allocator@PAVDictNode@TC50Dict@aggregator@tls@@@std@@$0A@@std@@@0@ABQAU120@@Z 130ec0c0 f i parsertc50_static:tc50_dict.obj
 0001:0001b120       ??0_Init_locks@std@@QAE@XZ 130ec120 f   libcpmtd:xlock.obj
 0001:0001b170       ??1_Init_locks@std@@QAE@XZ 130ec170 f   libcpmtd:xlock.obj
 0001:0001b1c0       ?_Init_locks_ctor@_Init_locks@std@@CAXPAV12@@Z 130ec1c0 f   libcpmtd:xlock.obj
 0001:0001b210       ?_Init_locks_dtor@_Init_locks@std@@CAXPAV12@@Z 130ec210 f   libcpmtd:xlock.obj
 0001:0001b260       ??0_Lockit@std@@QAE@XZ     130ec260 f   libcpmtd:xlock.obj
 0001:0001b290       ??0_Lockit@std@@QAE@H@Z    130ec290 f   libcpmtd:xlock.obj
 0001:0001b2d0       ??1_Lockit@std@@QAE@XZ     130ec2d0 f   libcpmtd:xlock.obj
 0001:0001b300       ?_Lockit_ctor@_Lockit@std@@CAXPAV12@@Z 130ec300 f   libcpmtd:xlock.obj
 0001:0001b320       ?_Lockit_ctor@_Lockit@std@@CAXPAV12@H@Z 130ec320 f   libcpmtd:xlock.obj
 0001:0001b350       ?_Lockit_dtor@_Lockit@std@@CAXPAV12@@Z 130ec350 f   libcpmtd:xlock.obj
 0001:0001b370       ?_Lockit_ctor@_Lockit@std@@SAXH@Z 130ec370 f   libcpmtd:xlock.obj
 0001:0001b390       ?_Lockit_dtor@_Lockit@std@@SAXH@Z 130ec390 f   libcpmtd:xlock.obj
 0001:0001b3b0       ?_Debug_message@std@@YAXPBD0@Z 130ec3b0 f   libcpmtd:stdthrow.obj
 0001:0001b420       ?_Debug_message@std@@YAXPB_W0I@Z 130ec420 f   libcpmtd:stdthrow.obj
 0001:0001b450       ?_Debug_message@std@@YAXPBG0I@Z 130ec450 f   libcpmtd:stdthrow.obj
 0001:0001b470       ?_Throw@std@@YAXABVexception@stdext@@@Z 130ec470 f   libcpmtd:stdthrow.obj
 0001:0001b490       ?_Xlen@_String_base@std@@SAXXZ 130ec490 f   libcpmtd:string.obj
 0001:0001b510       ??0logic_error@std@@QAE@ABV01@@Z 130ec510 f i libcpmtd:string.obj
 0001:0001b580       ??0length_error@std@@QAE@ABV01@@Z 130ec580 f i libcpmtd:string.obj
 0001:0001b5b0       ?_Xran@_String_base@std@@SAXXZ 130ec5b0 f   libcpmtd:string.obj
 0001:0001b630       ??0out_of_range@std@@QAE@ABV?$basic_string@DU?$char_traits@D@std@@V?$allocator@D@2@@1@@Z 130ec630 f i libcpmtd:string.obj
 0001:0001b660       ??1out_of_range@std@@UAE@XZ 130ec660 f i libcpmtd:string.obj
 0001:0001b680       ??_Eout_of_range@std@@UAEPAXI@Z 130ec680 f i libcpmtd:string.obj
 0001:0001b680       ??_Gout_of_range@std@@UAEPAXI@Z 130ec680 f i libcpmtd:string.obj
 0001:0001b6b0       ??0out_of_range@std@@QAE@ABV01@@Z 130ec6b0 f i libcpmtd:string.obj
 0001:0001b6e0       ?_Xinvarg@_String_base@std@@SAXXZ 130ec6e0 f   libcpmtd:string.obj
 0001:0001b760       ??0invalid_argument@std@@QAE@ABV?$basic_string@DU?$char_traits@D@std@@V?$allocator@D@2@@1@@Z 130ec760 f i libcpmtd:string.obj
 0001:0001b790       ??1invalid_argument@std@@UAE@XZ 130ec790 f i libcpmtd:string.obj
 0001:0001b7b0       ??_Einvalid_argument@std@@UAEPAXI@Z 130ec7b0 f i libcpmtd:string.obj
 0001:0001b7b0       ??_Ginvalid_argument@std@@UAEPAXI@Z 130ec7b0 f i libcpmtd:string.obj
 0001:0001b7e0       ??0invalid_argument@std@@QAE@ABV01@@Z 130ec7e0 f i libcpmtd:string.obj
 0001:0001b810       ?allocate@?$_DebugHeapAllocator@D@std@@QAAPADIPBX@Z 130ec810 f i libcpmtd:string.obj
 0001:0001b870       ??0bad_alloc@std@@QAE@PBD@Z 130ec870 f i libcpmtd:string.obj
 0001:0001b8a0       ??1bad_alloc@std@@UAE@XZ   130ec8a0 f i libcpmtd:string.obj
 0001:0001b8c0       ??_Gbad_alloc@std@@UAEPAXI@Z 130ec8c0 f i libcpmtd:string.obj
 0001:0001b8c0       ??_Ebad_alloc@std@@UAEPAXI@Z 130ec8c0 f i libcpmtd:string.obj
 0001:0001b8f0       ?allocate@?$_DebugHeapAllocator@D@std@@QAEPADI@Z 130ec8f0 f i libcpmtd:string.obj
 0001:0001b960       ?deallocate@?$_DebugHeapAllocator@D@std@@QAEXPADI@Z 130ec960 f i libcpmtd:string.obj
 0001:0001b980       ??0bad_alloc@std@@QAE@ABV01@@Z 130ec980 f i libcpmtd:string.obj
 0001:0001b9b0       ??0?$_DebugHeapAllocator@D@std@@QAE@XZ 130ec9b0 f i libcpmtd:string.obj
 0001:0001b9d0       ??0?$_DebugHeapAllocator@D@std@@QAE@ABV01@@Z 130ec9d0 f i libcpmtd:string.obj
 0001:0001b9f0       ??$_DebugHeapDelete@X@std@@YAXPAX@Z 130ec9f0 f i libcpmtd:string.obj
 0001:0001ba10       __Once                     130eca10 f   libcpmtd:xmtx.obj
 0001:0001ba70       __Mtxinit                  130eca70 f   libcpmtd:xmtx.obj
 0001:0001ba80       __Mtxdst                   130eca80 f   libcpmtd:xmtx.obj
 0001:0001ba90       __Mtxlock                  130eca90 f   libcpmtd:xmtx.obj
 0001:0001baa0       __Mtxunlock                130ecaa0 f   libcpmtd:xmtx.obj
 0001:0001bab0       ??2@YAPAXIABU_DebugHeapTag_t@std@@PADH@Z 130ecab0 f   libcpmtd:xdebug.obj
 0001:0001bb30       ??0bad_alloc@std@@QAE@XZ   130ecb30 f i libcpmtd:xdebug.obj
 0001:0001bb60       ??_U@YAPAXIABU_DebugHeapTag_t@std@@PADH@Z 130ecb60 f   libcpmtd:xdebug.obj
 0001:0001bb80       ??3@YAXPAXABU_DebugHeapTag_t@std@@PADH@Z 130ecb80 f   libcpmtd:xdebug.obj
 0001:0001bba0       ??_V@YAXPAXABU_DebugHeapTag_t@std@@PADH@Z 130ecba0 f   libcpmtd:xdebug.obj
 0001:0001bbc0       ?_DebugHeapTag_func@std@@YAABU_DebugHeapTag_t@1@XZ 130ecbc0 f   libcpmtd:xdebug.obj
 0001:0001bbd0       __RTC_CheckEsp             130ecbd0 f   LIBCMTD:stack.obj
 0001:0001bc00       @_RTC_CheckStackVars@8     130ecc00 f   LIBCMTD:stack.obj
 0001:0001bc60       @_RTC_AllocaHelper@12      130ecc60 f   LIBCMTD:stack.obj
 0001:0001bc90       @_RTC_CheckStackVars2@12   130ecc90 f   LIBCMTD:stack.obj
 0001:0001bd70       __RTC_InitBase             130ecd70 f   LIBCMTD:init.obj
 0001:0001bda0       __RTC_Shutdown             130ecda0 f   LIBCMTD:init.obj
 0001:0001bdc0       ??3@YAXPAX@Z               130ecdc0 f   LIBCMTD:dbgdel.obj
 0001:0001beb0       __wassert                  130eceb0 f   LIBCMTD:wassert.obj
 0001:0001cc50       __invoke_watson_if_error   130edc50 f i LIBCMTD:wassert.obj
 0001:0001cc80       __invoke_watson_if_oneof   130edc80 f i LIBCMTD:wassert.obj
 0001:0001cd00       __purecall                 130edd00 f   LIBCMTD:purevirt.obj
 0001:0001cd40       __set_purecall_handler     130edd40 f   LIBCMTD:purevirt.obj
 0001:0001cd80       __get_purecall_handler     130edd80 f   LIBCMTD:purevirt.obj
 0001:0001cda0       ??2@YAPAXI@Z               130edda0 f   LIBCMTD:new.obj
 0001:0001ce20       _strcmp                    130ede20 f   LIBCMTD:strcmp.obj
 0001:0001ceb0       __CRT_INIT@12              130edeb0 f   LIBCMTD:dllcrt0.obj
 0001:0001d190       __set_osplatform           130ee190 f i LIBCMTD:dllcrt0.obj
 0001:0001d1a0       __set_osver                130ee1a0 f i LIBCMTD:dllcrt0.obj
 0001:0001d1b0       __set_winver               130ee1b0 f i LIBCMTD:dllcrt0.obj
 0001:0001d1c0       __set_winmajor             130ee1c0 f i LIBCMTD:dllcrt0.obj
 0001:0001d1d0       __set_winminor             130ee1d0 f i LIBCMTD:dllcrt0.obj
 0001:0001d1e0       __DllMainCRTStartup@12     130ee1e0 f   LIBCMTD:dllcrt0.obj
 0001:0001d3c0       _strcpy_s                  130ee3c0 f   LIBCMTD:strcpy_s.obj
 0001:0001d6a0       _sprintf                   130ee6a0 f   LIBCMTD:sprintf.obj
 0001:0001d820       __sprintf_l                130ee820 f   LIBCMTD:sprintf.obj
 0001:0001d850       _sprintf_s                 130ee850 f   LIBCMTD:sprintf.obj
 0001:0001d880       __sprintf_s_l              130ee880 f   LIBCMTD:sprintf.obj
 0001:0001d8b0       __snprintf_s               130ee8b0 f   LIBCMTD:sprintf.obj
 0001:0001d8e0       __snprintf_s_l             130ee8e0 f   LIBCMTD:sprintf.obj
 0001:0001d910       __sprintf_p                130ee910 f   LIBCMTD:sprintf.obj
 0001:0001d940       __sprintf_p_l              130ee940 f   LIBCMTD:sprintf.obj
 0001:0001d970       __scprintf                 130ee970 f   LIBCMTD:sprintf.obj
 0001:0001d990       __scprintf_p               130ee990 f   LIBCMTD:sprintf.obj
 0001:0001d9b0       __scprintf_l               130ee9b0 f   LIBCMTD:sprintf.obj
 0001:0001d9e0       __scprintf_p_l             130ee9e0 f   LIBCMTD:sprintf.obj
 0001:0001da10       _memset                    130eea10 f   LIBCMTD:memset.obj
 0001:0001da90       _memcpy_s                  130eea90 f   LIBCMTD:memcpy_s.obj
 0001:0001dc20       _strnlen                   130eec20 f   LIBCMTD:strlen_s.obj
 0001:0001dc60       _memchr                    130eec60 f   LIBCMTD:memchr.obj
 0001:0001dd10       @__security_check_cookie@4 130eed10 f   LIBCMTD:secchk.obj
 0001:0001dd20       __alloca_probe             130eed20     LIBCMTD:chkstk.obj
 0001:0001dd20       __chkstk                   130eed20 f   LIBCMTD:chkstk.obj
 0001:0001dd50       __aulldiv                  130eed50 f   LIBCMTD:ulldiv.obj
 0001:0001ddc0       _strlen                    130eedc0 f   LIBCMTD:strlen.obj
 0001:0001de50       _malloc                    130eee50 f   LIBCMTD:dbgheap.obj
 0001:0001de80       __malloc_dbg               130eee80 f   LIBCMTD:dbgheap.obj
 0001:0001deb0       __nh_malloc                130eeeb0 f   LIBCMTD:dbgheap.obj
 0001:0001ded0       __nh_malloc_dbg            130eeed0 f   LIBCMTD:dbgheap.obj
 0001:0001df40       __heap_alloc               130eef40 f   LIBCMTD:dbgheap.obj
 0001:0001df60       __heap_alloc_dbg           130eef60 f   LIBCMTD:dbgheap.obj
 0001:0001e300       _calloc                    130ef300 f   LIBCMTD:dbgheap.obj
 0001:0001e330       __calloc_dbg               130ef330 f   LIBCMTD:dbgheap.obj
 0001:0001e3f0       _realloc                   130ef3f0 f   LIBCMTD:dbgheap.obj
 0001:0001e420       __recalloc                 130ef420 f   LIBCMTD:dbgheap.obj
 0001:0001e450       __realloc_dbg              130ef450 f   LIBCMTD:dbgheap.obj
 0001:0001ea80       __recalloc_dbg             130efa80 f   LIBCMTD:dbgheap.obj
 0001:0001eb80       __expand                   130efb80 f   LIBCMTD:dbgheap.obj
 0001:0001ebb0       __expand_dbg               130efbb0 f   LIBCMTD:dbgheap.obj
 0001:0001ecc0       _free                      130efcc0 f   LIBCMTD:dbgheap.obj
 0001:0001ece0       __free_nolock              130efce0 f   LIBCMTD:dbgheap.obj
 0001:0001ed00       __free_dbg                 130efd00 f   LIBCMTD:dbgheap.obj
 0001:0001ed80       __free_dbg_nolock          130efd80 f   LIBCMTD:dbgheap.obj
 0001:0001f260       __msize                    130f0260 f   LIBCMTD:dbgheap.obj
 0001:0001f280       __msize_dbg                130f0280 f   LIBCMTD:dbgheap.obj
 0001:0001f470       __CrtSetBreakAlloc         130f0470 f   LIBCMTD:dbgheap.obj
 0001:0001f490       __CrtSetDbgBlockType       130f0490 f   LIBCMTD:dbgheap.obj
 0001:0001f580       __CrtSetAllocHook          130f0580 f   LIBCMTD:dbgheap.obj
 0001:0001f5a0       __CrtGetAllocHook          130f05a0 f   LIBCMTD:dbgheap.obj
 0001:0001f600       __CrtCheckMemory           130f0600 f   LIBCMTD:dbgheap.obj
 0001:0001fa50       __CrtSetDbgFlag            130f0a50 f   LIBCMTD:dbgheap.obj
 0001:0001fba0       __CrtDoForAllClientObjects 130f0ba0 f   LIBCMTD:dbgheap.obj
 0001:0001fcc0       __CrtIsValidPointer        130f0cc0 f   LIBCMTD:dbgheap.obj
 0001:0001fcd0       __CrtIsValidHeapPointer    130f0cd0 f   LIBCMTD:dbgheap.obj
 0001:0001fdc0       __CrtIsMemoryBlock         130f0dc0 f   LIBCMTD:dbgheap.obj
 0001:0001ff30       __CrtReportBlockType       130f0f30 f   LIBCMTD:dbgheap.obj
 0001:0001ff60       __CrtSetDumpClient         130f0f60 f   LIBCMTD:dbgheap.obj
 0001:0001ff80       __CrtGetDumpClient         130f0f80 f   LIBCMTD:dbgheap.obj
 0001:0001ff90       __CrtMemCheckpoint         130f0f90 f   LIBCMTD:dbgheap.obj
 0001:000201b0       __CrtMemDifference         130f11b0 f   LIBCMTD:dbgheap.obj
 0001:000203d0       __CrtMemDumpAllObjectsSince 130f13d0 f   LIBCMTD:dbgheap.obj
 0001:00020410       ??0_LocaleUpdate@@QAE@PAUlocaleinfo_struct@@@Z 130f1410 f i LIBCMTD:dbgheap.obj
 0001:000204f0       ??1_LocaleUpdate@@QAE@XZ   130f14f0 f i LIBCMTD:dbgheap.obj
 0001:00020520       ?GetLocaleT@_LocaleUpdate@@QAEPAUlocaleinfo_struct@@XZ 130f1520 f i LIBCMTD:dbgheap.obj
 0001:000209e0       __CrtDumpMemoryLeaks       130f19e0 f   LIBCMTD:dbgheap.obj
 0001:00020a50       __CrtMemDumpStatistics     130f1a50 f   LIBCMTD:dbgheap.obj
 0001:00020b60       __aligned_malloc           130f1b60 f   LIBCMTD:dbgheap.obj
 0001:00020b80       __aligned_malloc_dbg       130f1b80 f   LIBCMTD:dbgheap.obj
 0001:00020ba0       __aligned_realloc          130f1ba0 f   LIBCMTD:dbgheap.obj
 0001:00020bc0       __aligned_recalloc         130f1bc0 f   LIBCMTD:dbgheap.obj
 0001:00020bf0       __aligned_realloc_dbg      130f1bf0 f   LIBCMTD:dbgheap.obj
 0001:00020c20       __aligned_recalloc_dbg     130f1c20 f   LIBCMTD:dbgheap.obj
 0001:00020c50       __aligned_offset_malloc    130f1c50 f   LIBCMTD:dbgheap.obj
 0001:00020c70       __aligned_offset_malloc_dbg 130f1c70 f   LIBCMTD:dbgheap.obj
 0001:00020e10       __aligned_offset_realloc   130f1e10 f   LIBCMTD:dbgheap.obj
 0001:00020e40       __aligned_offset_recalloc  130f1e40 f   LIBCMTD:dbgheap.obj
 0001:00020e70       __aligned_offset_realloc_dbg 130f1e70 f   LIBCMTD:dbgheap.obj
 0001:00021140       __aligned_offset_recalloc_dbg 130f2140 f   LIBCMTD:dbgheap.obj
 0001:00021250       __aligned_free             130f2250 f   LIBCMTD:dbgheap.obj
 0001:00021270       __aligned_free_dbg         130f2270 f   LIBCMTD:dbgheap.obj
 0001:00021320       __CrtSetDebugFillThreshold 130f2320 f   LIBCMTD:dbgheap.obj
 0001:00021340       __CrtSetCheckCount         130f2340 f   LIBCMTD:dbgheap.obj
 0001:00021360       __CrtGetCheckCount         130f2360 f   LIBCMTD:dbgheap.obj
 0001:00021370       __aligned_msize            130f2370 f   LIBCMTD:dbgheap.obj
 0001:00021390       __aligned_msize_dbg        130f2390 f   LIBCMTD:dbgheap.obj
 0001:000214a0       _atol                      130f24a0 f   LIBCMTD:atox.obj
 0001:000214c0       __atol_l                   130f24c0 f   LIBCMTD:atox.obj
 0001:000214e0       _atoi                      130f24e0 f   LIBCMTD:atox.obj
 0001:00021500       __atoi_l                   130f2500 f   LIBCMTD:atox.obj
 0001:00021520       __atoi64                   130f2520 f   LIBCMTD:atox.obj
 0001:00021540       __atoi64_l                 130f2540 f   LIBCMTD:atox.obj
 0001:00021560       __itoa_s                   130f2560 f   LIBCMTD:xtoas.obj
 0001:00021920       __ltoa_s                   130f2920 f   LIBCMTD:xtoas.obj
 0001:00021960       __ultoa_s                  130f2960 f   LIBCMTD:xtoas.obj
 0001:00021980       __i64toa_s                 130f2980 f   LIBCMTD:xtoas.obj
 0001:00021d80       __ui64toa_s                130f2d80 f   LIBCMTD:xtoas.obj
 0001:00021da0       __aullrem                  130f2da0 f   LIBCMTD:ullrem.obj
 0001:00021e20       __initp_misc_invarg        130f2e20 f   LIBCMTD:invarg.obj
 0001:00021e30       __invalid_parameter        130f2e30 f   LIBCMTD:invarg.obj
 0001:00021ea0       __invoke_watson            130f2ea0 f   LIBCMTD:invarg.obj
 0001:00021fe0       __set_invalid_parameter_handler 130f2fe0 f   LIBCMTD:invarg.obj
 0001:00022020       __get_invalid_parameter_handler 130f3020 f   LIBCMTD:invarg.obj
 0001:00022050       ?_invalid_parameter@@YAXPBG00II@Z 130f3050 f   LIBCMTD:invarg.obj
 0001:00022080       ?_invoke_watson@@YAXPBG00II@Z 130f3080 f   LIBCMTD:invarg.obj
 0001:000220b0       __CrtSetReportHookW2       130f30b0 f   LIBCMTD:dbgrptw.obj
 0001:000223d0       __CrtDbgReportW            130f33d0 f   LIBCMTD:dbgrptw.obj
 0001:00022410       __CrtDbgReportWV           130f3410 f i LIBCMTD:dbgrptw.obj
 0001:00022750       ___crtMessageWindowW       130f3750 f   LIBCMTD:dbgrptw.obj
 0001:00022b50       ?_CrtDbgReportW@@YAHHPBGH00ZZ 130f3b50 f   LIBCMTD:dbgrptw.obj
 0001:00022b90       _ldiv                      130f3b90 f   LIBCMTD:ldiv.obj
 0001:00022be0       _memmove_s                 130f3be0 f   LIBCMTD:memmove_s.obj
 0001:00022d40       _strncmp                   130f3d40 f   LIBCMTD:strncmp.obj
 0001:00022eb0       __snscanf                  130f3eb0 f   LIBCMTD:snscanf.obj
 0001:00023010       __snscanf_l                130f4010 f   LIBCMTD:snscanf.obj
 0001:00023040       __snscanf_s                130f4040 f   LIBCMTD:snscanf.obj
 0001:00023070       __snscanf_s_l              130f4070 f   LIBCMTD:snscanf.obj
 0001:000230a0       __vsnprintf_helper         130f40a0 f   LIBCMTD:vsnprnc.obj
 0001:00023270       __vsnprintf_c              130f4270 f   LIBCMTD:vsnprnc.obj
 0001:000232c0       __vsnprintf_c_l            130f42c0 f   LIBCMTD:vsnprnc.obj
 0001:00023310       __vsprintf_s_l             130f4310 f   LIBCMTD:vsnprnc.obj
 0001:00023570       _vsprintf_s                130f4570 f   LIBCMTD:vsnprnc.obj
 0001:00023590       __vsnprintf_s_l            130f4590 f   LIBCMTD:vsnprnc.obj
 0001:00023930       __vsnprintf_s              130f4930 f   LIBCMTD:vsnprnc.obj
 0001:00023960       __vsprintf_p               130f4960 f   LIBCMTD:vsnprnc.obj
 0001:000239b0       __vsprintf_p_l             130f49b0 f   LIBCMTD:vsnprnc.obj
 0001:00023a00       __onexit                   130f4a00 f   LIBCMTD:onexit.obj
 0001:00023bd0       _atexit                    130f4bd0 f   LIBCMTD:onexit.obj
 0001:00023bf0       ___onexitinit              130f4bf0 f   LIBCMTD:onexit.obj
 0001:00023c50       _abort                     130f4c50 f   LIBCMTD:abort.obj
 0001:00023d90       __set_abort_behavior       130f4d90 f   LIBCMTD:abort.obj
 0001:00023dc0       _fputs                     130f4dc0 f   LIBCMTD:fputs.obj
 0001:000240a0       ___iob_func                130f50a0 f   LIBCMTD:_file.obj
 0001:000240b0       ___initstdio               130f50b0 f   LIBCMTD:_file.obj
 0001:00024200       ___endstdio                130f5200 f   LIBCMTD:_file.obj
 0001:00024230       __lock_file                130f5230 f   LIBCMTD:_file.obj
 0001:00024280       __lock_file2               130f5280 f   LIBCMTD:_file.obj
 0001:000242c0       __unlock_file              130f52c0 f   LIBCMTD:_file.obj
 0001:00024310       __unlock_file2             130f5310 f   LIBCMTD:_file.obj
 0001:00024350       _fflush                    130f5350 f   LIBCMTD:fflush.obj
 0001:000243f0       __fflush_nolock            130f53f0 f   LIBCMTD:fflush.obj
 0001:00024450       __flush                    130f5450 f   LIBCMTD:fflush.obj
 0001:00024510       __flushall                 130f5510 f   LIBCMTD:fflush.obj
 0001:000246c0       ?_JumpToContinuation@@YGXPAXPAUEHRegistrationNode@@@Z 130f56c0 f   LIBCMTD:trnsctrl.obj
 0001:00024700       ?_CallMemberFunction0@@YGXPAX0@Z 130f5700 f   LIBCMTD:trnsctrl.obj
 0001:00024710       ?_CallMemberFunction1@@YGXPAX00@Z 130f5710 f   LIBCMTD:trnsctrl.obj
 0001:00024720       ?_CallMemberFunction2@@YGXPAX00H@Z 130f5720 f   LIBCMTD:trnsctrl.obj
 0001:00024730       ?_UnwindNestedFrames@@YGXPAUEHRegistrationNode@@PAUEHExceptionRecord@@@Z 130f5730 f   LIBCMTD:trnsctrl.obj
 0001:00024790       ___CxxFrameHandler         130f5790 f   LIBCMTD:trnsctrl.obj
 0001:000247d0       ___CxxFrameHandler3        130f57d0 f   LIBCMTD:trnsctrl.obj
 0001:00024810       ___CxxFrameHandler2        130f5810 f   LIBCMTD:trnsctrl.obj
 0001:00024850       ___CxxLongjmpUnwind@4      130f5850 f   LIBCMTD:trnsctrl.obj
 0001:00024880       ?_CallCatchBlock2@@YAPAXPAUEHRegistrationNode@@PBU_s_FuncInfo@@PAXHK@Z 130f5880 f   LIBCMTD:trnsctrl.obj
 0001:00024940       ?_CallSETranslator@@YAHPAUEHExceptionRecord@@PAUEHRegistrationNode@@PAX2PBU_s_FuncInfo@@H1@Z 130f5940 f   LIBCMTD:trnsctrl.obj
 0001:00024ae0       ?_GetRangeOfTrysToCheck@@YAPBU_s_TryBlockMapEntry@@PBU_s_FuncInfo@@HHPAI1@Z 130f5ae0 f   LIBCMTD:trnsctrl.obj
 0001:00024b70       __CreateFrameInfo          130f5b70 f   LIBCMTD:trnsctrl.obj
 0001:00024ba0       __IsExceptionObjectToBeDestroyed 130f5ba0 f   LIBCMTD:trnsctrl.obj
 0001:00024bd0       __FindAndUnlinkFrame       130f5bd0 f   LIBCMTD:trnsctrl.obj
 0001:00024c30       __CxxThrowException@8      130f5c30 f   LIBCMTD:throw.obj
 0001:00024c90       ?name@type_info@@QBEPBDPAU__type_info_node@@@Z 130f5c90 f   LIBCMTD:typinfo.obj
 0001:00024cb0       ??1type_info@@UAE@XZ       130f5cb0 f   LIBCMTD:typinfo.obj
 0001:00024cd0       ??_Gtype_info@@UAEPAXI@Z   130f5cd0 f i LIBCMTD:typinfo.obj
 0001:00024cd0       ??_Etype_info@@UAEPAXI@Z   130f5cd0 f i LIBCMTD:typinfo.obj
 0001:00024d00       ?_name_internal_method@type_info@@QBEPBDPAU__type_info_node@@@Z 130f5d00 f   LIBCMTD:typinfo.obj
 0001:00024d20       ?_type_info_dtor_internal_method@type_info@@QAEXXZ 130f5d20 f   LIBCMTD:typinfo.obj
 0001:00024d40       ??8type_info@@QBE_NABV0@@Z 130f5d40 f   LIBCMTD:typinfo.obj
 0001:00024d70       ??9type_info@@QBE_NABV0@@Z 130f5d70 f   LIBCMTD:typinfo.obj
 0001:00024da0       ?before@type_info@@QBEHABV1@@Z 130f5da0 f   LIBCMTD:typinfo.obj
 0001:00024dd0       ?raw_name@type_info@@QBEPBDXZ 130f5dd0 f   LIBCMTD:typinfo.obj
 0001:00024df0       ??0type_info@@AAE@ABV0@@Z  130f5df0 f   LIBCMTD:typinfo.obj
 0001:00024e10       ??4type_info@@AAEAAV0@ABV0@@Z 130f5e10 f   LIBCMTD:typinfo.obj
 0001:00024e20       ??0exception@std@@QAE@XZ   130f5e20 f   LIBCMTD:stdexcpt.obj
 0001:00024e50       ??_Eexception@std@@UAEPAXI@Z 130f5e50 f i LIBCMTD:stdexcpt.obj
 0001:00024e50       ??_Gexception@std@@UAEPAXI@Z 130f5e50 f i LIBCMTD:stdexcpt.obj
 0001:00024e80       ??0exception@std@@QAE@ABQBD@Z 130f5e80 f   LIBCMTD:stdexcpt.obj
 0001:00024f10       ??0exception@std@@QAE@ABQBDH@Z 130f5f10 f   LIBCMTD:stdexcpt.obj
 0001:00024f40       ??0exception@std@@QAE@ABV01@@Z 130f5f40 f   LIBCMTD:stdexcpt.obj
 0001:00024fe0       ??4exception@std@@QAEAAV01@ABV01@@Z 130f5fe0 f   LIBCMTD:stdexcpt.obj
 0001:00025080       ??1exception@std@@UAE@XZ   130f6080 f   LIBCMTD:stdexcpt.obj
 0001:000250b0       ?what@exception@std@@UBEPBDXZ 130f60b0 f   LIBCMTD:stdexcpt.obj
 0001:000250e0       ??0bad_cast@std@@QAE@PBD@Z 130f60e0 f   LIBCMTD:stdexcpt.obj
 0001:00025110       ??_Gbad_cast@std@@UAEPAXI@Z 130f6110 f i LIBCMTD:stdexcpt.obj
 0001:00025110       ??_Ebad_cast@std@@UAEPAXI@Z 130f6110 f i LIBCMTD:stdexcpt.obj
 0001:00025140       ??0bad_cast@std@@QAE@ABV01@@Z 130f6140 f   LIBCMTD:stdexcpt.obj
 0001:00025170       ??1bad_cast@std@@UAE@XZ    130f6170 f   LIBCMTD:stdexcpt.obj
 0001:00025190       ??0bad_typeid@std@@QAE@PBD@Z 130f6190 f   LIBCMTD:stdexcpt.obj
 0001:000251c0       ??_Ebad_typeid@std@@UAEPAXI@Z 130f61c0 f i LIBCMTD:stdexcpt.obj
 0001:000251c0       ??_Gbad_typeid@std@@UAEPAXI@Z 130f61c0 f i LIBCMTD:stdexcpt.obj
 0001:000251f0       ??0bad_typeid@std@@QAE@ABV01@@Z 130f61f0 f   LIBCMTD:stdexcpt.obj
 0001:00025220       ??1bad_typeid@std@@UAE@XZ  130f6220 f   LIBCMTD:stdexcpt.obj
 0001:00025240       ??0__non_rtti_object@std@@QAE@PBD@Z 130f6240 f   LIBCMTD:stdexcpt.obj
 0001:00025270       ??_E__non_rtti_object@std@@UAEPAXI@Z 130f6270 f i LIBCMTD:stdexcpt.obj
 0001:00025270       ??_G__non_rtti_object@std@@UAEPAXI@Z 130f6270 f i LIBCMTD:stdexcpt.obj
 0001:000252a0       ??0__non_rtti_object@std@@QAE@ABV01@@Z 130f62a0 f   LIBCMTD:stdexcpt.obj
 0001:000252d0       ??1__non_rtti_object@std@@UAE@XZ 130f62d0 f   LIBCMTD:stdexcpt.obj
 0001:000252f0       _DebuggerKnownHandle       130f62f0 f   LIBCMTD:error.obj
 0001:00025390       ?_RTC_Failure@@YAXPAXH@Z   130f6390 f   LIBCMTD:error.obj
 0001:000256c0       ?_RTC_StackFailure@@YAXPAXPBD@Z 130f66c0 f   LIBCMTD:error.obj
 0001:000257e0       ?_RTC_AllocaFailure@@YAXPAXPAU_RTC_ALLOCA_NODE@@H@Z 130f67e0 f   LIBCMTD:error.obj
 0001:000259a0       __RTC_UninitUse            130f69a0 f   LIBCMTD:error.obj
 0001:00025ab0       __RTC_NumErrors            130f6ab0 f   LIBCMTD:userapi.obj
 0001:00025ac0       __RTC_GetErrDesc           130f6ac0 f   LIBCMTD:userapi.obj
 0001:00025ae0       __RTC_SetErrorType         130f6ae0 f   LIBCMTD:userapi.obj
 0001:00025b10       __RTC_SetErrorFunc         130f6b10 f   LIBCMTD:userapi.obj
 0001:00025b30       __RTC_SetErrorFuncW        130f6b30 f   LIBCMTD:userapi.obj
 0001:00025b50       ?_RTC_GetErrorFunc@@YAP6AHHPBDH00ZZPBX@Z 130f6b50 f   LIBCMTD:userapi.obj
 0001:00025b60       ?_RTC_GetErrorFuncW@@YAP6AHHPB_WH00ZZPBX@Z 130f6b60 f   LIBCMTD:userapi.obj
 0001:00025b70       __chkesp                   130f6b70 f   LIBCMTD:chkesp.obj
 0001:00025bb0       __CRT_RTC_INIT             130f6bb0 f   LIBCMTD:chkesp.obj
 0001:00025bc0       __CRT_RTC_INITW            130f6bc0 f   LIBCMTD:chkesp.obj
 0001:00025bd0       __mtinitlocks              130f6bd0 f   LIBCMTD:mlock.obj
 0001:00025c60       __mtdeletelocks            130f6c60 f   LIBCMTD:mlock.obj
 0001:00025d20       __mtinitlocknum            130f6d20 f   LIBCMTD:mlock.obj
 0001:00025e70       __lock                     130f6e70 f   LIBCMTD:mlock.obj
 0001:00025eb0       __unlock                   130f6eb0 f   LIBCMTD:mlock.obj
 0001:00025ed0       __lockerr_exit             130f6ed0 f   LIBCMTD:mlock.obj
 0001:00025ef0       __except_handler4          130f6ef0 f   LIBCMTD:chandler4.obj
 0001:00026110       __cinit                    130f7110 f   LIBCMTD:crt0dat.obj
 0001:000261b0       _exit                      130f71b0 f   LIBCMTD:crt0dat.obj
 0001:000261d0       __exit                     130f71d0 f   LIBCMTD:crt0dat.obj
 0001:000261f0       __cexit                    130f71f0 f   LIBCMTD:crt0dat.obj
 0001:00026210       __c_exit                   130f7210 f   LIBCMTD:crt0dat.obj
 0001:00026230       __amsg_exit                130f7230 f   LIBCMTD:crt0dat.obj
 0001:00026270       ___freeCrtMemory           130f7270 f   LIBCMTD:crt0dat.obj
 0001:00026530       ___crtCorExitProcess       130f7530 f   LIBCMTD:crt0dat.obj
 0001:00026570       ___crtExitProcess          130f7570 f   LIBCMTD:crt0dat.obj
 0001:00026590       __lockexit                 130f7590 f   LIBCMTD:crt0dat.obj
 0001:000265a0       __unlockexit               130f75a0 f   LIBCMTD:crt0dat.obj
 0001:000265b0       __init_pointers            130f75b0 f   LIBCMTD:crt0dat.obj
 0001:00026670       __initterm_e               130f7670 f   LIBCMTD:crt0dat.obj
 0001:000266b0       __get_osplatform           130f76b0 f   LIBCMTD:crt0dat.obj
 0001:000267a0       __get_osver                130f77a0 f   LIBCMTD:crt0dat.obj
 0001:00026890       __get_winver               130f7890 f   LIBCMTD:crt0dat.obj
 0001:00026980       __get_winmajor             130f7980 f   LIBCMTD:crt0dat.obj
 0001:00026a70       __get_winminor             130f7a70 f   LIBCMTD:crt0dat.obj
 0001:00026b60       __get_wpgmptr              130f7b60 f   LIBCMTD:crt0dat.obj
 0001:00026c50       __get_pgmptr               130f7c50 f   LIBCMTD:crt0dat.obj
 0001:00026d40       __initp_misc_winsig        130f7d40 f   LIBCMTD:winsig.obj
 0001:00026d70       _signal                    130f7d70 f   LIBCMTD:winsig.obj
 0001:00027210       _raise                     130f8210 f   LIBCMTD:winsig.obj
 0001:00027580       ___get_sigabrt             130f8580 f   LIBCMTD:winsig.obj
 0001:000275a0       ___fpecode                 130f85a0 f   LIBCMTD:winsig.obj
 0001:000275b0       ___pxcptinfoptrs           130f85b0 f   LIBCMTD:winsig.obj
 0001:000275c0       ___crtMessageBoxW          130f85c0 f   LIBCMTD:crtmboxw.obj
 0001:00027860       __itow_s                   130f8860 f   LIBCMTD:xtows.obj
 0001:00027c40       __ltow_s                   130f8c40 f   LIBCMTD:xtows.obj
 0001:00027c80       __ultow_s                  130f8c80 f   LIBCMTD:xtows.obj
 0001:00027ca0       __i64tow_s                 130f8ca0 f   LIBCMTD:xtows.obj
 0001:000280b0       __ui64tow_s                130f90b0 f   LIBCMTD:xtows.obj
 0001:000280d0       _wcsncat_s                 130f90d0 f   LIBCMTD:wcsncat_s.obj
 0001:00028580       _wcsncpy_s                 130f9580 f   LIBCMTD:wcsncpy_s.obj
 0001:00028980       _wcscat_s                  130f9980 f   LIBCMTD:wcscat_s.obj
 0001:00028d70       _wcscpy_s                  130f9d70 f   LIBCMTD:wcscpy_s.obj
 0001:00029050       _fwprintf                  130fa050 f   LIBCMTD:fwprintf.obj
 0001:000291d0       __fwprintf_l               130fa1d0 f   LIBCMTD:fwprintf.obj
 0001:00029200       __fwprintf_s_l             130fa200 f   LIBCMTD:fwprintf.obj
 0001:00029230       _fwprintf_s                130fa230 f   LIBCMTD:fwprintf.obj
 0001:00029260       __fwprintf_p_l             130fa260 f   LIBCMTD:fwprintf.obj
 0001:00029290       __fwprintf_p               130fa290 f   LIBCMTD:fwprintf.obj
 0001:000292c0       _setvbuf                   130fa2c0 f   LIBCMTD:setvbuf.obj
 0001:00029590       _wcslen                    130fa590 f   LIBCMTD:wcslen.obj
 0001:000295c0       __set_error_mode           130fa5c0 f   LIBCMTD:errmode.obj
 0001:00029680       ___set_app_type            130fa680 f   LIBCMTD:errmode.obj
 0001:00029690       ___get_app_type            130fa690 f   LIBCMTD:errmode.obj
 0001:000296a0       __assert                   130fa6a0 f   LIBCMTD:assert.obj
 0001:0002a170       _strcat_s                  130fb170 f   LIBCMTD:strcat_s.obj
 0001:0002a550       __wcstombs_l_helper        130fb550 f   LIBCMTD:wcstombs.obj
 0001:0002aaa0       __wcstombs_l               130fbaa0 f   LIBCMTD:wcstombs.obj
 0001:0002aac0       _wcstombs                  130fbac0 f   LIBCMTD:wcstombs.obj
 0001:0002aae0       __wcstombs_s_l             130fbae0 f   LIBCMTD:wcstombs.obj
 0001:0002ada0       _wcstombs_s                130fbda0 f   LIBCMTD:wcstombs.obj
 0001:0002add0       __vswprintf_helper         130fbdd0 f   LIBCMTD:vswprnc.obj
 0001:0002b000       __vswprintf_c              130fc000 f   LIBCMTD:vswprnc.obj
 0001:0002b050       __vswprintf_c_l            130fc050 f   LIBCMTD:vswprnc.obj
 0001:0002b0a0       __vswprintf_s_l            130fc0a0 f   LIBCMTD:vswprnc.obj
 0001:0002b310       _vswprintf_s               130fc310 f   LIBCMTD:vswprnc.obj
 0001:0002b330       __vsnwprintf_s_l           130fc330 f   LIBCMTD:vswprnc.obj
 0001:0002b6e0       __vsnwprintf_s             130fc6e0 f   LIBCMTD:vswprnc.obj
 0001:0002b710       __vswprintf_p              130fc710 f   LIBCMTD:vswprnc.obj
 0001:0002b760       __vswprintf_p_l            130fc760 f   LIBCMTD:vswprnc.obj
 0001:0002b7b0       __FF_MSGBANNER             130fc7b0 f   LIBCMTD:crt0msg.obj
 0001:0002b800       __NMSG_WRITE               130fc800 f   LIBCMTD:crt0msg.obj
 0001:0002ba90       __GET_RTERRMSG             130fca90 f   LIBCMTD:crt0msg.obj
 0001:0002bad0       __encode_pointer           130fcad0 f   LIBCMTD:tidtable.obj
 0001:0002bc20       __encoded_null             130fcc20 f   LIBCMTD:tidtable.obj
 0001:0002bc30       __decode_pointer           130fcc30 f   LIBCMTD:tidtable.obj
 0001:0002bcd0       ___crtTlsAlloc@4           130fccd0 f   LIBCMTD:tidtable.obj
 0001:0002bce0       ___fls_getvalue@4          130fcce0 f   LIBCMTD:tidtable.obj
 0001:0002bd00       ___get_flsindex            130fcd00 f   LIBCMTD:tidtable.obj
 0001:0002bd10       ___set_flsgetvalue         130fcd10 f   LIBCMTD:tidtable.obj
 0001:0002bd60       ___fls_setvalue@8          130fcd60 f   LIBCMTD:tidtable.obj
 0001:0002bd80       __mtinit                   130fcd80 f   LIBCMTD:tidtable.obj
 0001:0002bf90       __mtterm                   130fcf90 f   LIBCMTD:tidtable.obj
 0001:0002bff0       __initptd                  130fcff0 f   LIBCMTD:tidtable.obj
 0001:0002c120       __getptd_noexit            130fd120 f   LIBCMTD:tidtable.obj
 0001:0002c1e0       __getptd                   130fd1e0 f   LIBCMTD:tidtable.obj
 0001:0002c210       __freefls@4                130fd210 f   LIBCMTD:tidtable.obj
 0001:0002c400       __freeptd                  130fd400 f   LIBCMTD:tidtable.obj
 0001:0002c480       ___threadid                130fd480 f   LIBCMTD:tidtable.obj
 0001:0002c490       ___threadhandle            130fd490 f   LIBCMTD:tidtable.obj
 0001:0002c4a0       ___getlocaleinfo           130fd4a0 f   LIBCMTD:inithelp.obj
 0001:0002c740       __initp_misc_purevirt      130fd740 f   LIBCMTD:inithelp.obj
 0001:0002c750       __initp_heap_handler       130fd750 f   LIBCMTD:handler.obj
 0001:0002c760       ?_set_new_handler@@YAP6AHI@ZP6AHI@Z@Z 130fd760 f   LIBCMTD:handler.obj
 0001:0002c7b0       ?_set_new_handler@@YAP6AHI@ZH@Z 130fd7b0 f   LIBCMTD:handler.obj
 0001:0002c7f0       ?_query_new_handler@@YAP6AHI@ZXZ 130fd7f0 f   LIBCMTD:handler.obj
 0001:0002c810       __callnewh                 130fd810 f   LIBCMTD:handler.obj
 0001:0002c850       __ioinit                   130fd850 f   LIBCMTD:ioinit.obj
 0001:0002ccd0       __ioterm                   130fdcd0 f   LIBCMTD:ioinit.obj
 0001:0002cd70       __setenvp                  130fdd70 f   LIBCMTD:stdenvp.obj
 0001:0002cf10       __setargv                  130fdf10 f   LIBCMTD:stdargv.obj
 0001:0002d030       __set_pgmptr               130fe030 f i LIBCMTD:stdargv.obj
 0001:0002d3a0       ___crtGetEnvironmentStringsA 130fe3a0 f   LIBCMTD:a_env.obj
 0001:0002d5c0       __RTC_Initialize           130fe5c0 f   LIBCMTD:initsect.obj
 0001:0002d5f0       __RTC_Terminate            130fe5f0 f   LIBCMTD:initsect.obj
 0001:0002d620       ___heap_select             130fe620 f   LIBCMTD:heapinit.obj
 0001:0002d6b0       __heap_init                130fe6b0 f   LIBCMTD:heapinit.obj
 0001:0002d730       __heap_term                130fe730 f   LIBCMTD:heapinit.obj
 0001:0002d7d0       __get_heap_handle          130fe7d0 f   LIBCMTD:heapinit.obj
 0001:0002d810       ___security_init_cookie    130fe810 f   LIBCMTD:gs_support.obj
 0001:0002d8f0       __initp_misc_winxfltr      130fe8f0 f   LIBCMTD:winxfltr.obj
 0001:0002d900       ___CppXcptFilter           130fe900 f   LIBCMTD:winxfltr.obj
 0001:0002d930       __XcptFilter               130fe930 f   LIBCMTD:winxfltr.obj
 0001:0002db60       _DllMain@12                130feb60 f   LIBCMTD:dllmain.obj
 0001:0002db70       __dosmaperr                130feb70 f   LIBCMTD:dosmap.obj
 0001:0002dba0       __get_errno_from_oserr     130feba0 f   LIBCMTD:dosmap.obj
 0001:0002dc20       __set_errno                130fec20 f   LIBCMTD:dosmap.obj
 0001:0002dc50       __get_errno                130fec50 f   LIBCMTD:dosmap.obj
 0001:0002dcd0       __set_doserrno             130fecd0 f   LIBCMTD:dosmap.obj
 0001:0002dd00       __get_doserrno             130fed00 f   LIBCMTD:dosmap.obj
 0001:0002dd80       __errno                    130fed80 f   LIBCMTD:dosmap.obj
 0001:0002ddb0       ___doserrno                130fedb0 f   LIBCMTD:dosmap.obj
 0001:0002dde0       __flsbuf                   130fede0 f   LIBCMTD:_flsbuf.obj
 0001:0002e0a0       __output_l                 130ff0a0 f   LIBCMTD:output.obj
 0001:0002f510       _get_int_arg               13100510 f i LIBCMTD:output.obj
 0001:0002f530       _get_int64_arg             13100530 f i LIBCMTD:output.obj
 0001:0002f550       _get_short_arg             13100550 f i LIBCMTD:output.obj
 0001:0002f570       __vsprintf_l               13100570 f   LIBCMTD:vsprintf.obj
 0001:0002f6e0       _vsprintf                  131006e0 f   LIBCMTD:vsprintf.obj
 0001:0002f700       __vscprintf_helper         13100700 f   LIBCMTD:vsprintf.obj
 0001:0002f7c0       __vscprintf                131007c0 f   LIBCMTD:vsprintf.obj
 0001:0002f7e0       __vscprintf_l              131007e0 f   LIBCMTD:vsprintf.obj
 0001:0002f800       __vscprintf_p              13100800 f   LIBCMTD:vsprintf.obj
 0001:0002f820       __vscprintf_p_l            13100820 f   LIBCMTD:vsprintf.obj
 0001:0002f840       __VEC_memzero              13100840 f   LIBCMTD:p4_memset.obj
 0001:0002f930       __sse2_mathfcns_init       13100930 f   LIBCMTD:mathfcns.obj
 0001:0002f950       __set_SSE2_enable          13100950 f   LIBCMTD:mathfcns.obj
 0001:0002f970       _memcpy                    13100970 f   LIBCMTD:memcpy.obj
 0001:0002fce0       ___report_gsfailure        13100ce0 f   LIBCMTD:gs_report.obj
 0001:0002fdf0       _V6_HeapAlloc              13100df0 f   LIBCMTD:malloc.obj
 0001:0002fe80       __malloc_base              13100e80 f   LIBCMTD:malloc.obj
 0001:0002ff10       __heap_alloc_base          13100f10 f i LIBCMTD:malloc.obj
 0001:0002ffd0       __CrtSetReportHook2        13100fd0 f   LIBCMTD:dbgrpt.obj
 0001:000302f0       __CrtDbgReport             131012f0 f   LIBCMTD:dbgrpt.obj
 0001:00030330       __CrtDbgReportV            13101330 f i LIBCMTD:dbgrpt.obj
 0001:00030360       ___crtMessageWindowA       13101360 f   LIBCMTD:dbgrpt.obj
 0001:00030760       __CrtDefaultAllocHook      13101760 f   LIBCMTD:dbghook.obj
 0001:00030770       __crt_debugger_hook        13101770 f   LIBCMTD:dbghook.obj
 0001:00030780       __expand_base              13101780 f   LIBCMTD:expand.obj
 0001:00030950       __realloc_base             13101950 f   LIBCMTD:realloc.obj
 0001:00030cf0       __recalloc_base            13101cf0 f   LIBCMTD:realloc.obj
 0001:00030de0       __free_base                13101de0 f   LIBCMTD:free.obj
 0001:00030f00       __heapchk                  13101f00 f   LIBCMTD:heapchk.obj
 0001:00030fd0       __heapset                  13101fd0 f   LIBCMTD:heapchk.obj
 0001:00030fe0       __get_sbh_threshold        13101fe0 f   LIBCMTD:sbheap.obj
 0001:00031030       __set_sbh_threshold        13102030 f   LIBCMTD:sbheap.obj
 0001:000311c0       __set_amblksiz             131021c0 f   LIBCMTD:sbheap.obj
 0001:000312c0       __get_amblksiz             131022c0 f   LIBCMTD:sbheap.obj
 0001:000313b0       ___sbh_heap_init           131023b0 f   LIBCMTD:sbheap.obj
 0001:00031420       ___sbh_find_block          13102420 f   LIBCMTD:sbheap.obj
 0001:00031480       ___sbh_verify_block        13102480 f   LIBCMTD:sbheap.obj
 0001:000314e0       ___sbh_free_block          131024e0 f   LIBCMTD:sbheap.obj
 0001:00031aa0       ___sbh_alloc_block         13102aa0 f   LIBCMTD:sbheap.obj
 0001:00031fc0       ___sbh_alloc_new_region    13102fc0 f   LIBCMTD:sbheap.obj
 0001:000320d0       ___sbh_alloc_new_group     131030d0 f   LIBCMTD:sbheap.obj
 0001:000322c0       ___sbh_resize_block        131032c0 f   LIBCMTD:sbheap.obj
 0001:00032890       ___sbh_heapmin             13103890 f   LIBCMTD:sbheap.obj
 0001:000329c0       ___sbh_heap_check          131039c0 f   LIBCMTD:sbheap.obj
 0001:00032eb0       ___updatetmbcinfo          13103eb0 f   LIBCMTD:mbctype.obj
 0001:00032fc0       __setmbcp                  13103fc0 f   LIBCMTD:mbctype.obj
 0001:00033360       __setmbcp_nolock           13104360 f   LIBCMTD:mbctype.obj
 0001:00033b50       __getmbcp                  13104b50 f   LIBCMTD:mbctype.obj
 0001:00033bc0       ___initmbctable            13104bc0 f   LIBCMTD:mbctype.obj
 0001:00033bf0       ____setlc_active_func      13104bf0 f   LIBCMTD:setlocal.obj
 0001:00033c00       ____unguarded_readlc_active_add_func 13104c00 f   LIBCMTD:setlocal.obj
 0001:00033c10       ___freetlocinfo            13104c10 f   LIBCMTD:setlocal.obj
 0001:00033ef0       ___addlocaleref            13104ef0 f   LIBCMTD:setlocal.obj
 0001:00034010       ___removelocaleref         13105010 f   LIBCMTD:setlocal.obj
 0001:00034140       ___updatetlocinfo          13105140 f   LIBCMTD:setlocal.obj
 0001:00034290       __configthreadlocale       13105290 f   LIBCMTD:setlocal.obj
 0001:000343a0       __locterm                  131053a0 f   LIBCMTD:setlocal.obj
 0001:00034430       __free_locale              13105430 f   LIBCMTD:setlocal.obj
 0001:00034540       ___free_locale             13105540 f   LIBCMTD:setlocal.obj
 0001:00034560       __create_locale            13105560 f   LIBCMTD:setlocal.obj
 0001:00034780       ___create_locale           13105780 f   LIBCMTD:setlocal.obj
 0001:000347a0       __get_current_locale       131057a0 f   LIBCMTD:setlocal.obj
 0001:00034890       ___get_current_locale      13105890 f   LIBCMTD:setlocal.obj
 0001:000348a0       _setlocale                 131058a0 f   LIBCMTD:setlocal.obj
 0001:000357b0       __expandlocale             131067b0 f   LIBCMTD:setlocal.obj
 0001:00035a60       ___init_dummy              13106a60 f   LIBCMTD:setlocal.obj
 0001:00035a70       __strcats                  13106a70 f   LIBCMTD:setlocal.obj
 0001:00035af0       ___lc_strtolc              13106af0 f   LIBCMTD:setlocal.obj
 0001:00035cf0       ___lc_lctostr              13106cf0 f   LIBCMTD:setlocal.obj
 0001:00035d80       __chvalidator              13106d80 f   LIBCMTD:isctype.obj
 0001:00035dd0       __chvalidator_l            13106dd0 f   LIBCMTD:isctype.obj
 0001:00035e80       __isctype_l                13106e80 f   LIBCMTD:isctype.obj
 0001:00035f90       __isctype                  13106f90 f   LIBCMTD:isctype.obj
 0001:00035fd0       _strtol                    13106fd0 f   LIBCMTD:strtol.obj
 0001:00036500       __strtol_l                 13107500 f   LIBCMTD:strtol.obj
 0001:00036520       _strtoul                   13107520 f   LIBCMTD:strtol.obj
 0001:00036570       __strtoul_l                13107570 f   LIBCMTD:strtol.obj
 0001:00036590       __strtoi64                 13107590 f   LIBCMTD:strtoq.obj
 0001:00036b00       __strtoi64_l               13107b00 f   LIBCMTD:strtoq.obj
 0001:00036b20       __strtoui64                13107b20 f   LIBCMTD:strtoq.obj
 0001:00036b70       __strtoui64_l              13107b70 f   LIBCMTD:strtoq.obj
 0001:00036b90       __CrtDbgBreak              13107b90 f   LIBCMTD:dbgrptt.obj
 0001:00036ba0       __CrtSetReportMode         13107ba0 f   LIBCMTD:dbgrptt.obj
 0001:00036ce0       __CrtSetReportFile         13107ce0 f   LIBCMTD:dbgrptt.obj
 0001:00036dd0       __CrtSetReportHook         13107dd0 f   LIBCMTD:dbgrptt.obj
 0001:00036df0       __CrtGetReportHook         13107df0 f   LIBCMTD:dbgrptt.obj
 0001:00036e00       __VCrtDbgReportA           13107e00 f   LIBCMTD:dbgrptt.obj
 0001:00037630       __VCrtDbgReportW           13108630 f   LIBCMTD:dbgrptt.obj
 0001:00037f60       __swprintf                 13108f60 f   LIBCMTD:swprintf.obj
 0001:00038130       ___swprintf_l              13109130 f   LIBCMTD:swprintf.obj
 0001:00038160       _swprintf_s                13109160 f   LIBCMTD:swprintf.obj
 0001:00038190       __snwprintf_s              13109190 f   LIBCMTD:swprintf.obj
 0001:000381c0       __swprintf_p               131091c0 f   LIBCMTD:swprintf.obj
 0001:000381f0       __swprintf_s_l             131091f0 f   LIBCMTD:swprintf.obj
 0001:00038220       __snwprintf_s_l            13109220 f   LIBCMTD:swprintf.obj
 0001:00038250       __swprintf_p_l             13109250 f   LIBCMTD:swprintf.obj
 0001:00038280       __scwprintf                13109280 f   LIBCMTD:swprintf.obj
 0001:000382a0       __scwprintf_p              131092a0 f   LIBCMTD:swprintf.obj
 0001:000382c0       __scwprintf_l              131092c0 f   LIBCMTD:swprintf.obj
 0001:000382f0       __scwprintf_p_l            131092f0 f   LIBCMTD:swprintf.obj
 0001:00038320       _memmove                   13109320 f   LIBCMTD:memmove.obj
 0001:00038690       __input_l                  13109690 f   LIBCMTD:input.obj
 0001:00039ee0       __INTRN_LOCALE_CONV        1310aee0 f i LIBCMTD:input.obj
 0001:0003a000       __input_s_l                1310b000 f   LIBCMTD:inputs.obj
 0001:0003bd00       __output_s_l               1310cd00 f   LIBCMTD:outputs.obj
 0001:0003d2d0       __validate_param_reuseA    1310e2d0 f   LIBCMTD:outputp.obj
 0001:0003d540       __output_p_l               1310e540 f   LIBCMTD:outputp.obj
 0001:00041140       _get_crtdouble_arg         13112140 f i LIBCMTD:outputp.obj
 0001:00041160       __stbuf                    13112160 f   LIBCMTD:_sftbuf.obj
 0001:000412c0       __ftbuf                    131122c0 f   LIBCMTD:_sftbuf.obj
 0001:00041350       _fwrite                    13112350 f   LIBCMTD:fwrite.obj
 0001:00041460       __fwrite_nolock            13112460 f   LIBCMTD:fwrite.obj
 0001:00041830       __fileno                   13112830 f   LIBCMTD:fileno.obj
 0001:000418a0       __fcloseall                131128a0 f   LIBCMTD:closeall.obj
 0001:000419d0       __commit                   131129d0 f   LIBCMTD:commit.obj
 0001:00041bf0       __write                    13112bf0 f   LIBCMTD:write.obj
 0001:00041e10       __write_nolock             13112e10 f   LIBCMTD:write.obj
 0001:00042830       ___InternalCxxFrameHandler 13113830 f   LIBCMTD:frame.obj
 0001:00042e20       ??0bad_exception@std@@QAE@PBD@Z 13113e20 f i LIBCMTD:frame.obj
 0001:00042e50       ??1bad_exception@std@@UAE@XZ 13113e50 f i LIBCMTD:frame.obj
 0001:00042e70       ??_Ebad_exception@std@@UAEPAXI@Z 13113e70 f i LIBCMTD:frame.obj
 0001:00042e70       ??_Gbad_exception@std@@UAEPAXI@Z 13113e70 f i LIBCMTD:frame.obj
 0001:00042ea0       ??0bad_exception@std@@QAE@ABV01@@Z 13113ea0 f i LIBCMTD:frame.obj
 0001:00043050       ___TypeMatch               13114050 f   LIBCMTD:frame.obj
 0001:00043100       ___FrameUnwindFilter       13114100 f   LIBCMTD:frame.obj
 0001:00043170       ___FrameUnwindToState      13114170 f   LIBCMTD:frame.obj
 0001:000436b0       ___BuildCatchObjectHelper  131146b0 f   LIBCMTD:frame.obj
 0001:00043920       ___BuildCatchObject        13114920 f   LIBCMTD:frame.obj
 0001:00043a30       ___DestructExceptionObject 13114a30 f   LIBCMTD:frame.obj
 0001:00043ae0       ___AdjustPointer           13114ae0 f   LIBCMTD:frame.obj
 0001:00043b30       ?__uncaught_exception@@YA_NXZ 13114b30 f   LIBCMTD:frame.obj
 0001:00043b50       ___CxxExceptionFilter      13114b50 f   LIBCMTD:frame.obj
 0001:00043d40       ___CxxRegisterExceptionObject 13114d40 f   LIBCMTD:frame.obj
 0001:00043e70       ___CxxDetectRethrow        13114e70 f   LIBCMTD:frame.obj
 0001:00043ef0       ___CxxUnregisterExceptionObject 13114ef0 f   LIBCMTD:frame.obj
 0001:00044070       ___CxxQueryExceptionSize   13115070 f   LIBCMTD:frame.obj
 0001:00044080       ___CxxCallUnwindDtor       13115080 f   LIBCMTD:frame.obj
 0001:00044100       ___CxxCallUnwindDelDtor    13115100 f   LIBCMTD:frame.obj
 0001:00044180       ___CxxCallUnwindStdDelDtor 13115180 f   LIBCMTD:frame.obj
 0001:00044200       ___CxxCallUnwindVecDtor    13115200 f   LIBCMTD:frame.obj
 0001:00044420       ?_is_exception_typeof@@YAHABVtype_info@@PAU_EXCEPTION_POINTERS@@@Z 13115420 f   LIBCMTD:frame.obj
 0001:00044500       __CallSettingFrame@12      13115500 f   LIBCMTD:lowhelpr.obj
 0001:00044527       __NLG_Return               13115527     LIBCMTD:lowhelpr.obj
 0001:00044550       __initp_eh_hooks           13115550 f   LIBCMTD:hooks.obj
 0001:00044570       ?terminate@@YAXXZ          13115570 f   LIBCMTD:hooks.obj
 0001:000445f0       ?unexpected@@YAXXZ         131155f0 f   LIBCMTD:hooks.obj
 0001:00044620       ?_inconsistency@@YAXXZ     13115620 f   LIBCMTD:hooks.obj
 0001:000446b0       ?_Type_info_dtor@type_info@@CAXPAV1@@Z 131156b0 f   LIBCMTD:typname.obj
 0001:000447c0       ?_Name_base@type_info@@CAPBDPBV1@PAU__type_info_node@@@Z 131157c0 f   LIBCMTD:typname.obj
 0001:00044960       ?_Type_info_dtor_internal@type_info@@CAXPAV1@@Z 13115960 f   LIBCMTD:typname.obj
 0001:00044a70       ___unDNameHelper           13115a70 f   LIBCMTD:typname.obj
 0001:00044ab0       ?_Name_base_internal@type_info@@CAPBDPBV1@PAU__type_info_node@@@Z 13115ab0 f   LIBCMTD:typname.obj
 0001:00044c50       ___clean_type_info_names_internal 13115c50 f   LIBCMTD:typname.obj
 0001:00044d00       ?_RTC_GetSrcLine@@YAHPAEPA_WKPAH1K@Z 13115d00 f   LIBCMTD:pdblkup.obj
 0001:00045190       __initp_misc_initcrit      13116190 f   LIBCMTD:initcrit.obj
 0001:000451a0       ___crtInitCritSecAndSpinCount 131161a0 f   LIBCMTD:initcrit.obj
 0001:00045308       __local_unwind4            13116308 f   LIBCMTD:exsup4.obj
 0001:000453de       __seh_longjmp_unwind4@4    131163de f   LIBCMTD:exsup4.obj
 0001:000453fa       @_EH4_CallFilterFunc@8     131163fa f   LIBCMTD:exsup4.obj
 0001:00045411       @_EH4_TransferToHandler@8  13116411 f   LIBCMTD:exsup4.obj
 0001:0004542a       @_EH4_GlobalUnwind@4       1311642a f   LIBCMTD:exsup4.obj
 0001:00045444       @_EH4_LocalUnwind@16       13116444 f   LIBCMTD:exsup4.obj
 0001:00045460       __ValidateImageBase        13116460 f   LIBCMTD:pesect.obj
 0001:000454c0       __FindPESection            131164c0 f   LIBCMTD:pesect.obj
 0001:00045540       __IsNonwritableInCurrentImage 13116540 f   LIBCMTD:pesect.obj
 0001:00045650       __initp_misc_cfltcvt_tab   13116650 f   LIBCMTD:cmiscdat.obj
 0001:00045690       __initp_misc_rand_s        13116690 f   LIBCMTD:rand_s.obj
 0001:000456a0       _rand_s                    131166a0 f   LIBCMTD:rand_s.obj
 0001:000458c0       __woutput_l                131168c0 f   LIBCMTD:woutput.obj
 0001:00046a90       _vfwprintf_helper          13117a90 f   LIBCMTD:vfwprint.obj
 0001:00046c10       __vfwprintf_l              13117c10 f   LIBCMTD:vfwprint.obj
 0001:00046c40       __vfwprintf_s_l            13117c40 f   LIBCMTD:vfwprint.obj
 0001:00046c70       __vfwprintf_p_l            13117c70 f   LIBCMTD:vfwprint.obj
 0001:00046ca0       _vfwprintf                 13117ca0 f   LIBCMTD:vfwprint.obj
 0001:00046cc0       _vfwprintf_s               13117cc0 f   LIBCMTD:vfwprint.obj
 0001:00046ce0       __vfwprintf_p              13117ce0 f   LIBCMTD:vfwprint.obj
 0001:00046d00       __freebuf                  13117d00 f   LIBCMTD:_freebuf.obj
 0001:00046d90       ___crtMessageBoxA          13117d90 f   LIBCMTD:crtmbox.obj
 0001:00047030       __mbsnbcat_s               13118030 f   LIBCMTD:mbsnbcat_s.obj
 0001:00047050       __mbsnbcpy_s               13118050 f   LIBCMTD:mbsnbcpy_s.obj
 0001:00047070       _fprintf                   13118070 f   LIBCMTD:fprintf.obj
 0001:00047360       __fprintf_l                13118360 f   LIBCMTD:fprintf.obj
 0001:00047390       __fprintf_s_l              13118390 f   LIBCMTD:fprintf.obj
 0001:000473c0       _fprintf_s                 131183c0 f   LIBCMTD:fprintf.obj
 0001:000473f0       __fprintf_p_l              131183f0 f   LIBCMTD:fprintf.obj
 0001:00047420       __fprintf_p                13118420 f   LIBCMTD:fprintf.obj
 0001:00047450       __woutput_s_l              13118450 f   LIBCMTD:woutputs.obj
 0001:00048770       __validate_param_reuseW    13119770 f   LIBCMTD:woutputp.obj
 0001:000489e0       __woutput_p_l              131199e0 f   LIBCMTD:woutputp.obj
 0001:0004c130       _strncpy_s                 1311d130 f   LIBCMTD:strncpy_s.obj
 0001:0004c520       __isalpha_l                1311d520 f i LIBCMTD:_ctype.obj
 0001:0004c5b0       _isalpha                   1311d5b0 f i LIBCMTD:_ctype.obj
 0001:0004c5f0       __isupper_l                1311d5f0 f i LIBCMTD:_ctype.obj
 0001:0004c670       _isupper                   1311d670 f i LIBCMTD:_ctype.obj
 0001:0004c6a0       __islower_l                1311d6a0 f i LIBCMTD:_ctype.obj
 0001:0004c720       _islower                   1311d720 f i LIBCMTD:_ctype.obj
 0001:0004c750       __isdigit_l                1311d750 f i LIBCMTD:_ctype.obj
 0001:0004c7d0       _isdigit                   1311d7d0 f i LIBCMTD:_ctype.obj
 0001:0004c800       __isxdigit_l               1311d800 f i LIBCMTD:_ctype.obj
 0001:0004c890       _isxdigit                  1311d890 f i LIBCMTD:_ctype.obj
 0001:0004c8d0       __isspace_l                1311d8d0 f i LIBCMTD:_ctype.obj
 0001:0004c950       _isspace                   1311d950 f i LIBCMTD:_ctype.obj
 0001:0004c980       __ispunct_l                1311d980 f i LIBCMTD:_ctype.obj
 0001:0004ca00       _ispunct                   1311da00 f i LIBCMTD:_ctype.obj
 0001:0004ca30       __isalnum_l                1311da30 f i LIBCMTD:_ctype.obj
 0001:0004cac0       _isalnum                   1311dac0 f i LIBCMTD:_ctype.obj
 0001:0004cb00       __isprint_l                1311db00 f i LIBCMTD:_ctype.obj
 0001:0004cb90       _isprint                   1311db90 f i LIBCMTD:_ctype.obj
 0001:0004cbd0       __isgraph_l                1311dbd0 f i LIBCMTD:_ctype.obj
 0001:0004cc60       _isgraph                   1311dc60 f i LIBCMTD:_ctype.obj
 0001:0004cca0       __iscntrl_l                1311dca0 f i LIBCMTD:_ctype.obj
 0001:0004cd20       _iscntrl                   1311dd20 f i LIBCMTD:_ctype.obj
 0001:0004cd50       ___isascii                 1311dd50 f i LIBCMTD:_ctype.obj
 0001:0004cd60       ___toascii                 1311dd60 f i LIBCMTD:_ctype.obj
 0001:0004cd70       __iscsymf_l                1311dd70 f i LIBCMTD:_ctype.obj
 0001:0004cdb0       ___iscsymf                 1311ddb0 f i LIBCMTD:_ctype.obj
 0001:0004cdf0       __iscsym_l                 1311ddf0 f i LIBCMTD:_ctype.obj
 0001:0004ce30       ___iscsym                  1311de30 f i LIBCMTD:_ctype.obj
 0001:0004ce70       ___crtGetLocaleInfoW       1311de70 f   LIBCMTD:w_loc.obj
 0001:0004d040       __MarkAllocaS              1311e040 f i LIBCMTD:w_loc.obj
 0001:0004d060       __freea                    1311e060 f i LIBCMTD:w_loc.obj
 0001:0004d0d0       ___crtGetLocaleInfoA       1311e0d0 f   LIBCMTD:a_loc.obj
 0001:0004d2b0       __ismbbkalnum_l            1311e2b0 f   LIBCMTD:ismbbyte.obj
 0001:0004d2d0       __ismbbkalnum              1311e2d0 f   LIBCMTD:ismbbyte.obj
 0001:0004d2f0       __ismbbkprint_l            1311e2f0 f   LIBCMTD:ismbbyte.obj
 0001:0004d310       __ismbbkprint              1311e310 f   LIBCMTD:ismbbyte.obj
 0001:0004d330       __ismbbkpunct_l            1311e330 f   LIBCMTD:ismbbyte.obj
 0001:0004d350       __ismbbkpunct              1311e350 f   LIBCMTD:ismbbyte.obj
 0001:0004d370       __ismbbalnum_l             1311e370 f   LIBCMTD:ismbbyte.obj
 0001:0004d390       __ismbbalnum               1311e390 f   LIBCMTD:ismbbyte.obj
 0001:0004d3b0       __ismbbalpha_l             1311e3b0 f   LIBCMTD:ismbbyte.obj
 0001:0004d3d0       __ismbbalpha               1311e3d0 f   LIBCMTD:ismbbyte.obj
 0001:0004d3f0       __ismbbgraph_l             1311e3f0 f   LIBCMTD:ismbbyte.obj
 0001:0004d410       __ismbbgraph               1311e410 f   LIBCMTD:ismbbyte.obj
 0001:0004d430       __ismbbprint_l             1311e430 f   LIBCMTD:ismbbyte.obj
 0001:0004d450       __ismbbprint               1311e450 f   LIBCMTD:ismbbyte.obj
 0001:0004d470       __ismbbpunct_l             1311e470 f   LIBCMTD:ismbbyte.obj
 0001:0004d490       __ismbbpunct               1311e490 f   LIBCMTD:ismbbyte.obj
 0001:0004d4b0       __ismbblead_l              1311e4b0 f   LIBCMTD:ismbbyte.obj
 0001:0004d4d0       __ismbblead                1311e4d0 f   LIBCMTD:ismbbyte.obj
 0001:0004d4f0       __ismbbtrail_l             1311e4f0 f   LIBCMTD:ismbbyte.obj
 0001:0004d510       __ismbbtrail               1311e510 f   LIBCMTD:ismbbyte.obj
 0001:0004d530       __ismbbkana_l              1311e530 f   LIBCMTD:ismbbyte.obj
 0001:0004d5a0       __ismbbkana                1311e5a0 f   LIBCMTD:ismbbyte.obj
 0001:0004d680       __lseeki64                 1311e680 f   LIBCMTD:lseeki64.obj
 0001:0004d8d0       __lseeki64_nolock          1311e8d0 f   LIBCMTD:lseeki64.obj
 0001:0004d9c0       __getbuf                   1311e9c0 f   LIBCMTD:_getbuf.obj
 0001:0004da80       __isatty                   1311ea80 f   LIBCMTD:isatty.obj
 0001:0004db60       _printf                    1311eb60 f   LIBCMTD:printf.obj
 0001:0004dca0       __printf_l                 1311eca0 f   LIBCMTD:printf.obj
 0001:0004dcd0       __printf_s_l               1311ecd0 f   LIBCMTD:printf.obj
 0001:0004dd00       _printf_s                  1311ed00 f   LIBCMTD:printf.obj
 0001:0004dd20       __printf_p_l               1311ed20 f   LIBCMTD:printf.obj
 0001:0004dd50       __printf_p                 1311ed50 f   LIBCMTD:printf.obj
 0001:0004dd70       __set_printf_count_output  1311ed70 f   LIBCMTD:printf.obj
 0001:0004ddc0       __get_printf_count_output  1311edc0 f   LIBCMTD:printf.obj
 0001:0004dde0       __wctomb_s_l               1311ede0 f   LIBCMTD:wctomb.obj
 0001:0004e0e0       _wctomb_s                  1311f0e0 f   LIBCMTD:wctomb.obj
 0001:0004e100       __wctomb_l                 1311f100 f   LIBCMTD:wctomb.obj
 0001:0004e180       _wctomb                    1311f180 f   LIBCMTD:wctomb.obj
 0001:0004e1d0       __isleadbyte_l             1311f1d0 f i LIBCMTD:_wctype.obj
 0001:0004e220       _isleadbyte                1311f220 f i LIBCMTD:_wctype.obj
 0001:0004e240       __iswalpha_l               1311f240 f i LIBCMTD:_wctype.obj
 0001:0004e260       _iswalpha                  1311f260 f i LIBCMTD:_wctype.obj
 0001:0004e280       __iswupper_l               1311f280 f i LIBCMTD:_wctype.obj
 0001:0004e2a0       _iswupper                  1311f2a0 f i LIBCMTD:_wctype.obj
 0001:0004e2c0       __iswlower_l               1311f2c0 f i LIBCMTD:_wctype.obj
 0001:0004e2e0       _iswlower                  1311f2e0 f i LIBCMTD:_wctype.obj
 0001:0004e300       __iswdigit_l               1311f300 f i LIBCMTD:_wctype.obj
 0001:0004e320       _iswdigit                  1311f320 f i LIBCMTD:_wctype.obj
 0001:0004e340       __iswxdigit_l              1311f340 f i LIBCMTD:_wctype.obj
 0001:0004e360       _iswxdigit                 1311f360 f i LIBCMTD:_wctype.obj
 0001:0004e380       __iswspace_l               1311f380 f i LIBCMTD:_wctype.obj
 0001:0004e3a0       _iswspace                  1311f3a0 f i LIBCMTD:_wctype.obj
 0001:0004e3c0       __iswpunct_l               1311f3c0 f i LIBCMTD:_wctype.obj
 0001:0004e3e0       _iswpunct                  1311f3e0 f i LIBCMTD:_wctype.obj
 0001:0004e400       __iswalnum_l               1311f400 f i LIBCMTD:_wctype.obj
 0001:0004e420       _iswalnum                  1311f420 f i LIBCMTD:_wctype.obj
 0001:0004e440       __iswprint_l               1311f440 f i LIBCMTD:_wctype.obj
 0001:0004e460       _iswprint                  1311f460 f i LIBCMTD:_wctype.obj
 0001:0004e480       __iswgraph_l               1311f480 f i LIBCMTD:_wctype.obj
 0001:0004e4a0       _iswgraph                  1311f4a0 f i LIBCMTD:_wctype.obj
 0001:0004e4c0       __iswcntrl_l               1311f4c0 f i LIBCMTD:_wctype.obj
 0001:0004e4e0       _iswcntrl                  1311f4e0 f i LIBCMTD:_wctype.obj
 0001:0004e500       _iswascii                  1311f500 f i LIBCMTD:_wctype.obj
 0001:0004e520       __iswcsym_l                1311f520 f i LIBCMTD:_wctype.obj
 0001:0004e560       ___iswcsym                 1311f560 f i LIBCMTD:_wctype.obj
 0001:0004e5a0       __iswcsymf_l               1311f5a0 f i LIBCMTD:_wctype.obj
 0001:0004e5e0       ___iswcsymf                1311f5e0 f i LIBCMTD:_wctype.obj
 0001:0004e620       __get_sse2_info            1311f620 f   LIBCMTD:cpu_disp.obj
 0001:0004e740       ___sse2_available_init     1311f740 f   LIBCMTD:cpu_disp.obj
 0001:0004e760       __VEC_memcpy               1311f760 f   LIBCMTD:p4_memcpy.obj
 0001:0004e8e0       ___crtLCMapStringA         1311f8e0 f   LIBCMTD:a_map.obj
 0001:0004ee90       ___crtGetStringTypeA       1311fe90 f   LIBCMTD:a_str.obj
 0001:0004f120       ___pwctype_func            13120120 f   LIBCMTD:ctype.obj
 0001:0004f130       ___pctype_func             13120130 f   LIBCMTD:ctype.obj
 0001:0004f180       ___init_time               13120180 f   LIBCMTD:inittime.obj
 0001:0004f8a0       ___free_lc_time            131208a0 f   LIBCMTD:inittime.obj
 0001:0004fbb0       ___init_numeric            13120bb0 f   LIBCMTD:initnum.obj
 0001:0004ff00       ___free_lconv_num          13120f00 f   LIBCMTD:initnum.obj
 0001:0004ff70       ___init_monetary           13120f70 f   LIBCMTD:initmon.obj
 0001:00050470       ___free_lconv_mon          13121470 f   LIBCMTD:initmon.obj
 0001:00050560       ___init_ctype              13121560 f   LIBCMTD:initctyp.obj
 0001:00050b10       ____mb_cur_max_func        13121b10 f   LIBCMTD:initctyp.obj
 0001:00050b60       ____mb_cur_max_l_func      13121b60 f   LIBCMTD:initctyp.obj
 0001:00050b90       ____lc_codepage_func       13121b90 f   LIBCMTD:initctyp.obj
 0001:00050be0       ____lc_collate_cp_func     13121be0 f   LIBCMTD:initctyp.obj
 0001:00050c30       ____lc_handle_func         13121c30 f   LIBCMTD:initctyp.obj
 0001:00050c80       ___init_collate            13121c80 f   LIBCMTD:initcoll.obj
 0001:00050c90       __Getdays_l                13121c90 f   LIBCMTD:strftime.obj
 0001:00050e50       __Getdays                  13121e50 f   LIBCMTD:strftime.obj
 0001:00050e60       __Getmonths_l              13121e60 f   LIBCMTD:strftime.obj
 0001:00051020       __Getmonths                13122020 f   LIBCMTD:strftime.obj
 0001:00051030       __Gettnames_l              13122030 f   LIBCMTD:strftime.obj
 0001:000515a0       __Gettnames                131225a0 f   LIBCMTD:strftime.obj
 0001:000515b0       __strftime_l               131225b0 f   LIBCMTD:strftime.obj
 0001:000515e0       _strftime                  131225e0 f   LIBCMTD:strftime.obj
 0001:00051610       __Strftime                 13122610 f   LIBCMTD:strftime.obj
 0001:00051640       __Strftime_l               13122640 f   LIBCMTD:strftime.obj
 0001:00053410       _localeconv                13124410 f   LIBCMTD:lconv.obj
 0001:00053460       _strcspn                   13124460 f   LIBCMTD:strcspn.obj
 0001:000534b0       _strpbrk                   131244b0 f   LIBCMTD:strpbrk.obj
 0001:000534f0       _memcmp                    131244f0 f   LIBCMTD:memcmp.obj
 0001:00053f60       ___get_qualified_locale    13124f60 f   LIBCMTD:getqloc.obj
 0001:00054dd0       __allmul                   13125dd0 f   LIBCMTD:llmul.obj
 0001:00054e10       __mbstowcs_l_helper        13125e10 f   LIBCMTD:mbstowcs.obj
 0001:000551c0       __mbstowcs_l               131261c0 f   LIBCMTD:mbstowcs.obj
 0001:000551e0       _mbstowcs                  131261e0 f   LIBCMTD:mbstowcs.obj
 0001:00055230       __mbstowcs_s_l             13126230 f   LIBCMTD:mbstowcs.obj
 0001:00055530       _mbstowcs_s                13126530 f   LIBCMTD:mbstowcs.obj
 0001:00055560       __vswprintf_l              13126560 f   LIBCMTD:vswprint.obj
 0001:00055730       __vswprintf                13126730 f   LIBCMTD:vswprint.obj
 0001:00055750       ___vswprintf_l             13126750 f   LIBCMTD:vswprint.obj
 0001:00055770       __vscwprintf_helper        13126770 f   LIBCMTD:vswprint.obj
 0001:00055830       __vscwprintf               13126830 f   LIBCMTD:vswprint.obj
 0001:00055850       __vscwprintf_l             13126850 f   LIBCMTD:vswprint.obj
 0001:00055870       __vscwprintf_p             13126870 f   LIBCMTD:vswprint.obj
 0001:00055890       __vscwprintf_p_l           13126890 f   LIBCMTD:vswprint.obj
 0001:000558b0       __mbtowc_l                 131268b0 f   LIBCMTD:mbtowc.obj
 0001:00055ad0       _mbtowc                    13126ad0 f   LIBCMTD:mbtowc.obj
 0001:00055af0       __allshl                   13126af0 f   LIBCMTD:llshl.obj
 0001:00055b10       __filbuf                   13126b10 f   LIBCMTD:_filbuf.obj
 0001:00055d60       _ungetc                    13126d60 f   LIBCMTD:ungetc.obj
 0001:00055e50       __ungetc_nolock            13126e50 f   LIBCMTD:ungetc.obj
 0001:000560c0       _fclose                    131270c0 f   LIBCMTD:fclose.obj
 0001:000561d0       __fclose_nolock            131271d0 f   LIBCMTD:fclose.obj
 0001:000562d0       __alloc_osfhnd             131272d0 f   LIBCMTD:osfinfo.obj
 0001:00056580       __set_osfhnd               13127580 f   LIBCMTD:osfinfo.obj
 0001:00056650       __free_osfhnd              13127650 f   LIBCMTD:osfinfo.obj
 0001:00056740       __get_osfhandle            13127740 f   LIBCMTD:osfinfo.obj
 0001:000568a0       __open_osfhandle           131278a0 f   LIBCMTD:osfinfo.obj
 0001:00056ad0       ___lock_fhandle            13127ad0 f   LIBCMTD:osfinfo.obj
 0001:00056bd0       __unlock_fhandle           13127bd0 f   LIBCMTD:osfinfo.obj
 0001:00056c00       __putwch                   13127c00 f   LIBCMTD:putwch.obj
 0001:00056c90       __putwch_nolock            13127c90 f   LIBCMTD:putwch.obj
 0001:00056d90       __cputws                   13127d90 f   LIBCMTD:putwch.obj
 0001:00056ed0       ?_ValidateRead@@YAHPBXI@Z  13127ed0 f   LIBCMTD:validate.obj
 0001:00056ef0       ?_ValidateWrite@@YAHPAXI@Z 13127ef0 f   LIBCMTD:validate.obj
 0001:00056f10       ?_ValidateExecute@@YAHP6GHXZ@Z 13127f10 f   LIBCMTD:validate.obj
 0001:00056f30       __global_unwind2           13127f30 f   LIBCMTD:exsup.obj
 0001:00056f95       __local_unwind2            13127f95 f   LIBCMTD:exsup.obj
 0001:00057019       __abnormal_termination     13128019 f   LIBCMTD:exsup.obj
 0001:0005703c       __NLG_Notify1              1312803c f   LIBCMTD:exsup.obj
 0001:00057045       __NLG_Notify               13128045 f   LIBCMTD:exsup.obj
 0001:0005705c       __NLG_Dispatch             1312805c     LIBCMTD:exsup.obj
 0001:0005705c       __NLG_Dispatch2            1312805c     LIBCMTD:exsup.obj
 0001:00057064       __NLG_Call                 13128064 f   LIBCMTD:exsup.obj
 0001:00057066       __NLG_Return2              13128066     LIBCMTD:exsup.obj
 0001:00057070       ___unDName                 13128070 f   LIBCMTD:undname.obj
 0001:00057150       ?Constructor@HeapManager@@QAEXP6APAXI@ZP6AXPAX@Z@Z 13128150 f i LIBCMTD:undname.obj
 0001:00057190       ?Destructor@HeapManager@@QAEXXZ 13128190 f i LIBCMTD:undname.obj
 0001:000571e0       ___unDNameEx               131281e0 f   LIBCMTD:undname.obj
 0001:000572c0       ??0UnDecorator@@QAE@PADPBDHP6APADJ@ZK@Z 131282c0 f i LIBCMTD:undname.obj
 0001:00057360       ??BUnDecorator@@QAEPADXZ   13128360 f i LIBCMTD:undname.obj
 0001:00057590       ?dbGetString@DName@@QBEPADXZ 13128590 f   LIBCMTD:undname.obj
 0001:000575b0       ?getDecoratedName@UnDecorator@@CA?AVDName@@XZ 131285b0 f   LIBCMTD:undname.obj
 0001:000578c0       ?getSymbolName@UnDecorator@@CA?AVDName@@XZ 131288c0 f i LIBCMTD:undname.obj
 0001:00057930       ?getZName@UnDecorator@@CA?AVDName@@_N@Z 13128930 f   LIBCMTD:undname.obj
 0001:00057ba0       ?getOperatorName@UnDecorator@@CA?AVDName@@_NPA_N@Z 13128ba0 f i LIBCMTD:undname.obj
 0001:000584b0       ?getStringEncoding@UnDecorator@@CA?AVDName@@PADH@Z 131294b0 f   LIBCMTD:undname.obj
 0001:000585b0       ?getScope@UnDecorator@@CA?AVDName@@XZ 131295b0 f   LIBCMTD:undname.obj
 0001:00058990       ?getSignedDimension@UnDecorator@@CA?AVDName@@XZ 13129990 f   LIBCMTD:undname.obj
 0001:00058a10       ?getDimension@UnDecorator@@CA?AVDName@@_N@Z 13129a10 f   LIBCMTD:undname.obj
 0001:00058cc0       ?getNumberOfDimensions@UnDecorator@@CAHXZ 13129cc0 f   LIBCMTD:undname.obj
 0001:00058dc0       ?getTemplateName@UnDecorator@@CA?AVDName@@_N@Z 13129dc0 f   LIBCMTD:undname.obj
 0001:00058fa0       ?getTemplateArgumentList@UnDecorator@@CA?AVDName@@XZ 13129fa0 f   LIBCMTD:undname.obj
 0001:00059220       ?getTemplateConstant@UnDecorator@@CA?AVDName@@XZ 1312a220 f   LIBCMTD:undname.obj
 0001:000596b0       ?composeDeclaration@UnDecorator@@CA?AVDName@@ABV2@@Z 1312a6b0 f i LIBCMTD:undname.obj
 0001:0005acb0       ?getTypeEncoding@UnDecorator@@CAHXZ 1312bcb0 f i LIBCMTD:undname.obj
 0001:0005b640       ?getBasedType@UnDecorator@@CA?AVDName@@XZ 1312c640 f   LIBCMTD:undname.obj
 0001:0005b700       ?getScopedName@UnDecorator@@CA?AVDName@@XZ 1312c700 f   LIBCMTD:undname.obj
 0001:0005b820       ?getCallingConvention@UnDecorator@@CA?AVDName@@XZ 1312c820 f   LIBCMTD:undname.obj
 0001:0005b980       ?getReturnType@UnDecorator@@CA?AVDName@@PAV2@@Z 1312c980 f   LIBCMTD:undname.obj
 0001:0005b9d0       ?getDataType@UnDecorator@@CA?AVDName@@PAV2@@Z 1312c9d0 f   LIBCMTD:undname.obj
 0001:0005bae0       ?getPrimaryDataType@UnDecorator@@CA?AVDName@@ABV2@@Z 1312cae0 f   LIBCMTD:undname.obj
 0001:0005bd80       ?getArgumentTypes@UnDecorator@@CA?AVDName@@XZ 1312cd80 f   LIBCMTD:undname.obj
 0001:0005bee0       ?getArgumentList@UnDecorator@@CA?AVDName@@XZ 1312cee0 f   LIBCMTD:undname.obj
 0001:0005c010       ?getThrowTypes@UnDecorator@@CA?AVDName@@XZ 1312d010 f   LIBCMTD:undname.obj
 0001:0005c0c0       ?getBasicDataType@UnDecorator@@CA?AVDName@@ABV2@@Z 1312d0c0 f   LIBCMTD:undname.obj
 0001:0005c630       ?getECSUDataType@UnDecorator@@CA?AVDName@@XZ 1312d630 f   LIBCMTD:undname.obj
 0001:0005c800       ?getECSUName@UnDecorator@@CA?AVDName@@XZ 1312d800 f i LIBCMTD:undname.obj
 0001:0005c820       ?getEnumType@UnDecorator@@CA?AVDName@@XZ 1312d820 f i LIBCMTD:undname.obj
 0001:0005c970       ?getFunctionIndirectType@UnDecorator@@CA?AVDName@@ABV2@@Z 1312d970 f   LIBCMTD:undname.obj
 0001:0005cdb0       ?getPtrRefType@UnDecorator@@CA?AVDName@@ABV2@0D@Z 1312ddb0 f   LIBCMTD:undname.obj
 0001:0005cf10       ?getExtendedDataIndirectType@UnDecorator@@CA?AVDName@@AADAA_NH@Z 1312df10 f   LIBCMTD:undname.obj
 0001:0005d0a0       ?getDataIndirectType@UnDecorator@@CA?AVDName@@ABV2@D0H@Z 1312e0a0 f   LIBCMTD:undname.obj
 0001:0005d790       ?getPtrRefDataType@UnDecorator@@CA?AVDName@@ABV2@H@Z 1312e790 f i LIBCMTD:undname.obj
 0001:0005d8d0       ?getArrayType@UnDecorator@@CA?AVDName@@ABV2@@Z 1312e8d0 f i LIBCMTD:undname.obj
 0001:0005daf0       ?getLexicalFrame@UnDecorator@@CA?AVDName@@XZ 1312eaf0 f i LIBCMTD:undname.obj
 0001:0005db30       ?getThisType@UnDecorator@@CA?AVDName@@XZ 1312eb30 f i LIBCMTD:undname.obj
 0001:0005db60       ?getPointerType@UnDecorator@@CA?AVDName@@ABV2@0@Z 1312eb60 f i LIBCMTD:undname.obj
 0001:0005db80       ?getPointerTypeArray@UnDecorator@@CA?AVDName@@ABV2@0@Z 1312eb80 f i LIBCMTD:undname.obj
 0001:0005dba0       ?getReferenceType@UnDecorator@@CA?AVDName@@ABV2@0@Z 1312eba0 f i LIBCMTD:undname.obj
 0001:0005dbc0       ?getDisplacement@UnDecorator@@CA?AVDName@@XZ 1312ebc0 f i LIBCMTD:undname.obj
 0001:0005dbe0       ?getCallIndex@UnDecorator@@CA?AVDName@@XZ 1312ebe0 f i LIBCMTD:undname.obj
 0001:0005dc00       ?getGuardNumber@UnDecorator@@CA?AVDName@@XZ 1312ec00 f i LIBCMTD:undname.obj
 0001:0005dc20       ?getVbTableType@UnDecorator@@CA?AVDName@@ABV2@@Z 1312ec20 f i LIBCMTD:undname.obj
 0001:0005dc40       ?getVCallThunkType@UnDecorator@@CA?AVDName@@XZ 1312ec40 f i LIBCMTD:undname.obj
 0001:0005dca0       ?getVfTableType@UnDecorator@@CA?AVDName@@ABV2@@Z 1312eca0 f i LIBCMTD:undname.obj
 0001:0005de60       ?getStorageConvention@UnDecorator@@CA?AVDName@@XZ 1312ee60 f i LIBCMTD:undname.obj
 0001:0005de80       ?getDataIndirectType@UnDecorator@@CA?AVDName@@XZ 1312ee80 f i LIBCMTD:undname.obj
 0001:0005deb0       ?getVdispMapType@UnDecorator@@CA?AVDName@@ABV2@@Z 1312eeb0 f i LIBCMTD:undname.obj
 0001:0005df20       ?getExternalDataType@UnDecorator@@CA?AVDName@@ABV2@@Z 1312ef20 f i LIBCMTD:undname.obj
 0001:0005dfb0       ?doMSKeywords@UnDecorator@@SAHXZ 1312efb0 f i LIBCMTD:undname.obj
 0001:0005dfd0       ?doPtr64@UnDecorator@@SAHXZ 1312efd0 f i LIBCMTD:undname.obj
 0001:0005dff0       ?doFunctionReturns@UnDecorator@@SAHXZ 1312eff0 f i LIBCMTD:undname.obj
 0001:0005e010       ?doAllocationModel@UnDecorator@@SAHXZ 1312f010 f i LIBCMTD:undname.obj
 0001:0005e030       ?doAllocationLanguage@UnDecorator@@SAHXZ 1312f030 f i LIBCMTD:undname.obj
 0001:0005e050       ?doThisTypes@UnDecorator@@SAHXZ 1312f050 f i LIBCMTD:undname.obj
 0001:0005e070       ?doAccessSpecifiers@UnDecorator@@SAHXZ 1312f070 f i LIBCMTD:undname.obj
 0001:0005e090       ?doThrowTypes@UnDecorator@@SAHXZ 1312f090 f i LIBCMTD:undname.obj
 0001:0005e0b0       ?doMemberTypes@UnDecorator@@SAHXZ 1312f0b0 f i LIBCMTD:undname.obj
 0001:0005e0d0       ?doNameOnly@UnDecorator@@SAHXZ 1312f0d0 f i LIBCMTD:undname.obj
 0001:0005e0e0       ?doTypeOnly@UnDecorator@@SAHXZ 1312f0e0 f i LIBCMTD:undname.obj
 0001:0005e0f0       ?haveTemplateParameters@UnDecorator@@SAHXZ 1312f0f0 f i LIBCMTD:undname.obj
 0001:0005e100       ?doEcsu@UnDecorator@@SAHXZ 1312f100 f i LIBCMTD:undname.obj
 0001:0005e120       ?doEllipsis@UnDecorator@@SAHXZ 1312f120 f i LIBCMTD:undname.obj
 0001:0005e140       ?UScore@UnDecorator@@SAPBDW4Tokens@@@Z 1312f140 f   LIBCMTD:undname.obj
 0001:0005e170       ?doUnderScore@UnDecorator@@SAHXZ 1312f170 f i LIBCMTD:undname.obj
 0001:0005e190       ??2@YAPAXIAAVHeapManager@@H@Z 1312f190 f i LIBCMTD:undname.obj
 0001:0005e1b0       ?getMemory@HeapManager@@QAEPAXIH@Z 1312f1b0 f   LIBCMTD:undname.obj
 0001:0005e2c0       ??0Block@HeapManager@@QAE@XZ 1312f2c0 f i LIBCMTD:undname.obj
 0001:0005e2e0       ??H@YA?AVDName@@DABV0@@Z   1312f2e0 f i LIBCMTD:undname.obj
 0001:0005e310       ??H@YA?AVDName@@W4DNameStatus@@ABV0@@Z 1312f310 f i LIBCMTD:undname.obj
 0001:0005e340       ??H@YA?AVDName@@PBDABV0@@Z 1312f340 f i LIBCMTD:undname.obj
 0001:0005e370       ??0DName@@QAE@XZ           1312f370 f i LIBCMTD:undname.obj
 0001:0005e420       ??0DName@@QAE@D@Z          1312f420 f   LIBCMTD:undname.obj
 0001:0005e4f0       ??0DName@@QAE@ABV0@@Z      1312f4f0 f i LIBCMTD:undname.obj
 0001:0005e650       ??0DName@@QAE@PAV0@@Z      1312f650 f   LIBCMTD:undname.obj
 0001:0005e770       ??0DName@@QAE@PBD@Z        1312f770 f   LIBCMTD:undname.obj
 0001:0005e840       ??0DName@@QAE@AAPBDD@Z     1312f840 f   LIBCMTD:undname.obj
 0001:0005eaf0       ?doNoIdentCharCheck@UnDecorator@@SAHXZ 1312faf0 f i LIBCMTD:undname.obj
 0001:0005eb00       ??0DName@@QAE@_K@Z         1312fb00 f   LIBCMTD:undname.obj
 0001:0005ec30       ??0DName@@QAE@_J@Z         1312fc30 f   LIBCMTD:undname.obj
 0001:0005eda0       ??0DName@@QAE@W4DNameStatus@@@Z 1312fda0 f   LIBCMTD:undname.obj
 0001:0005eec0       ?isValid@DName@@QBEHXZ     1312fec0 f   LIBCMTD:undname.obj
 0001:0005ef00       ?isEmpty@DName@@QBEHXZ     1312ff00 f   LIBCMTD:undname.obj
 0001:0005ef40       ?status@DName@@QBE?AW4DNameStatus@@XZ 1312ff40 f i LIBCMTD:undname.obj
 0001:0005ef60       ?clearStatus@DName@@QAEXXZ 1312ff60 f i LIBCMTD:undname.obj
 0001:0005ef80       ?setPtrRef@DName@@QAEAAV1@XZ 1312ff80 f i LIBCMTD:undname.obj
 0001:0005efa0       ?isPtrRef@DName@@QBEHXZ    1312ffa0 f i LIBCMTD:undname.obj
 0001:0005efc0       ?isUDC@DName@@QBEHXZ       1312ffc0 f i LIBCMTD:undname.obj
 0001:0005f000       ?setIsUDC@DName@@QAEXXZ    13130000 f i LIBCMTD:undname.obj
 0001:0005f030       ?isUDTThunk@DName@@QBEHXZ  13130030 f i LIBCMTD:undname.obj
 0001:0005f070       ?setIsArray@DName@@QAEXXZ  13130070 f i LIBCMTD:undname.obj
 0001:0005f090       ?isArray@DName@@QBEHXZ     13130090 f i LIBCMTD:undname.obj
 0001:0005f0b0       ?isNoTE@DName@@QBEHXZ      131300b0 f i LIBCMTD:undname.obj
 0001:0005f0d0       ?setIsNoTE@DName@@QAEXXZ   131300d0 f i LIBCMTD:undname.obj
 0001:0005f0f0       ?isPinPtr@DName@@QBEHXZ    131300f0 f i LIBCMTD:undname.obj
 0001:0005f110       ?setIsPinPtr@DName@@QAEXXZ 13130110 f i LIBCMTD:undname.obj
 0001:0005f130       ?isComArray@DName@@QBEHXZ  13130130 f i LIBCMTD:undname.obj
 0001:0005f150       ?setIsComArray@DName@@QAEXXZ 13130150 f i LIBCMTD:undname.obj
 0001:0005f170       ?isVCallThunk@DName@@QBEHXZ 13130170 f i LIBCMTD:undname.obj
 0001:0005f190       ?setIsVCallThunk@DName@@QAEXXZ 13130190 f i LIBCMTD:undname.obj
 0001:0005f1b0       ?length@DName@@QBEHXZ      131301b0 f   LIBCMTD:undname.obj
 0001:0005f210       ?getLastChar@DName@@QBEDXZ 13130210 f   LIBCMTD:undname.obj
 0001:0005f290       ?getString@DName@@QBEPADPADH@Z 13130290 f   LIBCMTD:undname.obj
 0001:0005f390       ??HDName@@QBE?AV0@D@Z      13130390 f   LIBCMTD:undname.obj
 0001:0005f3e0       ??HDName@@QBE?AV0@PBD@Z    131303e0 f   LIBCMTD:undname.obj
 0001:0005f430       ??HDName@@QBE?AV0@ABV0@@Z  13130430 f   LIBCMTD:undname.obj
 0001:0005f4a0       ??HDName@@QBE?AV0@PAV0@@Z  131304a0 f   LIBCMTD:undname.obj
 0001:0005f4f0       ??HDName@@QBE?AV0@W4DNameStatus@@@Z 131304f0 f   LIBCMTD:undname.obj
 0001:0005f540       ??YDName@@QAEAAV0@D@Z      13130540 f   LIBCMTD:undname.obj
 0001:0005f5f0       ??YDName@@QAEAAV0@PBD@Z    131305f0 f   LIBCMTD:undname.obj
 0001:0005f6b0       ??YDName@@QAEAAV0@ABV0@@Z  131306b0 f   LIBCMTD:undname.obj
 0001:0005f740       ??YDName@@QAEAAV0@PAV0@@Z  13130740 f   LIBCMTD:undname.obj
 0001:0005f840       ??YDName@@QAEAAV0@W4DNameStatus@@@Z 13130840 f   LIBCMTD:undname.obj
 0001:0005f910       ??_5DName@@QAEAAV0@ABV0@@Z 13130910 f   LIBCMTD:undname.obj
 0001:0005f960       ??4DName@@QAEAAV0@D@Z      13130960 f   LIBCMTD:undname.obj
 0001:0005f9d0       ??4DName@@QAEAAV0@PBD@Z    131309d0 f   LIBCMTD:undname.obj
 0001:0005fa50       ??4DName@@QAEAAV0@ABV0@@Z  13130a50 f   LIBCMTD:undname.obj
 0001:0005fb60       ??4DName@@QAEAAV0@PAV0@@Z  13130b60 f   LIBCMTD:undname.obj
 0001:0005fc50       ??4DName@@QAEAAV0@W4DNameStatus@@@Z 13130c50 f   LIBCMTD:undname.obj
 0001:0005fd60       ?doPchar@DName@@AAEXPBDH@Z 13130d60 f   LIBCMTD:undname.obj
 0001:0005feb0       ?isFull@Replicator@@QBEHXZ 13130eb0 f i LIBCMTD:undname.obj
 0001:0005fed0       ??0Replicator@@QAE@XZ      13130ed0 f i LIBCMTD:undname.obj
 0001:0005ff10       ??YReplicator@@QAEAAV0@ABVDName@@@Z 13130f10 f   LIBCMTD:undname.obj
 0001:0005ffa0       ??AReplicator@@QBEABVDName@@H@Z 13130fa0 f   LIBCMTD:undname.obj
 0001:0005fff0       ??0DNameNode@@IAE@XZ       13130ff0 f   LIBCMTD:undname.obj
 0001:00060020       ?nextNode@DNameNode@@QBEPAV1@XZ 13131020 f i LIBCMTD:undname.obj
 0001:00060040       ?clone@DNameNode@@QAEPAV1@XZ 13131040 f   LIBCMTD:undname.obj
 0001:000600c0       ??0DName@@QAE@PAVDNameNode@@@Z 131310c0 f i LIBCMTD:undname.obj
 0001:00060170       ??YDNameNode@@QAEAAV0@PAV0@@Z 13131170 f   LIBCMTD:undname.obj
 0001:000601d0       ??0charNode@@QAE@D@Z       131311d0 f   LIBCMTD:undname.obj
 0001:00060200       ?length@charNode@@UBEHXZ   13131200 f i LIBCMTD:undname.obj
 0001:00060210       ?getLastChar@charNode@@UBEDXZ 13131210 f i LIBCMTD:undname.obj
 0001:00060230       ?getString@charNode@@UBEPADPADH@Z 13131230 f   LIBCMTD:undname.obj
 0001:00060260       ??0pcharNode@@QAE@PBDH@Z   13131260 f   LIBCMTD:undname.obj
 0001:00060310       ?length@pcharNode@@UBEHXZ  13131310 f i LIBCMTD:undname.obj
 0001:00060330       ?getLastChar@pcharNode@@UBEDXZ 13131330 f i LIBCMTD:undname.obj
 0001:00060370       ?getString@pcharNode@@UBEPADPADH@Z 13131370 f   LIBCMTD:undname.obj
 0001:000603e0       ??0pDNameNode@@QAE@PAVDName@@@Z 131313e0 f   LIBCMTD:undname.obj
 0001:00060440       ?length@pDNameNode@@UBEHXZ 13131440 f i LIBCMTD:undname.obj
 0001:00060470       ?getLastChar@pDNameNode@@UBEDXZ 13131470 f i LIBCMTD:undname.obj
 0001:000604a0       ?getString@pDNameNode@@UBEPADPADH@Z 131314a0 f   LIBCMTD:undname.obj
 0001:000604f0       ??0DNameStatusNode@@QAE@W4DNameStatus@@@Z 131314f0 f   LIBCMTD:undname.obj
 0001:00060540       ?length@DNameStatusNode@@UBEHXZ 13131540 f i LIBCMTD:undname.obj
 0001:00060560       ?getLastChar@DNameStatusNode@@UBEDXZ 13131560 f i LIBCMTD:undname.obj
 0001:00060580       ?getString@DNameStatusNode@@UBEPADPADH@Z 13131580 f   LIBCMTD:undname.obj
 0001:000606d0       __fptrap                   131316d0 f   LIBCMTD:crt0fp.obj
 0001:000606e0       _fputwc                    131316e0 f   LIBCMTD:fputwc.obj
 0001:000607e0       __fputwc_nolock            131317e0 f   LIBCMTD:fputwc.obj
 0001:00060bc0       _putwc                     13131bc0 f   LIBCMTD:fputwc.obj
 0001:00060be0       __mbsnbcat_s_l             13131be0 f   LIBCMTD:mbsnbcat_s_l.obj
 0001:000613c0       __mbsnbcpy_s_l             131323c0 f   LIBCMTD:mbsnbcpy_s_l.obj
 0001:00061a40       _vfprintf_helper           13132a40 f   LIBCMTD:vfprintf.obj
 0001:00061d20       __vfprintf_l               13132d20 f   LIBCMTD:vfprintf.obj
 0001:00061d50       __vfprintf_s_l             13132d50 f   LIBCMTD:vfprintf.obj
 0001:00061d80       __vfprintf_p_l             13132d80 f   LIBCMTD:vfprintf.obj
 0001:00061db0       _vfprintf                  13132db0 f   LIBCMTD:vfprintf.obj
 0001:00061dd0       _vfprintf_s                13132dd0 f   LIBCMTD:vfprintf.obj
 0001:00061df0       __vfprintf_p               13132df0 f   LIBCMTD:vfprintf.obj
 0001:00061e10       _wcstol                    13132e10 f   LIBCMTD:wcstol.obj
 0001:00062290       __wcstol_l                 13133290 f   LIBCMTD:wcstol.obj
 0001:000622b0       _wcstoul                   131332b0 f   LIBCMTD:wcstol.obj
 0001:00062300       __wcstoul_l                13133300 f   LIBCMTD:wcstol.obj
 0001:00062320       _vprintf_helper            13133320 f   LIBCMTD:vprintf.obj
 0001:00062440       __vprintf_l                13133440 f   LIBCMTD:vprintf.obj
 0001:00062460       __vprintf_s_l              13133460 f   LIBCMTD:vprintf.obj
 0001:00062480       __vprintf_p_l              13133480 f   LIBCMTD:vprintf.obj
 0001:000624a0       _vprintf                   131334a0 f   LIBCMTD:vprintf.obj
 0001:000624c0       _vprintf_s                 131334c0 f   LIBCMTD:vprintf.obj
 0001:000624e0       __vprintf_p                131334e0 f   LIBCMTD:vprintf.obj
 0001:00062500       __iswctype_l               13133500 f   LIBCMTD:iswctype.obj
 0001:000625b0       _iswctype                  131335b0 f   LIBCMTD:iswctype.obj
 0001:00062640       _is_wctype                 13133640 f   LIBCMTD:iswctype.obj
 0001:00062660       ___ansicp                  13133660 f   LIBCMTD:convrtcp.obj
 0001:000626c0       ___convertcp               131336c0 f   LIBCMTD:convrtcp.obj
 0001:00062900       __get_daylight             13133900 f   LIBCMTD:timeset.obj
 0001:00062980       __get_dstbias              13133980 f   LIBCMTD:timeset.obj
 0001:00062a00       __get_timezone             13133a00 f   LIBCMTD:timeset.obj
 0001:00062a80       __get_tzname               13133a80 f   LIBCMTD:timeset.obj
 0001:00062c50       ___daylight                13133c50 f   LIBCMTD:timeset.obj
 0001:00062c60       ___dstbias                 13133c60 f   LIBCMTD:timeset.obj
 0001:00062c70       ___timezone                13133c70 f   LIBCMTD:timeset.obj
 0001:00062c80       ___tzname                  13133c80 f   LIBCMTD:timeset.obj
 0001:00062c90       ___tzset                   13133c90 f   LIBCMTD:tzset.obj
 0001:00062d20       __tzset                    13133d20 f   LIBCMTD:tzset.obj
 0001:000632d0       __set_daylight             131342d0 f i LIBCMTD:tzset.obj
 0001:000632e0       __set_dstbias              131342e0 f i LIBCMTD:tzset.obj
 0001:000632f0       __set_timezone             131342f0 f i LIBCMTD:tzset.obj
 0001:00063300       __isindst                  13134300 f   LIBCMTD:tzset.obj
 0001:00063960       __stricmp_l                13134960 f   LIBCMTD:stricmp.obj
 0001:00063b10       ___ascii_stricmp           13134b10 f   LIBCMTD:stricmp.obj
 0001:00063b80       __stricmp                  13134b80 f   LIBCMTD:stricmp.obj
 0001:00063c90       __strnicmp_l               13134c90 f   LIBCMTD:strnicmp.obj
 0001:00063ed0       __strnicmp                 13134ed0 f   LIBCMTD:strnicmp.obj
 0001:00064060       __read                     13135060 f   LIBCMTD:read.obj
 0001:000642f0       __read_nolock              131352f0 f   LIBCMTD:read.obj
 0001:00065230       __close                    13136230 f   LIBCMTD:close.obj
 0001:00065440       __close_nolock             13136440 f   LIBCMTD:close.obj
 0001:00065510       ___initconin               13136510 f   LIBCMTD:initcon.obj
 0001:00065540       ___initconout              13136540 f   LIBCMTD:initcon.obj
 0001:00065570       ___termcon                 13136570 f   LIBCMTD:initcon.obj
 0001:000655c0       __flswbuf                  131365c0 f   LIBCMTD:_flswbuf.obj
 0001:000658a0       _strncat_s                 131368a0 f   LIBCMTD:strncat_s.obj
 0001:00065d40       __wchartodigit             13136d40 f   LIBCMTD:wchtodig.obj
 0001:00066060       ___crtGetStringTypeW       13137060 f   LIBCMTD:w_str.obj
 0001:00066360       _getenv                    13137360 f   LIBCMTD:getenv.obj
 0001:000664b0       __getenv_helper_nolock     131374b0 f   LIBCMTD:getenv.obj
 0001:000665d0       _getenv_s                  131375d0 f   LIBCMTD:getenv.obj
 0001:00066800       __dupenv_s                 13137800 f   LIBCMTD:getenv.obj
 0001:00066820       __dupenv_s_dbg             13137820 f   LIBCMTD:getenv.obj
 0001:00066a70       __tolower                  13137a70 f   LIBCMTD:tolower.obj
 0001:00066a80       __tolower_l                13137a80 f   LIBCMTD:tolower.obj
 0001:00066c60       _tolower                   13137c60 f   LIBCMTD:tolower.obj
 0001:00066cb0       ___ascii_strnicmp          13137cb0 f   LIBCMTD:_strnicm.obj
 0001:00066d20       __mbsnbicoll_l             13137d20 f   LIBCMTD:mbsnbico.obj
 0001:00066f60       __mbsnbicoll               13137f60 f   LIBCMTD:mbsnbico.obj
 0001:00066f80       ___wtomb_environ           13137f80 f   LIBCMTD:wtombenv.obj
 0001:00067070       ___crtCompareStringA       13138070 f   LIBCMTD:a_cmp.obj
 0001:00067630       __strnicoll_l              13138630 f   LIBCMTD:strnicol.obj
 0001:00067880       __strnicoll                13138880 f   LIBCMTD:strnicol.obj
 0001:000678c0       ___crtsetenv               131388c0 f   LIBCMTD:setenv.obj
 0001:00067f40       __mbschr_l                 13138f40 f   LIBCMTD:mbschr.obj
 0001:000680d0       __mbschr                   131390d0 f   LIBCMTD:mbschr.obj
 0001:00068100       _strchr                    13139100 f   LIBCMTD:strchr.obj
 0001:00068106       ___from_strstr_to_strchr   13139106     LIBCMTD:strchr.obj
 0001:000681be       ?GetVersion@CWtDict2@@QAEGXZ 131391be f   WTCommLibd:WTCommLibD.dll
 0001:000681c4       ?GetStructNum@CWtDict@@QAEGXZ 131391c4 f   WTCommLibd:WTCommLibD.dll
 0001:000681ca       ??0CWtDict2@@QAE@GG@Z      131391ca f   WTCommLibd:WTCommLibD.dll
 0001:000681d0       ??1CWtDict2@@UAE@XZ        131391d0 f   WTCommLibd:WTCommLibD.dll
 0001:000681d6       ?GetStructInfo@CWtDict@@QAEQAUtagWTSTRUCT_INFO@@G@Z 131391d6 f   WTCommLibd:WTCommLibD.dll
 0001:000681dc       ?SetDict@CWtCommon@@QAEXPAVCWtDict@@@Z 131391dc f   WTCommLibd:WTCommLibD.dll
 0001:000681e2       ?CreateStruct@CWtCommon@@QAEJGPAXK@Z 131391e2 f   WTCommLibd:WTCommLibD.dll
 0001:000681e8       ?GetItemValueFromID@CWtCommon@@QAEPBDGPADGHK@Z 131391e8 f   WTCommLibd:WTCommLibD.dll
 0001:000681ee       ?GetItemLongValueFromID@CWtCommon@@QAEJGK@Z 131391ee f   WTCommLibd:WTCommLibD.dll
 0001:000681f4       ?GetReturnNo@CWtCommon@@QAEJXZ 131391f4 f   WTCommLibd:WTCommLibD.dll
 0001:000681fa       ?GetErrmsg@CWtCommon@@QAEPBDPADG@Z 131391fa f   WTCommLibd:WTCommLibD.dll
 0001:00068200       ?GetLineCount@CWtCommon@@QAEGXZ 13139200 f   WTCommLibd:WTCommLibD.dll
 0001:00068206       ?GetCookies@CWtCommon@@QAEPBDPADG@Z 13139206 f   WTCommLibd:WTCommLibD.dll
 0001:0006820c       ?MoveNext@CWtCommon@@QAEHXZ 1313920c f   WTCommLibd:WTCommLibD.dll
 0001:00068212       ??0CWtCommon@@QAE@PAVCWtDict@@PAVCWtCache@@H@Z 13139212 f   WTCommLibd:WTCommLibD.dll
 0001:00068218       ??1CWtCommon@@UAE@XZ       13139218 f   WTCommLibd:WTCommLibD.dll
 0001:0006821e       _InterlockedIncrement@4    1313921e f   kernel32:KERNEL32.dll
 0001:00068224       _InterlockedDecrement@4    13139224 f   kernel32:KERNEL32.dll
 0001:0006822a       _Sleep@4                   1313922a f   kernel32:KERNEL32.dll
 0001:00068230       _InterlockedExchange@8     13139230 f   kernel32:KERNEL32.dll
 0001:00068236       _InitializeCriticalSection@4 13139236 f   kernel32:KERNEL32.dll
 0001:0006823c       _DeleteCriticalSection@4   1313923c f   kernel32:KERNEL32.dll
 0001:00068242       _EnterCriticalSection@4    13139242 f   kernel32:KERNEL32.dll
 0001:00068248       _LeaveCriticalSection@4    13139248 f   kernel32:KERNEL32.dll
 0001:0006824e       _GetModuleFileNameW@12     1313924e f   kernel32:KERNEL32.dll
 0001:00068254       _WriteConsoleW@20          13139254 f   kernel32:KERNEL32.dll
 0001:0006825a       _GetFileType@4             1313925a f   kernel32:KERNEL32.dll
 0001:00068260       _GetStdHandle@4            13139260 f   kernel32:KERNEL32.dll
 0001:00068266       _GetCurrentThreadId@0      13139266 f   kernel32:KERNEL32.dll
 0001:0006826c       _GetCommandLineA@0         1313926c f   kernel32:KERNEL32.dll
 0001:00068272       _HeapFree@12               13139272 f   kernel32:KERNEL32.dll
 0001:00068278       _GetVersionExA@4           13139278 f   kernel32:KERNEL32.dll
 0001:0006827e       _HeapAlloc@12              1313927e f   kernel32:KERNEL32.dll
 0001:00068284       _GetProcessHeap@0          13139284 f   kernel32:KERNEL32.dll
 0001:0006828a       _HeapValidate@12           1313928a f   kernel32:KERNEL32.dll
 0001:00068290       _IsBadReadPtr@8            13139290 f   kernel32:KERNEL32.dll
 0001:00068296       _TerminateProcess@8        13139296 f   kernel32:KERNEL32.dll
 0001:0006829c       _GetCurrentProcess@0       1313929c f   kernel32:KERNEL32.dll
 0001:000682a2       _UnhandledExceptionFilter@4 131392a2 f   kernel32:KERNEL32.dll
 0001:000682a8       _SetUnhandledExceptionFilter@4 131392a8 f   kernel32:KERNEL32.dll
 0001:000682ae       _IsDebuggerPresent@0       131392ae f   kernel32:KERNEL32.dll
 0001:000682b4       _RtlUnwind@16              131392b4 f   kernel32:KERNEL32.dll
 0001:000682ba       _RaiseException@16         131392ba f   kernel32:KERNEL32.dll
 0001:000682c0       _DebugBreak@0              131392c0 f   kernel32:KERNEL32.dll
 0001:000682c6       _WideCharToMultiByte@32    131392c6 f   kernel32:KERNEL32.dll
 0001:000682cc       _MultiByteToWideChar@24    131392cc f   kernel32:KERNEL32.dll
 0001:000682d2       _lstrlenA@4                131392d2 f   kernel32:KERNEL32.dll
 0001:000682d8       _GetProcAddress@8          131392d8 f   kernel32:KERNEL32.dll
 0001:000682de       _LoadLibraryA@4            131392de f   kernel32:KERNEL32.dll
 0001:000682e4       _FatalAppExitA@8           131392e4 f   kernel32:KERNEL32.dll
 0001:000682ea       _GetModuleHandleA@4        131392ea f   kernel32:KERNEL32.dll
 0001:000682f0       _ExitProcess@4             131392f0 f   kernel32:KERNEL32.dll
 0001:000682f6       _GetLastError@0            131392f6 f   kernel32:KERNEL32.dll
 0001:000682fc       _SetConsoleCtrlHandler@8   131392fc f   kernel32:KERNEL32.dll
 0001:00068302       _LoadLibraryW@4            13139302 f   kernel32:KERNEL32.dll
 0001:00068308       _GetModuleFileNameA@12     13139308 f   kernel32:KERNEL32.dll
 0001:0006830e       _WriteFile@20              1313930e f   kernel32:KERNEL32.dll
 0001:00068314       _TlsGetValue@4             13139314 f   kernel32:KERNEL32.dll
 0001:0006831a       _TlsAlloc@0                1313931a f   kernel32:KERNEL32.dll
 0001:00068320       _TlsSetValue@8             13139320 f   kernel32:KERNEL32.dll
 0001:00068326       _TlsFree@4                 13139326 f   kernel32:KERNEL32.dll
 0001:0006832c       _SetLastError@4            1313932c f   kernel32:KERNEL32.dll
 0001:00068332       _GetCurrentThread@0        13139332 f   kernel32:KERNEL32.dll
 0001:00068338       _SetHandleCount@4          13139338 f   kernel32:KERNEL32.dll
 0001:0006833e       _GetStartupInfoA@4         1313933e f   kernel32:KERNEL32.dll
 0001:00068344       _FreeEnvironmentStringsA@4 13139344 f   kernel32:KERNEL32.dll
 0001:0006834a       _GetEnvironmentStrings@0   1313934a f   kernel32:KERNEL32.dll
 0001:00068350       _FreeEnvironmentStringsW@4 13139350 f   kernel32:KERNEL32.dll
 0001:00068356       _GetEnvironmentStringsW@0  13139356 f   kernel32:KERNEL32.dll
 0001:0006835c       _HeapDestroy@4             1313935c f   kernel32:KERNEL32.dll
 0001:00068362       _HeapCreate@12             13139362 f   kernel32:KERNEL32.dll
 0001:00068368       _VirtualFree@12            13139368 f   kernel32:KERNEL32.dll
 0001:0006836e       _QueryPerformanceCounter@4 1313936e f   kernel32:KERNEL32.dll
 0001:00068374       _GetTickCount@0            13139374 f   kernel32:KERNEL32.dll
 0001:0006837a       _GetCurrentProcessId@0     1313937a f   kernel32:KERNEL32.dll
 0001:00068380       _GetSystemTimeAsFileTime@4 13139380 f   kernel32:KERNEL32.dll
 0001:00068386       _HeapReAlloc@16            13139386 f   kernel32:KERNEL32.dll
 0001:0006838c       _VirtualAlloc@16           1313938c f   kernel32:KERNEL32.dll
 0001:00068392       _GetACP@0                  13139392 f   kernel32:KERNEL32.dll
 0001:00068398       _GetOEMCP@0                13139398 f   kernel32:KERNEL32.dll
 0001:0006839e       _GetCPInfo@8               1313939e f   kernel32:KERNEL32.dll
 0001:000683a4       _IsValidCodePage@4         131393a4 f   kernel32:KERNEL32.dll
 0001:000683aa       _OutputDebugStringA@4      131393aa f   kernel32:KERNEL32.dll
 0001:000683b0       _OutputDebugStringW@4      131393b0 f   kernel32:KERNEL32.dll
 0001:000683b6       _FlushFileBuffers@4        131393b6 f   kernel32:KERNEL32.dll
 0001:000683bc       _GetConsoleCP@0            131393bc f   kernel32:KERNEL32.dll
 0001:000683c2       _GetConsoleMode@8          131393c2 f   kernel32:KERNEL32.dll
 0001:000683c8       _VirtualQuery@12           131393c8 f   kernel32:KERNEL32.dll
 0001:000683ce       _FreeLibrary@4             131393ce f   kernel32:KERNEL32.dll
 0001:000683d4       _GetLocaleInfoA@16         131393d4 f   kernel32:KERNEL32.dll
 0001:000683da       _GetLocaleInfoW@16         131393da f   kernel32:KERNEL32.dll
 0001:000683e0       _SetFilePointer@16         131393e0 f   kernel32:KERNEL32.dll
 0001:000683e6       _LCMapStringA@24           131393e6 f   kernel32:KERNEL32.dll
 0001:000683ec       _LCMapStringW@24           131393ec f   kernel32:KERNEL32.dll
 0001:000683f2       _GetStringTypeA@20         131393f2 f   kernel32:KERNEL32.dll
 0001:000683f8       _GetStringTypeW@16         131393f8 f   kernel32:KERNEL32.dll
 0001:000683fe       _GetTimeFormatA@24         131393fe f   kernel32:KERNEL32.dll
 0001:00068404       _GetDateFormatA@24         13139404 f   kernel32:KERNEL32.dll
 0001:0006840a       _IsValidLocale@8           1313940a f   kernel32:KERNEL32.dll
 0001:00068410       _EnumSystemLocalesA@8      13139410 f   kernel32:KERNEL32.dll
 0001:00068416       _GetUserDefaultLCID@0      13139416 f   kernel32:KERNEL32.dll
 0001:0006841c       _SetStdHandle@8            1313941c f   kernel32:KERNEL32.dll
 0001:00068422       _WriteConsoleA@20          13139422 f   kernel32:KERNEL32.dll
 0001:00068428       _GetConsoleOutputCP@0      13139428 f   kernel32:KERNEL32.dll
 0001:0006842e       _GetTimeZoneInformation@4  1313942e f   kernel32:KERNEL32.dll
 0001:00068434       _ReadFile@20               13139434 f   kernel32:KERNEL32.dll
 0001:0006843a       _CloseHandle@4             1313943a f   kernel32:KERNEL32.dll
 0001:00068440       _CreateFileA@28            13139440 f   kernel32:KERNEL32.dll
 0001:00068446       _CompareStringA@24         13139446 f   kernel32:KERNEL32.dll
 0001:0006844c       _CompareStringW@24         1313944c f   kernel32:KERNEL32.dll
 0001:00068452       _SetEnvironmentVariableA@8 13139452 f   kernel32:KERNEL32.dll
 0001:00068460       _regexec                   13139460 f   regex_static:regexec.obj
 0001:0006c350       _regcomp                   1313d350 f   regex_static:regcomp.obj
 0001:0006fd20       _regfree                   13140d20 f   regex_static:regfree.obj
 0001:0006fdf0       ?tick@micro_time@base@tls@@SA_KXZ 13140df0 f   base_static:time_util.obj
 0001:0006fe90       ?set_start@micro_time@base@tls@@SAX_K@Z 13140e90 f   base_static:time_util.obj
 0001:0006ff70       ?format_with_ymd@micro_time@base@tls@@SAPBDPAD_K@Z 13140f70 f   base_static:time_util.obj
 0001:00070200       ?to_millisecond@micro_time@base@tls@@SA?B_K_K@Z 13141200 f i base_static:time_util.obj
 0001:00070240       ?format@micro_time@base@tls@@SAPBDPAD_K@Z 13141240 f   base_static:time_util.obj
 0001:00070410       ?now@DayTime@base@tls@@SAIXZ 13141410 f   base_static:time_util.obj
 0001:00070450       ?to_localtime@DayTime@base@tls@@SAIIIIIII@Z 13141450 f   base_static:time_util.obj
 0001:00070500       ?get_localtime@DayTime@base@tls@@SAIPAI00000I@Z 13141500 f   base_static:time_util.obj
 0001:000705e0       ?to_string@DayTime@base@tls@@SAII@Z 131415e0 f   base_static:time_util.obj
 0001:00070680       ?to_string@DayTime@base@tls@@SAI_K@Z 13141680 f   base_static:time_util.obj
 0001:00070750       ?to_time@DayTime@base@tls@@SAII@Z 13141750 f   base_static:time_util.obj
 0001:000707c0       ?day_sec@DayTime@base@tls@@SAII@Z 131417c0 f   base_static:time_util.obj
 0001:00070860       ??0Lock@base@tls@@QAE@XZ   13141860 f   base_static:lock.obj
 0001:000708c0       ??1Lock@base@tls@@QAE@XZ   131418c0 f   base_static:lock.obj
 0001:00070920       ?Acquire@Lock@base@tls@@QAEXXZ 13141920 f   base_static:lock.obj
 0001:00070980       ?Release@Lock@base@tls@@QAEXXZ 13141980 f   base_static:lock.obj
 0001:000709e0       ?Try@Lock@base@tls@@QAEIXZ 131419e0 f   base_static:lock.obj
 0001:00070a40       ??0WaitableEvent@base@tls@@QAE@II@Z 13141a40 f   base_static:waitable_event.obj
 0001:00070aa0       ??1WaitableEvent@base@tls@@QAE@XZ 13141aa0 f   base_static:waitable_event.obj
 0001:00070ae0       ?Reset@WaitableEvent@base@tls@@QAEXXZ 13141ae0 f   base_static:waitable_event.obj
 0001:00070b20       ?Signal@WaitableEvent@base@tls@@QAEXXZ 13141b20 f   base_static:waitable_event.obj
 0001:00070b60       ?IsSignaled@WaitableEvent@base@tls@@QAEIXZ 13141b60 f   base_static:waitable_event.obj
 0001:00070b90       ?Wait@WaitableEvent@base@tls@@QAEXXZ 13141b90 f   base_static:waitable_event.obj
 0001:00070bd0       ?TimedWait@WaitableEvent@base@tls@@QAEII@Z 13141bd0 f   base_static:waitable_event.obj
 0001:00070c40       ?strstr_s@@YAPADPBDI0@Z    13141c40 f   base_static:port_c.obj
 0001:00070d50       ?strchr_s@@YAPADPBDIH@Z    13141d50 f   base_static:port_c.obj
 0001:00070db0       ?strncpy_s_@@YAPADPADIPBDI@Z 13141db0 f   base_static:port_c.obj
 0001:00070e10       ??Eatomic_count@base@tls@@QAEJXZ 13141e10 f   base_static:atomic_count.obj
 0001:00070e50       ??Fatomic_count@base@tls@@QAEJXZ 13141e50 f   base_static:atomic_count.obj
 0001:00070e90       ?OpenFile@base@tls@@YAPAU_iobuf@@PBD0@Z 13141e90 f   base_static:file_util.obj
 0001:00070eb0       ?CloseFile@base@tls@@YAIPAU_iobuf@@@Z 13141eb0 f   base_static:file_util.obj
 0001:00070ed0       ?ReadFile@base@tls@@YA?AW4rc_e@@PAEPA_JPAU_iobuf@@_J@Z 13141ed0 f   base_static:file_util.obj
 0001:00070fc0       ?WriteFile@base@tls@@YA?AW4rc_e@@PAU_iobuf@@_JPBEPA_J@Z 13141fc0 f   base_static:file_util.obj
 0001:000710b0       ?ReadFile@base@tls@@YA?AW4rc_e@@PAEPA_JPAU_iobuf@@@Z 131420b0 f   base_static:file_util.obj
 0001:00071170       ?WriteFile@base@tls@@YA?AW4rc_e@@PAU_iobuf@@PBEPA_J@Z 13142170 f   base_static:file_util.obj
 0001:00071230       ?FlushFile@base@tls@@YA?AW4rc_e@@PAU_iobuf@@@Z 13142230 f   base_static:file_util.obj
 0001:00071270       ?FromFileTime@base@tls@@YA_KABU_FILETIME@12@@Z 13142270 f   base_static:file_util.obj
 0001:000712f0       _FindData2FileInfo         131422f0 f   base_static:file_util.obj
 0001:000713d0       ?GetPlatformFileInfo@base@tls@@YAIPAU_iobuf@@PAUPlatformFileInfo@12@@Z 131423d0 f   base_static:file_util.obj
 0001:00071500       ?MakeSureDirectoryPathExists@base@tls@@YGHPBD@Z 13142500 f   base_static:file_util.obj
 0001:00071840       ?MakeDirectory@base@tls@@YAIPBD@Z 13142840 f   base_static:file_util.obj
 0001:00071860       ?Move@base@tls@@YAIPBD0@Z  13142860 f   base_static:file_util.obj
 0001:000718c0       ?Copy@base@tls@@YAIPBD0@Z  131428c0 f   base_static:file_util.obj
 0001:00071930       ?Delete@base@tls@@YAIPBDI@Z 13142930 f   base_static:file_util.obj
 0001:00071960       ?LockFile@base@tls@@YAIPAU_iobuf@@@Z 13142960 f   base_static:file_util.obj
 0001:00071a20       ?UnLockFile@base@tls@@YAIPAU_iobuf@@@Z 13142a20 f   base_static:file_util.obj
 0001:00071ad0       ?GetFileName@base@tls@@YAPBDPBD@Z 13142ad0 f   base_static:file_util.obj
 0001:00071b80       ?ChangeDirToUnixStype@base@tls@@YAPBDPAD@Z 13142b80 f   base_static:file_util.obj
 0001:00071be0       ?ChangeDirStype@base@tls@@YAPBDPAD@Z 13142be0 f   base_static:file_util.obj
 0001:00071c60       ?SetNameInternal@base@tls@@YAXIPBD@Z 13142c60 f   base_static:thread.obj
 0001:00071d50       ?ThreadFunc@base@tls@@YGKPAX@Z 13142d50 f   base_static:thread.obj
 0001:00071e00       ?CreateThreadInternal@?A0x50004a8d@base@tls@@YAIIPAUThreadParams@23@PAPAX@Z 13142e00 f   base_static:thread.obj
 0001:00071eb0       ?JoinThreadInternal@?A0x50004a8d@base@tls@@YAXPAX@Z 13142eb0 f   base_static:thread.obj
 0001:00071f00       ?Start@Thread@base@tls@@QAEIPAV123@PAX@Z 13142f00 f   base_static:thread.obj
 0001:00071fe0       ??0ThreadParams@base@tls@@QAE@PAVThread@12@0PAX@Z 13142fe0 f i base_static:thread.obj
 0001:00072030       ??1ThreadParams@base@tls@@QAE@XZ 13143030 f i base_static:thread.obj
 0001:00072060       ?Start@Thread@base@tls@@QAEIPAX@Z 13143060 f   base_static:thread.obj
 0001:00072130       ?Stop@Thread@base@tls@@QAEXXZ 13143130 f   base_static:thread.obj
 0001:00072180       ?Init@Thread@base@tls@@QAEIXZ 13143180 f   base_static:thread.obj
 0001:000721d0       ?Name@Thread@base@tls@@QBEPBDXZ 131431d0 f i base_static:thread.obj
 0001:000721f0       ?DeInit@Thread@base@tls@@QAEXXZ 131431f0 f   base_static:thread.obj
 0001:00072210       ??0Thread@base@tls@@QAE@PBD@Z 13143210 f   base_static:thread.obj
 0001:000722a0       ?ThreadMain@Thread@base@tls@@UAEXPAX@Z 131432a0 f i base_static:thread.obj
 0001:000722c0       ??1Thread@base@tls@@QAE@XZ 131432c0 f   base_static:thread.obj
 0001:000722f0       ?sleep@Thread@base@tls@@SAXI@Z 131432f0 f   base_static:thread.obj
 0001:00072320       __toupper                  13143320 f   LIBCMTD:toupper.obj
 0001:00072330       __toupper_l                13143330 f   LIBCMTD:toupper.obj
 0001:00072510       _toupper                   13143510 f   LIBCMTD:toupper.obj
 0001:00072560       _strcpy                    13143560 f   LIBCMTD:strcat.obj
 0001:00072570       _strcat                    13143570 f   LIBCMTD:strcat.obj
 0001:00072660       __localtime64_s            13143660 f   LIBCMTD:loctim64.obj
 0001:00072be0       __localtime64              13143be0 f   LIBCMTD:loctim64.obj
 0001:00072c20       __time64                   13143c20 f   LIBCMTD:time64.obj
 0001:00072c80       __mktime64                 13143c80 f   LIBCMTD:mktime64.obj
 0001:00072ca0       __mkgmtime64               13143ca0 f   LIBCMTD:mktime64.obj
 0001:00073120       _strncpy                   13144120 f   LIBCMTD:strncpy.obj
 0001:00073250       __fsopen                   13144250 f   LIBCMTD:fopen.obj
 0001:00073460       _fopen                     13144460 f   LIBCMTD:fopen.obj
 0001:00073480       _fopen_s                   13144480 f   LIBCMTD:fopen.obj
 0001:00073520       _fread_s                   13144520 f   LIBCMTD:fread.obj
 0001:00073650       __fread_nolock_s           13144650 f   LIBCMTD:fread.obj
 0001:00073c30       _fread                     13144c30 f   LIBCMTD:fread.obj
 0001:00073c50       __fread_nolock             13144c50 f   LIBCMTD:fread.obj
 0001:00073c70       __fseeki64                 13144c70 f   LIBCMTD:fseeki64.obj
 0001:00073d30       __fseeki64_nolock          13144d30 f   LIBCMTD:fseeki64.obj
 0001:00073e70       __alldiv                   13144e70 f   LIBCMTD:lldiv.obj
 0001:00073f20       __gmtime64_s               13144f20 f   LIBCMTD:gmtime64.obj
 0001:00074370       __gmtime64                 13145370 f   LIBCMTD:gmtime64.obj
 0001:000743b0       __allrem                   131453b0 f   LIBCMTD:llrem.obj
 0001:00074470       __gmtime32_s               13145470 f   LIBCMTD:gmtime.obj
 0001:00074720       ___getgmtimebuf            13145720 f   LIBCMTD:gmtime.obj
 0001:00074790       __gmtime32                 13145790 f   LIBCMTD:gmtime.obj
 0001:000747d0       __openfile                 131457d0 f   LIBCMTD:_open.obj
 0001:00074ed0       __getstream                13145ed0 f   LIBCMTD:stream.obj
 0001:00075130       __ftelli64                 13146130 f   LIBCMTD:ftelli64.obj
 0001:000751e0       __ftelli64_nolock          131461e0 f   LIBCMTD:ftelli64.obj
 0001:00075770       __open                     13146770 f   LIBCMTD:open.obj
 0001:000758f0       __sopen_helper             131468f0 f   LIBCMTD:open.obj
 0001:00076b90       __sopen                    13147b90 f   LIBCMTD:open.obj
 0001:00076c00       __sopen_s                  13147c00 f   LIBCMTD:open.obj
 0001:00076c30       __mbsicmp_l                13147c30 f   LIBCMTD:mbsicmp.obj
 0001:00077020       __mbsicmp                  13148020 f   LIBCMTD:mbsicmp.obj
 0001:00077040       __mbsnbcmp_l               13148040 f   LIBCMTD:mbsnbcmp.obj
 0001:00077320       __mbsnbcmp                 13148320 f   LIBCMTD:mbsnbcmp.obj
 0001:00077340       __chsize_s                 13148340 f   LIBCMTD:chsize.obj
 0001:000775e0       __chsize_nolock            131485e0 f   LIBCMTD:chsize.obj
 0001:00077870       __chsize                   13148870 f   LIBCMTD:chsize.obj
 0001:000778a0       __lseek                    131488a0 f   LIBCMTD:lseek.obj
 0001:00077ac0       __lseek_nolock             13148ac0 f   LIBCMTD:lseek.obj
 0001:00077ba0       __setmode                  13148ba0 f   LIBCMTD:setmode.obj
 0001:00077e30       __setmode_nolock           13148e30 f   LIBCMTD:setmode.obj
 0001:000780a0       __set_fmode                131490a0 f   LIBCMTD:setmode.obj
 0001:00078150       __get_fmode                13149150 f   LIBCMTD:setmode.obj
 0001:000781ce       _TryEnterCriticalSection@4 131491ce f   kernel32:KERNEL32.dll
 0001:000781d4       _CreateEventA@16           131491d4 f   kernel32:KERNEL32.dll
 0001:000781da       _ResetEvent@4              131491da f   kernel32:KERNEL32.dll
 0001:000781e0       _SetEvent@4                131491e0 f   kernel32:KERNEL32.dll
 0001:000781e6       _WaitForSingleObject@8     131491e6 f   kernel32:KERNEL32.dll
 0001:000781ec       _GetFileInformationByHandle@8 131491ec f   kernel32:KERNEL32.dll
 0001:000781f2       _CreateDirectoryA@8        131491f2 f   kernel32:KERNEL32.dll
 0001:000781f8       _GetFileAttributesA@4      131491f8 f   kernel32:KERNEL32.dll
 0001:000781fe       _lstrcpyA@8                131491fe f   kernel32:KERNEL32.dll
 0001:00078204       _MoveFileExA@12            13149204 f   kernel32:KERNEL32.dll
 0001:0007820a       _CopyFileExA@24            1314920a f   kernel32:KERNEL32.dll
 0001:00078210       _DeleteFileA@4             13149210 f   kernel32:KERNEL32.dll
 0001:00078216       _LockFileEx@24             13149216 f   kernel32:KERNEL32.dll
 0001:0007821c       _UnlockFileEx@20           1314921c f   kernel32:KERNEL32.dll
 0001:00078222       _CreateThread@24           13149222 f   kernel32:KERNEL32.dll
 0001:00078228       _SetEndOfFile@4            13149228 f   kernel32:KERNEL32.dll
 0002:00000000       ___xc_a                    1316b000     LIBCMTD:crt0init.obj
 0002:00000208       ___xc_z                    1316b208     LIBCMTD:crt0init.obj
 0002:0000030c       ___xi_a                    1316b30c     LIBCMTD:crt0init.obj
 0002:00000528       ___xi_z                    1316b528     LIBCMTD:crt0init.obj
 0002:0000062c       ___xp_a                    1316b62c     LIBCMTD:crt0init.obj
 0002:00000940       ___xp_z                    1316b940     LIBCMTD:crt0init.obj
 0002:00000a44       ___xt_a                    1316ba44     LIBCMTD:crt0init.obj
 0002:00000b48       ___xt_z                    1316bb48     LIBCMTD:crt0init.obj
 0002:00004978       ?_EEM_DS@?$deque@PAVLogFileNode@ParserTC50@aggregator@tls@@V?$allocator@PAVLogFileNode@ParserTC50@aggregator@tls@@@std@@@std@@2HB 1316f978     module_impl.obj
 0002:0000497c       ??_7ModuleImpl@aggregator@tls@@6B@ 1316f97c     module_impl.obj
 0002:000049a0       ??_7IModule@aggregator@tls@@6B@ 1316f9a0     module_impl.obj
 0002:00005808       ??_7WtDict2@aggregator@tls@@6B@ 13170808     parse_wtcom.obj
 0002:00005824       ??_7IDictIX@aggregator@tls@@6B@ 13170824     parse_wtcom.obj
 0002:00005840       ??_7ParseWtcom2@aggregator@tls@@6B@ 13170840     parse_wtcom.obj
 0002:0000587c       ??_7IParseIX@aggregator@tls@@6B@ 1317087c     parse_wtcom.obj
 0002:00008af0       ?m_gcUUID@ParserTC50@aggregator@tls@@0IB 13173af0     parsertc50_static:parser_tc50.obj
 0002:00009d8c       ??_7ParserTC50@aggregator@tls@@6B@ 13174d8c     parsertc50_static:parser_tc50.obj
 0002:00009d98       ??_7ParserTC50@aggregator@tls@@6BIResource@2@@ 13174d98     parsertc50_static:parser_tc50.obj
 0002:00009db0       ??_7ParserTC50@aggregator@tls@@6BIObject@2@@ 13174db0     parsertc50_static:parser_tc50.obj
 0002:00009dc8       ??_7IParser@aggregator@tls@@6BIResource@2@@ 13174dc8     parsertc50_static:parser_tc50.obj
 0002:00009de0       ??_7IParser@aggregator@tls@@6BIObject@2@@ 13174de0     parsertc50_static:parser_tc50.obj
 0002:00009df8       ??_7IFileIteratorCallBack@IFileIteratorBase@aggregator@tls@@6B@ 13174df8     parsertc50_static:parser_tc50.obj
 0002:00009e04       ??_7IObject@tls@@6B@       13174e04     parsertc50_static:parser_tc50.obj
 0002:00009e10       ??_7IResource@tls@@6B@     13174e10     parsertc50_static:parser_tc50.obj
 0002:00009e70       ??_C@_1DC@POOIKBAO@?$AAI?$AAT?$AAE?$AAR?$AAA?$AAT?$AAO?$AAR?$AA?5?$AAL?$AAI?$AAS?$AAT?$AA?5?$AAC?$AAO?$AAR?$AAR?$AAU?$AAP?$AAT?$AAE?$AAD?$AA?$CB?$AA?$AA@ 13174e70     parsertc50_static:parser_tc50.obj
 0002:00009ea8       ??_C@_1HG@BHHKIDCA@?$AAD?$AA?3?$AA?2?$AAP?$AAr?$AAo?$AAg?$AAr?$AAa?$AAm?$AA?5?$AAF?$AAi?$AAl?$AAe?$AAs?$AA?2?$AAs?$AAo?$AAf?$AAt?$AAw?$AAa?$AAr?$AAe?$AA?2?$AAv?$AAs?$AA?2?$AAV?$AAS?$AA2@ 13174ea8     parsertc50_static:parser_tc50.obj
 0002:00009f20       ??_C@_1BO@CPECJIHL@?$AAm?$AA_?$AAp?$AAI?$AAA?$AAg?$AAg?$AAr?$AAe?$AAg?$AAa?$AAt?$AAo?$AAr?$AA?$AA@ 13174f20     parsertc50_static:parser_tc50.obj
 0002:00009f40       ??_C@_1HG@KNCDNMGM@?$AA?4?$AA?4?$AA?2?$AA?4?$AA?4?$AA?2?$AA?4?$AA?4?$AA?2?$AA?4?$AA?4?$AA?2?$AAm?$AAo?$AAd?$AAu?$AAl?$AAe?$AAs?$AA?2?$AAp?$AAa?$AAr?$AAs?$AAe?$AAr?$AAt?$AAc?$AA5?$AA0?$AA?2?$AAp@ 13174f40     parsertc50_static:parser_tc50.obj
 0002:00009fd0       ??_7?$GetSetParamImpl@PAUParseFileReulst@aggregator@tls@@@aggregator@tls@@6B@ 13174fd0     parsertc50_static:parser_tc50.obj
 0002:00009fd8       ??_C@_17ONNNEHMJ@?$AAm?$AA_?$AAr?$AA?$AA@ 13174fd8     parsertc50_static:parser_tc50.obj
 0002:00009fe0       ??_7?$GetSetParamImpl@PAVParserTC50@aggregator@tls@@@aggregator@tls@@6B@ 13174fe0     parsertc50_static:parser_tc50.obj
 0002:00009fe8       ??_7?$GetSetParamImpl@PAUDictFileReulst@aggregator@tls@@@aggregator@tls@@6B@ 13174fe8     parsertc50_static:parser_tc50.obj
 0002:00009ff0       ??_7?$GetSetParamImpl@PAUReadSettingReulst@aggregator@tls@@@aggregator@tls@@6B@ 13174ff0     parsertc50_static:parser_tc50.obj
 0002:00009ff8       ??_C@_08BMFNMLHO@HisDBEng?$AA@ 13174ff8     parsertc50_static:parser_tc50.obj
 0002:0000a004       ??_C@_0M@MJICJEJD@HisDBRemote?$AA@ 13175004     parsertc50_static:parser_tc50.obj
 0002:0000a010       ??_C@_09INAPDKID@HisDBName?$AA@ 13175010     parsertc50_static:parser_tc50.obj
 0002:0000a01c       ??_C@_0P@DJLDEFKE@ScheduleEnable?$AA@ 1317501c     parsertc50_static:parser_tc50.obj
 0002:0000a02c       ??_C@_0O@PLHFBABC@TransformRows?$AA@ 1317502c     parsertc50_static:parser_tc50.obj
 0002:0000a03c       ??_C@_0N@OEPGAFEE@ScheduleTime?$AA@ 1317503c     parsertc50_static:parser_tc50.obj
 0002:0000a04c       ??_C@_09CKHCPKIF@ThreadNum?$AA@ 1317504c     parsertc50_static:parser_tc50.obj
 0002:0000a058       ??_7?$GetSetParamImpl@PAUNullClass@tls@@@aggregator@tls@@6B@ 13175058     parsertc50_static:parser_tc50.obj
 0002:0000a060       ??_7IGetSetParam@aggregator@tls@@6B@ 13175060     parsertc50_static:parser_tc50.obj
 0002:0000a068       ??_C@_1CE@MKENBAHA@?$AAb?$AAa?$AAd?$AA?5?$AAh?$AAa?$AAs?$AAh?$AA?5?$AAf?$AAu?$AAn?$AAc?$AAt?$AAi?$AAo?$AAn?$AA?$AA@ 13175068     parsertc50_static:parser_tc50.obj
 0002:0000a090       ??_C@_1HA@GEJIONOC@?$AAD?$AA?3?$AA?2?$AAP?$AAr?$AAo?$AAg?$AAr?$AAa?$AAm?$AA?5?$AAF?$AAi?$AAl?$AAe?$AAs?$AA?2?$AAs?$AAo?$AAf?$AAt?$AAw?$AAa?$AAr?$AAe?$AA?2?$AAv?$AAs?$AA?2?$AAV?$AAS?$AA2@ 13175090     parsertc50_static:parser_tc50.obj
 0002:0000a100       ??_C@_1CO@FNIDKHMC@?$AAd?$AAe?$AAq?$AAu?$AAe?$AA?5?$AAe?$AAm?$AAp?$AAt?$AAy?$AA?5?$AAb?$AAe?$AAf?$AAo?$AAr?$AAe?$AA?5?$AAp?$AAo?$AAp?$AA?$AA@ 13175100     parsertc50_static:parser_tc50.obj
 0002:0000a130       ??_C@_1HA@MAPMMMME@?$AAD?$AA?3?$AA?2?$AAP?$AAr?$AAo?$AAg?$AAr?$AAa?$AAm?$AA?5?$AAF?$AAi?$AAl?$AAe?$AAs?$AA?2?$AAs?$AAo?$AAf?$AAt?$AAw?$AAa?$AAr?$AAe?$AA?2?$AAv?$AAs?$AA?2?$AAV?$AAS?$AA2@ 13175130     parsertc50_static:parser_tc50.obj
 0002:0000a1a0       ??_C@_1BO@MEPPHOO@?$AA?$CC?$AAo?$AAu?$AAt?$AA?5?$AAo?$AAf?$AA?5?$AAr?$AAa?$AAn?$AAg?$AAe?$AA?$CC?$AA?$AA@ 131751a0     parsertc50_static:parser_tc50.obj
 0002:0000a1c0       ??_C@_1BNM@OJDHCPBE@?$AAs?$AAt?$AAd?$AA?3?$AA?3?$AAl?$AAi?$AAs?$AAt?$AA?$DM?$AAs?$AAt?$AAr?$AAu?$AAc?$AAt?$AA?5?$AAs?$AAt?$AAd?$AA?3?$AA?3?$AAp?$AAa?$AAi?$AAr?$AA?$DM?$AAu?$AAn?$AAs?$AAi?$AAg@ 131751c0     parsertc50_static:parser_tc50.obj
 0002:0000a3a0       ??_C@_1FG@CMLDHNON@?$AA?$CI?$AA?$CC?$AAS?$AAt?$AAa?$AAn?$AAd?$AAa?$AAr?$AAd?$AA?5?$AAC?$AA?$CL?$AA?$CL?$AA?5?$AAL?$AAi?$AAb?$AAr?$AAa?$AAr?$AAi?$AAe?$AAs?$AA?5?$AAO?$AAu?$AAt?$AA?5?$AAo?$AAf?$AA?5@ 131753a0     parsertc50_static:parser_tc50.obj
 0002:0000a3f8       ??_C@_1EA@DOGAGKDH@?$AAl?$AAi?$AAs?$AAt?$AA?5?$AAi?$AAt?$AAe?$AAr?$AAa?$AAt?$AAo?$AAr?$AA?5?$AAn?$AAo?$AAt?$AA?5?$AAi?$AAn?$AAc?$AAr?$AAe?$AAm?$AAe?$AAn?$AAt?$AAa?$AAb?$AAl?$AAe?$AA?$AA@ 131753f8     parsertc50_static:parser_tc50.obj
 0002:0000a438       ??_C@_1GO@GAFBAKJI@?$AAD?$AA?3?$AA?2?$AAP?$AAr?$AAo?$AAg?$AAr?$AAa?$AAm?$AA?5?$AAF?$AAi?$AAl?$AAe?$AAs?$AA?2?$AAs?$AAo?$AAf?$AAt?$AAw?$AAa?$AAr?$AAe?$AA?2?$AAv?$AAs?$AA?2?$AAV?$AAS?$AA2@ 13175438     parsertc50_static:parser_tc50.obj
 0002:0000a4a8       ??_C@_1CG@JNLFBNGN@?$AA?$CC?$AAi?$AAn?$AAv?$AAa?$AAl?$AAi?$AAd?$AA?5?$AAa?$AAr?$AAg?$AAu?$AAm?$AAe?$AAn?$AAt?$AA?$CC?$AA?$AA@ 131754a8     parsertc50_static:parser_tc50.obj
 0002:0000a4d0       ??_C@_1BNE@OJOGKAD@?$AAs?$AAt?$AAd?$AA?3?$AA?3?$AAl?$AAi?$AAs?$AAt?$AA?$DM?$AAs?$AAt?$AAr?$AAu?$AAc?$AAt?$AA?5?$AAs?$AAt?$AAd?$AA?3?$AA?3?$AAp?$AAa?$AAi?$AAr?$AA?$DM?$AAu?$AAn?$AAs?$AAi?$AAg@ 131754d0     parsertc50_static:parser_tc50.obj
 0002:0000a6a8       ??_C@_1FO@OCPOOAIA@?$AA?$CI?$AA?$CC?$AAS?$AAt?$AAa?$AAn?$AAd?$AAa?$AAr?$AAd?$AA?5?$AAC?$AA?$CL?$AA?$CL?$AA?5?$AAL?$AAi?$AAb?$AAr?$AAa?$AAr?$AAi?$AAe?$AAs?$AA?5?$AAI?$AAn?$AAv?$AAa?$AAl?$AAi?$AAd@ 131756a8     parsertc50_static:parser_tc50.obj
 0002:0000a708       ??_C@_1DI@MDELDGPI@?$AAl?$AAi?$AAs?$AAt?$AA?5?$AAi?$AAt?$AAe?$AAr?$AAa?$AAt?$AAo?$AAr?$AAs?$AA?5?$AAi?$AAn?$AAc?$AAo?$AAm?$AAp?$AAa?$AAt?$AAi?$AAb?$AAl?$AAe?$AA?$AA@ 13175708     parsertc50_static:parser_tc50.obj
 0002:0000a740       ??_C@_1EG@BPNHNPIG@?$AAl?$AAi?$AAs?$AAt?$AA?5?$AAi?$AAn?$AAs?$AAe?$AAr?$AAt?$AA?5?$AAi?$AAt?$AAe?$AAr?$AAa?$AAt?$AAo?$AAr?$AA?5?$AAo?$AAu?$AAt?$AAs?$AAi?$AAd?$AAe?$AA?5?$AAr?$AAa?$AAn@ 13175740     parsertc50_static:parser_tc50.obj
 0002:0000a788       ??_C@_1CDE@GJHGFKHN@?$AAs?$AAt?$AAd?$AA?3?$AA?3?$AAl?$AAi?$AAs?$AAt?$AA?$DM?$AAs?$AAt?$AAr?$AAu?$AAc?$AAt?$AA?5?$AA?$GA?$AAp?$AAu?$AAb?$AAl?$AAi?$AAc?$AA?3?$AA?5?$AAv?$AAo?$AAi?$AAd?$AA?5?$AA_@ 13175788     parsertc50_static:parser_tc50.obj
 0002:0000a9c0       ??_C@_1EC@HILJLMMC@?$AAl?$AAi?$AAs?$AAt?$AA?5?$AAi?$AAt?$AAe?$AAr?$AAa?$AAt?$AAo?$AAr?$AA?5?$AAn?$AAo?$AAt?$AA?5?$AAd?$AAe?$AAr?$AAe?$AAf?$AAe?$AAr?$AAe?$AAn?$AAc?$AAa?$AAb?$AAl?$AAe@ 131759c0     parsertc50_static:parser_tc50.obj
 0002:0000aa08       ??_C@_1CDG@KNEACNLN@?$AAs?$AAt?$AAd?$AA?3?$AA?3?$AAl?$AAi?$AAs?$AAt?$AA?$DM?$AAs?$AAt?$AAr?$AAu?$AAc?$AAt?$AA?5?$AA?$GA?$AAp?$AAu?$AAb?$AAl?$AAi?$AAc?$AA?3?$AA?5?$AAv?$AAo?$AAi?$AAd?$AA?5?$AA_@ 13175a08     parsertc50_static:parser_tc50.obj
 0002:0000ac40       ??_C@_1EG@NPGGHPOJ@?$AAl?$AAi?$AAs?$AAt?$AA?5?$AAs?$AAp?$AAl?$AAi?$AAc?$AAe?$AA?5?$AAi?$AAt?$AAe?$AAr?$AAa?$AAt?$AAo?$AAr?$AA?5?$AAo?$AAu?$AAt?$AAs?$AAi?$AAd?$AAe?$AA?5?$AAr?$AAa?$AAn@ 13175c40     parsertc50_static:parser_tc50.obj
 0002:0000ac88       ??_C@_1CK@POGJDOKA@?$AA?$CI?$AA?$CC?$AA_?$AAP?$AAo?$AAs?$AA?5?$AA?$DM?$AA?5?$AAs?$AAi?$AAz?$AAe?$AA?$CI?$AA?$CJ?$AA?$CC?$AA?0?$AA?5?$AA0?$AA?$CJ?$AA?$AA@ 13175c88     parsertc50_static:parser_tc50.obj
 0002:0000acb8       ??_C@_1DOI@CIFEJEBD@?$AAs?$AAt?$AAd?$AA?3?$AA?3?$AAv?$AAe?$AAc?$AAt?$AAo?$AAr?$AA?$DM?$AAc?$AAl?$AAa?$AAs?$AAs?$AA?5?$AAs?$AAt?$AAd?$AA?3?$AA?3?$AAl?$AAi?$AAs?$AAt?$AA?$DM?$AAs?$AAt?$AAr?$AAu@ 13175cb8     parsertc50_static:parser_tc50.obj
 0002:0000b0a0       ??_C@_1DM@LHGCHCBA@?$AAv?$AAe?$AAc?$AAt?$AAo?$AAr?$AA?5?$AAs?$AAu?$AAb?$AAs?$AAc?$AAr?$AAi?$AAp?$AAt?$AA?5?$AAo?$AAu?$AAt?$AA?5?$AAo?$AAf?$AA?5?$AAr?$AAa?$AAn?$AAg?$AAe?$AA?$AA@ 131760a0     parsertc50_static:parser_tc50.obj
 0002:0000b0e0       ??_C@_1HC@DFMELONG@?$AAD?$AA?3?$AA?2?$AAP?$AAr?$AAo?$AAg?$AAr?$AAa?$AAm?$AA?5?$AAF?$AAi?$AAl?$AAe?$AAs?$AA?2?$AAs?$AAo?$AAf?$AAt?$AAw?$AAa?$AAr?$AAe?$AA?2?$AAv?$AAs?$AA?2?$AAV?$AAS?$AA2@ 131760e0     parsertc50_static:parser_tc50.obj
 0002:0000b158       ??_C@_1BNK@JKLKLFPK@?$AAs?$AAt?$AAd?$AA?3?$AA?3?$AAl?$AAi?$AAs?$AAt?$AA?$DM?$AAs?$AAt?$AAr?$AAu?$AAc?$AAt?$AA?5?$AAs?$AAt?$AAd?$AA?3?$AA?3?$AAp?$AAa?$AAi?$AAr?$AA?$DM?$AAu?$AAn?$AAs?$AAi?$AAg@ 13176158     parsertc50_static:parser_tc50.obj
 0002:0000b334       ??_C@_0BB@MOGOBHAF@list?$DMT?$DO?5too?5long?$AA@ 13176334     parsertc50_static:parser_tc50.obj
 0002:0000b348       ??_C@_07CIFAGBMG@unknown?$AA@ 13176348     parsertc50_static:parser_tc50.obj
 0002:0000b350       ??_7exception@stdext@@6B@  13176350     parsertc50_static:parser_tc50.obj
 0002:0000b35c       ?npos@?$basic_string@DU?$char_traits@D@std@@V?$allocator@D@2@@std@@2IB 1317635c     parsertc50_static:parser_tc50.obj
 0002:0000b360       ??_C@_1CDG@FOHCJBHM@?$AAs?$AAt?$AAd?$AA?3?$AA?3?$AAl?$AAi?$AAs?$AAt?$AA?$DM?$AAs?$AAt?$AAr?$AAu?$AAc?$AAt?$AA?5?$AA?$GA?$AAp?$AAu?$AAb?$AAl?$AAi?$AAc?$AA?3?$AA?5?$AAv?$AAo?$AAi?$AAd?$AA?5?$AA_@ 13176360     parsertc50_static:parser_tc50.obj
 0002:0000b598       ??_C@_1EA@JDNDELPC@?$AAl?$AAi?$AAs?$AAt?$AA?5?$AAi?$AAt?$AAe?$AAr?$AAa?$AAt?$AAo?$AAr?$AA?5?$AAn?$AAo?$AAt?$AA?5?$AAd?$AAe?$AAc?$AAr?$AAe?$AAm?$AAe?$AAn?$AAt?$AAa?$AAb?$AAl?$AAe?$AA?$AA@ 13176598     parsertc50_static:parser_tc50.obj
 0002:0000b5d8       ??_C@_1CCO@BAMDLHMO@?$AAs?$AAt?$AAd?$AA?3?$AA?3?$AAl?$AAi?$AAs?$AAt?$AA?$DM?$AAs?$AAt?$AAr?$AAu?$AAc?$AAt?$AA?5?$AA?$GA?$AAp?$AAu?$AAb?$AAl?$AAi?$AAc?$AA?3?$AA?5?$AAv?$AAo?$AAi?$AAd?$AA?5?$AA_@ 131765d8     parsertc50_static:parser_tc50.obj
 0002:0000b808       ??_C@_1EI@HGIDLLCM@?$AAv?$AAe?$AAc?$AAt?$AAo?$AAr?$AA?5?$AAe?$AAr?$AAa?$AAs?$AAe?$AA?5?$AAi?$AAt?$AAe?$AAr?$AAa?$AAt?$AAo?$AAr?$AA?5?$AAo?$AAu?$AAt?$AAs?$AAi?$AAd?$AAe?$AA?5?$AAr?$AAa@ 13176808     parsertc50_static:parser_tc50.obj
 0002:0000b850       ??_C@_1EK@EEHFMKDC@?$AAv?$AAe?$AAc?$AAt?$AAo?$AAr?$AA?5?$AAi?$AAn?$AAs?$AAe?$AAr?$AAt?$AA?5?$AAi?$AAt?$AAe?$AAr?$AAa?$AAt?$AAo?$AAr?$AA?5?$AAo?$AAu?$AAt?$AAs?$AAi?$AAd?$AAe?$AA?5?$AAr@ 13176850     parsertc50_static:parser_tc50.obj
 0002:0000b89c       ??_C@_0BC@KBDMBKEH@deque?$DMT?$DO?5too?5long?$AA@ 1317689c     parsertc50_static:parser_tc50.obj
 0002:0000b8b0       ??_C@_1BNM@BKAFJDNF@?$AAs?$AAt?$AAd?$AA?3?$AA?3?$AAl?$AAi?$AAs?$AAt?$AA?$DM?$AAs?$AAt?$AAr?$AAu?$AAc?$AAt?$AA?5?$AAs?$AAt?$AAd?$AA?3?$AA?3?$AAp?$AAa?$AAi?$AAr?$AA?$DM?$AAu?$AAn?$AAs?$AAi?$AAg@ 131768b0     parsertc50_static:parser_tc50.obj
 0002:0000ba90       ??_C@_1BEE@COPDNLLC@?$AAs?$AAt?$AAd?$AA?3?$AA?3?$AA_?$AAD?$AAe?$AAq?$AAu?$AAe?$AA_?$AAc?$AAo?$AAn?$AAs?$AAt?$AA_?$AAi?$AAt?$AAe?$AAr?$AAa?$AAt?$AAo?$AAr?$AA?$DM?$AAc?$AAl?$AAa?$AAs?$AAs@ 13176a90     parsertc50_static:parser_tc50.obj
 0002:0000bbd8       ??_C@_1EE@INPCGGNP@?$AAd?$AAe?$AAq?$AAu?$AAe?$AA?5?$AAi?$AAt?$AAe?$AAr?$AAa?$AAt?$AAo?$AAr?$AA?5?$AAn?$AAo?$AAt?$AA?5?$AAd?$AAe?$AAr?$AAe?$AAf?$AAe?$AAr?$AAe?$AAn?$AAc?$AAa?$AAb?$AAl@ 13176bd8     parsertc50_static:parser_tc50.obj
 0002:0000bc20       ??_C@_1EE@BBMFLDOC@?$AAl?$AAi?$AAs?$AAt?$AA?5?$AAe?$AAr?$AAa?$AAs?$AAe?$AA?5?$AAi?$AAt?$AAe?$AAr?$AAa?$AAt?$AAo?$AAr?$AA?5?$AAo?$AAu?$AAt?$AAs?$AAi?$AAd?$AAe?$AA?5?$AAr?$AAa?$AAn?$AAg@ 13176c20     parsertc50_static:parser_tc50.obj
 0002:0000bc64       ??_C@_0BD@OLBABOEK@vector?$DMT?$DO?5too?5long?$AA@ 13176c64     parsertc50_static:parser_tc50.obj
 0002:0000bc78       ??_C@_1BFK@BDNMJICE@?$AAs?$AAt?$AAd?$AA?3?$AA?3?$AA_?$AAD?$AAe?$AAq?$AAu?$AAe?$AA_?$AAc?$AAo?$AAn?$AAs?$AAt?$AA_?$AAi?$AAt?$AAe?$AAr?$AAa?$AAt?$AAo?$AAr?$AA?$DM?$AAc?$AAl?$AAa?$AAs?$AAs@ 13176c78     parsertc50_static:parser_tc50.obj
 0002:0000bdd8       ??_C@_1BBC@GFBPNMEP@?$AA?$CI?$AA?$CC?$AA_?$AAP?$AAd?$AAe?$AAq?$AAu?$AAe?$AA?5?$AA?$CB?$AA?$DN?$AA?5?$AA0?$AA?5?$AA?$CG?$AA?$CG?$AA?5?$AA?$CI?$AA?$CI?$AA_?$AAM?$AAy?$AAd?$AAe?$AAq?$AAu?$AAe?$AA?5?$AA?$CK?$AA?$CJ?$AA_@ 13176dd8     parsertc50_static:parser_tc50.obj
 0002:0000bef0       ??_C@_1EBO@LNGOIOMK@?$AAs?$AAt?$AAd?$AA?3?$AA?3?$AA_?$AAV?$AAe?$AAc?$AAt?$AAo?$AAr?$AA_?$AAc?$AAo?$AAn?$AAs?$AAt?$AA_?$AAi?$AAt?$AAe?$AAr?$AAa?$AAt?$AAo?$AAr?$AA?$DM?$AAc?$AAl?$AAa?$AAs@ 13176ef0     parsertc50_static:parser_tc50.obj
 0002:0000c310       ??_C@_1NK@JLHOCNGO@?$AA?$CI?$AA?$CC?$AA_?$AAP?$AAv?$AAe?$AAc?$AAt?$AAo?$AAr?$AA?5?$AA?$DN?$AA?$DN?$AA?5?$AAN?$AAU?$AAL?$AAL?$AA?5?$AA?$HM?$AA?$HM?$AA?5?$AA?$CI?$AA?$CI?$AA?$CI?$AA_?$AAM?$AAy?$AAv?$AAe?$AAc?$AA?5@ 13177310     parsertc50_static:parser_tc50.obj
 0002:0000c3f0       ??_C@_1OO@PBNBABMO@?$AA?$CI?$AA?$CC?$AA_?$AAM?$AAy?$AAp?$AAt?$AAr?$AA?5?$AA?$CL?$AA?5?$AA_?$AAO?$AAf?$AAf?$AA?5?$AA?$DM?$AA?$DN?$AA?5?$AA?$CI?$AA?$CI?$AA_?$AAM?$AAy?$AAv?$AAe?$AAc?$AA?5?$AA?$CK?$AA?$CJ?$AA?$CI?$AAt@ 131773f0     parsertc50_static:parser_tc50.obj
 0002:0000c4e0       ??_C@_1EAI@JCCCKOOG@?$AAs?$AAt?$AAd?$AA?3?$AA?3?$AA_?$AAV?$AAe?$AAc?$AAt?$AAo?$AAr?$AA_?$AAc?$AAo?$AAn?$AAs?$AAt?$AA_?$AAi?$AAt?$AAe?$AAr?$AAa?$AAt?$AAo?$AAr?$AA?$DM?$AAc?$AAl?$AAa?$AAs@ 131774e0     parsertc50_static:parser_tc50.obj
 0002:0000c8e8       ??_C@_1DK@LIMPPGHH@?$AA?$CI?$AA?$CC?$AAt?$AAh?$AAi?$AAs?$AA?9?$AA?$DO?$AA_?$AAM?$AAy?$AAc?$AAo?$AAn?$AAt?$AA?5?$AA?$CB?$AA?$DN?$AA?5?$AAN?$AAU?$AAL?$AAL?$AA?$CC?$AA?0?$AA?5?$AA0?$AA?$CJ?$AA?$AA@ 131778e8     parsertc50_static:parser_tc50.obj
 0002:0000c928       ??_C@_1EAA@LBMBCOFH@?$AAs?$AAt?$AAd?$AA?3?$AA?3?$AA_?$AAV?$AAe?$AAc?$AAt?$AAo?$AAr?$AA_?$AAc?$AAo?$AAn?$AAs?$AAt?$AA_?$AAi?$AAt?$AAe?$AAr?$AAa?$AAt?$AAo?$AAr?$AA?$DM?$AAc?$AAl?$AAa?$AAs@ 13177928     parsertc50_static:parser_tc50.obj
 0002:0000cd28       ??_C@_1DM@HINDPMBP@?$AAv?$AAe?$AAc?$AAt?$AAo?$AAr?$AA?5?$AAi?$AAt?$AAe?$AAr?$AAa?$AAt?$AAo?$AAr?$AAs?$AA?5?$AAi?$AAn?$AAc?$AAo?$AAm?$AAp?$AAa?$AAt?$AAi?$AAb?$AAl?$AAe?$AA?$AA@ 13177d28     parsertc50_static:parser_tc50.obj
 0002:0000cd68       ??_C@_1HE@CEFNDIEO@?$AAD?$AA?3?$AA?2?$AAP?$AAr?$AAo?$AAg?$AAr?$AAa?$AAm?$AA?5?$AAF?$AAi?$AAl?$AAe?$AAs?$AA?2?$AAs?$AAo?$AAf?$AAt?$AAw?$AAa?$AAr?$AAe?$AA?2?$AAv?$AAs?$AA?2?$AAV?$AAS?$AA2@ 13177d68     parsertc50_static:parser_tc50.obj
 0002:0000cddc       ??_C@_1CK@EOPGIILJ@?$AAi?$AAn?$AAv?$AAa?$AAl?$AAi?$AAd?$AA?5?$AAn?$AAu?$AAl?$AAl?$AA?5?$AAp?$AAo?$AAi?$AAn?$AAt?$AAe?$AAr?$AA?$AA@ 13177ddc     parsertc50_static:parser_tc50.obj
 0002:0000ce08       ??_7bad_alloc@stdext@@6B@  13177e08     parsertc50_static:parser_tc50.obj
 0002:0000ce14       ??_C@_1DM@PIGEIECN@?$AAl?$AAi?$AAs?$AAt?$AA?5?$AAi?$AAn?$AAs?$AAe?$AAr?$AAt?$AAi?$AAo?$AAn?$AA?5?$AAo?$AAv?$AAe?$AAr?$AAl?$AAa?$AAp?$AAs?$AA?5?$AAr?$AAa?$AAn?$AAg?$AAe?$AA?$AA@ 13177e14     parsertc50_static:parser_tc50.obj
 0002:0000ce50       ??_C@_1HC@ELBPDCNN@?$AAD?$AA?3?$AA?2?$AAP?$AAr?$AAo?$AAg?$AAr?$AAa?$AAm?$AA?5?$AAF?$AAi?$AAl?$AAe?$AAs?$AA?2?$AAs?$AAo?$AAf?$AAt?$AAw?$AAa?$AAr?$AAe?$AA?2?$AAv?$AAs?$AA?2?$AAV?$AAS?$AA2@ 13177e50     parsertc50_static:parser_tc50.obj
 0002:0000cec4       ??_C@_1CO@DGLIKNHI@?$AAi?$AAn?$AAv?$AAa?$AAl?$AAi?$AAd?$AA?5?$AAi?$AAt?$AAe?$AAr?$AAa?$AAt?$AAo?$AAr?$AA?5?$AAr?$AAa?$AAn?$AAg?$AAe?$AA?$AA@ 13177ec4     parsertc50_static:parser_tc50.obj
 0002:0000d0ac       ?m_gcUUID@LogTypeTC50@aggregator@tls@@0IB 131780ac     parsertc50_static:logtype_tc50.obj
 0002:0000d148       ??_7LogTypeTC50@aggregator@tls@@6BIResource@2@@ 13178148     parsertc50_static:logtype_tc50.obj
 0002:0000d160       ??_7LogTypeTC50@aggregator@tls@@6BIObject@2@@ 13178160     parsertc50_static:logtype_tc50.obj
 0002:0000d178       ??_7ILogType@aggregator@tls@@6BIResource@2@@ 13178178     parsertc50_static:logtype_tc50.obj
 0002:0000d190       ??_7ILogType@aggregator@tls@@6BIObject@2@@ 13178190     parsertc50_static:logtype_tc50.obj
 0002:0000d1a8       ??_7?$GetSetParamImpl@PAULogTypeRuleReulst@aggregator@tls@@@aggregator@tls@@6B@ 131781a8     parsertc50_static:logtype_tc50.obj
 0002:0000d1b0       ??_C@_04BINJNOJD@HEAD?$AA@ 131781b0     parsertc50_static:logtype_tc50.obj
 0002:0000d1b8       ??_C@_04IPKHEEB@NAME?$AA@  131781b8     parsertc50_static:logtype_tc50.obj
 0002:0000d1c0       ??_C@_03DNALGGBA@DIR?$AA@  131781c0     parsertc50_static:logtype_tc50.obj
 0002:0000d1c8       ??_C@_1HI@EIANCLLM@?$AA?4?$AA?4?$AA?2?$AA?4?$AA?4?$AA?2?$AA?4?$AA?4?$AA?2?$AA?4?$AA?4?$AA?2?$AAm?$AAo?$AAd?$AAu?$AAl?$AAe?$AAs?$AA?2?$AAp?$AAa?$AAr?$AAs?$AAe?$AAr?$AAt?$AAc?$AA5?$AA0?$AA?2?$AAp@ 131781c8     parsertc50_static:logtype_tc50.obj
 0002:0000d240       ??_C@_1BBE@DOAKDIKP@?$AAs?$AAt?$AAd?$AA?3?$AA?3?$AAl?$AAi?$AAs?$AAt?$AA?$DM?$AAs?$AAt?$AAr?$AAu?$AAc?$AAt?$AA?5?$AAt?$AAl?$AAs?$AA?3?$AA?3?$AAa?$AAg?$AAg?$AAr?$AAe?$AAg?$AAa?$AAt?$AAo?$AAr@ 13178240     parsertc50_static:logtype_tc50.obj
 0002:0000d358       ??_C@_1BBG@LNPCNNCI@?$AAs?$AAt?$AAd?$AA?3?$AA?3?$AAl?$AAi?$AAs?$AAt?$AA?$DM?$AAs?$AAt?$AAr?$AAu?$AAc?$AAt?$AA?5?$AAt?$AAl?$AAs?$AA?3?$AA?3?$AAa?$AAg?$AAg?$AAr?$AAe?$AAg?$AAa?$AAt?$AAo?$AAr@ 13178358     parsertc50_static:logtype_tc50.obj
 0002:0000d470       ??_C@_1BBG@EOMAGBOJ@?$AAs?$AAt?$AAd?$AA?3?$AA?3?$AAl?$AAi?$AAs?$AAt?$AA?$DM?$AAs?$AAt?$AAr?$AAu?$AAc?$AAt?$AA?5?$AAt?$AAl?$AAs?$AA?3?$AA?3?$AAa?$AAg?$AAg?$AAr?$AAe?$AAg?$AAa?$AAt?$AAo?$AAr@ 13178470     parsertc50_static:logtype_tc50.obj
 0002:0000d588       ??_C@_1BAO@IFKIBFOM@?$AAs?$AAt?$AAd?$AA?3?$AA?3?$AAl?$AAi?$AAs?$AAt?$AA?$DM?$AAs?$AAt?$AAr?$AAu?$AAc?$AAt?$AA?5?$AAt?$AAl?$AAs?$AA?3?$AA?3?$AAa?$AAg?$AAg?$AAr?$AAe?$AAg?$AAa?$AAt?$AAo?$AAr@ 13178588     parsertc50_static:logtype_tc50.obj
 0002:00011280       ??_C@_1BI@ONCABLAC@?$AAm?$AA_?$AAp?$AAF?$AAu?$AAn?$AAc?$AAR?$AAu?$AAl?$AAe?$AA?$AA@ 1317c280     parsertc50_static:tc50_log.obj
 0002:00011298       ??_C@_1IK@HANFDEDN@?$AAe?$AA?3?$AA?2?$AAm?$AAy?$AAj?$AAo?$AAb?$AA?2?$AAT?$AAS?$AA?2?$AAl?$AAo?$AAg?$AAs?$AAy?$AAs?$AAt?$AAe?$AAm?$AA1?$AA?2?$AAm?$AAo?$AAd?$AAu?$AAl?$AAe?$AAs?$AA?2?$AAp@ 1317c298     parsertc50_static:tc50_log.obj
 0002:00011650       ??_C@_13KHDBCPJB@?$AAs?$AA?$AA@ 1317c650     parsertc50_static:tc50_dict.obj
 0002:00011658       ??_C@_1HC@OAMCFDJG@?$AAe?$AA?3?$AA?2?$AAm?$AAy?$AAj?$AAo?$AAb?$AA?2?$AAT?$AAS?$AA?2?$AAl?$AAo?$AAg?$AAs?$AAy?$AAs?$AAt?$AAe?$AAm?$AA1?$AA?2?$AAb?$AAa?$AAs?$AAe?$AA?2?$AAp?$AAu?$AAb?$AAl@ 1317c658     parsertc50_static:tc50_dict.obj
 0002:000116d0       ??_C@_1HA@IMNLIDBH@?$AAD?$AA?3?$AA?2?$AAP?$AAr?$AAo?$AAg?$AAr?$AAa?$AAm?$AA?5?$AAF?$AAi?$AAl?$AAe?$AAs?$AA?2?$AAs?$AAo?$AAf?$AAt?$AAw?$AAa?$AAr?$AAe?$AA?2?$AAv?$AAs?$AA?2?$AAV?$AAS?$AA2@ 1317c6d0     parsertc50_static:tc50_dict.obj
 0002:00011740       ??_C@_1BMI@DIJANNKI@?$AAs?$AAt?$AAd?$AA?3?$AA?3?$AA_?$AAT?$AAr?$AAe?$AAe?$AA?$DM?$AAc?$AAl?$AAa?$AAs?$AAs?$AA?5?$AAs?$AAt?$AAd?$AA?3?$AA?3?$AA_?$AAT?$AAs?$AAe?$AAt?$AA_?$AAt?$AAr?$AAa?$AAi@ 1317c740     parsertc50_static:tc50_dict.obj
 0002:00011908       ??_C@_1DO@CFEEPGGJ@?$AAm?$AAa?$AAp?$AA?1?$AAs?$AAe?$AAt?$AA?5?$AAi?$AAt?$AAe?$AAr?$AAa?$AAt?$AAo?$AAr?$AAs?$AA?5?$AAi?$AAn?$AAc?$AAo?$AAm?$AAp?$AAa?$AAt?$AAi?$AAb?$AAl?$AAe?$AA?$AA@ 1317c908     parsertc50_static:tc50_dict.obj
 0002:00011948       ??_C@_0BE@JONHPENG@map?1set?$DMT?$DO?5too?5long?$AA@ 1317c948     parsertc50_static:tc50_dict.obj
 0002:00011960       ??_C@_1BMG@KHMMODP@?$AAs?$AAt?$AAd?$AA?3?$AA?3?$AA_?$AAT?$AAr?$AAe?$AAe?$AA?$DM?$AAc?$AAl?$AAa?$AAs?$AAs?$AA?5?$AAs?$AAt?$AAd?$AA?3?$AA?3?$AA_?$AAT?$AAs?$AAe?$AAt?$AA_?$AAt?$AAr?$AAa?$AAi@ 1317c960     parsertc50_static:tc50_dict.obj
 0002:00011b28       ??_C@_1EI@FHEHNNNM@?$AAm?$AAa?$AAp?$AA?1?$AAs?$AAe?$AAt?$AA?5?$AAi?$AAt?$AAe?$AAr?$AAa?$AAt?$AAo?$AAr?$AA?5?$AAn?$AAo?$AAt?$AA?5?$AAd?$AAe?$AAr?$AAe?$AAf?$AAe?$AAr?$AAe?$AAn?$AAc?$AAa@ 1317cb28     parsertc50_static:tc50_dict.obj
 0002:00011b70       ??_C@_1BLK@HIIJMIBK@?$AAs?$AAt?$AAd?$AA?3?$AA?3?$AA_?$AAT?$AAr?$AAe?$AAe?$AA?$DM?$AAc?$AAl?$AAa?$AAs?$AAs?$AA?5?$AAs?$AAt?$AAd?$AA?3?$AA?3?$AA_?$AAT?$AAs?$AAe?$AAt?$AA_?$AAt?$AAr?$AAa?$AAi@ 1317cb70     parsertc50_static:tc50_dict.obj
 0002:00011d30       ??_C@_1EG@EHJFMBHJ@?$AAm?$AAa?$AAp?$AA?1?$AAs?$AAe?$AAt?$AA?5?$AAi?$AAt?$AAe?$AAr?$AAa?$AAt?$AAo?$AAr?$AA?5?$AAn?$AAo?$AAt?$AA?5?$AAi?$AAn?$AAc?$AAr?$AAe?$AAm?$AAe?$AAn?$AAt?$AAa?$AAb@ 1317cd30     parsertc50_static:tc50_dict.obj
 0002:00011d78       ??_C@_1EK@PPDBPCAN@?$AAm?$AAa?$AAp?$AA?1?$AAs?$AAe?$AAt?$AA?5?$AAe?$AAr?$AAa?$AAs?$AAe?$AA?5?$AAi?$AAt?$AAe?$AAr?$AAa?$AAt?$AAo?$AAr?$AA?5?$AAo?$AAu?$AAt?$AAs?$AAi?$AAd?$AAe?$AA?5?$AAr@ 1317cd78     parsertc50_static:tc50_dict.obj
 0002:00011dc8       ??_C@_1BLK@IJELCNAI@?$AAs?$AAt?$AAd?$AA?3?$AA?3?$AA_?$AAT?$AAr?$AAe?$AAe?$AA?$DM?$AAc?$AAl?$AAa?$AAs?$AAs?$AA?5?$AAs?$AAt?$AAd?$AA?3?$AA?3?$AA_?$AAT?$AAs?$AAe?$AAt?$AA_?$AAt?$AAr?$AAa?$AAi@ 1317cdc8     parsertc50_static:tc50_dict.obj
 0002:00011f88       ??_C@_1EG@OKCGOALM@?$AAm?$AAa?$AAp?$AA?1?$AAs?$AAe?$AAt?$AA?5?$AAi?$AAt?$AAe?$AAr?$AAa?$AAt?$AAo?$AAr?$AA?5?$AAn?$AAo?$AAt?$AA?5?$AAd?$AAe?$AAc?$AAr?$AAe?$AAm?$AAe?$AAn?$AAt?$AAa?$AAb@ 1317cf88     parsertc50_static:tc50_dict.obj
 0002:00011fd0       ??_C@_1CE@IGJMOCCK@?$AAi?$AAn?$AAv?$AAa?$AAl?$AAi?$AAd?$AA?5?$AAo?$AAp?$AAe?$AAr?$AAa?$AAt?$AAo?$AAr?$AA?$DM?$AA?$AA@ 1317cfd0     parsertc50_static:tc50_dict.obj
 0002:00011ff4       ??_C@_0P@GHFPNOJB@bad?5allocation?$AA@ 1317cff4     libcpmtd:stdthrow.obj
 0002:00012004       ??_C@_01EEMJAFIK@?6?$AA@   1317d004     libcpmtd:stdthrow.obj
 0002:00012008       ??_C@_0M@LLHBPFNE@exception?3?5?$AA@ 1317d008     libcpmtd:stdthrow.obj
 0002:00012014       ?collate@?$_Locbase@H@std@@2HB 1317d014     libcpmtd:string.obj
 0002:00012018       ?ctype@?$_Locbase@H@std@@2HB 1317d018     libcpmtd:string.obj
 0002:0001201c       ?monetary@?$_Locbase@H@std@@2HB 1317d01c     libcpmtd:string.obj
 0002:00012020       ?numeric@?$_Locbase@H@std@@2HB 1317d020     libcpmtd:string.obj
 0002:00012024       ?time@?$_Locbase@H@std@@2HB 1317d024     libcpmtd:string.obj
 0002:00012028       ?messages@?$_Locbase@H@std@@2HB 1317d028     libcpmtd:string.obj
 0002:0001202c       ?all@?$_Locbase@H@std@@2HB 1317d02c     libcpmtd:string.obj
 0002:00012030       ?none@?$_Locbase@H@std@@2HB 1317d030     libcpmtd:string.obj
 0002:00012034       ?table_size@?$ctype@D@std@@2IB 1317d034     libcpmtd:string.obj
 0002:00012038       ?skipws@?$_Iosb@H@std@@2W4_Fmtflags@12@B 1317d038     libcpmtd:string.obj
 0002:0001203c       ?unitbuf@?$_Iosb@H@std@@2W4_Fmtflags@12@B 1317d03c     libcpmtd:string.obj
 0002:00012040       ?uppercase@?$_Iosb@H@std@@2W4_Fmtflags@12@B 1317d040     libcpmtd:string.obj
 0002:00012044       ?showbase@?$_Iosb@H@std@@2W4_Fmtflags@12@B 1317d044     libcpmtd:string.obj
 0002:00012048       ?showpoint@?$_Iosb@H@std@@2W4_Fmtflags@12@B 1317d048     libcpmtd:string.obj
 0002:0001204c       ?showpos@?$_Iosb@H@std@@2W4_Fmtflags@12@B 1317d04c     libcpmtd:string.obj
 0002:00012050       ?left@?$_Iosb@H@std@@2W4_Fmtflags@12@B 1317d050     libcpmtd:string.obj
 0002:00012054       ?right@?$_Iosb@H@std@@2W4_Fmtflags@12@B 1317d054     libcpmtd:string.obj
 0002:00012058       ?internal@?$_Iosb@H@std@@2W4_Fmtflags@12@B 1317d058     libcpmtd:string.obj
 0002:0001205c       ?dec@?$_Iosb@H@std@@2W4_Fmtflags@12@B 1317d05c     libcpmtd:string.obj
 0002:00012060       ?oct@?$_Iosb@H@std@@2W4_Fmtflags@12@B 1317d060     libcpmtd:string.obj
 0002:00012064       ?hex@?$_Iosb@H@std@@2W4_Fmtflags@12@B 1317d064     libcpmtd:string.obj
 0002:00012068       ?scientific@?$_Iosb@H@std@@2W4_Fmtflags@12@B 1317d068     libcpmtd:string.obj
 0002:0001206c       ?fixed@?$_Iosb@H@std@@2W4_Fmtflags@12@B 1317d06c     libcpmtd:string.obj
 0002:00012070       ?boolalpha@?$_Iosb@H@std@@2W4_Fmtflags@12@B 1317d070     libcpmtd:string.obj
 0002:00012074       ?_Stdio@?$_Iosb@H@std@@2W4_Fmtflags@12@B 1317d074     libcpmtd:string.obj
 0002:00012078       ?adjustfield@?$_Iosb@H@std@@2W4_Fmtflags@12@B 1317d078     libcpmtd:string.obj
 0002:0001207c       ?basefield@?$_Iosb@H@std@@2W4_Fmtflags@12@B 1317d07c     libcpmtd:string.obj
 0002:00012080       ?floatfield@?$_Iosb@H@std@@2W4_Fmtflags@12@B 1317d080     libcpmtd:string.obj
 0002:00012084       ?goodbit@?$_Iosb@H@std@@2W4_Iostate@12@B 1317d084     libcpmtd:string.obj
 0002:00012088       ?eofbit@?$_Iosb@H@std@@2W4_Iostate@12@B 1317d088     libcpmtd:string.obj
 0002:0001208c       ?failbit@?$_Iosb@H@std@@2W4_Iostate@12@B 1317d08c     libcpmtd:string.obj
 0002:00012090       ?badbit@?$_Iosb@H@std@@2W4_Iostate@12@B 1317d090     libcpmtd:string.obj
 0002:00012094       ?_Hardfail@?$_Iosb@H@std@@2W4_Iostate@12@B 1317d094     libcpmtd:string.obj
 0002:00012098       ?in@?$_Iosb@H@std@@2W4_Openmode@12@B 1317d098     libcpmtd:string.obj
 0002:0001209c       ?out@?$_Iosb@H@std@@2W4_Openmode@12@B 1317d09c     libcpmtd:string.obj
 0002:000120a0       ?ate@?$_Iosb@H@std@@2W4_Openmode@12@B 1317d0a0     libcpmtd:string.obj
 0002:000120a4       ?app@?$_Iosb@H@std@@2W4_Openmode@12@B 1317d0a4     libcpmtd:string.obj
 0002:000120a8       ?trunc@?$_Iosb@H@std@@2W4_Openmode@12@B 1317d0a8     libcpmtd:string.obj
 0002:000120ac       ?_Nocreate@?$_Iosb@H@std@@2W4_Openmode@12@B 1317d0ac     libcpmtd:string.obj
 0002:000120b0       ?_Noreplace@?$_Iosb@H@std@@2W4_Openmode@12@B 1317d0b0     libcpmtd:string.obj
 0002:000120b4       ?binary@?$_Iosb@H@std@@2W4_Openmode@12@B 1317d0b4     libcpmtd:string.obj
 0002:000120b8       ?beg@?$_Iosb@H@std@@2W4_Seekdir@12@B 1317d0b8     libcpmtd:string.obj
 0002:000120bc       ?cur@?$_Iosb@H@std@@2W4_Seekdir@12@B 1317d0bc     libcpmtd:string.obj
 0002:000120c0       ?end@?$_Iosb@H@std@@2W4_Seekdir@12@B 1317d0c0     libcpmtd:string.obj
 0002:000120c4       ??_C@_0BA@JFNIOLAK@string?5too?5long?$AA@ 1317d0c4     libcpmtd:string.obj
 0002:000120d8       ??_7length_error@std@@6B@  1317d0d8     libcpmtd:string.obj
 0002:000120e4       ??_7logic_error@std@@6B@   1317d0e4     libcpmtd:string.obj
 0002:000120ec       ??_C@_0BI@CFPLBAOH@invalid?5string?5position?$AA@ 1317d0ec     libcpmtd:string.obj
 0002:00012108       ??_7out_of_range@std@@6B@  1317d108     libcpmtd:string.obj
 0002:00012110       ??_C@_0BI@ILCMCLF@invalid?5string?5argument?$AA@ 1317d110     libcpmtd:string.obj
 0002:0001212c       ??_7invalid_argument@std@@6B@ 1317d12c     libcpmtd:string.obj
 0002:00012134       ??_C@_0CO@FEHNDPFD@F?3?2SP?2vctools?2crt_bld?2SELF_X86?2c@ 1317d134     libcpmtd:string.obj
 0002:00012168       ??_7bad_alloc@std@@6B@     1317d168     libcpmtd:string.obj
 0002:00012170       ??_C@_1FO@PEMFKBJI@?$AAF?$AA?3?$AA?2?$AAS?$AAP?$AA?2?$AAv?$AAc?$AAt?$AAo?$AAo?$AAl?$AAs?$AA?2?$AAc?$AAr?$AAt?$AA_?$AAb?$AAl?$AAd?$AA?2?$AAS?$AAE?$AAL?$AAF?$AA_?$AAX?$AA8?$AA6?$AA?2?$AAc@ 1317d170     libcpmtd:string.obj
 0002:000121d4       ??_C@_1BG@NDCBABF@?$AAd?$AAb?$AAg?$AAd?$AAe?$AAl?$AA?4?$AAc?$AAp?$AAp?$AA?$AA@ 1317d1d4     LIBCMTD:dbgdel.obj
 0002:000121f0       ??_C@_1EO@LHDAJOCM@?$AA_?$AAB?$AAL?$AAO?$AAC?$AAK?$AA_?$AAT?$AAY?$AAP?$AAE?$AA_?$AAI?$AAS?$AA_?$AAV?$AAA?$AAL?$AAI?$AAD?$AA?$CI?$AAp?$AAH?$AAe?$AAa?$AAd?$AA?9?$AA?$DO?$AAn?$AAB?$AAl?$AAo@ 1317d1f0     LIBCMTD:dbgdel.obj
 0002:00012240       ??_C@_15IABLJNFO@?$AA?6?$AA?6?$AA?$AA@ 1317d240     LIBCMTD:wassert.obj
 0002:00012248       ??_C@_13LBAGMAIH@?$AA?6?$AA?$AA@ 1317d248     LIBCMTD:wassert.obj
 0002:0001224c       ??_C@_17LGKOMLJ@?$AA?4?$AA?4?$AA?4?$AA?$AA@ 1317d24c     LIBCMTD:wassert.obj
 0002:00012258       ??_C@_1EK@MBDPDCGA@?$AAM?$AAi?$AAc?$AAr?$AAo?$AAs?$AAo?$AAf?$AAt?$AA?5?$AAV?$AAi?$AAs?$AAu?$AAa?$AAl?$AA?5?$AAC?$AA?$CL?$AA?$CL?$AA?5?$AAR?$AAu?$AAn?$AAt?$AAi?$AAm?$AAe?$AA?5?$AAL?$AAi?$AAb@ 1317d258     LIBCMTD:wassert.obj
 0002:000122a8       ??_C@_1HK@POCJMFGK@?$AA?$CI?$AAP?$AAr?$AAe?$AAs?$AAs?$AA?5?$AAR?$AAe?$AAt?$AAr?$AAy?$AA?5?$AAt?$AAo?$AA?5?$AAd?$AAe?$AAb?$AAu?$AAg?$AA?5?$AAt?$AAh?$AAe?$AA?5?$AAa?$AAp?$AAp?$AAl?$AAi?$AAc@ 1317d2a8     LIBCMTD:wassert.obj
 0002:00012328       ??_C@_1LO@HBAMOOPN@?$AAw?$AAc?$AAs?$AAc?$AAa?$AAt?$AA_?$AAs?$AA?$CI?$AAa?$AAs?$AAs?$AAe?$AAr?$AAt?$AAb?$AAu?$AAf?$AA?0?$AA?5?$AA?$CI?$AA6?$AA0?$AA?5?$AA?$CK?$AA?5?$AA9?$AA?$CJ?$AA?0?$AA?5?$AAL?$AA?$CC@ 1317d328     LIBCMTD:wassert.obj
 0002:000123e8       ??_C@_1FG@GMPCGFKH@?$AAw?$AAc?$AAs?$AAc?$AAa?$AAt?$AA_?$AAs?$AA?$CI?$AAa?$AAs?$AAs?$AAe?$AAr?$AAt?$AAb?$AAu?$AAf?$AA?0?$AA?5?$AA?$CI?$AA6?$AA0?$AA?5?$AA?$CK?$AA?5?$AA9?$AA?$CJ?$AA?0?$AA?5?$AAd?$AAb@ 1317d3e8     LIBCMTD:wassert.obj
 0002:00012440       ??_C@_1OA@EGMLFBHJ@?$AAF?$AAo?$AAr?$AA?5?$AAi?$AAn?$AAf?$AAo?$AAr?$AAm?$AAa?$AAt?$AAi?$AAo?$AAn?$AA?5?$AAo?$AAn?$AA?5?$AAh?$AAo?$AAw?$AA?5?$AAy?$AAo?$AAu?$AAr?$AA?5?$AAp?$AAr?$AAo?$AAg@ 1317d440     LIBCMTD:wassert.obj
 0002:00012520       ??_C@_1BCO@FMFFDPPF@?$AAw?$AAc?$AAs?$AAc?$AAa?$AAt?$AA_?$AAs?$AA?$CI?$AAa?$AAs?$AAs?$AAe?$AAr?$AAt?$AAb?$AAu?$AAf?$AA?0?$AA?5?$AA?$CI?$AA6?$AA0?$AA?5?$AA?$CK?$AA?5?$AA9?$AA?$CJ?$AA?0?$AA?5?$AAL?$AA?$CC@ 1317d520     LIBCMTD:wassert.obj
 0002:00012650       ??_C@_1EM@MBEKCGIC@?$AAw?$AAc?$AAs?$AAc?$AAa?$AAt?$AA_?$AAs?$AA?$CI?$AA?5?$AAa?$AAs?$AAs?$AAe?$AAr?$AAt?$AAb?$AAu?$AAf?$AA?0?$AA?5?$AA?$CI?$AA6?$AA0?$AA?5?$AA?$CK?$AA?5?$AA9?$AA?$CJ?$AA?0?$AA?5?$AAe@ 1317d650     LIBCMTD:wassert.obj
 0002:000126a0       ??_C@_1CHM@CEIMNDLH@?$AAw?$AAc?$AAs?$AAn?$AAc?$AAa?$AAt?$AA_?$AAs?$AA?$CI?$AA?5?$AAa?$AAs?$AAs?$AAe?$AAr?$AAt?$AAb?$AAu?$AAf?$AA?0?$AA?5?$AA?$CI?$AA6?$AA0?$AA?5?$AA?$CK?$AA?5?$AA9?$AA?$CJ?$AA?0?$AA?5@ 1317d6a0     LIBCMTD:wassert.obj
 0002:0001291c       ??_C@_1BK@PEDCIPMA@?$AAE?$AAx?$AAp?$AAr?$AAe?$AAs?$AAs?$AAi?$AAo?$AAn?$AA?3?$AA?5?$AA?$AA@ 1317d91c     LIBCMTD:wassert.obj
 0002:00012938       ??_C@_1GC@HOBBPFHJ@?$AAw?$AAc?$AAs?$AAc?$AAa?$AAt?$AA_?$AAs?$AA?$CI?$AA?5?$AAa?$AAs?$AAs?$AAe?$AAr?$AAt?$AAb?$AAu?$AAf?$AA?0?$AA?5?$AA?$CI?$AA6?$AA0?$AA?5?$AA?$CK?$AA?5?$AA9?$AA?$CJ?$AA?0?$AA?5?$AAL@ 1317d938     LIBCMTD:wassert.obj
 0002:000129a0       ??_C@_1KG@CFEIMPNH@?$AA_?$AAi?$AAt?$AAo?$AAw?$AA_?$AAs?$AA?$CI?$AA?5?$AAl?$AAi?$AAn?$AAe?$AAn?$AAo?$AA?0?$AA?5?$AAa?$AAs?$AAs?$AAe?$AAr?$AAt?$AAb?$AAu?$AAf?$AA?5?$AA?$CL?$AA?5?$AAw?$AAc?$AAs@ 1317d9a0     LIBCMTD:wassert.obj
 0002:00012a48       ??_C@_1O@KCAFKHJE@?$AAL?$AAi?$AAn?$AAe?$AA?3?$AA?5?$AA?$AA@ 1317da48     LIBCMTD:wassert.obj
 0002:00012a58       ??_C@_1FG@NHDGJLMI@?$AAw?$AAc?$AAs?$AAc?$AAa?$AAt?$AA_?$AAs?$AA?$CI?$AA?5?$AAa?$AAs?$AAs?$AAe?$AAr?$AAt?$AAb?$AAu?$AAf?$AA?0?$AA?5?$AA?$CI?$AA6?$AA0?$AA?5?$AA?$CK?$AA?5?$AA9?$AA?$CJ?$AA?0?$AA?5?$AAL@ 1317da58     LIBCMTD:wassert.obj
 0002:00012ab0       ??_C@_1FE@IIFBBPFI@?$AAw?$AAc?$AAs?$AAc?$AAa?$AAt?$AA_?$AAs?$AA?$CI?$AA?5?$AAa?$AAs?$AAs?$AAe?$AAr?$AAt?$AAb?$AAu?$AAf?$AA?0?$AA?5?$AA?$CI?$AA6?$AA0?$AA?5?$AA?$CK?$AA?5?$AA9?$AA?$CJ?$AA?0?$AA?5?$AAf@ 1317dab0     LIBCMTD:wassert.obj
 0002:00012b08       ??_C@_1IC@CFFJBMAD@?$AAw?$AAc?$AAs?$AAc?$AAa?$AAt?$AA_?$AAs?$AA?$CI?$AA?5?$AAa?$AAs?$AAs?$AAe?$AAr?$AAt?$AAb?$AAu?$AAf?$AA?0?$AA?5?$AA?$CI?$AA6?$AA0?$AA?5?$AA?$CK?$AA?5?$AA9?$AA?$CJ?$AA?0?$AA?5?$AAp@ 1317db08     LIBCMTD:wassert.obj
 0002:00012b90       ??_C@_1HG@OJJMBIKO@?$AAw?$AAc?$AAs?$AAn?$AAc?$AAa?$AAt?$AA_?$AAs?$AA?$CI?$AA?5?$AAa?$AAs?$AAs?$AAe?$AAr?$AAt?$AAb?$AAu?$AAf?$AA?0?$AA?5?$AA?$CI?$AA6?$AA0?$AA?5?$AA?$CK?$AA?5?$AA9?$AA?$CJ?$AA?0?$AA?5@ 1317db90     LIBCMTD:wassert.obj
 0002:00012c08       ??_C@_1GO@BIHLMMND@?$AAw?$AAc?$AAs?$AAn?$AAc?$AAa?$AAt?$AA_?$AAs?$AA?$CI?$AA?5?$AAa?$AAs?$AAs?$AAe?$AAr?$AAt?$AAb?$AAu?$AAf?$AA?0?$AA?5?$AA?$CI?$AA6?$AA0?$AA?5?$AA?$CK?$AA?5?$AA9?$AA?$CJ?$AA?0?$AA?5@ 1317dc08     LIBCMTD:wassert.obj
 0002:00012c78       ??_C@_1FO@IJLLDBEB@?$AAw?$AAc?$AAs?$AAc?$AAa?$AAt?$AA_?$AAs?$AA?$CI?$AA?5?$AAa?$AAs?$AAs?$AAe?$AAr?$AAt?$AAb?$AAu?$AAf?$AA?0?$AA?5?$AA?$CI?$AA6?$AA0?$AA?5?$AA?$CK?$AA?5?$AA9?$AA?$CJ?$AA?0?$AA?5?$AAp@ 1317dc78     LIBCMTD:wassert.obj
 0002:00012cd8       ??_C@_1FG@CLEECKIJ@?$AAw?$AAc?$AAs?$AAc?$AAa?$AAt?$AA_?$AAs?$AA?$CI?$AA?5?$AAa?$AAs?$AAs?$AAe?$AAr?$AAt?$AAb?$AAu?$AAf?$AA?0?$AA?5?$AA?$CI?$AA6?$AA0?$AA?5?$AA?$CK?$AA?5?$AA9?$AA?$CJ?$AA?0?$AA?5?$AAd@ 1317dcd8     LIBCMTD:wassert.obj
 0002:00012d30       ??_C@_1GG@PMHOPJKA@?$AAw?$AAc?$AAs?$AAn?$AAc?$AAa?$AAt?$AA_?$AAs?$AA?$CI?$AA?5?$AAa?$AAs?$AAs?$AAe?$AAr?$AAt?$AAb?$AAu?$AAf?$AA?0?$AA?5?$AA?$CI?$AA6?$AA0?$AA?5?$AA?$CK?$AA?5?$AA9?$AA?$CJ?$AA?0?$AA?5@ 1317dd30     LIBCMTD:wassert.obj
 0002:00012d98       ??_C@_1O@HEMHKNDC@?$AAF?$AAi?$AAl?$AAe?$AA?3?$AA?5?$AA?$AA@ 1317dd98     LIBCMTD:wassert.obj
 0002:00012da8       ??_C@_1FG@HIDBOJF@?$AAw?$AAc?$AAs?$AAc?$AAa?$AAt?$AA_?$AAs?$AA?$CI?$AA?5?$AAa?$AAs?$AAs?$AAe?$AAr?$AAt?$AAb?$AAu?$AAf?$AA?0?$AA?5?$AA?$CI?$AA6?$AA0?$AA?5?$AA?$CK?$AA?5?$AA9?$AA?$CJ?$AA?0?$AA?5?$AAL@ 1317dda8     LIBCMTD:wassert.obj
 0002:00012e00       ??_C@_1FC@FFKGGIKO@?$AAw?$AAc?$AAs?$AAc?$AAa?$AAt?$AA_?$AAs?$AA?$CI?$AA?5?$AAa?$AAs?$AAs?$AAe?$AAr?$AAt?$AAb?$AAu?$AAf?$AA?0?$AA?5?$AA?$CI?$AA6?$AA0?$AA?5?$AA?$CK?$AA?5?$AA9?$AA?$CJ?$AA?0?$AA?5?$AAn@ 1317de00     LIBCMTD:wassert.obj
 0002:00012e58       ??_C@_1EK@BDNABPEK@?$AAw?$AAc?$AAs?$AAc?$AAa?$AAt?$AA_?$AAs?$AA?$CI?$AA?5?$AAa?$AAs?$AAs?$AAe?$AAr?$AAt?$AAb?$AAu?$AAf?$AA?0?$AA?5?$AA?$CI?$AA6?$AA0?$AA?5?$AA?$CK?$AA?5?$AA9?$AA?$CJ?$AA?0?$AA?5?$AAp@ 1317de58     LIBCMTD:wassert.obj
 0002:00012ea8       ??_C@_1HK@JKBDGMGN@?$AAw?$AAc?$AAs?$AAn?$AAc?$AAp?$AAy?$AA_?$AAs?$AA?$CI?$AA?5?$AAp?$AAc?$AAh?$AA?0?$AA?5?$AA?$CI?$AA2?$AA6?$AA0?$AA?5?$AA?$CL?$AA?5?$AA1?$AA?$CJ?$AA?5?$AA?9?$AA?5?$AA?$CI?$AAp?$AAc?$AAh@ 1317dea8     LIBCMTD:wassert.obj
 0002:00012f24       ??_C@_1CO@EAEJAADC@?$AA?$DM?$AAp?$AAr?$AAo?$AAg?$AAr?$AAa?$AAm?$AA?5?$AAn?$AAa?$AAm?$AAe?$AA?5?$AAu?$AAn?$AAk?$AAn?$AAo?$AAw?$AAn?$AA?$DO?$AA?$AA@ 1317df24     LIBCMTD:wassert.obj
 0002:00012f58       ??_C@_1HA@EPFCONEE@?$AAw?$AAc?$AAs?$AAc?$AAp?$AAy?$AA_?$AAs?$AA?$CI?$AA?5?$AAp?$AAr?$AAo?$AAg?$AAn?$AAa?$AAm?$AAe?$AA?0?$AA?5?$AA2?$AA6?$AA0?$AA?5?$AA?$CL?$AA?5?$AA1?$AA?0?$AA?5?$AAL?$AA?$CC?$AA?$DM@ 1317df58     LIBCMTD:wassert.obj
 0002:00012fc8       ??_C@_1BE@PHKBBGE@?$AAP?$AAr?$AAo?$AAg?$AAr?$AAa?$AAm?$AA?3?$AA?5?$AA?$AA@ 1317dfc8     LIBCMTD:wassert.obj
 0002:00012fe0       ??_C@_1FM@LKICECBD@?$AAw?$AAc?$AAs?$AAc?$AAa?$AAt?$AA_?$AAs?$AA?$CI?$AA?5?$AAa?$AAs?$AAs?$AAe?$AAr?$AAt?$AAb?$AAu?$AAf?$AA?0?$AA?5?$AA?$CI?$AA6?$AA0?$AA?5?$AA?$CK?$AA?5?$AA9?$AA?$CJ?$AA?0?$AA?5?$AAL@ 1317dfe0     LIBCMTD:wassert.obj
 0002:00013040       ??_C@_1FI@JIGMFG@?$AAw?$AAc?$AAs?$AAc?$AAa?$AAt?$AA_?$AAs?$AA?$CI?$AA?5?$AAa?$AAs?$AAs?$AAe?$AAr?$AAt?$AAb?$AAu?$AAf?$AA?0?$AA?5?$AA?$CI?$AA6?$AA0?$AA?5?$AA?$CK?$AA?5?$AA9?$AA?$CJ?$AA?0?$AA?5?$AAd@ 1317e040     LIBCMTD:wassert.obj
 0002:00013098       ??_C@_1CE@OJBNHDMO@?$AAA?$AAs?$AAs?$AAe?$AAr?$AAt?$AAi?$AAo?$AAn?$AA?5?$AAf?$AAa?$AAi?$AAl?$AAe?$AAd?$AA?$CB?$AA?$AA@ 1317e098     LIBCMTD:wassert.obj
 0002:000130c0       ??_C@_1GM@EFCJNBAA@?$AAw?$AAc?$AAs?$AAc?$AAp?$AAy?$AA_?$AAs?$AA?$CI?$AA?5?$AAa?$AAs?$AAs?$AAe?$AAr?$AAt?$AAb?$AAu?$AAf?$AA?0?$AA?5?$AA?$CI?$AA6?$AA0?$AA?5?$AA?$CK?$AA?5?$AA9?$AA?$CJ?$AA?0?$AA?5?$AAL@ 1317e0c0     LIBCMTD:wassert.obj
 0002:0001312c       ??_C@_0CG@KNFFOMBO@Filename?5cannot?5be?5displayed?5on?5@ 1317e12c     LIBCMTD:wassert.obj
 0002:00013158       ??_C@_1IG@IGPDOJOE@?$AAs?$AAt?$AAr?$AAc?$AAp?$AAy?$AA_?$AAs?$AA?$CI?$AAa?$AAe?$AAx?$AAp?$AAr?$AA?0?$AA?5?$AA?$CI?$AA6?$AA0?$AA?5?$AA?$CK?$AA?5?$AA9?$AA?$CJ?$AA?0?$AA?5?$AA?$CC?$AAF?$AAi?$AAl?$AAe?$AAn@ 1317e158     LIBCMTD:wassert.obj
 0002:000131e0       ??_C@_1EK@EDAIPDBP@?$AAs?$AAt?$AAr?$AAc?$AAa?$AAt?$AA_?$AAs?$AA?$CI?$AAa?$AAf?$AAi?$AAl?$AAe?$AAn?$AAa?$AAm?$AAe?$AA?0?$AA?5?$AA?$CI?$AA6?$AA0?$AA?5?$AA?$CK?$AA?5?$AA9?$AA?$CJ?$AA?0?$AA?5?$AA?$CC?$AA?4@ 1317e1e0     LIBCMTD:wassert.obj
 0002:00013230       ??_C@_1IK@MDEEAGJC@?$AAw?$AAc?$AAs?$AAt?$AAo?$AAm?$AAb?$AAs?$AA_?$AAs?$AA?$CI?$AA?$CI?$AA?$CI?$AAv?$AAo?$AAi?$AAd?$AA?5?$AA?$CK?$AA?$CJ?$AA0?$AA?$CJ?$AA?0?$AA?5?$AAa?$AAf?$AAi?$AAl?$AAe?$AAn?$AAa?$AAm@ 1317e230     LIBCMTD:wassert.obj
 0002:000132bc       ??_C@_0CI@FDIHEIE@Expression?5cannot?5be?5displayed?5o@ 1317e2bc     LIBCMTD:wassert.obj
 0002:000132e8       ??_C@_1IK@ONGNJJEH@?$AAs?$AAt?$AAr?$AAc?$AAp?$AAy?$AA_?$AAs?$AA?$CI?$AAa?$AAe?$AAx?$AAp?$AAr?$AA?0?$AA?5?$AA?$CI?$AA6?$AA0?$AA?5?$AA?$CK?$AA?5?$AA9?$AA?$CJ?$AA?0?$AA?5?$AA?$CC?$AAE?$AAx?$AAp?$AAr?$AAe@ 1317e2e8     LIBCMTD:wassert.obj
 0002:00013374       ??_C@_03KHICJKCI@?4?4?4?$AA@ 1317e374     LIBCMTD:wassert.obj
 0002:00013378       ??_C@_1EC@IFDALDOK@?$AAs?$AAt?$AAr?$AAc?$AAa?$AAt?$AA_?$AAs?$AA?$CI?$AAa?$AAe?$AAx?$AAp?$AAr?$AA?0?$AA?5?$AA?$CI?$AA6?$AA0?$AA?5?$AA?$CK?$AA?5?$AA9?$AA?$CJ?$AA?0?$AA?5?$AA?$CC?$AA?4?$AA?4?$AA?4?$AA?$CC?$AA?$CJ@ 1317e378     LIBCMTD:wassert.obj
 0002:000133c0       ??_C@_1HK@ENOPLEGF@?$AAw?$AAc?$AAs?$AAt?$AAo?$AAm?$AAb?$AAs?$AA_?$AAs?$AA?$CI?$AA?$CI?$AA?$CI?$AAv?$AAo?$AAi?$AAd?$AA?5?$AA?$CK?$AA?$CJ?$AA0?$AA?$CJ?$AA?0?$AA?5?$AAa?$AAe?$AAx?$AAp?$AAr?$AA?0?$AA?5?$AA?$CI@ 1317e3c0     LIBCMTD:wassert.obj
 0002:0001343c       ??_C@_1BC@LNOOMFNA@?$AA_?$AAw?$AAa?$AAs?$AAs?$AAe?$AAr?$AAt?$AA?$AA@ 1317e43c     LIBCMTD:wassert.obj
 0002:00013450       ??_C@_1GA@PJFCHOLB@?$AAf?$AA?3?$AA?2?$AAs?$AAp?$AA?2?$AAv?$AAc?$AAt?$AAo?$AAo?$AAl?$AAs?$AA?2?$AAc?$AAr?$AAt?$AA_?$AAb?$AAl?$AAd?$AA?2?$AAs?$AAe?$AAl?$AAf?$AA_?$AAx?$AA8?$AA6?$AA?2?$AAc@ 1317e450     LIBCMTD:wassert.obj
 0002:000134b0       __pDefaultRawDllMain       1317e4b0     LIBCMTD:dllcrt0.obj
 0002:000134b0       __pRawDllMain              1317e4b0     LIBCMTD:dllcrt0.obj
 0002:000134b4       ??_C@_09IFKEODFF@dllcrt0?4c?$AA@ 1317e4b4     LIBCMTD:dllcrt0.obj
 0002:000134c0       ??_C@_1DM@MADKGDLO@?$AA?$CI?$AAL?$AA?$CC?$AAB?$AAu?$AAf?$AAf?$AAe?$AAr?$AA?5?$AAi?$AAs?$AA?5?$AAt?$AAo?$AAo?$AA?5?$AAs?$AAm?$AAa?$AAl?$AAl?$AA?$CC?$AA?5?$AA?$CG?$AA?$CG?$AA?5?$AA0?$AA?$CJ?$AA?$AA@ 1317e4c0     LIBCMTD:strcpy_s.obj
 0002:000134fc       ??_C@_1CI@HCPHDDLE@?$AAB?$AAu?$AAf?$AAf?$AAe?$AAr?$AA?5?$AAi?$AAs?$AA?5?$AAt?$AAo?$AAo?$AA?5?$AAs?$AAm?$AAa?$AAl?$AAl?$AA?$AA@ 1317e4fc     LIBCMTD:strcpy_s.obj
 0002:00013524       ??_C@_1CG@OFBJMIGJ@?$AA?$CI?$AA?$CI?$AA?$CI?$AA_?$AAS?$AAr?$AAc?$AA?$CJ?$AA?$CJ?$AA?$CJ?$AA?5?$AA?$CB?$AA?$DN?$AA?5?$AAN?$AAU?$AAL?$AAL?$AA?$AA@ 1317e524     LIBCMTD:strcpy_s.obj
 0002:0001354c       ??_C@_1BC@CFJEPFGF@?$AAs?$AAt?$AAr?$AAc?$AAp?$AAy?$AA_?$AAs?$AA?$AA@ 1317e54c     LIBCMTD:strcpy_s.obj
 0002:00013560       ??_C@_1GI@LIGBEGKN@?$AAF?$AA?3?$AA?2?$AAS?$AAP?$AA?2?$AAv?$AAc?$AAt?$AAo?$AAo?$AAl?$AAs?$AA?2?$AAc?$AAr?$AAt?$AA_?$AAb?$AAl?$AAd?$AA?2?$AAS?$AAE?$AAL?$AAF?$AA_?$AAX?$AA8?$AA6?$AA?2?$AAc@ 1317e560     LIBCMTD:strcpy_s.obj
 0002:000135c8       ??_C@_1FC@NCPEPIBI@?$AA?$CI?$AA?$CI?$AA_?$AAD?$AAs?$AAt?$AA?$CJ?$AA?$CJ?$AA?5?$AA?$CB?$AA?$DN?$AA?5?$AAN?$AAU?$AAL?$AAL?$AA?5?$AA?$CG?$AA?$CG?$AA?5?$AA?$CI?$AA?$CI?$AA_?$AAS?$AAi?$AAz?$AAe?$AAI?$AAn?$AAB?$AAy?$AAt@ 1317e5c8     LIBCMTD:strcpy_s.obj
 0002:0001361c       ??_C@_1CC@OLIJCKA@?$AA?$CI?$AAs?$AAt?$AAr?$AAi?$AAn?$AAg?$AA?5?$AA?$CB?$AA?$DN?$AA?5?$AAN?$AAU?$AAL?$AAL?$AA?$CJ?$AA?$AA@ 1317e61c     LIBCMTD:sprintf.obj
 0002:00013640       ??_C@_1BA@KBJJGFFE@?$AAs?$AAp?$AAr?$AAi?$AAn?$AAt?$AAf?$AA?$AA@ 1317e640     LIBCMTD:sprintf.obj
 0002:00013650       ??_C@_1BE@BPBEAPLI@?$AAs?$AAp?$AAr?$AAi?$AAn?$AAt?$AAf?$AA?4?$AAc?$AA?$AA@ 1317e650     LIBCMTD:sprintf.obj
 0002:00013664       ??_C@_1CC@MGIEJOME@?$AA?$CI?$AAf?$AAo?$AAr?$AAm?$AAa?$AAt?$AA?5?$AA?$CB?$AA?$DN?$AA?5?$AAN?$AAU?$AAL?$AAL?$AA?$CJ?$AA?$AA@ 1317e664     LIBCMTD:sprintf.obj
 0002:00013688       ??_C@_1CK@DDKKOLAN@?$AAs?$AAi?$AAz?$AAe?$AAI?$AAn?$AAB?$AAy?$AAt?$AAe?$AAs?$AA?5?$AA?$DO?$AA?$DN?$AA?5?$AAc?$AAo?$AAu?$AAn?$AAt?$AA?$AA@ 1317e688     LIBCMTD:memcpy_s.obj
 0002:000136b4       ??_C@_1BI@DCHLDCPP@?$AAs?$AAr?$AAc?$AA?5?$AA?$CB?$AA?$DN?$AA?5?$AAN?$AAU?$AAL?$AAL?$AA?$AA@ 1317e6b4     LIBCMTD:memcpy_s.obj
 0002:000136cc       ??_C@_1BC@GKHDJMGB@?$AAm?$AAe?$AAm?$AAc?$AAp?$AAy?$AA_?$AAs?$AA?$AA@ 1317e6cc     LIBCMTD:memcpy_s.obj
 0002:000136e0       ??_C@_1BG@MKNDEPCK@?$AAm?$AAe?$AAm?$AAc?$AAp?$AAy?$AA_?$AAs?$AA?4?$AAc?$AA?$AA@ 1317e6e0     LIBCMTD:memcpy_s.obj
 0002:000136f8       ??_C@_1BI@GKKCBDMD@?$AAd?$AAs?$AAt?$AA?5?$AA?$CB?$AA?$DN?$AA?5?$AAN?$AAU?$AAL?$AAL?$AA?$AA@ 1317e6f8     LIBCMTD:memcpy_s.obj
 0002:00013710       ??_C@_06PJIGMIJB@Client?$AA@ 1317e710     LIBCMTD:dbgheap.obj
 0002:00013718       ??_C@_06KMEJCCGM@Ignore?$AA@ 1317e718     LIBCMTD:dbgheap.obj
 0002:00013720       ??_C@_03OGPFLFLO@CRT?$AA@  1317e720     LIBCMTD:dbgheap.obj
 0002:00013724       ??_C@_06EFAGIKOH@Normal?$AA@ 1317e724     LIBCMTD:dbgheap.obj
 0002:0001372c       ??_C@_04HJMOFLDF@Free?$AA@ 1317e72c     LIBCMTD:dbgheap.obj
 0002:00013734       ?ProcessDetach@NativeDll@<CrtImplementationDetails>@@0IB 1317e734     LIBCMTD:dbgheap.obj
 0002:00013738       ?ProcessAttach@NativeDll@<CrtImplementationDetails>@@0IB 1317e738     LIBCMTD:dbgheap.obj
 0002:0001373c       ?ThreadAttach@NativeDll@<CrtImplementationDetails>@@0IB 1317e73c     LIBCMTD:dbgheap.obj
 0002:00013740       ?ThreadDetach@NativeDll@<CrtImplementationDetails>@@0IB 1317e740     LIBCMTD:dbgheap.obj
 0002:00013744       ?ProcessVerifier@NativeDll@<CrtImplementationDetails>@@0IB 1317e744     LIBCMTD:dbgheap.obj
 0002:0001375c       ??_C@_0DC@JEMAGEKG@Error?3?5memory?5allocation?3?5bad?5me@ 1317e75c     LIBCMTD:dbgheap.obj
 0002:00013790       ??_C@_0CF@BICKFLAF@Invalid?5allocation?5size?3?5?$CFIu?5byt@ 1317e790     LIBCMTD:dbgheap.obj
 0002:000137b8       ??_C@_02DKCKIIND@?$CFs?$AA@ 1317e7b8     LIBCMTD:dbgheap.obj
 0002:000137bc       ??_C@_0CB@CCLOLAHO@Client?5hook?5allocation?5failure?4?6@ 1317e7bc     LIBCMTD:dbgheap.obj
 0002:000137e0       ??_C@_0DF@BBEGIFEK@Client?5hook?5allocation?5failure?5a@ 1317e7e0     LIBCMTD:dbgheap.obj
 0002:00013818       ??_C@_1BE@DOFBOBGF@?$AAd?$AAb?$AAg?$AAh?$AAe?$AAa?$AAp?$AA?4?$AAc?$AA?$AA@ 1317e818     LIBCMTD:dbgheap.obj
 0002:0001382c       ??_C@_1CE@LJFEPPMP@?$AA_?$AAC?$AAr?$AAt?$AAC?$AAh?$AAe?$AAc?$AAk?$AAM?$AAe?$AAm?$AAo?$AAr?$AAy?$AA?$CI?$AA?$CJ?$AA?$AA@ 1317e82c     LIBCMTD:dbgheap.obj
 0002:00013850       ??_C@_1BI@MIPBBENM@?$AA_?$AAc?$AAa?$AAl?$AAl?$AAo?$AAc?$AA_?$AAd?$AAb?$AAg?$AA?$AA@ 1317e850     LIBCMTD:dbgheap.obj
 0002:00013868       ??_C@_1DO@MEOGCGBN@?$AA?$CI?$AA_?$AAH?$AAE?$AAA?$AAP?$AA_?$AAM?$AAA?$AAX?$AAR?$AAE?$AAQ?$AA?5?$AA?1?$AA?5?$AAn?$AAN?$AAu?$AAm?$AA?$CJ?$AA?5?$AA?$DO?$AA?$DN?$AA?5?$AAn?$AAS?$AAi?$AAz?$AAe?$AA?$AA@ 1317e868     LIBCMTD:dbgheap.obj
 0002:000138a8       ??_C@_1DE@KOOKLFBB@?$AA_?$AAp?$AAF?$AAi?$AAr?$AAs?$AAt?$AAB?$AAl?$AAo?$AAc?$AAk?$AA?5?$AA?$DN?$AA?$DN?$AA?5?$AAp?$AAO?$AAl?$AAd?$AAB?$AAl?$AAo?$AAc?$AAk?$AA?$AA@ 1317e8a8     LIBCMTD:dbgheap.obj
 0002:000138dc       ??_C@_1DC@GEFKNOOL@?$AA_?$AAp?$AAL?$AAa?$AAs?$AAt?$AAB?$AAl?$AAo?$AAc?$AAk?$AA?5?$AA?$DN?$AA?$DN?$AA?5?$AAp?$AAO?$AAl?$AAd?$AAB?$AAl?$AAo?$AAc?$AAk?$AA?$AA@ 1317e8dc     LIBCMTD:dbgheap.obj
 0002:00013910       ??_C@_1GE@PCKLOLAO@?$AAf?$AAR?$AAe?$AAa?$AAl?$AAl?$AAo?$AAc?$AA?5?$AA?$HM?$AA?$HM?$AA?5?$AA?$CI?$AA?$CB?$AAf?$AAR?$AAe?$AAa?$AAl?$AAl?$AAo?$AAc?$AA?5?$AA?$CG?$AA?$CG?$AA?5?$AAp?$AAN?$AAe?$AAw?$AAB?$AAl@ 1317e910     LIBCMTD:dbgheap.obj
 0002:00013978       ??_C@_1IK@DCPKDGNH@?$AAp?$AAO?$AAl?$AAd?$AAB?$AAl?$AAo?$AAc?$AAk?$AA?9?$AA?$DO?$AAn?$AAL?$AAi?$AAn?$AAe?$AA?5?$AA?$DN?$AA?$DN?$AA?5?$AAI?$AAG?$AAN?$AAO?$AAR?$AAE?$AA_?$AAL?$AAI?$AAN?$AAE?$AA?5@ 1317e978     LIBCMTD:dbgheap.obj
 0002:00013a08       ??_C@_1EE@GFOPCECE@?$AA_?$AAC?$AAr?$AAt?$AAI?$AAs?$AAV?$AAa?$AAl?$AAi?$AAd?$AAH?$AAe?$AAa?$AAp?$AAP?$AAo?$AAi?$AAn?$AAt?$AAe?$AAr?$AA?$CI?$AAp?$AAU?$AAs?$AAe?$AAr?$AAD?$AAa?$AAt?$AAa@ 1317ea08     LIBCMTD:dbgheap.obj
 0002:00013a50       ??_C@_0EM@LGFLMAGJ@The?5Block?5at?50x?$CFp?5was?5allocated?5@ 1317ea50     LIBCMTD:dbgheap.obj
 0002:00013aa0       ??_C@_0FA@EFEIGJKG@Error?3?5memory?5allocation?3?5bad?5me@ 1317eaa0     LIBCMTD:dbgheap.obj
 0002:00013af0       ??_C@_0ED@GPCPBAGP@Invalid?5allocation?5size?3?5?$CFIu?5byt@ 1317eaf0     LIBCMTD:dbgheap.obj
 0002:00013b34       ??_C@_0CE@DOFMDOL@Client?5hook?5re?9allocation?5failur@ 1317eb34     LIBCMTD:dbgheap.obj
 0002:00013b58       ??_C@_0DI@KKJPDPGM@Client?5hook?5re?9allocation?5failur@ 1317eb58     LIBCMTD:dbgheap.obj
 0002:00013b90       ??_C@_1BM@OKFKJCEN@?$AA_?$AAr?$AAe?$AAc?$AAa?$AAl?$AAl?$AAo?$AAc?$AA_?$AAd?$AAb?$AAg?$AA?$AA@ 1317eb90     LIBCMTD:dbgheap.obj
 0002:00013bac       ??_C@_1DO@GOKJCEHJ@?$AA?$CI?$AA_?$AAH?$AAE?$AAA?$AAP?$AA_?$AAM?$AAA?$AAX?$AAR?$AAE?$AAQ?$AA?5?$AA?1?$AA?5?$AAc?$AAo?$AAu?$AAn?$AAt?$AA?$CJ?$AA?5?$AA?$DO?$AA?$DN?$AA?5?$AAs?$AAi?$AAz?$AAe?$AA?$AA@ 1317ebac     LIBCMTD:dbgheap.obj
 0002:00013bec       ??_C@_1BI@HAPNGHDP@?$AA_?$AAe?$AAx?$AAp?$AAa?$AAn?$AAd?$AA_?$AAd?$AAb?$AAg?$AA?$AA@ 1317ebec     LIBCMTD:dbgheap.obj
 0002:00013c04       ??_C@_1CE@CJACEFBA@?$AAp?$AAU?$AAs?$AAe?$AAr?$AAD?$AAa?$AAt?$AAa?$AA?5?$AA?$CB?$AA?$DN?$AA?5?$AAN?$AAU?$AAL?$AAL?$AA?$AA@ 1317ec04     LIBCMTD:dbgheap.obj
 0002:00013c28       ??_C@_1CM@MMAADDMD@?$AA_?$AAp?$AAF?$AAi?$AAr?$AAs?$AAt?$AAB?$AAl?$AAo?$AAc?$AAk?$AA?5?$AA?$DN?$AA?$DN?$AA?5?$AAp?$AAH?$AAe?$AAa?$AAd?$AA?$AA@ 1317ec28     LIBCMTD:dbgheap.obj
 0002:00013c54       ??_C@_1CK@DMAGEMBG@?$AA_?$AAp?$AAL?$AAa?$AAs?$AAt?$AAB?$AAl?$AAo?$AAc?$AAk?$AA?5?$AA?$DN?$AA?$DN?$AA?5?$AAp?$AAH?$AAe?$AAa?$AAd?$AA?$AA@ 1317ec54     LIBCMTD:dbgheap.obj
 0002:00013c80       ??_C@_1DM@ODCJIDCP@?$AAp?$AAH?$AAe?$AAa?$AAd?$AA?9?$AA?$DO?$AAn?$AAB?$AAl?$AAo?$AAc?$AAk?$AAU?$AAs?$AAe?$AA?5?$AA?$DN?$AA?$DN?$AA?5?$AAn?$AAB?$AAl?$AAo?$AAc?$AAk?$AAU?$AAs?$AAe?$AA?$AA@ 1317ec80     LIBCMTD:dbgheap.obj
 0002:00013cc0       ??_C@_1HK@HPCBMDFG@?$AAp?$AAH?$AAe?$AAa?$AAd?$AA?9?$AA?$DO?$AAn?$AAL?$AAi?$AAn?$AAe?$AA?5?$AA?$DN?$AA?$DN?$AA?5?$AAI?$AAG?$AAN?$AAO?$AAR?$AAE?$AA_?$AAL?$AAI?$AAN?$AAE?$AA?5?$AA?$CG?$AA?$CG?$AA?5?$AAp@ 1317ecc0     LIBCMTD:dbgheap.obj
 0002:00013d40       ??_C@_0IG@LEMBDCJK@HEAP?5CORRUPTION?5DETECTED?3?5after?5@ 1317ed40     LIBCMTD:dbgheap.obj
 0002:00013dc8       ??_C@_0KE@MBMNHHHN@HEAP?5CORRUPTION?5DETECTED?3?5after?5@ 1317edc8     LIBCMTD:dbgheap.obj
 0002:00013e70       ??_C@_0IK@PJCGLBOB@HEAP?5CORRUPTION?5DETECTED?3?5before@ 1317ee70     LIBCMTD:dbgheap.obj
 0002:00013f00       ??_C@_0KI@JGFOHMEB@HEAP?5CORRUPTION?5DETECTED?3?5before@ 1317ef00     LIBCMTD:dbgheap.obj
 0002:00013fa8       ??_C@_0BL@KEIPLFAC@Client?5hook?5free?5failure?4?6?$AA@ 1317efa8     LIBCMTD:dbgheap.obj
 0002:00013fc8       ??_C@_0EJ@HEIBCIMJ@The?5Block?5at?50x?$CFp?5was?5allocated?5@ 1317efc8     LIBCMTD:dbgheap.obj
 0002:00014014       ??_C@_1BG@MBKOGDLD@?$AA_?$AAm?$AAs?$AAi?$AAz?$AAe?$AA_?$AAd?$AAb?$AAg?$AA?$AA@ 1317f014     LIBCMTD:dbgheap.obj
 0002:0001402c       ??_C@_0CI@JMLBEDHJ@?$CFhs?5located?5at?50x?$CFp?5is?5?$CFIu?5bytes@ 1317f02c     LIBCMTD:dbgheap.obj
 0002:00014058       ??_C@_0EG@DGJMPDBH@?$CFhs?5located?5at?50x?$CFp?5is?5?$CFIu?5bytes@ 1317f058     LIBCMTD:dbgheap.obj
 0002:000140a0       ??_C@_0IC@BBJIOOJH@HEAP?5CORRUPTION?5DETECTED?3?5on?5top@ 1317f0a0     LIBCMTD:dbgheap.obj
 0002:00014128       ??_C@_0KA@IHNJJKPL@HEAP?5CORRUPTION?5DETECTED?3?5on?5top@ 1317f128     LIBCMTD:dbgheap.obj
 0002:000141c8       ??_C@_07OHKEFPKJ@DAMAGED?$AA@ 1317f1c8     LIBCMTD:dbgheap.obj
 0002:000141d0       ??_C@_0CL@HNNNMKMJ@_heapchk?5fails?5with?5unknown?5retu@ 1317f1d0     LIBCMTD:dbgheap.obj
 0002:000141fc       ??_C@_0CC@MFFCHFHO@_heapchk?5fails?5with?5_HEAPBADPTR?4@ 1317f1fc     LIBCMTD:dbgheap.obj
 0002:00014220       ??_C@_0CC@MJGLGBDG@_heapchk?5fails?5with?5_HEAPBADEND?4@ 1317f220     LIBCMTD:dbgheap.obj
 0002:00014244       ??_C@_0CD@CPKEAPBD@_heapchk?5fails?5with?5_HEAPBADNODE@ 1317f244     LIBCMTD:dbgheap.obj
 0002:00014268       ??_C@_0CE@MKKHMBMK@_heapchk?5fails?5with?5_HEAPBADBEGI@ 1317f268     LIBCMTD:dbgheap.obj
 0002:0001428c       ??_C@_1BO@GJFDNMNF@?$AA_?$AAC?$AAr?$AAt?$AAS?$AAe?$AAt?$AAD?$AAb?$AAg?$AAF?$AAl?$AAa?$AAg?$AA?$AA@ 1317f28c     LIBCMTD:dbgheap.obj
 0002:000142b0       ??_C@_1BHO@NNANJNF@?$AA?$CI?$AAf?$AAN?$AAe?$AAw?$AAB?$AAi?$AAt?$AAs?$AA?$DN?$AA?$DN?$AA_?$AAC?$AAR?$AAT?$AAD?$AAB?$AAG?$AA_?$AAR?$AAE?$AAP?$AAO?$AAR?$AAT?$AA_?$AAF?$AAL?$AAA?$AAG?$AA?$CJ?$AA?5@ 1317f2b0     LIBCMTD:dbgheap.obj
 0002:00014430       ??_C@_1DE@GJCKCKEC@?$AA_?$AAC?$AAr?$AAt?$AAD?$AAo?$AAF?$AAo?$AAr?$AAA?$AAl?$AAl?$AAC?$AAl?$AAi?$AAe?$AAn?$AAt?$AAO?$AAb?$AAj?$AAe?$AAc?$AAt?$AAs?$AA?$AA@ 1317f430     LIBCMTD:dbgheap.obj
 0002:00014464       ??_C@_1BI@CJGCEEDL@?$AAp?$AAf?$AAn?$AA?5?$AA?$CB?$AA?$DN?$AA?5?$AAN?$AAU?$AAL?$AAL?$AA?$AA@ 1317f464     LIBCMTD:dbgheap.obj
 0002:0001447c       ??_C@_1CG@DGPPLLPG@?$AA_?$AAg?$AAe?$AAt?$AA_?$AAo?$AAs?$AAv?$AAe?$AAr?$AA?$CI?$AA?$CG?$AAo?$AAs?$AAv?$AAe?$AAr?$AA?$CJ?$AA?$AA@ 1317f47c     LIBCMTD:dbgheap.obj
 0002:000144a4       ??_C@_1CO@JHPAACDJ@?$AA_?$AAC?$AAr?$AAt?$AAI?$AAs?$AAV?$AAa?$AAl?$AAi?$AAd?$AAH?$AAe?$AAa?$AAp?$AAP?$AAo?$AAi?$AAn?$AAt?$AAe?$AAr?$AA?$AA@ 1317f4a4     LIBCMTD:dbgheap.obj
 0002:000144d4       ??_C@_0CB@EAAIGELO@Bad?5memory?5block?5found?5at?50x?$CFp?4?6@ 1317f4d4     LIBCMTD:dbgheap.obj
 0002:000144f8       ??_C@_0DP@LEFMFBOD@Bad?5memory?5block?5found?5at?50x?$CFp?4?6@ 1317f4f8     LIBCMTD:dbgheap.obj
 0002:00014538       ??_C@_1CE@NJJKELF@?$AA_?$AAC?$AAr?$AAt?$AAM?$AAe?$AAm?$AAC?$AAh?$AAe?$AAc?$AAk?$AAp?$AAo?$AAi?$AAn?$AAt?$AA?$AA@ 1317f538     LIBCMTD:dbgheap.obj
 0002:0001455c       ??_C@_1BM@MIMANDHC@?$AAs?$AAt?$AAa?$AAt?$AAe?$AA?5?$AA?$CB?$AA?$DN?$AA?5?$AAN?$AAU?$AAL?$AAL?$AA?$AA@ 1317f55c     LIBCMTD:dbgheap.obj
 0002:00014578       ??_C@_1CC@DFPEDFBP@?$AAn?$AAe?$AAw?$AAS?$AAt?$AAa?$AAt?$AAe?$AA?5?$AA?$CB?$AA?$DN?$AA?5?$AAN?$AAU?$AAL?$AAL?$AA?$AA@ 1317f578     LIBCMTD:dbgheap.obj
 0002:0001459c       ??_C@_1CC@DHPFEMMN@?$AAo?$AAl?$AAd?$AAS?$AAt?$AAa?$AAt?$AAe?$AA?5?$AA?$CB?$AA?$DN?$AA?5?$AAN?$AAU?$AAL?$AAL?$AA?$AA@ 1317f59c     LIBCMTD:dbgheap.obj
 0002:000145c0       ??_C@_1CE@PDIENACM@?$AA_?$AAC?$AAr?$AAt?$AAM?$AAe?$AAm?$AAD?$AAi?$AAf?$AAf?$AAe?$AAr?$AAe?$AAn?$AAc?$AAe?$AA?$AA@ 1317f5c0     LIBCMTD:dbgheap.obj
 0002:000145e4       ??_C@_0BH@GFGKJDCO@Object?5dump?5complete?4?6?$AA@ 1317f5e4     LIBCMTD:dbgheap.obj
 0002:000145fc       ??_C@_0DA@MDLBNIBM@crt?5block?5at?50x?$CFp?0?5subtype?5?$CFx?0?5?$CF@ 1317f5fc     LIBCMTD:dbgheap.obj
 0002:0001462c       ??_C@_0CH@FAGDDGPN@normal?5block?5at?50x?$CFp?0?5?$CFIu?5bytes?5@ 1317f62c     LIBCMTD:dbgheap.obj
 0002:00014654       ??_C@_0DD@GHNAAKBB@client?5block?5at?50x?$CFp?0?5subtype?5?$CFx@ 1317f654     LIBCMTD:dbgheap.obj
 0002:00014688       ??_C@_06PKLGBFGM@?$HL?$CFld?$HN?5?$AA@ 1317f688     LIBCMTD:dbgheap.obj
 0002:00014690       ??_C@_0L@JMEFFCCJ@?$CFhs?$CI?$CFd?$CJ?5?3?5?$AA@ 1317f690     LIBCMTD:dbgheap.obj
 0002:0001469c       ??_C@_0BE@OIEFNFL@?$CDFile?5Error?$CD?$CI?$CFd?$CJ?5?3?5?$AA@ 1317f69c     LIBCMTD:dbgheap.obj
 0002:000146b0       ??_C@_0BE@KCIPKCIA@Dumping?5objects?5?9?$DO?6?$AA@ 1317f6b0     LIBCMTD:dbgheap.obj
 0002:000146c4       ??_C@_0BA@HJBKCELP@?5Data?3?5?$DM?$CFs?$DO?5?$CFs?6?$AA@ 1317f6c4     LIBCMTD:dbgheap.obj
 0002:000146d4       ??_C@_1BI@KALLJECN@?$AA?$CI?$AA?$CK?$AA_?$AAe?$AAr?$AAr?$AAn?$AAo?$AA?$CI?$AA?$CJ?$AA?$CJ?$AA?$AA@ 1317f6d4     LIBCMTD:dbgheap.obj
 0002:000146ec       ??_C@_1CG@LPFIACGM@?$AA_?$AAp?$AAr?$AAi?$AAn?$AAt?$AAM?$AAe?$AAm?$AAB?$AAl?$AAo?$AAc?$AAk?$AAD?$AAa?$AAt?$AAa?$AA?$AA@ 1317f6ec     LIBCMTD:dbgheap.obj
 0002:00014714       ??_C@_05MKKEDADM@?$CF?42X?5?$AA@ 1317f714     LIBCMTD:dbgheap.obj
 0002:0001471c       ??_C@_0BI@JBFPOEJA@Detected?5memory?5leaks?$CB?6?$AA@ 1317f71c     LIBCMTD:dbgheap.obj
 0002:00014734       ??_C@_0BP@DEDHGGGI@Total?5allocations?3?5?$CFId?5bytes?4?6?$AA@ 1317f734     LIBCMTD:dbgheap.obj
 0002:00014754       ??_C@_0CB@BLHDAFNE@Largest?5number?5used?3?5?$CFId?5bytes?4?6@ 1317f754     LIBCMTD:dbgheap.obj
 0002:00014778       ??_C@_0BO@DACNIABB@?$CFId?5bytes?5in?5?$CFId?5?$CFhs?5Blocks?4?6?$AA@ 1317f778     LIBCMTD:dbgheap.obj
 0002:00014798       ??_C@_1CM@MPNIBKGK@?$AA_?$AAC?$AAr?$AAt?$AAM?$AAe?$AAm?$AAD?$AAu?$AAm?$AAp?$AAS?$AAt?$AAa?$AAt?$AAi?$AAs?$AAt?$AAi?$AAc?$AAs?$AA?$AA@ 1317f798     LIBCMTD:dbgheap.obj
 0002:000147c4       ??_C@_1DK@LFLKFPDA@?$AAo?$AAf?$AAf?$AAs?$AAe?$AAt?$AA?5?$AA?$DN?$AA?$DN?$AA?5?$AA0?$AA?5?$AA?$HM?$AA?$HM?$AA?5?$AAo?$AAf?$AAf?$AAs?$AAe?$AAt?$AA?5?$AA?$DM?$AA?5?$AAs?$AAi?$AAz?$AAe?$AA?$AA@ 1317f7c4     LIBCMTD:dbgheap.obj
 0002:00014800       ??_C@_1DG@DONCJBBJ@?$AA_?$AAa?$AAl?$AAi?$AAg?$AAn?$AAe?$AAd?$AA_?$AAo?$AAf?$AAf?$AAs?$AAe?$AAt?$AA_?$AAm?$AAa?$AAl?$AAl?$AAo?$AAc?$AA_?$AAd?$AAb?$AAg?$AA?$AA@ 1317f800     LIBCMTD:dbgheap.obj
 0002:00014838       ??_C@_1CE@NPMGPNNP@?$AAI?$AAS?$AA_?$AA2?$AA_?$AAP?$AAO?$AAW?$AA_?$AAN?$AA?$CI?$AAa?$AAl?$AAi?$AAg?$AAn?$AA?$CJ?$AA?$AA@ 1317f838     LIBCMTD:dbgheap.obj
 0002:0001485c       ??_C@_1DI@NINIKFFK@?$AA_?$AAa?$AAl?$AAi?$AAg?$AAn?$AAe?$AAd?$AA_?$AAo?$AAf?$AAf?$AAs?$AAe?$AAt?$AA_?$AAr?$AAe?$AAa?$AAl?$AAl?$AAo?$AAc?$AA_?$AAd?$AAb?$AAg?$AA?$AA@ 1317f85c     LIBCMTD:dbgheap.obj
 0002:00014894       ??_C@_0DL@PGHMMKNE@Damage?5before?50x?$CFp?5which?5was?5all@ 1317f894     LIBCMTD:dbgheap.obj
 0002:000148d0       ??_C@_0EI@NDNJMAJK@The?5block?5at?50x?$CFp?5was?5not?5alloca@ 1317f8d0     LIBCMTD:dbgheap.obj
 0002:00014918       ??_C@_1DK@MMLHIFFH@?$AA_?$AAa?$AAl?$AAi?$AAg?$AAn?$AAe?$AAd?$AA_?$AAo?$AAf?$AAf?$AAs?$AAe?$AAt?$AA_?$AAr?$AAe?$AAc?$AAa?$AAl?$AAl?$AAo?$AAc?$AA_?$AAd?$AAb?$AAg?$AA?$AA@ 1317f918     LIBCMTD:dbgheap.obj
 0002:00014958       ??_C@_0EF@PGELACII@The?5block?5at?50x?$CFp?5was?5not?5alloca@ 1317f958     LIBCMTD:dbgheap.obj
 0002:000149a0       ??_C@_1CG@CEGMHIMN@?$AA_?$AAa?$AAl?$AAi?$AAg?$AAn?$AAe?$AAd?$AA_?$AAm?$AAs?$AAi?$AAz?$AAe?$AA_?$AAd?$AAb?$AAg?$AA?$AA@ 1317f9a0     LIBCMTD:dbgheap.obj
 0002:000149c8       ??_C@_1CC@MOBIKHH@?$AAm?$AAe?$AAm?$AAb?$AAl?$AAo?$AAc?$AAk?$AA?5?$AA?$CB?$AA?$DN?$AA?5?$AAN?$AAU?$AAL?$AAL?$AA?$AA@ 1317f9c8     LIBCMTD:dbgheap.obj
 0002:000149ec       ??_C@_1CM@HABGDNLJ@?$AAl?$AAe?$AAn?$AAg?$AAt?$AAh?$AA?5?$AA?$DM?$AA?5?$AAs?$AAi?$AAz?$AAe?$AAI?$AAn?$AAT?$AAC?$AAh?$AAa?$AAr?$AAs?$AA?$AA@ 1317f9ec     LIBCMTD:xtoas.obj
 0002:00014a18       ??_C@_1DE@PCJGDBBD@?$AA2?$AA?5?$AA?$DM?$AA?$DN?$AA?5?$AAr?$AAa?$AAd?$AAi?$AAx?$AA?5?$AA?$CG?$AA?$CG?$AA?5?$AAr?$AAa?$AAd?$AAi?$AAx?$AA?5?$AA?$DM?$AA?$DN?$AA?5?$AA3?$AA6?$AA?$AA@ 1317fa18     LIBCMTD:xtoas.obj
 0002:00014a50       ??_C@_1FA@MKGGAGEI@?$AAs?$AAi?$AAz?$AAe?$AAI?$AAn?$AAT?$AAC?$AAh?$AAa?$AAr?$AAs?$AA?5?$AA?$DO?$AA?5?$AA?$CI?$AAs?$AAi?$AAz?$AAe?$AA_?$AAt?$AA?$CJ?$AA?$CI?$AAi?$AAs?$AA_?$AAn?$AAe?$AAg?$AA?5?$AA?$DP@ 1317fa50     LIBCMTD:xtoas.obj
 0002:00014aa0       ??_C@_1CC@JNJFIMGE@?$AAs?$AAi?$AAz?$AAe?$AAI?$AAn?$AAT?$AAC?$AAh?$AAa?$AAr?$AAs?$AA?5?$AA?$DO?$AA?5?$AA0?$AA?$AA@ 1317faa0     LIBCMTD:xtoas.obj
 0002:00014ac4       ??_C@_1O@GIMBNLEI@?$AAx?$AAt?$AAo?$AAa?$AA_?$AAs?$AA?$AA@ 1317fac4     LIBCMTD:xtoas.obj
 0002:00014ad8       ??_C@_1FM@LINCFGBD@?$AAf?$AA?3?$AA?2?$AAs?$AAp?$AA?2?$AAv?$AAc?$AAt?$AAo?$AAo?$AAl?$AAs?$AA?2?$AAc?$AAr?$AAt?$AA_?$AAb?$AAl?$AAd?$AA?2?$AAs?$AAe?$AAl?$AAf?$AA_?$AAx?$AA8?$AA6?$AA?2?$AAc@ 1317fad8     LIBCMTD:xtoas.obj
 0002:00014b34       ??_C@_1BI@ICGGMGLK@?$AAb?$AAu?$AAf?$AA?5?$AA?$CB?$AA?$DN?$AA?5?$AAN?$AAU?$AAL?$AAL?$AA?$AA@ 1317fb34     LIBCMTD:xtoas.obj
 0002:00014b4c       ??_C@_1BC@MJJNBNFN@?$AAx?$AA6?$AA4?$AAt?$AAo?$AAa?$AA_?$AAs?$AA?$AA@ 1317fb4c     LIBCMTD:xtoas.obj
 0002:00014b60       ??_C@_1CC@CGHMNGDG@?$AAA?$AAs?$AAs?$AAe?$AAr?$AAt?$AAi?$AAo?$AAn?$AA?5?$AAF?$AAa?$AAi?$AAl?$AAe?$AAd?$AA?$AA@ 1317fb60     LIBCMTD:dbgrptw.obj
 0002:00014b84       ??_C@_1M@ILHOPKA@?$AAE?$AAr?$AAr?$AAo?$AAr?$AA?$AA@ 1317fb84     LIBCMTD:dbgrptw.obj
 0002:00014b90       ??_C@_1BA@GLMCNLEM@?$AAW?$AAa?$AAr?$AAn?$AAi?$AAn?$AAg?$AA?$AA@ 1317fb90     LIBCMTD:dbgrptw.obj
 0002:00014ba0       ??_C@_0DA@HAFNAKMA@f?3?2sp?2vctools?2crt_bld?2self_x86?2c@ 1317fba0     LIBCMTD:dbgrptw.obj
 0002:00014bd0       ??_C@_1FI@PHIAFFHM@?$AA?$CI?$AA?$CC?$AAT?$AAh?$AAe?$AA?5?$AAh?$AAo?$AAo?$AAk?$AA?5?$AAf?$AAu?$AAn?$AAc?$AAt?$AAi?$AAo?$AAn?$AA?5?$AAi?$AAs?$AA?5?$AAn?$AAo?$AAt?$AA?5?$AAi?$AAn?$AA?5?$AAt?$AAh@ 1317fbd0     LIBCMTD:dbgrptw.obj
 0002:00014c28       ??_C@_1CG@JBJEFOCM@?$AAp?$AAf?$AAn?$AAN?$AAe?$AAw?$AAH?$AAo?$AAo?$AAk?$AA?5?$AA?$CB?$AA?$DN?$AA?5?$AAN?$AAU?$AAL?$AAL?$AA?$AA@ 1317fc28     LIBCMTD:dbgrptw.obj
 0002:00014c50       ??_C@_1CI@IIHEAKEI@?$AA_?$AAC?$AAr?$AAt?$AAS?$AAe?$AAt?$AAR?$AAe?$AAp?$AAo?$AAr?$AAt?$AAH?$AAo?$AAo?$AAk?$AAW?$AA2?$AA?$AA@ 1317fc50     LIBCMTD:dbgrptw.obj
 0002:00014c78       ??_C@_1GA@FGIMNHGA@?$AAf?$AA?3?$AA?2?$AAs?$AAp?$AA?2?$AAv?$AAc?$AAt?$AAo?$AAo?$AAl?$AAs?$AA?2?$AAc?$AAr?$AAt?$AA_?$AAb?$AAl?$AAd?$AA?2?$AAs?$AAe?$AAl?$AAf?$AA_?$AAx?$AA8?$AA6?$AA?2?$AAc@ 1317fc78     LIBCMTD:dbgrptw.obj
 0002:00014cd8       ??_C@_1HI@OFEHGPPC@?$AAm?$AAo?$AAd?$AAe?$AA?5?$AA?$DN?$AA?$DN?$AA?5?$AA_?$AAC?$AAR?$AAT?$AA_?$AAR?$AAP?$AAT?$AAH?$AAO?$AAO?$AAK?$AA_?$AAI?$AAN?$AAS?$AAT?$AAA?$AAL?$AAL?$AA?5?$AA?$HM?$AA?$HM?$AA?5@ 1317fcd8     LIBCMTD:dbgrptw.obj
 0002:00014d50       ??_C@_0DP@GNPEPHJD@_CrtDbgReport?3?5String?5too?5long?5o@ 1317fd50     LIBCMTD:dbgrptw.obj
 0002:00014d90       ??_C@_1LI@CIHKNEBA@?$AAs?$AAt?$AAr?$AAc?$AAp?$AAy?$AA_?$AAs?$AA?$CI?$AAs?$AAz?$AAa?$AAF?$AAo?$AAr?$AAm?$AAa?$AAt?$AA?0?$AA?5?$AA4?$AA0?$AA9?$AA6?$AA?0?$AA?5?$AA?$CC?$AA_?$AAC?$AAr?$AAt?$AAD@ 1317fd90     LIBCMTD:dbgrptw.obj
 0002:00014e48       ??_C@_1GO@BIBJILHL@?$AAw?$AAc?$AAs?$AAt?$AAo?$AAm?$AAb?$AAs?$AA_?$AAs?$AA?$CI?$AA0?$AA?0?$AA?5?$AAs?$AAz?$AAa?$AAF?$AAo?$AAr?$AAm?$AAa?$AAt?$AA?0?$AA?5?$AA4?$AA0?$AA9?$AA6?$AA?0?$AA?5?$AAs@ 1317fe48     LIBCMTD:dbgrptw.obj
 0002:00014eb8       ??_C@_1IK@NOIOPCJD@?$AAs?$AAt?$AAr?$AAc?$AAp?$AAy?$AA_?$AAs?$AA?$CI?$AAs?$AAz?$AAa?$AAM?$AAo?$AAd?$AAu?$AAl?$AAe?$AA?0?$AA?5?$AA4?$AA0?$AA9?$AA6?$AA?0?$AA?5?$AA?$CC?$AAE?$AAx?$AAp?$AAr?$AAe@ 1317feb8     LIBCMTD:dbgrptw.obj
 0002:00014f48       ??_C@_1GO@EIJIKMJN@?$AAw?$AAc?$AAs?$AAt?$AAo?$AAm?$AAb?$AAs?$AA_?$AAs?$AA?$CI?$AA0?$AA?0?$AA?5?$AAs?$AAz?$AAa?$AAM?$AAo?$AAd?$AAu?$AAl?$AAe?$AA?0?$AA?5?$AA4?$AA0?$AA9?$AA6?$AA?0?$AA?5?$AAs@ 1317ff48     LIBCMTD:dbgrptw.obj
 0002:00014fb8       ??_C@_1IG@KNLLJKPP@?$AAs?$AAt?$AAr?$AAc?$AAp?$AAy?$AA_?$AAs?$AA?$CI?$AAs?$AAz?$AAa?$AAF?$AAi?$AAl?$AAe?$AA?0?$AA?5?$AA4?$AA0?$AA9?$AA6?$AA?0?$AA?5?$AA?$CC?$AAE?$AAx?$AAp?$AAr?$AAe?$AAs?$AAs@ 1317ffb8     LIBCMTD:dbgrptw.obj
 0002:00015040       ??_C@_1DO@CNMELOIB@?$AAs?$AAt?$AAr?$AAc?$AAa?$AAt?$AA_?$AAs?$AA?$CI?$AAs?$AAz?$AAa?$AAF?$AAi?$AAl?$AAe?$AA?0?$AA?5?$AA4?$AA0?$AA9?$AA6?$AA?0?$AA?5?$AA?$CC?$AA?4?$AA?4?$AA?4?$AA?$CC?$AA?$CJ?$AA?$AA@ 13180040     LIBCMTD:dbgrptw.obj
 0002:00015080       ??_C@_1GG@OHDJJHOI@?$AAw?$AAc?$AAs?$AAt?$AAo?$AAm?$AAb?$AAs?$AA_?$AAs?$AA?$CI?$AA0?$AA?0?$AA?5?$AAs?$AAz?$AAa?$AAF?$AAi?$AAl?$AAe?$AA?0?$AA?5?$AA4?$AA0?$AA9?$AA6?$AA?0?$AA?5?$AAs?$AAz?$AAF@ 13180080     LIBCMTD:dbgrptw.obj
 0002:000150e8       ??_C@_1DK@NLBDKACM@?$AA_?$AAg?$AAe?$AAt?$AA_?$AAo?$AAs?$AAp?$AAl?$AAa?$AAt?$AAf?$AAo?$AAr?$AAm?$AA?$CI?$AA?$CG?$AAo?$AAs?$AAp?$AAl?$AAa?$AAt?$AAf?$AAo?$AAr?$AAm?$AA?$CJ?$AA?$AA@ 131800e8     LIBCMTD:dbgrptw.obj
 0002:00015124       ??_C@_1CA@KLAOOAPJ@?$AA_?$AAC?$AAr?$AAt?$AAD?$AAb?$AAg?$AAR?$AAe?$AAp?$AAo?$AAr?$AAt?$AAW?$AAV?$AA?$AA@ 13180124     LIBCMTD:dbgrptw.obj
 0002:00015148       ??_C@_1EG@PEOEAKBB@?$AAM?$AAi?$AAc?$AAr?$AAo?$AAs?$AAo?$AAf?$AAt?$AA?5?$AAV?$AAi?$AAs?$AAu?$AAa?$AAl?$AA?5?$AAC?$AA?$CL?$AA?$CL?$AA?5?$AAD?$AAe?$AAb?$AAu?$AAg?$AA?5?$AAL?$AAi?$AAb?$AAr?$AAa@ 13180148     LIBCMTD:dbgrptw.obj
 0002:00015190       ??_C@_1FG@BBOLDHGF@?$AA_?$AAC?$AAr?$AAt?$AAD?$AAb?$AAg?$AAR?$AAe?$AAp?$AAo?$AAr?$AAt?$AA?3?$AA?5?$AAS?$AAt?$AAr?$AAi?$AAn?$AAg?$AA?5?$AAt?$AAo?$AAo?$AA?5?$AAl?$AAo?$AAn?$AAg?$AA?5?$AAo@ 13180190     LIBCMTD:dbgrptw.obj
 0002:000151e8       ??_C@_1JI@EACPGHID@?$AAw?$AAc?$AAs?$AAc?$AAp?$AAy?$AA_?$AAs?$AA?$CI?$AAs?$AAz?$AAO?$AAu?$AAt?$AAM?$AAe?$AAs?$AAs?$AAa?$AAg?$AAe?$AA?0?$AA?5?$AA4?$AA0?$AA9?$AA6?$AA?0?$AA?5?$AAL?$AA?$CC?$AA_@ 131801e8     LIBCMTD:dbgrptw.obj
 0002:00015280       ??_C@_1KK@MEFMPOLM@?$AAD?$AAe?$AAb?$AAu?$AAg?$AA?5?$AA?$CF?$AAs?$AA?$CB?$AA?6?$AA?6?$AAP?$AAr?$AAo?$AAg?$AAr?$AAa?$AAm?$AA?3?$AA?5?$AA?$CF?$AAs?$AA?$CF?$AAs?$AA?$CF?$AAs?$AA?$CF?$AAs?$AA?$CF?$AAs?$AA?$CF?$AAs@ 13180280     LIBCMTD:dbgrptw.obj
 0002:0001532c       ??_C@_1BE@CGCJKGHI@?$AA?6?$AAM?$AAo?$AAd?$AAu?$AAl?$AAe?$AA?3?$AA?5?$AA?$AA@ 1318032c     LIBCMTD:dbgrptw.obj
 0002:00015340       ??_C@_1BA@LNHECFIM@?$AA?6?$AAF?$AAi?$AAl?$AAe?$AA?3?$AA?5?$AA?$AA@ 13180340     LIBCMTD:dbgrptw.obj
 0002:00015350       ??_C@_1BA@GLLGCPCK@?$AA?6?$AAL?$AAi?$AAn?$AAe?$AA?3?$AA?5?$AA?$AA@ 13180350     LIBCMTD:dbgrptw.obj
 0002:00015360       ??_C@_11LOCGONAA@?$AA?$AA@ 13180360     LIBCMTD:dbgrptw.obj
 0002:00015368       ??_C@_1OG@PMPPFHAF@?$AA?6?$AA?6?$AAF?$AAo?$AAr?$AA?5?$AAi?$AAn?$AAf?$AAo?$AAr?$AAm?$AAa?$AAt?$AAi?$AAo?$AAn?$AA?5?$AAo?$AAn?$AA?5?$AAh?$AAo?$AAw?$AA?5?$AAy?$AAo?$AAu?$AAr?$AA?5?$AAp?$AAr@ 13180368     LIBCMTD:dbgrptw.obj
 0002:00015450       ??_C@_1JM@GKDPCMEA@?$AAw?$AAc?$AAs?$AAn?$AAc?$AAp?$AAy?$AA_?$AAs?$AA?$CI?$AAs?$AAz?$AAS?$AAh?$AAo?$AAr?$AAt?$AAP?$AAr?$AAo?$AAg?$AAN?$AAa?$AAm?$AAe?$AA?0?$AA?5?$AA2?$AA6?$AA0?$AA?5?$AA?9@ 13180450     LIBCMTD:dbgrptw.obj
 0002:000154f0       ??_C@_1GI@DEDNNLCI@?$AAw?$AAc?$AAs?$AAc?$AAp?$AAy?$AA_?$AAs?$AA?$CI?$AAs?$AAz?$AAE?$AAx?$AAe?$AAN?$AAa?$AAm?$AAe?$AA?0?$AA?5?$AA2?$AA6?$AA0?$AA?0?$AA?5?$AAL?$AA?$CC?$AA?$DM?$AAp?$AAr?$AAo?$AAg@ 131804f0     LIBCMTD:dbgrptw.obj
 0002:00015558       ??_C@_1CI@PGJIFDEK@?$AA_?$AA_?$AAc?$AAr?$AAt?$AAM?$AAe?$AAs?$AAs?$AAa?$AAg?$AAe?$AAW?$AAi?$AAn?$AAd?$AAo?$AAw?$AAW?$AA?$AA@ 13180558     LIBCMTD:dbgrptw.obj
 0002:00015580       ??_C@_1BE@NMKKBGPA@?$AAm?$AAe?$AAm?$AAm?$AAo?$AAv?$AAe?$AA_?$AAs?$AA?$AA@ 13180580     LIBCMTD:memmove_s.obj
 0002:00015594       ??_C@_1BI@FBHFDPFC@?$AAm?$AAe?$AAm?$AAm?$AAo?$AAv?$AAe?$AA_?$AAs?$AA?4?$AAc?$AA?$AA@ 13180594     LIBCMTD:memmove_s.obj
 0002:000155ac       ??_C@_1BC@KMGJCMNP@?$AAv?$AAs?$AAc?$AAa?$AAn?$AA_?$AAf?$AAn?$AA?$AA@ 131805ac     LIBCMTD:snscanf.obj
 0002:000155c0       ??_C@_1GA@LEJNBJAJ@?$AAf?$AA?3?$AA?2?$AAs?$AAp?$AA?2?$AAv?$AAc?$AAt?$AAo?$AAo?$AAl?$AAs?$AA?2?$AAc?$AAr?$AAt?$AA_?$AAb?$AAl?$AAd?$AA?2?$AAs?$AAe?$AAl?$AAf?$AA_?$AAx?$AA8?$AA6?$AA?2?$AAc@ 131805c0     LIBCMTD:snscanf.obj
 0002:00015620       ??_C@_1EC@FABAOFFO@?$AA?$CI?$AAc?$AAo?$AAu?$AAn?$AAt?$AA?5?$AA?$DN?$AA?$DN?$AA?5?$AA0?$AA?$CJ?$AA?5?$AA?$HM?$AA?$HM?$AA?5?$AA?$CI?$AAs?$AAt?$AAr?$AAi?$AAn?$AAg?$AA?5?$AA?$CB?$AA?$DN?$AA?5?$AAN?$AAU?$AAL?$AAL?$AA?$CJ@ 13180620     LIBCMTD:vsnprnc.obj
 0002:00015664       ??_C@_1CE@PCFPEIFI@?$AA_?$AAv?$AAs?$AAn?$AAp?$AAr?$AAi?$AAn?$AAt?$AAf?$AA_?$AAh?$AAe?$AAl?$AAp?$AAe?$AAr?$AA?$AA@ 13180664     LIBCMTD:vsnprnc.obj
 0002:00015688       ??_C@_1GE@LHHNFABB@?$AAf?$AA?3?$AA?2?$AAs?$AAp?$AA?2?$AAv?$AAc?$AAt?$AAo?$AAo?$AAl?$AAs?$AA?2?$AAc?$AAr?$AAt?$AA_?$AAb?$AAl?$AAd?$AA?2?$AAs?$AAe?$AAl?$AAf?$AA_?$AAx?$AA8?$AA6?$AA?2?$AAc@ 13180688     LIBCMTD:vsnprnc.obj
 0002:000156ec       ??_C@_1DA@HPBFKMEB@?$AA?$CI?$AA?$CC?$AAB?$AAu?$AAf?$AAf?$AAe?$AAr?$AA?5?$AAt?$AAo?$AAo?$AA?5?$AAs?$AAm?$AAa?$AAl?$AAl?$AA?$CC?$AA?0?$AA?5?$AA0?$AA?$CJ?$AA?$AA@ 131806ec     LIBCMTD:vsnprnc.obj
 0002:00015720       ??_C@_1EE@OKCKIGFK@?$AAs?$AAt?$AAr?$AAi?$AAn?$AAg?$AA?5?$AA?$CB?$AA?$DN?$AA?5?$AAN?$AAU?$AAL?$AAL?$AA?5?$AA?$CG?$AA?$CG?$AA?5?$AAs?$AAi?$AAz?$AAe?$AAI?$AAn?$AAB?$AAy?$AAt?$AAe?$AAs?$AA?5?$AA?$DO?$AA?5@ 13180720     LIBCMTD:vsnprnc.obj
 0002:00015764       ??_C@_1BM@BLJALHEF@?$AA_?$AAv?$AAs?$AAp?$AAr?$AAi?$AAn?$AAt?$AAf?$AA_?$AAs?$AA_?$AAl?$AA?$AA@ 13180764     LIBCMTD:vsnprnc.obj
 0002:00015780       ??_C@_1BO@MLMCMBKN@?$AAf?$AAo?$AAr?$AAm?$AAa?$AAt?$AA?5?$AA?$CB?$AA?$DN?$AA?5?$AAN?$AAU?$AAL?$AAL?$AA?$AA@ 13180780     LIBCMTD:vsnprnc.obj
 0002:000157a0       ??_C@_1BO@MMPELNIM@?$AA_?$AAv?$AAs?$AAn?$AAp?$AAr?$AAi?$AAn?$AAt?$AAf?$AA_?$AAs?$AA_?$AAl?$AA?$AA@ 131807a0     LIBCMTD:vsnprnc.obj
 0002:000157c0       ??_C@_08GNMOIKDK@onexit?4c?$AA@ 131807c0     LIBCMTD:onexit.obj
 0002:000157d0       ??_C@_1BAE@CBLKKPB@?$AA?$CI?$AA?5?$AA?$CI?$AA_?$AAS?$AAt?$AAr?$AAe?$AAa?$AAm?$AA?9?$AA?$DO?$AA_?$AAf?$AAl?$AAa?$AAg?$AA?5?$AA?$CG?$AA?5?$AA_?$AAI?$AAO?$AAS?$AAT?$AAR?$AAG?$AA?$CJ?$AA?5?$AA?$HM?$AA?$HM?$AA?5@ 131807d0     LIBCMTD:fputs.obj
 0002:000158d4       ??_C@_1CC@FADMNIL@?$AA?$CI?$AAs?$AAt?$AAr?$AAe?$AAa?$AAm?$AA?5?$AA?$CB?$AA?$DN?$AA?5?$AAN?$AAU?$AAL?$AAL?$AA?$CJ?$AA?$AA@ 131808d4     LIBCMTD:fputs.obj
 0002:000158f8       ??_C@_1M@LIIFKKLB@?$AAf?$AAp?$AAu?$AAt?$AAs?$AA?$AA@ 131808f8     LIBCMTD:fputs.obj
 0002:00015904       ??_C@_1BA@OGFKJKFC@?$AAf?$AAp?$AAu?$AAt?$AAs?$AA?4?$AAc?$AA?$AA@ 13180904     LIBCMTD:fputs.obj
 0002:00015914       ??_C@_07PNHPCIEC@_file?4c?$AA@ 13180914     LIBCMTD:_file.obj
 0002:00015940       ??_7type_info@@6B@         13180940     LIBCMTD:typinfo.obj
 0002:00015948       ??_7exception@std@@6B@     13180948     LIBCMTD:stdexcpt.obj
 0002:00015950       ??_C@_0BC@EOODALEL@Unknown?5exception?$AA@ 13180950     LIBCMTD:stdexcpt.obj
 0002:00015968       ??_7bad_cast@std@@6B@      13180968     LIBCMTD:stdexcpt.obj
 0002:00015974       ??_7bad_typeid@std@@6B@    13180974     LIBCMTD:stdexcpt.obj
 0002:00015980       ??_7__non_rtti_object@std@@6B@ 13180980     LIBCMTD:stdexcpt.obj
 0002:00015988       ??_C@_0BO@GNIAFIKK@Unknown?5Runtime?5Check?5Error?6?$AN?$AA@ 13180988     LIBCMTD:error.obj
 0002:000159a8       ??_C@_0CM@NGINOKPC@Stack?5memory?5around?5_alloca?5was?5@ 131809a8     LIBCMTD:error.obj
 0002:000159d4       ??_C@_0DG@HKJMLLLP@A?5local?5variable?5was?5used?5before@ 131809d4     LIBCMTD:error.obj
 0002:00015a0c       ??_C@_0BN@FFOINMNJ@Stack?5memory?5was?5corrupted?6?$AN?$AA@ 13180a0c     LIBCMTD:error.obj
 0002:00015a30       ??_C@_0BBN@GPMLNJCF@A?5cast?5to?5a?5smaller?5data?5type?5ha@ 13180a30     LIBCMTD:error.obj
 0002:00015b50       ??_C@_0NN@NGPKDKPD@The?5value?5of?5ESP?5was?5not?5properl@ 13180b50     LIBCMTD:error.obj
 0002:00015cb4       ??_C@_0CA@IODNCDPG@Run?9Time?5Check?5Failure?5?$CD?$CFd?5?9?5?$CFs?$AA@ 13180cb4     LIBCMTD:error.obj
 0002:00015cd4       ??_C@_0BE@GNBOBNCK@Unknown?5Module?5Name?$AA@ 13180cd4     LIBCMTD:error.obj
 0002:00015ce8       ??_C@_0BB@PFFGGCJP@Unknown?5Filename?$AA@ 13180ce8     LIBCMTD:error.obj
 0002:00015d00       ??_C@_1EA@NFKNIFJP@?$AAR?$AAu?$AAn?$AA?9?$AAT?$AAi?$AAm?$AAe?$AA?5?$AAC?$AAh?$AAe?$AAc?$AAk?$AA?5?$AAF?$AAa?$AAi?$AAl?$AAu?$AAr?$AAe?$AA?5?$AA?$CD?$AA?$CF?$AAd?$AA?5?$AA?9?$AA?5?$AA?$CF?$AAs?$AA?$AA@ 13180d00     LIBCMTD:error.obj
 0002:00015d40       ??_C@_1GM@OLMCBDMB@?$AAR?$AAu?$AAn?$AAt?$AAi?$AAm?$AAe?$AA?5?$AAC?$AAh?$AAe?$AAc?$AAk?$AA?5?$AAE?$AAr?$AAr?$AAo?$AAr?$AA?4?$AA?6?$AA?$AN?$AA?5?$AAU?$AAn?$AAa?$AAb?$AAl?$AAe?$AA?5?$AAt?$AAo@ 13180d40     LIBCMTD:error.obj
 0002:00015dac       ??_C@_0CG@IAFNJNEE@Stack?5corrupted?5near?5unknown?5var@ 13180dac     LIBCMTD:error.obj
 0002:00015dd8       ??_C@_0EJ@LJKNEOLN@Stack?5area?5around?5_alloca?5memory@ 13180dd8     LIBCMTD:error.obj
 0002:00015e24       ??_C@_08KJEDNCKC@?$CFs?$CFs?$CFs?$CFs?$AA@ 13180e24     LIBCMTD:error.obj
 0002:00015e30       ??_C@_02LLMPMKNF@?$DO?5?$AA@ 13180e30     LIBCMTD:error.obj
 0002:00015e34       ??_C@_0BC@KIBAILCI@?$CFs?$CFs?$CFp?$CFs?$CFld?$CFs?$CFd?$CFs?$AA@ 13180e34     LIBCMTD:error.obj
 0002:00015e48       ??_C@_0EI@CLEPFNGI@Stack?5area?5around?5_alloca?5memory@ 13180e48     LIBCMTD:error.obj
 0002:00015e90       ??_C@_0N@MHFFIMFG@?6Address?3?50x?$AA@ 13180e90     LIBCMTD:error.obj
 0002:00015ea0       ??_C@_07DFDJCKFN@?6Size?3?5?$AA@ 13180ea0     LIBCMTD:error.obj
 0002:00015ea8       ??_C@_0CK@DKGBICFE@?6Allocation?5number?5within?5this?5f@ 13180ea8     LIBCMTD:error.obj
 0002:00015ed4       ??_C@_08OMAHNMHJ@?6Data?3?5?$DM?$AA@ 13180ed4     LIBCMTD:error.obj
 0002:00015ee0       ??_C@_09FOPFMPEJ@wsprintfA?$AA@ 13180ee0     LIBCMTD:error.obj
 0002:00015eec       ??_C@_0L@GMPLCCII@user32?4dll?$AA@ 13180eec     LIBCMTD:error.obj
 0002:00015ef8       ??_C@_0DE@OHJBPMBP@A?5variable?5is?5being?5used?5without@ 13180ef8     LIBCMTD:error.obj
 0002:00015f2c       ??_C@_0BP@OGBCLIBO@Stack?5around?5_alloca?5corrupted?$AA@ 13180f2c     LIBCMTD:userapi.obj
 0002:00015f4c       ??_C@_0CK@CNLNOEPB@Local?5variable?5used?5before?5initi@ 13180f4c     LIBCMTD:userapi.obj
 0002:00015f78       ??_C@_0BI@CIGMDCBH@Stack?5memory?5corruption?$AA@ 13180f78     LIBCMTD:userapi.obj
 0002:00015f90       ??_C@_0CK@FEGOIOPB@Cast?5to?5smaller?5type?5causing?5los@ 13180f90     LIBCMTD:userapi.obj
 0002:00015fbc       ??_C@_0BJ@HEGAHDFO@Stack?5pointer?5corruption?$AA@ 13180fbc     LIBCMTD:userapi.obj
 0002:00015fec       ??_C@_0O@NJIIDJEH@i386?2chkesp?4c?$AA@ 13180fec     LIBCMTD:chkesp.obj
 0002:00015ffa       ??_C@_00CNPNBAHC@?$AA@     13180ffa     LIBCMTD:chkesp.obj
 0002:00016000       ??_C@_0NM@DNEDKLDF@The?5value?5of?5ESP?5was?5not?5properl@ 13181000     LIBCMTD:chkesp.obj
 0002:000160dc       ??_C@_07CKDBCAPD@mlock?4c?$AA@ 131810dc     LIBCMTD:mlock.obj
 0002:000160e4       ??_C@_0P@MIGLKIOC@CorExitProcess?$AA@ 131810e4     LIBCMTD:crt0dat.obj
 0002:000160f4       ??_C@_0M@MBOPBNBK@mscoree?4dll?$AA@ 131810f4     LIBCMTD:crt0dat.obj
 0002:00016100       ??_C@_1BO@PCPNBEJP@?$AA_?$AAo?$AAs?$AAp?$AAl?$AAa?$AAt?$AAf?$AAo?$AAr?$AAm?$AA?$CB?$AA?$DN?$AA0?$AA?$AA@ 13181100     LIBCMTD:crt0dat.obj
 0002:00016120       ??_C@_1CA@HBJLODAG@?$AA_?$AAg?$AAe?$AAt?$AA_?$AAo?$AAs?$AAp?$AAl?$AAa?$AAt?$AAf?$AAo?$AAr?$AAm?$AA?$AA@ 13181120     LIBCMTD:crt0dat.obj
 0002:00016140       ??_C@_1BE@DFOEAGLM@?$AAc?$AAr?$AAt?$AA0?$AAd?$AAa?$AAt?$AA?4?$AAc?$AA?$AA@ 13181140     LIBCMTD:crt0dat.obj
 0002:00016154       ??_C@_1BO@LKEBEKJP@?$AAp?$AAV?$AAa?$AAl?$AAu?$AAe?$AA?5?$AA?$CB?$AA?$DN?$AA?5?$AAN?$AAU?$AAL?$AAL?$AA?$AA@ 13181154     LIBCMTD:crt0dat.obj
 0002:00016174       ??_C@_1BG@OLMEODBO@?$AA_?$AAg?$AAe?$AAt?$AA_?$AAo?$AAs?$AAv?$AAe?$AAr?$AA?$AA@ 13181174     LIBCMTD:crt0dat.obj
 0002:0001618c       ??_C@_1BI@EHCOONPO@?$AA_?$AAg?$AAe?$AAt?$AA_?$AAw?$AAi?$AAn?$AAv?$AAe?$AAr?$AA?$AA@ 1318118c     LIBCMTD:crt0dat.obj
 0002:000161a4       ??_C@_1BM@MHJHOJPG@?$AA_?$AAg?$AAe?$AAt?$AA_?$AAw?$AAi?$AAn?$AAm?$AAa?$AAj?$AAo?$AAr?$AA?$AA@ 131811a4     LIBCMTD:crt0dat.obj
 0002:000161c0       ??_C@_1BM@FAAKKHPI@?$AA_?$AAg?$AAe?$AAt?$AA_?$AAw?$AAi?$AAn?$AAm?$AAi?$AAn?$AAo?$AAr?$AA?$AA@ 131811c0     LIBCMTD:crt0dat.obj
 0002:000161dc       ??_C@_1CC@CDIPMFPD@?$AA_?$AAw?$AAp?$AAg?$AAm?$AAp?$AAt?$AAr?$AA?5?$AA?$CB?$AA?$DN?$AA?5?$AAN?$AAU?$AAL?$AAL?$AA?$AA@ 131811dc     LIBCMTD:crt0dat.obj
 0002:00016200       ??_C@_1BK@PNLDCCDP@?$AA_?$AAg?$AAe?$AAt?$AA_?$AAw?$AAp?$AAg?$AAm?$AAp?$AAt?$AAr?$AA?$AA@ 13181200     LIBCMTD:crt0dat.obj
 0002:0001621c       ??_C@_1CA@BBNAFCKO@?$AA_?$AAp?$AAg?$AAm?$AAp?$AAt?$AAr?$AA?5?$AA?$CB?$AA?$DN?$AA?5?$AAN?$AAU?$AAL?$AAL?$AA?$AA@ 1318121c     LIBCMTD:crt0dat.obj
 0002:0001623c       ??_C@_1BI@COAAPHJK@?$AA_?$AAg?$AAe?$AAt?$AA_?$AAp?$AAg?$AAm?$AAp?$AAt?$AAr?$AA?$AA@ 1318123c     LIBCMTD:crt0dat.obj
 0002:00016254       ??_C@_1O@EJLDHPPL@?$AAs?$AAi?$AAg?$AAn?$AAa?$AAl?$AA?$AA@ 13181254     LIBCMTD:winsig.obj
 0002:00016264       ??_C@_1BC@KDODBONJ@?$AAw?$AAi?$AAn?$AAs?$AAi?$AAg?$AA?4?$AAc?$AA?$AA@ 13181264     LIBCMTD:winsig.obj
 0002:00016278       ??_C@_1DO@MLNEDKGB@?$AA?$CI?$AA?$CC?$AAI?$AAn?$AAv?$AAa?$AAl?$AAi?$AAd?$AA?5?$AAs?$AAi?$AAg?$AAn?$AAa?$AAl?$AA?5?$AAo?$AAr?$AA?5?$AAe?$AAr?$AAr?$AAo?$AAr?$AA?$CC?$AA?0?$AA?5?$AA0?$AA?$CJ?$AA?$AA@ 13181278     LIBCMTD:winsig.obj
 0002:000162b8       ??_C@_08FKHPDPAC@winsig?4c?$AA@ 131812b8     LIBCMTD:winsig.obj
 0002:000162c4       ??_C@_1M@DMJEIKHL@?$AAr?$AAa?$AAi?$AAs?$AAe?$AA?$AA@ 131812c4     LIBCMTD:winsig.obj
 0002:000162d0       ??_C@_1DC@OIOKIELJ@?$AA_?$AAg?$AAe?$AAt?$AA_?$AAw?$AAi?$AAn?$AAm?$AAa?$AAj?$AAo?$AAr?$AA?$CI?$AA?$CG?$AAw?$AAi?$AAn?$AAm?$AAa?$AAj?$AAo?$AAr?$AA?$CJ?$AA?$AA@ 131812d0     LIBCMTD:crtmboxw.obj
 0002:00016304       ??_C@_0BI@DFKBFLJE@GetProcessWindowStation?$AA@ 13181304     LIBCMTD:crtmboxw.obj
 0002:0001631c       ??_C@_0BK@DEKFELLI@GetUserObjectInformationW?$AA@ 1318131c     LIBCMTD:crtmboxw.obj
 0002:00016338       ??_C@_1CC@LBPMICNL@?$AA_?$AA_?$AAc?$AAr?$AAt?$AAM?$AAe?$AAs?$AAs?$AAa?$AAg?$AAe?$AAB?$AAo?$AAx?$AAW?$AA?$AA@ 13181338     LIBCMTD:crtmboxw.obj
 0002:00016360       ??_C@_1GC@HLBFDAED@?$AAf?$AA?3?$AA?2?$AAs?$AAp?$AA?2?$AAv?$AAc?$AAt?$AAo?$AAo?$AAl?$AAs?$AA?2?$AAc?$AAr?$AAt?$AA_?$AAb?$AAl?$AAd?$AA?2?$AAs?$AAe?$AAl?$AAf?$AA_?$AAx?$AA8?$AA6?$AA?2?$AAc@ 13181360     LIBCMTD:crtmboxw.obj
 0002:000163c4       ??_C@_0BD@HHGDFDBJ@GetLastActivePopup?$AA@ 131813c4     LIBCMTD:crtmboxw.obj
 0002:000163d8       ??_C@_0BA@HNOPNCHB@GetActiveWindow?$AA@ 131813d8     LIBCMTD:crtmboxw.obj
 0002:000163e8       ??_C@_0M@DLDCCGNP@MessageBoxW?$AA@ 131813e8     LIBCMTD:crtmboxw.obj
 0002:000163f4       ??_C@_1BG@GOEBHBDC@?$AAU?$AAS?$AAE?$AAR?$AA3?$AA2?$AA?4?$AAD?$AAL?$AAL?$AA?$AA@ 131813f4     LIBCMTD:crtmboxw.obj
 0002:0001640c       ??_C@_1O@NCBFODOE@?$AAx?$AAt?$AAo?$AAw?$AA_?$AAs?$AA?$AA@ 1318140c     LIBCMTD:xtows.obj
 0002:0001641c       ??_C@_1BC@HDEJCFPB@?$AAx?$AA6?$AA4?$AAt?$AAo?$AAw?$AA_?$AAs?$AA?$AA@ 1318141c     LIBCMTD:xtows.obj
 0002:00016430       ??_C@_1FA@MJKDNFFB@?$AA?$CI?$AAL?$AA?$CC?$AAS?$AAt?$AAr?$AAi?$AAn?$AAg?$AA?5?$AAi?$AAs?$AA?5?$AAn?$AAo?$AAt?$AA?5?$AAn?$AAu?$AAl?$AAl?$AA?5?$AAt?$AAe?$AAr?$AAm?$AAi?$AAn?$AAa?$AAt?$AAe?$AAd@ 13181430     LIBCMTD:wcsncat_s.obj
 0002:00016480       ??_C@_1DM@FHLMIEG@?$AAS?$AAt?$AAr?$AAi?$AAn?$AAg?$AA?5?$AAi?$AAs?$AA?5?$AAn?$AAo?$AAt?$AA?5?$AAn?$AAu?$AAl?$AAl?$AA?5?$AAt?$AAe?$AAr?$AAm?$AAi?$AAn?$AAa?$AAt?$AAe?$AAd?$AA?$AA@ 13181480     LIBCMTD:wcsncat_s.obj
 0002:000164bc       ??_C@_1BE@KPKIKKCF@?$AAw?$AAc?$AAs?$AAn?$AAc?$AAa?$AAt?$AA_?$AAs?$AA?$AA@ 131814bc     LIBCMTD:wcsncat_s.obj
 0002:000164d0       ??_C@_1GK@ECHLEFPM@?$AAF?$AA?3?$AA?2?$AAS?$AAP?$AA?2?$AAv?$AAc?$AAt?$AAo?$AAo?$AAl?$AAs?$AA?2?$AAc?$AAr?$AAt?$AA_?$AAb?$AAl?$AAd?$AA?2?$AAS?$AAE?$AAL?$AAF?$AA_?$AAX?$AA8?$AA6?$AA?2?$AAc@ 131814d0     LIBCMTD:wcsncat_s.obj
 0002:00016540       ??_C@_1FC@PFMLEHKI@?$AA?$CI?$AA?$CI?$AA_?$AAD?$AAs?$AAt?$AA?$CJ?$AA?$CJ?$AA?5?$AA?$CB?$AA?$DN?$AA?5?$AAN?$AAU?$AAL?$AAL?$AA?5?$AA?$CG?$AA?$CG?$AA?5?$AA?$CI?$AA?$CI?$AA_?$AAS?$AAi?$AAz?$AAe?$AAI?$AAn?$AAW?$AAo?$AAr@ 13181540     LIBCMTD:wcsncat_s.obj
 0002:00016594       ??_C@_1BE@PMMBFFCC@?$AAw?$AAc?$AAs?$AAn?$AAc?$AAp?$AAy?$AA_?$AAs?$AA?$AA@ 13181594     LIBCMTD:wcsncpy_s.obj
 0002:000165a8       ??_C@_1GK@IKMAONFM@?$AAF?$AA?3?$AA?2?$AAS?$AAP?$AA?2?$AAv?$AAc?$AAt?$AAo?$AAo?$AAl?$AAs?$AA?2?$AAc?$AAr?$AAt?$AA_?$AAb?$AAl?$AAd?$AA?2?$AAS?$AAE?$AAL?$AAF?$AA_?$AAX?$AA8?$AA6?$AA?2?$AAc@ 131815a8     LIBCMTD:wcsncpy_s.obj
 0002:00016614       ??_C@_1BC@PLIEPKPJ@?$AAw?$AAc?$AAs?$AAc?$AAa?$AAt?$AA_?$AAs?$AA?$AA@ 13181614     LIBCMTD:wcscat_s.obj
 0002:00016628       ??_C@_1GI@HANKOOAN@?$AAF?$AA?3?$AA?2?$AAS?$AAP?$AA?2?$AAv?$AAc?$AAt?$AAo?$AAo?$AAl?$AAs?$AA?2?$AAc?$AAr?$AAt?$AA_?$AAb?$AAl?$AAd?$AA?2?$AAS?$AAE?$AAL?$AAF?$AA_?$AAX?$AA8?$AA6?$AA?2?$AAc@ 13181628     LIBCMTD:wcscat_s.obj
 0002:00016690       ??_C@_1BC@KIONAFPO@?$AAw?$AAc?$AAs?$AAc?$AAp?$AAy?$AA_?$AAs?$AA?$AA@ 13181690     LIBCMTD:wcscpy_s.obj
 0002:000166a4       ??_C@_1BC@BHLPNJBO@?$AAf?$AAw?$AAp?$AAr?$AAi?$AAn?$AAt?$AAf?$AA?$AA@ 131816a4     LIBCMTD:fwprintf.obj
 0002:000166b8       ??_C@_1BG@MGCFCFAI@?$AAf?$AAw?$AAp?$AAr?$AAi?$AAn?$AAt?$AAf?$AA?4?$AAc?$AA?$AA@ 131816b8     LIBCMTD:fwprintf.obj
 0002:000166d0       ??_C@_1BM@JMKHIAHP@?$AA?$CI?$AAs?$AAt?$AAr?$AA?5?$AA?$CB?$AA?$DN?$AA?5?$AAN?$AAU?$AAL?$AAL?$AA?$CJ?$AA?$AA@ 131816d0     LIBCMTD:fwprintf.obj
 0002:000166ec       ??_C@_09KGBNCNDN@setvbuf?4c?$AA@ 131816ec     LIBCMTD:setvbuf.obj
 0002:000166f8       ??_C@_1EG@IJNJIDNB@?$AA?$CI?$AA?$CI?$AA2?$AA?5?$AA?$DM?$AA?$DN?$AA?5?$AAs?$AAi?$AAz?$AAe?$AA?$CJ?$AA?5?$AA?$CG?$AA?$CG?$AA?5?$AA?$CI?$AAs?$AAi?$AAz?$AAe?$AA?5?$AA?$DM?$AA?$DN?$AA?5?$AAI?$AAN?$AAT?$AA_?$AAM?$AAA?$AAX@ 131816f8     LIBCMTD:setvbuf.obj
 0002:00016740       ??_C@_1HC@CBFEDAGG@?$AA?$CI?$AAt?$AAy?$AAp?$AAe?$AA?5?$AA?$DN?$AA?$DN?$AA?5?$AA_?$AAI?$AAO?$AAN?$AAB?$AAF?$AA?$CJ?$AA?5?$AA?$HM?$AA?$HM?$AA?5?$AA?$CI?$AAt?$AAy?$AAp?$AAe?$AA?5?$AA?$DN?$AA?$DN?$AA?5?$AA_?$AAI?$AAO@ 13181740     LIBCMTD:setvbuf.obj
 0002:000167b4       ??_C@_1BA@OGODIODK@?$AAs?$AAe?$AAt?$AAv?$AAb?$AAu?$AAf?$AA?$AA@ 131817b4     LIBCMTD:setvbuf.obj
 0002:000167c4       ??_C@_1BE@FMDCPFIG@?$AAs?$AAe?$AAt?$AAv?$AAb?$AAu?$AAf?$AA?4?$AAc?$AA?$AA@ 131817c4     LIBCMTD:setvbuf.obj
 0002:000167d8       ??_C@_1CA@LFDHAMEM@?$AA_?$AAs?$AAe?$AAt?$AA_?$AAe?$AAr?$AAr?$AAo?$AAr?$AA_?$AAm?$AAo?$AAd?$AAe?$AA?$AA@ 131817d8     LIBCMTD:errmode.obj
 0002:000167f8       ??_C@_1BE@FFANBHLE@?$AAe?$AAr?$AAr?$AAm?$AAo?$AAd?$AAe?$AA?4?$AAc?$AA?$AA@ 131817f8     LIBCMTD:errmode.obj
 0002:0001680c       ??_C@_1DE@BCNCAIK@?$AA?$CI?$AA?$CC?$AAI?$AAn?$AAv?$AAa?$AAl?$AAi?$AAd?$AA?5?$AAe?$AAr?$AAr?$AAo?$AAr?$AA_?$AAm?$AAo?$AAd?$AAe?$AA?$CC?$AA?0?$AA?5?$AA0?$AA?$CJ?$AA?$AA@ 1318180c     LIBCMTD:errmode.obj
 0002:00016840       ??_C@_02PHMGELLB@?6?6?$AA@ 13181840     LIBCMTD:assert.obj
 0002:00016844       ??_C@_0CF@GOGNBNAK@Microsoft?5Visual?5C?$CL?$CL?5Runtime?5Lib@ 13181844     LIBCMTD:assert.obj
 0002:0001686c       ??_C@_0DN@EBBNMLME@?$CIPress?5Retry?5to?5debug?5the?5applic@ 1318186c     LIBCMTD:assert.obj
 0002:000168b0       ??_C@_1LM@PPELICOO@?$AAs?$AAt?$AAr?$AAc?$AAa?$AAt?$AA_?$AAs?$AA?$CI?$AAa?$AAs?$AAs?$AAe?$AAr?$AAt?$AAb?$AAu?$AAf?$AA?0?$AA?5?$AA?$CI?$AA6?$AA0?$AA?5?$AA?$CK?$AA?5?$AA9?$AA?$CJ?$AA?0?$AA?5?$AA?$CC?$AA?$CI@ 131818b0     LIBCMTD:assert.obj
 0002:00016970       ??_C@_1FG@FPMGDMJC@?$AAs?$AAt?$AAr?$AAc?$AAa?$AAt?$AA_?$AAs?$AA?$CI?$AAa?$AAs?$AAs?$AAe?$AAr?$AAt?$AAb?$AAu?$AAf?$AA?0?$AA?5?$AA?$CI?$AA6?$AA0?$AA?5?$AA?$CK?$AA?5?$AA9?$AA?$CJ?$AA?0?$AA?5?$AAd?$AAb@ 13181970     LIBCMTD:assert.obj
 0002:000169c8       ??_C@_0HA@OJHAGA@For?5information?5on?5how?5your?5prog@ 131819c8     LIBCMTD:assert.obj
 0002:00016a38       ??_C@_1BCK@FOGOPFPO@?$AAs?$AAt?$AAr?$AAc?$AAa?$AAt?$AA_?$AAs?$AA?$CI?$AAa?$AAs?$AAs?$AAe?$AAr?$AAt?$AAb?$AAu?$AAf?$AA?0?$AA?5?$AA?$CI?$AA6?$AA0?$AA?5?$AA?$CK?$AA?5?$AA9?$AA?$CJ?$AA?0?$AA?5?$AA?$CC?$AAF@ 13181a38     LIBCMTD:assert.obj
 0002:00016b68       ??_C@_1EM@ENNCDANH@?$AAs?$AAt?$AAr?$AAc?$AAa?$AAt?$AA_?$AAs?$AA?$CI?$AA?5?$AAa?$AAs?$AAs?$AAe?$AAr?$AAt?$AAb?$AAu?$AAf?$AA?0?$AA?5?$AA?$CI?$AA6?$AA0?$AA?5?$AA?$CK?$AA?5?$AA9?$AA?$CJ?$AA?0?$AA?5?$AAe@ 13181b68     LIBCMTD:assert.obj
 0002:00016bb8       ??_C@_1CHK@HNOMNMBD@?$AA_?$AAm?$AAb?$AAs?$AAn?$AAb?$AAc?$AAa?$AAt?$AA_?$AAs?$AA?$CI?$AA?5?$AAa?$AAs?$AAs?$AAe?$AAr?$AAt?$AAb?$AAu?$AAf?$AA?0?$AA?5?$AA?$CI?$AA6?$AA0?$AA?5?$AA?$CK?$AA?5?$AA9?$AA?$CJ@ 13181bb8     LIBCMTD:assert.obj
 0002:00016e34       ??_C@_0N@MEECIJGN@Expression?3?5?$AA@ 13181e34     LIBCMTD:assert.obj
 0002:00016e48       ??_C@_1GA@GHECLIPG@?$AAs?$AAt?$AAr?$AAc?$AAa?$AAt?$AA_?$AAs?$AA?$CI?$AA?5?$AAa?$AAs?$AAs?$AAe?$AAr?$AAt?$AAb?$AAu?$AAf?$AA?0?$AA?5?$AA?$CI?$AA6?$AA0?$AA?5?$AA?$CK?$AA?5?$AA9?$AA?$CJ?$AA?0?$AA?5?$AA?$CC@ 13181e48     LIBCMTD:assert.obj
 0002:00016ea8       ??_C@_1KG@MJEHKFDP@?$AA_?$AAi?$AAt?$AAo?$AAa?$AA_?$AAs?$AA?$CI?$AA?5?$AAl?$AAi?$AAn?$AAe?$AAn?$AAo?$AA?0?$AA?5?$AAa?$AAs?$AAs?$AAe?$AAr?$AAt?$AAb?$AAu?$AAf?$AA?5?$AA?$CL?$AA?5?$AAs?$AAt?$AAr@ 13181ea8     LIBCMTD:assert.obj
 0002:00016f50       ??_C@_06FIEBOLOH@Line?3?5?$AA@ 13181f50     LIBCMTD:assert.obj
 0002:00016f58       ??_C@_1FE@EHMPHKDB@?$AAs?$AAt?$AAr?$AAc?$AAa?$AAt?$AA_?$AAs?$AA?$CI?$AA?5?$AAa?$AAs?$AAs?$AAe?$AAr?$AAt?$AAb?$AAu?$AAf?$AA?0?$AA?5?$AA?$CI?$AA6?$AA0?$AA?5?$AA?$CK?$AA?5?$AA9?$AA?$CJ?$AA?0?$AA?5?$AA?$CC@ 13181f58     LIBCMTD:assert.obj
 0002:00016fb0       ??_C@_1FE@BELKICLD@?$AAs?$AAt?$AAr?$AAc?$AAa?$AAt?$AA_?$AAs?$AA?$CI?$AA?5?$AAa?$AAs?$AAs?$AAe?$AAr?$AAt?$AAb?$AAu?$AAf?$AA?0?$AA?5?$AA?$CI?$AA6?$AA0?$AA?5?$AA?$CK?$AA?5?$AA9?$AA?$CJ?$AA?0?$AA?5?$AAf@ 13181fb0     LIBCMTD:assert.obj
 0002:00017008       ??_C@_1IC@IABENIAD@?$AAs?$AAt?$AAr?$AAc?$AAa?$AAt?$AA_?$AAs?$AA?$CI?$AA?5?$AAa?$AAs?$AAs?$AAe?$AAr?$AAt?$AAb?$AAu?$AAf?$AA?0?$AA?5?$AA?$CI?$AA6?$AA0?$AA?5?$AA?$CK?$AA?5?$AA9?$AA?$CJ?$AA?0?$AA?5?$AAp@ 13182008     LIBCMTD:assert.obj
 0002:00017090       ??_C@_1HK@LJCIAEID@?$AA_?$AAm?$AAb?$AAs?$AAn?$AAb?$AAc?$AAa?$AAt?$AA_?$AAs?$AA?$CI?$AA?5?$AAa?$AAs?$AAs?$AAe?$AAr?$AAt?$AAb?$AAu?$AAf?$AA?0?$AA?5?$AA?$CI?$AA6?$AA0?$AA?5?$AA?$CK?$AA?5?$AA9?$AA?$CJ@ 13182090     LIBCMTD:assert.obj
 0002:00017110       ??_C@_1HC@NNJOOJHD@?$AA_?$AAm?$AAb?$AAs?$AAn?$AAb?$AAc?$AAa?$AAt?$AA_?$AAs?$AA?$CI?$AA?5?$AAa?$AAs?$AAs?$AAe?$AAr?$AAt?$AAb?$AAu?$AAf?$AA?0?$AA?5?$AA?$CI?$AA6?$AA0?$AA?5?$AA?$CK?$AA?5?$AA9?$AA?$CJ@ 13182110     LIBCMTD:assert.obj
 0002:00017188       ??_C@_1FO@ILLBEHNB@?$AAs?$AAt?$AAr?$AAc?$AAa?$AAt?$AA_?$AAs?$AA?$CI?$AA?5?$AAa?$AAs?$AAs?$AAe?$AAr?$AAt?$AAb?$AAu?$AAf?$AA?0?$AA?5?$AA?$CI?$AA6?$AA0?$AA?5?$AA?$CK?$AA?5?$AA9?$AA?$CJ?$AA?0?$AA?5?$AAp@ 13182188     LIBCMTD:assert.obj
 0002:000171e8       ??_C@_1FG@BIHAHDLM@?$AAs?$AAt?$AAr?$AAc?$AAa?$AAt?$AA_?$AAs?$AA?$CI?$AA?5?$AAa?$AAs?$AAs?$AAe?$AAr?$AAt?$AAb?$AAu?$AAf?$AA?0?$AA?5?$AA?$CI?$AA6?$AA0?$AA?5?$AA?$CK?$AA?5?$AA9?$AA?$CJ?$AA?0?$AA?5?$AAd@ 131821e8     LIBCMTD:assert.obj
 0002:00017240       ??_C@_1GK@LELDAJFN@?$AA_?$AAm?$AAb?$AAs?$AAn?$AAb?$AAc?$AAa?$AAt?$AA_?$AAs?$AA?$CI?$AA?5?$AAa?$AAs?$AAs?$AAe?$AAr?$AAt?$AAb?$AAu?$AAf?$AA?0?$AA?5?$AA?$CI?$AA6?$AA0?$AA?5?$AA?$CK?$AA?5?$AA9?$AA?$CJ@ 13182240     LIBCMTD:assert.obj
 0002:000172ac       ??_C@_06IGPBOHMJ@File?3?5?$AA@ 131822ac     LIBCMTD:assert.obj
 0002:000172b8       ??_C@_1FE@JHHKPPGM@?$AAs?$AAt?$AAr?$AAc?$AAa?$AAt?$AA_?$AAs?$AA?$CI?$AA?5?$AAa?$AAs?$AAs?$AAe?$AAr?$AAt?$AAb?$AAu?$AAf?$AA?0?$AA?5?$AA?$CI?$AA6?$AA0?$AA?5?$AA?$CK?$AA?5?$AA9?$AA?$CJ?$AA?0?$AA?5?$AA?$CC@ 131822b8     LIBCMTD:assert.obj
 0002:00017310       ??_C@_1FC@HGJOLIGH@?$AAs?$AAt?$AAr?$AAc?$AAa?$AAt?$AA_?$AAs?$AA?$CI?$AA?5?$AAa?$AAs?$AAs?$AAe?$AAr?$AAt?$AAb?$AAu?$AAf?$AA?0?$AA?5?$AA?$CI?$AA6?$AA0?$AA?5?$AA?$CK?$AA?5?$AA9?$AA?$CJ?$AA?0?$AA?5?$AAn@ 13182310     LIBCMTD:assert.obj
 0002:00017368       ??_C@_1EK@HNKCAGGP@?$AAs?$AAt?$AAr?$AAc?$AAa?$AAt?$AA_?$AAs?$AA?$CI?$AA?5?$AAa?$AAs?$AAs?$AAe?$AAr?$AAt?$AAb?$AAu?$AAf?$AA?0?$AA?5?$AA?$CI?$AA6?$AA0?$AA?5?$AA?$CK?$AA?5?$AA9?$AA?$CJ?$AA?0?$AA?5?$AAp@ 13182368     LIBCMTD:assert.obj
 0002:000173b8       ??_C@_1HO@DGLFHLNC@?$AA_?$AAm?$AAb?$AAs?$AAn?$AAb?$AAc?$AAp?$AAy?$AA_?$AAs?$AA?$CI?$AA?5?$AAp?$AAc?$AAh?$AA?0?$AA?5?$AA?$CI?$AA2?$AA6?$AA0?$AA?5?$AA?$CL?$AA?5?$AA1?$AA?$CJ?$AA?5?$AA?9?$AA?5?$AA?$CI?$AAp@ 131823b8     LIBCMTD:assert.obj
 0002:00017438       ??_C@_0BH@DNAGHKFM@?$DMprogram?5name?5unknown?$DO?$AA@ 13182438     LIBCMTD:assert.obj
 0002:00017450       ??_C@_1GO@MKBPHEIL@?$AAs?$AAt?$AAr?$AAc?$AAp?$AAy?$AA_?$AAs?$AA?$CI?$AA?5?$AAp?$AAr?$AAo?$AAg?$AAn?$AAa?$AAm?$AAe?$AA?0?$AA?5?$AA2?$AA6?$AA0?$AA?5?$AA?$CL?$AA?5?$AA1?$AA?0?$AA?5?$AA?$CC?$AA?$DM?$AAp@ 13182450     LIBCMTD:assert.obj
 0002:000174c0       ??_C@_09KLGCKDOD@Program?3?5?$AA@ 131824c0     LIBCMTD:assert.obj
 0002:000174d0       ??_C@_1FK@JLNGAFHA@?$AAs?$AAt?$AAr?$AAc?$AAa?$AAt?$AA_?$AAs?$AA?$CI?$AA?5?$AAa?$AAs?$AAs?$AAe?$AAr?$AAt?$AAb?$AAu?$AAf?$AA?0?$AA?5?$AA?$CI?$AA6?$AA0?$AA?5?$AA?$CK?$AA?5?$AA9?$AA?$CJ?$AA?0?$AA?5?$AA?$CC@ 131824d0     LIBCMTD:assert.obj
 0002:00017530       ??_C@_1FI@LABOHEIE@?$AAs?$AAt?$AAr?$AAc?$AAa?$AAt?$AA_?$AAs?$AA?$CI?$AA?5?$AAa?$AAs?$AAs?$AAe?$AAr?$AAt?$AAb?$AAu?$AAf?$AA?0?$AA?5?$AA?$CI?$AA6?$AA0?$AA?5?$AA?$CK?$AA?5?$AA9?$AA?$CJ?$AA?0?$AA?5?$AAd@ 13182530     LIBCMTD:assert.obj
 0002:00017588       ??_C@_0BC@LAIDCHCH@Assertion?5failed?$CB?$AA@ 13182588     LIBCMTD:assert.obj
 0002:000175a0       ??_C@_1GK@MEIIIEKC@?$AAs?$AAt?$AAr?$AAc?$AAp?$AAy?$AA_?$AAs?$AA?$CI?$AA?5?$AAa?$AAs?$AAs?$AAe?$AAr?$AAt?$AAb?$AAu?$AAf?$AA?0?$AA?5?$AA?$CI?$AA6?$AA0?$AA?5?$AA?$CK?$AA?5?$AA9?$AA?$CJ?$AA?0?$AA?5?$AA?$CC@ 131825a0     LIBCMTD:assert.obj
 0002:0001760c       ??_C@_1BA@DADDCNOK@?$AA_?$AAa?$AAs?$AAs?$AAe?$AAr?$AAt?$AA?$AA@ 1318260c     LIBCMTD:assert.obj
 0002:0001761c       ??_C@_1BC@IOLPDCAK@?$AAa?$AAs?$AAs?$AAe?$AAr?$AAt?$AA?4?$AAc?$AA?$AA@ 1318261c     LIBCMTD:assert.obj
 0002:00017630       ??_C@_1BC@HGPNAKGC@?$AAs?$AAt?$AAr?$AAc?$AAa?$AAt?$AA_?$AAs?$AA?$AA@ 13182630     LIBCMTD:strcat_s.obj
 0002:00017644       ??_C@_1BK@CMPKHPEC@?$AAn?$AA?5?$AA?$DM?$AA?$DN?$AA?5?$AAI?$AAN?$AAT?$AA_?$AAM?$AAA?$AAX?$AA?$AA@ 13182644     LIBCMTD:wcstombs.obj
 0002:00017660       ??_C@_1CG@LLJCAOHF@?$AA_?$AAw?$AAc?$AAs?$AAt?$AAo?$AAm?$AAb?$AAs?$AA_?$AAl?$AA_?$AAh?$AAe?$AAl?$AAp?$AAe?$AAr?$AA?$AA@ 13182660     LIBCMTD:wcstombs.obj
 0002:00017688       ??_C@_1BG@POHBKINF@?$AAw?$AAc?$AAs?$AAt?$AAo?$AAm?$AAb?$AAs?$AA?4?$AAc?$AA?$AA@ 13182688     LIBCMTD:wcstombs.obj
 0002:000176a0       ??_C@_1BK@OIBENBPM@?$AAp?$AAw?$AAc?$AAs?$AA?5?$AA?$CB?$AA?$DN?$AA?5?$AAN?$AAU?$AAL?$AAL?$AA?$AA@ 131826a0     LIBCMTD:wcstombs.obj
 0002:000176bc       ??_C@_1CM@KEOGBFLI@?$AAs?$AAi?$AAz?$AAe?$AAI?$AAn?$AAB?$AAy?$AAt?$AAe?$AAs?$AA?5?$AA?$DO?$AA?5?$AAr?$AAe?$AAt?$AAs?$AAi?$AAz?$AAe?$AA?$AA@ 131826bc     LIBCMTD:wcstombs.obj
 0002:000176e8       ??_C@_1BM@BDMCLLDL@?$AA_?$AAw?$AAc?$AAs?$AAt?$AAo?$AAm?$AAb?$AAs?$AA_?$AAs?$AA_?$AAl?$AA?$AA@ 131826e8     LIBCMTD:wcstombs.obj
 0002:00017708       ??_C@_1IM@MFGKHGBP@?$AA?$CI?$AAd?$AAs?$AAt?$AA?5?$AA?$CB?$AA?$DN?$AA?5?$AAN?$AAU?$AAL?$AAL?$AA?5?$AA?$CG?$AA?$CG?$AA?5?$AAs?$AAi?$AAz?$AAe?$AAI?$AAn?$AAB?$AAy?$AAt?$AAe?$AAs?$AA?5?$AA?$DO?$AA?5?$AA0?$AA?$CJ@ 13182708     LIBCMTD:wcstombs.obj
 0002:00017794       ??_C@_1CE@IGKFIJFD@?$AA_?$AAv?$AAs?$AAw?$AAp?$AAr?$AAi?$AAn?$AAt?$AAf?$AA_?$AAh?$AAe?$AAl?$AAp?$AAe?$AAr?$AA?$AA@ 13182794     LIBCMTD:vswprnc.obj
 0002:000177b8       ??_C@_1GE@ICPDLGGP@?$AAf?$AA?3?$AA?2?$AAs?$AAp?$AA?2?$AAv?$AAc?$AAt?$AAo?$AAo?$AAl?$AAs?$AA?2?$AAc?$AAr?$AAt?$AA_?$AAb?$AAl?$AAd?$AA?2?$AAs?$AAe?$AAl?$AAf?$AA_?$AAx?$AA8?$AA6?$AA?2?$AAc@ 131827b8     LIBCMTD:vswprnc.obj
 0002:00017820       ??_C@_1EE@MPCHJFGP@?$AAs?$AAt?$AAr?$AAi?$AAn?$AAg?$AA?5?$AA?$CB?$AA?$DN?$AA?5?$AAN?$AAU?$AAL?$AAL?$AA?5?$AA?$CG?$AA?$CG?$AA?5?$AAs?$AAi?$AAz?$AAe?$AAI?$AAn?$AAW?$AAo?$AAr?$AAd?$AAs?$AA?5?$AA?$DO?$AA?5@ 13182820     LIBCMTD:vswprnc.obj
 0002:00017864       ??_C@_1BO@OALHJLCI@?$AA_?$AAv?$AAs?$AAw?$AAp?$AAr?$AAi?$AAn?$AAt?$AAf?$AA_?$AAs?$AA_?$AAl?$AA?$AA@ 13182864     LIBCMTD:vswprnc.obj
 0002:00017884       ??_C@_1CA@BKFKMJFF@?$AA_?$AAv?$AAs?$AAn?$AAw?$AAp?$AAr?$AAi?$AAn?$AAt?$AAf?$AA_?$AAs?$AA_?$AAl?$AA?$AA@ 13182884     LIBCMTD:vswprnc.obj
 0002:000178a4       ??_C@_0P@GGKDKEEG@runtime?5error?5?$AA@ 131828a4     LIBCMTD:crt0msg.obj
 0002:000178b4       ??_C@_02PCIJFNDE@?$AN?6?$AA@ 131828b4     LIBCMTD:crt0msg.obj
 0002:000178b8       ??_C@_0O@MJNIPGOH@TLOSS?5error?$AN?6?$AA@ 131828b8     LIBCMTD:crt0msg.obj
 0002:000178c8       ??_C@_0N@BONNPDHF@SING?5error?$AN?6?$AA@ 131828c8     LIBCMTD:crt0msg.obj
 0002:000178d8       ??_C@_0P@MBDAJNE@DOMAIN?5error?$AN?6?$AA@ 131828d8     LIBCMTD:crt0msg.obj
 0002:000178e8       ??_C@_0BFB@HKKMCDOL@R6034?$AN?6An?5application?5has?5made?5a@ 131828e8     LIBCMTD:crt0msg.obj
 0002:00017a40       ??_C@_0PH@EPAFIJ@R6033?$AN?6?9?5Attempt?5to?5use?5MSIL?5cod@ 13182a40     LIBCMTD:crt0msg.obj
 0002:00017b38       ??_C@_0DD@BKEEABMM@R6032?$AN?6?9?5not?5enough?5space?5for?5lo@ 13182b38     LIBCMTD:crt0msg.obj
 0002:00017b70       ??_C@_0GD@OFKILIED@R6031?$AN?6?9?5Attempt?5to?5initialize?5t@ 13182b70     LIBCMTD:crt0msg.obj
 0002:00017bd4       ??_C@_0BP@LPMHJOKI@R6030?$AN?6?9?5CRT?5not?5initialized?$AN?6?$AA@ 13182bd4     LIBCMTD:crt0msg.obj
 0002:00017bf4       ??_C@_0CF@KJDAIALP@R6028?$AN?6?9?5unable?5to?5initialize?5he@ 13182bf4     LIBCMTD:crt0msg.obj
 0002:00017c1c       ??_C@_0DF@GAKBPDFP@R6027?$AN?6?9?5not?5enough?5space?5for?5lo@ 13182c1c     LIBCMTD:crt0msg.obj
 0002:00017c54       ??_C@_0DF@IBLNNAIG@R6026?$AN?6?9?5not?5enough?5space?5for?5st@ 13182c54     LIBCMTD:crt0msg.obj
 0002:00017c8c       ??_C@_0CG@IOHKGFNJ@R6025?$AN?6?9?5pure?5virtual?5function?5c@ 13182c8c     LIBCMTD:crt0msg.obj
 0002:00017cb4       ??_C@_0DF@JIJJFJDC@R6024?$AN?6?9?5not?5enough?5space?5for?5_o@ 13182cb4     LIBCMTD:crt0msg.obj
 0002:00017cec       ??_C@_0CJ@EGEJHFME@R6019?$AN?6?9?5unable?5to?5open?5console?5@ 13182cec     LIBCMTD:crt0msg.obj
 0002:00017d18       ??_C@_0CB@GNHNIELH@R6018?$AN?6?9?5unexpected?5heap?5error?$AN?6@ 13182d18     LIBCMTD:crt0msg.obj
 0002:00017d3c       ??_C@_0CN@FOLDKNG@R6017?$AN?6?9?5unexpected?5multithread?5@ 13182d3c     LIBCMTD:crt0msg.obj
 0002:00017d6c       ??_C@_0CM@FAHFJNHO@R6016?$AN?6?9?5not?5enough?5space?5for?5th@ 13182d6c     LIBCMTD:crt0msg.obj
 0002:00017d98       ??_C@_0JG@LBKMGKLD@?$AN?6This?5application?5has?5requested@ 13182d98     LIBCMTD:crt0msg.obj
 0002:00017e30       ??_C@_0CM@FLCNIPKK@R6009?$AN?6?9?5not?5enough?5space?5for?5en@ 13182e30     LIBCMTD:crt0msg.obj
 0002:00017e5c       ??_C@_0CK@KMMJOAPP@R6008?$AN?6?9?5not?5enough?5space?5for?5ar@ 13182e5c     LIBCMTD:crt0msg.obj
 0002:00017e88       ??_C@_0CN@LEKKICBM@R6002?$AN?6?9?5floating?5point?5support?5@ 13182e88     LIBCMTD:crt0msg.obj
 0002:00017eb8       ??_C@_1KC@JBIKIPNF@?$AAs?$AAt?$AAr?$AAc?$AAa?$AAt?$AA_?$AAs?$AA?$CI?$AAo?$AAu?$AAt?$AAm?$AAs?$AAg?$AA?0?$AA?5?$AA?$CI?$AAs?$AAi?$AAz?$AAe?$AAo?$AAf?$AA?$CI?$AAo?$AAu?$AAt?$AAm?$AAs?$AAg?$AA?$CJ@ 13182eb8     LIBCMTD:crt0msg.obj
 0002:00017f60       ??_C@_1HO@POLIDBMF@?$AAs?$AAt?$AAr?$AAc?$AAa?$AAt?$AA_?$AAs?$AA?$CI?$AAo?$AAu?$AAt?$AAm?$AAs?$AAg?$AA?0?$AA?5?$AA?$CI?$AAs?$AAi?$AAz?$AAe?$AAo?$AAf?$AA?$CI?$AAo?$AAu?$AAt?$AAm?$AAs?$AAg?$AA?$CJ@ 13182f60     LIBCMTD:crt0msg.obj
 0002:00017fe0       ??_C@_1HG@CJJGKFHK@?$AAs?$AAt?$AAr?$AAn?$AAc?$AAp?$AAy?$AA_?$AAs?$AA?$CI?$AAp?$AAc?$AAh?$AA?0?$AA?5?$AAp?$AAr?$AAo?$AAg?$AAn?$AAa?$AAm?$AAe?$AA_?$AAs?$AAi?$AAz?$AAe?$AA?5?$AA?9?$AA?5?$AA?$CI@ 13182fe0     LIBCMTD:crt0msg.obj
 0002:00018058       ??_C@_1HI@FOOPEDMH@?$AAs?$AAt?$AAr?$AAc?$AAp?$AAy?$AA_?$AAs?$AA?$CI?$AAp?$AAr?$AAo?$AAg?$AAn?$AAa?$AAm?$AAe?$AA?0?$AA?5?$AAp?$AAr?$AAo?$AAg?$AAn?$AAa?$AAm?$AAe?$AA_?$AAs?$AAi?$AAz?$AAe@ 13183058     LIBCMTD:crt0msg.obj
 0002:000180d0       ??_C@_0BK@OFGJDLJJ@Runtime?5Error?$CB?6?6Program?3?5?$AA@ 131830d0     LIBCMTD:crt0msg.obj
 0002:000180f0       ??_C@_1KM@NKKPELHG@?$AAs?$AAt?$AAr?$AAc?$AAp?$AAy?$AA_?$AAs?$AA?$CI?$AAo?$AAu?$AAt?$AAm?$AAs?$AAg?$AA?0?$AA?5?$AA?$CI?$AAs?$AAi?$AAz?$AAe?$AAo?$AAf?$AA?$CI?$AAo?$AAu?$AAt?$AAm?$AAs?$AAg?$AA?$CJ@ 131830f0     LIBCMTD:crt0msg.obj
 0002:0001819c       ??_C@_1BI@EAHMBMEC@?$AA_?$AAN?$AAM?$AAS?$AAG?$AA_?$AAW?$AAR?$AAI?$AAT?$AAE?$AA?$AA@ 1318319c     LIBCMTD:crt0msg.obj
 0002:000181b4       ??_C@_1BE@HJCCFLDA@?$AAc?$AAr?$AAt?$AA0?$AAm?$AAs?$AAg?$AA?4?$AAc?$AA?$AA@ 131831b4     LIBCMTD:crt0msg.obj
 0002:000181c8       ??_C@_0O@NLDKAIKN@EncodePointer?$AA@ 131831c8     LIBCMTD:tidtable.obj
 0002:000181d8       ??_C@_0N@NHGLKGEC@KERNEL32?4DLL?$AA@ 131831d8     LIBCMTD:tidtable.obj
 0002:000181e8       ??_C@_07EPKMNAGK@?4mixcrt?$AA@ 131831e8     LIBCMTD:tidtable.obj
 0002:000181f0       ??_C@_0O@KBPMFGHI@DecodePointer?$AA@ 131831f0     LIBCMTD:tidtable.obj
 0002:00018200       ??_C@_0L@JKCACIOJ@tidtable?4c?$AA@ 13183200     LIBCMTD:tidtable.obj
 0002:0001820c       ??_C@_07PEJMOBNF@FlsFree?$AA@ 1318320c     LIBCMTD:tidtable.obj
 0002:00018214       ??_C@_0M@JCPCPOEF@FlsSetValue?$AA@ 13183214     LIBCMTD:tidtable.obj
 0002:00018220       ??_C@_0M@GDNOONDI@FlsGetValue?$AA@ 13183220     LIBCMTD:tidtable.obj
 0002:0001822c       ??_C@_08KNHFBNJ@FlsAlloc?$AA@ 1318322c     LIBCMTD:tidtable.obj
 0002:00018238       ??_C@_1GO@NGIGJNHH@?$AAs?$AAt?$AAr?$AAn?$AAc?$AAp?$AAy?$AA_?$AAs?$AA?$CI?$AA?$CK?$AAs?$AAt?$AAr?$AAa?$AAd?$AAd?$AAr?$AAe?$AAs?$AAs?$AA?0?$AA?5?$AAo?$AAu?$AAt?$AAs?$AAi?$AAz?$AAe?$AA?0?$AA?5@ 13183238     LIBCMTD:inithelp.obj
 0002:000182a8       ??_C@_1CA@KHHCPEI@?$AA_?$AA_?$AAg?$AAe?$AAt?$AAl?$AAo?$AAc?$AAa?$AAl?$AAe?$AAi?$AAn?$AAf?$AAo?$AA?$AA@ 131832a8     LIBCMTD:inithelp.obj
 0002:000182c8       ??_C@_1BG@OFMEOKEA@?$AAi?$AAn?$AAi?$AAt?$AAh?$AAe?$AAl?$AAp?$AA?4?$AAc?$AA?$AA@ 131832c8     LIBCMTD:inithelp.obj
 0002:000182e0       ??_C@_0L@DILIPMN@inithelp?4c?$AA@ 131832e0     LIBCMTD:inithelp.obj
 0002:000182ec       ??_C@_1BI@OINOOFEA@?$AAh?$AAa?$AAn?$AAd?$AAl?$AAe?$AAr?$AA?4?$AAc?$AAp?$AAp?$AA?$AA@ 131832ec     LIBCMTD:handler.obj
 0002:00018304       ??_C@_1BC@JLLICHIC@?$AAp?$AAn?$AAh?$AA?5?$AA?$DN?$AA?$DN?$AA?5?$AA0?$AA?$AA@ 13183304     LIBCMTD:handler.obj
 0002:00018318       ??_C@_08MAFBHINM@ioinit?4c?$AA@ 13183318     LIBCMTD:ioinit.obj
 0002:00018324       ??_C@_1DE@MMOGFGHF@?$AAs?$AAt?$AAr?$AAc?$AAp?$AAy?$AA_?$AAs?$AA?$CI?$AA?$CK?$AAe?$AAn?$AAv?$AA?0?$AA?5?$AAc?$AAc?$AAh?$AAa?$AAr?$AAs?$AA?0?$AA?5?$AAp?$AA?$CJ?$AA?$AA@ 13183324     LIBCMTD:stdenvp.obj
 0002:00018358       ??_C@_1BC@GHMCNHHL@?$AA_?$AAs?$AAe?$AAt?$AAe?$AAn?$AAv?$AAp?$AA?$AA@ 13183358     LIBCMTD:stdenvp.obj
 0002:0001836c       ??_C@_1BE@DFNOPGHI@?$AAs?$AAt?$AAd?$AAe?$AAn?$AAv?$AAp?$AA?4?$AAc?$AA?$AA@ 1318336c     LIBCMTD:stdenvp.obj
 0002:00018380       ??_C@_09HCDLHOJP@stdenvp?4c?$AA@ 13183380     LIBCMTD:stdenvp.obj
 0002:0001838c       ??_C@_09IKILHJIC@stdargv?4c?$AA@ 1318338c     LIBCMTD:stdargv.obj
 0002:00018398       ??_C@_07BPGNOCOG@a_env?4c?$AA@ 13183398     LIBCMTD:a_env.obj
 0002:000183a0       ??_C@_1BM@DKJOGMJM@?$AA_?$AA_?$AAh?$AAe?$AAa?$AAp?$AA_?$AAs?$AAe?$AAl?$AAe?$AAc?$AAt?$AA?$AA@ 131833a0     LIBCMTD:heapinit.obj
 0002:000183bc       ??_C@_1BG@INAAHHLF@?$AAh?$AAe?$AAa?$AAp?$AAi?$AAn?$AAi?$AAt?$AA?4?$AAc?$AA?$AA@ 131833bc     LIBCMTD:heapinit.obj
 0002:000183d4       ??_C@_1BC@DENNNKIM@?$AA_?$AAc?$AAr?$AAt?$AAh?$AAe?$AAa?$AAp?$AA?$AA@ 131833d4     LIBCMTD:heapinit.obj
 0002:000183e8       ??_C@_1BG@KCMPBBDK@?$AA_?$AAg?$AAe?$AAt?$AA_?$AAe?$AAr?$AAr?$AAn?$AAo?$AA?$AA@ 131833e8     LIBCMTD:dosmap.obj
 0002:00018400       ??_C@_1BC@GFJPPMFE@?$AAd?$AAo?$AAs?$AAm?$AAa?$AAp?$AA?4?$AAc?$AA?$AA@ 13183400     LIBCMTD:dosmap.obj
 0002:00018414       ??_C@_1BM@INIPHHDD@?$AA_?$AAg?$AAe?$AAt?$AA_?$AAd?$AAo?$AAs?$AAe?$AAr?$AAr?$AAn?$AAo?$AA?$AA@ 13183414     LIBCMTD:dosmap.obj
 0002:00018430       ??_C@_1HO@MLMGPAFH@?$AA?$CI?$AA?$CC?$AAi?$AAn?$AAc?$AAo?$AAn?$AAs?$AAi?$AAs?$AAt?$AAe?$AAn?$AAt?$AA?5?$AAI?$AAO?$AAB?$AA?5?$AAf?$AAi?$AAe?$AAl?$AAd?$AAs?$AA?$CC?$AA?0?$AA?5?$AAs?$AAt?$AAr?$AAe@ 13183430     LIBCMTD:_flsbuf.obj
 0002:000184b0       ??_C@_1BE@GOOJIKLI@?$AA_?$AAf?$AAl?$AAs?$AAb?$AAu?$AAf?$AA?4?$AAc?$AA?$AA@ 131834b0     LIBCMTD:_flsbuf.obj
 0002:000184c4       ??_C@_1BI@MFCLPIBM@?$AAs?$AAt?$AAr?$AA?5?$AA?$CB?$AA?$DN?$AA?5?$AAN?$AAU?$AAL?$AAL?$AA?$AA@ 131834c4     LIBCMTD:_flsbuf.obj
 0002:000184dc       ??_C@_1O@CEDCILHN@?$AA?$CI?$AAn?$AAu?$AAl?$AAl?$AA?$CJ?$AA?$AA@ 131834dc     LIBCMTD:output.obj
 0002:000184ec       ??_C@_06OJHGLDPL@?$CInull?$CJ?$AA@ 131834ec     LIBCMTD:output.obj
 0002:000184f8       ___lookuptable             131834f8     LIBCMTD:output.obj
 0002:00018554       ??_C@_08MEPFMIND@output?4c?$AA@ 13183554     LIBCMTD:output.obj
 0002:00018560       ??_C@_1EK@PNGFDECN@?$AA?$CI?$AA?$CC?$AA?8?$AAn?$AA?8?$AA?5?$AAf?$AAo?$AAr?$AAm?$AAa?$AAt?$AA?5?$AAs?$AAp?$AAe?$AAc?$AAi?$AAf?$AAi?$AAe?$AAr?$AA?5?$AAd?$AAi?$AAs?$AAa?$AAb?$AAl?$AAe?$AAd?$AA?$CC@ 13183560     LIBCMTD:output.obj
 0002:000185ac       ??_C@_1CC@IFFHEMNF@?$AA?$CI?$AAc?$AAh?$AA?5?$AA?$CB?$AA?$DN?$AA?5?$AA_?$AAT?$AA?$CI?$AA?8?$AA?2?$AA0?$AA?8?$AA?$CJ?$AA?$CJ?$AA?$AA@ 131835ac     LIBCMTD:output.obj
 0002:000185d0       ??_C@_1BE@IONLIDNC@?$AA_?$AAo?$AAu?$AAt?$AAp?$AAu?$AAt?$AA_?$AAl?$AA?$AA@ 131835d0     LIBCMTD:output.obj
 0002:000185e4       ??_C@_1BC@NHKJGCDC@?$AAo?$AAu?$AAt?$AAp?$AAu?$AAt?$AA?4?$AAc?$AA?$AA@ 131835e4     LIBCMTD:output.obj
 0002:000185f8       ??_C@_1BI@IGILPKD@?$AA_?$AAv?$AAs?$AAp?$AAr?$AAi?$AAn?$AAt?$AAf?$AA_?$AAl?$AA?$AA@ 131835f8     LIBCMTD:vsprintf.obj
 0002:00018610       ??_C@_1BG@CBDPIEBA@?$AAv?$AAs?$AAp?$AAr?$AAi?$AAn?$AAt?$AAf?$AA?4?$AAc?$AA?$AA@ 13183610     LIBCMTD:vsprintf.obj
 0002:00018628       ??_C@_1CE@HMKDJHB@?$AA_?$AAv?$AAs?$AAc?$AAp?$AAr?$AAi?$AAn?$AAt?$AAf?$AA_?$AAh?$AAe?$AAl?$AAp?$AAe?$AAr?$AA?$AA@ 13183628     LIBCMTD:vsprintf.obj
 0002:00018654       ??_C@_0BB@NAGLCMLI@Assertion?5Failed?$AA@ 13183654     LIBCMTD:dbgrpt.obj
 0002:00018668       ??_C@_05NAOIJFC@Error?$AA@ 13183668     LIBCMTD:dbgrpt.obj
 0002:00018670       ??_C@_07KGMMFLDN@Warning?$AA@ 13183670     LIBCMTD:dbgrpt.obj
 0002:00018678       ??_C@_08ODMAMGBE@dbgrpt?4c?$AA@ 13183678     LIBCMTD:dbgrpt.obj
 0002:00018684       ??_C@_1CG@GNMJDMIO@?$AA_?$AAC?$AAr?$AAt?$AAS?$AAe?$AAt?$AAR?$AAe?$AAp?$AAo?$AAr?$AAt?$AAH?$AAo?$AAo?$AAk?$AA2?$AA?$AA@ 13183684     LIBCMTD:dbgrpt.obj
 0002:000186ac       ??_C@_1BC@CBGBJLNL@?$AAd?$AAb?$AAg?$AAr?$AAp?$AAt?$AA?4?$AAc?$AA?$AA@ 131836ac     LIBCMTD:dbgrpt.obj
 0002:000186c0       ??_C@_0CD@EBCGLDDL@Microsoft?5Visual?5C?$CL?$CL?5Debug?5Libra@ 131836c0     LIBCMTD:dbgrpt.obj
 0002:000186e4       ??_C@_0CL@EACFGMNB@_CrtDbgReport?3?5String?5too?5long?5o@ 131836e4     LIBCMTD:dbgrpt.obj
 0002:00018710       ??_C@_1JG@CPKCIOEE@?$AAs?$AAt?$AAr?$AAc?$AAp?$AAy?$AA_?$AAs?$AA?$CI?$AAs?$AAz?$AAO?$AAu?$AAt?$AAM?$AAe?$AAs?$AAs?$AAa?$AAg?$AAe?$AA?0?$AA?5?$AA4?$AA0?$AA9?$AA6?$AA?0?$AA?5?$AA?$CC?$AA_?$AAC@ 13183710     LIBCMTD:dbgrpt.obj
 0002:000187a8       ??_C@_0FF@CCONDJCB@Debug?5?$CFs?$CB?6?6Program?3?5?$CFs?$CFs?$CFs?$CFs?$CFs?$CFs@ 131837a8     LIBCMTD:dbgrpt.obj
 0002:00018800       ??_C@_09OFBFHMBK@?6Module?3?5?$AA@ 13183800     LIBCMTD:dbgrpt.obj
 0002:0001880c       ??_C@_07OPHPPLBG@?6File?3?5?$AA@ 1318380c     LIBCMTD:dbgrpt.obj
 0002:00018814       ??_C@_07DBMPPHDI@?6Line?3?5?$AA@ 13183814     LIBCMTD:dbgrpt.obj
 0002:00018820       ??_C@_0HD@GNBNFCCL@?6?6For?5information?5on?5how?5your?5pr@ 13183820     LIBCMTD:dbgrpt.obj
 0002:00018898       ??_C@_1KA@GHPEDBGI@?$AA_?$AAm?$AAb?$AAs?$AAn?$AAb?$AAc?$AAp?$AAy?$AA_?$AAs?$AA?$CI?$AAs?$AAz?$AAS?$AAh?$AAo?$AAr?$AAt?$AAP?$AAr?$AAo?$AAg?$AAN?$AAa?$AAm?$AAe?$AA?0?$AA?5?$AA2?$AA6?$AA0@ 13183898     LIBCMTD:dbgrpt.obj
 0002:00018938       ??_C@_1GG@DLDHOIGE@?$AAs?$AAt?$AAr?$AAc?$AAp?$AAy?$AA_?$AAs?$AA?$CI?$AAs?$AAz?$AAE?$AAx?$AAe?$AAN?$AAa?$AAm?$AAe?$AA?0?$AA?5?$AA2?$AA6?$AA0?$AA?0?$AA?5?$AA?$CC?$AA?$DM?$AAp?$AAr?$AAo?$AAg?$AAr@ 13183938     LIBCMTD:dbgrpt.obj
 0002:000189a0       ??_C@_1CI@IDOKFLAJ@?$AA_?$AA_?$AAc?$AAr?$AAt?$AAM?$AAe?$AAs?$AAs?$AAa?$AAg?$AAe?$AAW?$AAi?$AAn?$AAd?$AAo?$AAw?$AAA?$AA?$AA@ 131839a0     LIBCMTD:dbgrpt.obj
 0002:000189c8       ??_C@_1BK@JMCGJOCC@?$AA_?$AAe?$AAx?$AAp?$AAa?$AAn?$AAd?$AA_?$AAb?$AAa?$AAs?$AAe?$AA?$AA@ 131839c8     LIBCMTD:expand.obj
 0002:000189e4       ??_C@_1BC@OBICIAFI@?$AAe?$AAx?$AAp?$AAa?$AAn?$AAd?$AA?4?$AAc?$AA?$AA@ 131839e4     LIBCMTD:expand.obj
 0002:000189f8       ??_C@_1BO@KFIJIAEA@?$AAp?$AAB?$AAl?$AAo?$AAc?$AAk?$AA?5?$AA?$CB?$AA?$DN?$AA?5?$AAN?$AAU?$AAL?$AAL?$AA?$AA@ 131839f8     LIBCMTD:expand.obj
 0002:00018a18       ??_C@_1BO@EMPIBJGC@?$AA_?$AAr?$AAe?$AAc?$AAa?$AAl?$AAl?$AAo?$AAc?$AA_?$AAb?$AAa?$AAs?$AAe?$AA?$AA@ 13183a18     LIBCMTD:realloc.obj
 0002:00018a38       ??_C@_1BE@IAPDAHOE@?$AAr?$AAe?$AAa?$AAl?$AAl?$AAo?$AAc?$AA?4?$AAc?$AA?$AA@ 13183a38     LIBCMTD:realloc.obj
 0002:00018a4c       ??_C@_1BC@IMNOJJAO@?$AAs?$AAb?$AAh?$AAe?$AAa?$AAp?$AA?4?$AAc?$AA?$AA@ 13183a4c     LIBCMTD:sbheap.obj
 0002:00018a60       ??_C@_1IC@MOGBEBCE@?$AA?$CI?$AAt?$AAh?$AAr?$AAe?$AAs?$AAh?$AAo?$AAl?$AAd?$AA?5?$AA?$DM?$AA?$DN?$AA?5?$AAM?$AAA?$AAX?$AA_?$AAA?$AAL?$AAL?$AAO?$AAC?$AA_?$AAD?$AAA?$AAT?$AAA?$AA_?$AAS?$AAI?$AAZ@ 13183a60     LIBCMTD:sbheap.obj
 0002:00018ae4       ??_C@_1CG@BBFCGKBK@?$AA_?$AAs?$AAe?$AAt?$AA_?$AAs?$AAb?$AAh?$AA_?$AAt?$AAh?$AAr?$AAe?$AAs?$AAh?$AAo?$AAl?$AAd?$AA?$AA@ 13183ae4     LIBCMTD:sbheap.obj
 0002:00018b10       ??_C@_1EC@DACAONFE@?$AAt?$AAh?$AAr?$AAe?$AAs?$AAh?$AAo?$AAl?$AAd?$AA?5?$AA?$DM?$AA?$DN?$AA?5?$AAM?$AAA?$AAX?$AA_?$AAA?$AAL?$AAL?$AAO?$AAC?$AA_?$AAD?$AAA?$AAT?$AAA?$AA_?$AAS?$AAI?$AAZ?$AAE@ 13183b10     LIBCMTD:sbheap.obj
 0002:00018b54       ??_C@_1BM@GFNECEDD@?$AA_?$AAs?$AAe?$AAt?$AA_?$AAa?$AAm?$AAb?$AAl?$AAk?$AAs?$AAi?$AAz?$AA?$AA@ 13183b54     LIBCMTD:sbheap.obj
 0002:00018b70       ??_C@_1DK@BKLENMLC@?$AA0?$AA?5?$AA?$DM?$AA?5?$AAs?$AAi?$AAz?$AAe?$AA?5?$AA?$CG?$AA?$CG?$AA?5?$AAs?$AAi?$AAz?$AAe?$AA?5?$AA?$DM?$AA?$DN?$AA?5?$AAU?$AAI?$AAN?$AAT?$AA_?$AAM?$AAA?$AAX?$AA?$AA@ 13183b70     LIBCMTD:sbheap.obj
 0002:00018bac       ??_C@_1BM@OFBCOJJF@?$AA_?$AAg?$AAe?$AAt?$AA_?$AAa?$AAm?$AAb?$AAl?$AAk?$AAs?$AAi?$AAz?$AA?$AA@ 13183bac     LIBCMTD:sbheap.obj
 0002:00018bc8       ??_C@_1BM@IELHFPPM@?$AAp?$AAS?$AAi?$AAz?$AAe?$AA?5?$AA?$CB?$AA?$DN?$AA?5?$AAN?$AAU?$AAL?$AAL?$AA?$AA@ 13183bc8     LIBCMTD:sbheap.obj
 0002:00018be4       ??_C@_09KJLOAKHC@mbctype?4c?$AA@ 13183be4     LIBCMTD:mbctype.obj
 0002:00018bf0       ??_C@_07LCBHPJJN@LC_TIME?$AA@ 13183bf0     LIBCMTD:setlocal.obj
 0002:00018bf8       ??_C@_0L@DLHIECNL@LC_NUMERIC?$AA@ 13183bf8     LIBCMTD:setlocal.obj
 0002:00018c04       ??_C@_0M@MIENIKLA@LC_MONETARY?$AA@ 13183c04     LIBCMTD:setlocal.obj
 0002:00018c10       ??_C@_08EADHIDAD@LC_CTYPE?$AA@ 13183c10     LIBCMTD:setlocal.obj
 0002:00018c1c       ??_C@_0L@KFJHEKIK@LC_COLLATE?$AA@ 13183c1c     LIBCMTD:setlocal.obj
 0002:00018c28       ??_C@_06NEFDFEKB@LC_ALL?$AA@ 13183c28     LIBCMTD:setlocal.obj
 0002:00018c30       ___lc_category             13183c30     LIBCMTD:setlocal.obj
 0002:00018cf8       ??_C@_1BG@PFHEEGCP@?$AAs?$AAe?$AAt?$AAl?$AAo?$AAc?$AAa?$AAl?$AA?4?$AAc?$AA?$AA@ 13183cf8     LIBCMTD:setlocal.obj
 0002:00018d10       ??_C@_1BKC@GGIENNAK@?$AA?$CI?$AA?$CI?$AAp?$AAt?$AAl?$AAo?$AAc?$AAi?$AA?9?$AA?$DO?$AAl?$AAc?$AA_?$AAc?$AAa?$AAt?$AAe?$AAg?$AAo?$AAr?$AAy?$AA?$FL?$AAc?$AAa?$AAt?$AAe?$AAg?$AAo?$AAr?$AAy?$AA?$FN?$AA?4@ 13183d10     LIBCMTD:setlocal.obj
 0002:00018eb4       ??_C@_1CI@FGIONOJM@?$AA_?$AAc?$AAo?$AAn?$AAf?$AAi?$AAg?$AAt?$AAh?$AAr?$AAe?$AAa?$AAd?$AAl?$AAo?$AAc?$AAa?$AAl?$AAe?$AA?$AA@ 13183eb4     LIBCMTD:setlocal.obj
 0002:00018ee0       ??_C@_1GA@LDEGDKD@?$AA?$CI?$AA?$CC?$AAI?$AAn?$AAv?$AAa?$AAl?$AAi?$AAd?$AA?5?$AAp?$AAa?$AAr?$AAa?$AAm?$AAe?$AAt?$AAe?$AAr?$AA?5?$AAf?$AAo?$AAr?$AA?5?$AA_?$AAc?$AAo?$AAn?$AAf?$AAi?$AAg?$AAt@ 13183ee0     LIBCMTD:setlocal.obj
 0002:00018f40       ??_C@_0L@LEECJGMI@setlocal?4c?$AA@ 13183f40     LIBCMTD:setlocal.obj
 0002:00018f4c       ??_C@_1BE@DBJGBOJC@?$AAs?$AAe?$AAt?$AAl?$AAo?$AAc?$AAa?$AAl?$AAe?$AA?$AA@ 13183f4c     LIBCMTD:setlocal.obj
 0002:00018f60       ??_C@_1FG@OHLFEKMC@?$AAL?$AAC?$AA_?$AAM?$AAI?$AAN?$AA?5?$AA?$DM?$AA?$DN?$AA?5?$AA_?$AAc?$AAa?$AAt?$AAe?$AAg?$AAo?$AAr?$AAy?$AA?5?$AA?$CG?$AA?$CG?$AA?5?$AA_?$AAc?$AAa?$AAt?$AAe?$AAg?$AAo?$AAr?$AAy@ 13183f60     LIBCMTD:setlocal.obj
 0002:00018fb8       ??_C@_1IA@PFIKKKFB@?$AAs?$AAt?$AAr?$AAn?$AAc?$AAp?$AAy?$AA_?$AAs?$AA?$CI?$AAl?$AAc?$AAt?$AAe?$AAm?$AAp?$AA?0?$AA?5?$AA?$CI?$AAs?$AAi?$AAz?$AAe?$AAo?$AAf?$AA?$CI?$AAl?$AAc?$AAt?$AAe?$AAm?$AAp@ 13183fb8     LIBCMTD:setlocal.obj
 0002:00019038       ??_C@_1CE@OFNHIOO@?$AA_?$AAs?$AAe?$AAt?$AAl?$AAo?$AAc?$AAa?$AAl?$AAe?$AA_?$AAn?$AAo?$AAl?$AAo?$AAc?$AAk?$AA?$AA@ 13184038     LIBCMTD:setlocal.obj
 0002:0001905c       ??_C@_01ICJEACDI@?$DL?$AA@ 1318405c     LIBCMTD:setlocal.obj
 0002:00019060       ??_C@_02BALPLPBG@?$DN?$DL?$AA@ 13184060     LIBCMTD:setlocal.obj
 0002:00019068       ??_C@_1GO@JALHLJEH@?$AAs?$AAt?$AAr?$AAc?$AAp?$AAy?$AA_?$AAs?$AA?$CI?$AAp?$AAc?$AAh?$AA?5?$AA?$CL?$AA?5?$AAs?$AAi?$AAz?$AAe?$AAo?$AAf?$AA?$CI?$AAi?$AAn?$AAt?$AA?$CJ?$AA?0?$AA?5?$AAc?$AAc?$AAh?$AA?5@ 13184068     LIBCMTD:setlocal.obj
 0002:000190d8       ??_C@_1CG@IEFIICPK@?$AA_?$AAs?$AAe?$AAt?$AAl?$AAo?$AAc?$AAa?$AAl?$AAe?$AA_?$AAs?$AAe?$AAt?$AA_?$AAc?$AAa?$AAt?$AA?$AA@ 131840d8     LIBCMTD:setlocal.obj
 0002:00019100       ??_C@_1DA@GDKKLCLM@?$AAs?$AAt?$AAr?$AAc?$AAa?$AAt?$AA_?$AAs?$AA?$CI?$AAp?$AAc?$AAh?$AA?0?$AA?5?$AAc?$AAc?$AAh?$AA?0?$AA?5?$AA?$CC?$AA?$DL?$AA?$CC?$AA?$CJ?$AA?$AA@ 13184100     LIBCMTD:setlocal.obj
 0002:00019130       ??_C@_1CG@NNFIJLDA@?$AA_?$AAs?$AAe?$AAt?$AAl?$AAo?$AAc?$AAa?$AAl?$AAe?$AA_?$AAg?$AAe?$AAt?$AA_?$AAa?$AAl?$AAl?$AA?$AA@ 13184130     LIBCMTD:setlocal.obj
 0002:00019158       ??_C@_01NEMOKFLO@?$DN?$AA@ 13184158     LIBCMTD:setlocal.obj
 0002:00019160       ??_C@_1FA@MHAOOIBO@?$AAs?$AAt?$AAr?$AAc?$AAp?$AAy?$AA_?$AAs?$AA?$CI?$AAo?$AAu?$AAt?$AAp?$AAu?$AAt?$AA?0?$AA?5?$AAs?$AAi?$AAz?$AAe?$AAI?$AAn?$AAC?$AAh?$AAa?$AAr?$AAs?$AA?0?$AA?5?$AAc?$AAa@ 13184160     LIBCMTD:setlocal.obj
 0002:000191b0       ??_C@_1IA@ONNFOEDA@?$AAs?$AAt?$AAr?$AAn?$AAc?$AAp?$AAy?$AA_?$AAs?$AA?$CI?$AAc?$AAa?$AAc?$AAh?$AAe?$AAi?$AAn?$AA?0?$AA?5?$AAc?$AAa?$AAc?$AAh?$AAe?$AAi?$AAn?$AAS?$AAi?$AAz?$AAe?$AA?0?$AA?5@ 131841b0     LIBCMTD:setlocal.obj
 0002:00019230       ??_C@_01GFHCPBMG@C?$AA@    13184230     LIBCMTD:setlocal.obj
 0002:00019238       ??_C@_1EG@MOMHKOD@?$AAs?$AAt?$AAr?$AAc?$AAp?$AAy?$AA_?$AAs?$AA?$CI?$AAo?$AAu?$AAt?$AAp?$AAu?$AAt?$AA?0?$AA?5?$AAs?$AAi?$AAz?$AAe?$AAI?$AAn?$AAC?$AAh?$AAa?$AAr?$AAs?$AA?0?$AA?5?$AA?$CC?$AAC@ 13184238     LIBCMTD:setlocal.obj
 0002:00019280       ??_C@_1BM@OIIBLEFG@?$AA_?$AAe?$AAx?$AAp?$AAa?$AAn?$AAd?$AAl?$AAo?$AAc?$AAa?$AAl?$AAe?$AA?$AA@ 13184280     LIBCMTD:setlocal.obj
 0002:000192a0       ??_C@_1BGM@IJDLABMC@?$AAs?$AAt?$AAr?$AAc?$AAa?$AAt?$AA_?$AAs?$AA?$CI?$AAo?$AAu?$AAt?$AAs?$AAt?$AAr?$AA?0?$AA?5?$AAs?$AAi?$AAz?$AAe?$AAI?$AAn?$AAB?$AAy?$AAt?$AAe?$AAs?$AA?0?$AA?5?$AA?$CI?$AA?5@ 131842a0     LIBCMTD:setlocal.obj
 0002:0001940c       ??_C@_1BC@PIABMDIP@?$AA_?$AAs?$AAt?$AAr?$AAc?$AAa?$AAt?$AAs?$AA?$AA@ 1318440c     LIBCMTD:setlocal.obj
 0002:00019420       ??_C@_1MM@NOPMGFHF@?$AAs?$AAt?$AAr?$AAn?$AAc?$AAp?$AAy?$AA_?$AAs?$AA?$CI?$AAn?$AAa?$AAm?$AAe?$AAs?$AA?9?$AA?$DO?$AAs?$AAz?$AAC?$AAo?$AAd?$AAe?$AAP?$AAa?$AAg?$AAe?$AA?0?$AA?5?$AA?$CI?$AAs?$AAi@ 13184420     LIBCMTD:setlocal.obj
 0002:000194f0       ??_C@_1MG@PHNILIAG@?$AAs?$AAt?$AAr?$AAn?$AAc?$AAp?$AAy?$AA_?$AAs?$AA?$CI?$AAn?$AAa?$AAm?$AAe?$AAs?$AA?9?$AA?$DO?$AAs?$AAz?$AAC?$AAo?$AAu?$AAn?$AAt?$AAr?$AAy?$AA?0?$AA?5?$AA?$CI?$AAs?$AAi?$AAz@ 131844f0     LIBCMTD:setlocal.obj
 0002:000195b8       ??_C@_1MM@BFEECMAF@?$AAs?$AAt?$AAr?$AAn?$AAc?$AAp?$AAy?$AA_?$AAs?$AA?$CI?$AAn?$AAa?$AAm?$AAe?$AAs?$AA?9?$AA?$DO?$AAs?$AAz?$AAL?$AAa?$AAn?$AAg?$AAu?$AAa?$AAg?$AAe?$AA?0?$AA?5?$AA?$CI?$AAs?$AAi@ 131845b8     LIBCMTD:setlocal.obj
 0002:00019684       ??_C@_03EGDHDPFD@_?4?0?$AA@ 13184684     LIBCMTD:setlocal.obj
 0002:00019688       ??_C@_1NG@FMOPGKGG@?$AAs?$AAt?$AAr?$AAn?$AAc?$AAp?$AAy?$AA_?$AAs?$AA?$CI?$AAn?$AAa?$AAm?$AAe?$AAs?$AA?9?$AA?$DO?$AAs?$AAz?$AAC?$AAo?$AAd?$AAe?$AAP?$AAa?$AAg?$AAe?$AA?0?$AA?5?$AA?$CI?$AAs?$AAi@ 13184688     LIBCMTD:setlocal.obj
 0002:00019760       ??_C@_1BK@CBMMLAGJ@?$AA_?$AA_?$AAl?$AAc?$AA_?$AAs?$AAt?$AAr?$AAt?$AAo?$AAl?$AAc?$AA?$AA@ 13184760     LIBCMTD:setlocal.obj
 0002:0001977c       ??_C@_01LFCBOECM@?4?$AA@   1318477c     LIBCMTD:setlocal.obj
 0002:00019780       ??_C@_01IDAFKMJL@_?$AA@    13184780     LIBCMTD:setlocal.obj
 0002:00019788       ??_C@_1HC@IBDBLKCB@?$AAs?$AAt?$AAr?$AAc?$AAp?$AAy?$AA_?$AAs?$AA?$CI?$AAl?$AAo?$AAc?$AAa?$AAl?$AAe?$AA?0?$AA?5?$AAs?$AAi?$AAz?$AAe?$AAI?$AAn?$AAB?$AAy?$AAt?$AAe?$AAs?$AA?0?$AA?5?$AA?$CI?$AAc@ 13184788     LIBCMTD:setlocal.obj
 0002:000197fc       ??_C@_1BK@FGDJDEPG@?$AA_?$AA_?$AAl?$AAc?$AA_?$AAl?$AAc?$AAt?$AAo?$AAs?$AAt?$AAr?$AA?$AA@ 131847fc     LIBCMTD:setlocal.obj
 0002:00019818       ??_C@_1BE@CEKCJJBD@?$AAi?$AAs?$AAc?$AAt?$AAy?$AAp?$AAe?$AA?4?$AAc?$AA?$AA@ 13184818     LIBCMTD:isctype.obj
 0002:0001982c       ??_C@_1DC@BPLPALML@?$AA?$CI?$AAu?$AAn?$AAs?$AAi?$AAg?$AAn?$AAe?$AAd?$AA?$CJ?$AA?$CI?$AAc?$AA?5?$AA?$CL?$AA?5?$AA1?$AA?$CJ?$AA?5?$AA?$DM?$AA?$DN?$AA?5?$AA2?$AA5?$AA6?$AA?$AA@ 1318482c     LIBCMTD:isctype.obj
 0002:00019860       ??_C@_1FE@CEHLKAHD@?$AAi?$AAb?$AAa?$AAs?$AAe?$AA?5?$AA?$DN?$AA?$DN?$AA?5?$AA0?$AA?5?$AA?$HM?$AA?$HM?$AA?5?$AA?$CI?$AA2?$AA?5?$AA?$DM?$AA?$DN?$AA?5?$AAi?$AAb?$AAa?$AAs?$AAe?$AA?5?$AA?$CG?$AA?$CG?$AA?5?$AAi?$AAb?$AAa@ 13184860     LIBCMTD:strtol.obj
 0002:000198b4       ??_C@_1BA@LOLAMAJG@?$AAs?$AAt?$AAr?$AAt?$AAo?$AAx?$AAl?$AA?$AA@ 131848b4     LIBCMTD:strtol.obj
 0002:000198c4       ??_C@_1BC@CPINJNMH@?$AAs?$AAt?$AAr?$AAt?$AAo?$AAl?$AA?4?$AAc?$AA?$AA@ 131848c4     LIBCMTD:strtol.obj
 0002:000198d8       ??_C@_1BK@LAOAACLJ@?$AAn?$AAp?$AAt?$AAr?$AA?5?$AA?$CB?$AA?$DN?$AA?5?$AAN?$AAU?$AAL?$AAL?$AA?$AA@ 131848d8     LIBCMTD:strtol.obj
 0002:000198f4       ??_C@_1BA@BMMDEPNE@?$AAs?$AAt?$AAr?$AAt?$AAo?$AAx?$AAq?$AA?$AA@ 131848f4     LIBCMTD:strtoq.obj
 0002:00019904       ??_C@_1BC@MIDDLJDN@?$AAs?$AAt?$AAr?$AAt?$AAo?$AAq?$AA?4?$AAc?$AA?$AA@ 13184904     LIBCMTD:strtoq.obj
 0002:00019918       ??_C@_1NK@LOFHIHFC@?$AAf?$AAM?$AAo?$AAd?$AAe?$AA?5?$AA?$DN?$AA?$DN?$AA?5?$AA_?$AAC?$AAR?$AAT?$AAD?$AAB?$AAG?$AA_?$AAR?$AAE?$AAP?$AAO?$AAR?$AAT?$AA_?$AAM?$AAO?$AAD?$AAE?$AA?5?$AA?$HM?$AA?$HM?$AA?5@ 13184918     LIBCMTD:dbgrptt.obj
 0002:000199f4       ??_C@_1CE@FIHIECNJ@?$AA_?$AAC?$AAr?$AAt?$AAS?$AAe?$AAt?$AAR?$AAe?$AAp?$AAo?$AAr?$AAt?$AAM?$AAo?$AAd?$AAe?$AA?$AA@ 131849f4     LIBCMTD:dbgrptt.obj
 0002:00019a18       ??_C@_1BE@FLKCNJCI@?$AAd?$AAb?$AAg?$AAr?$AAp?$AAt?$AAt?$AA?4?$AAc?$AA?$AA@ 13184a18     LIBCMTD:dbgrptt.obj
 0002:00019a30       ??_C@_1FA@IFFFOLDJ@?$AAn?$AAR?$AAp?$AAt?$AAT?$AAy?$AAp?$AAe?$AA?5?$AA?$DO?$AA?$DN?$AA?5?$AA0?$AA?5?$AA?$CG?$AA?$CG?$AA?5?$AAn?$AAR?$AAp?$AAt?$AAT?$AAy?$AAp?$AAe?$AA?5?$AA?$DM?$AA?5?$AA_?$AAC?$AAR?$AAT@ 13184a30     LIBCMTD:dbgrptt.obj
 0002:00019a80       ??_C@_1CE@IKKEDCME@?$AA_?$AAC?$AAr?$AAt?$AAS?$AAe?$AAt?$AAR?$AAe?$AAp?$AAo?$AAr?$AAt?$AAF?$AAi?$AAl?$AAe?$AA?$AA@ 13184a80     LIBCMTD:dbgrptt.obj
 0002:00019aa8       ??_C@_1HO@PJOFIKFE@?$AA_?$AAC?$AAr?$AAt?$AAD?$AAb?$AAg?$AAR?$AAe?$AAp?$AAo?$AAr?$AAt?$AA?3?$AA?5?$AAS?$AAt?$AAr?$AAi?$AAn?$AAg?$AA?5?$AAt?$AAo?$AAo?$AA?5?$AAl?$AAo?$AAn?$AAg?$AA?5?$AAo@ 13184aa8     LIBCMTD:dbgrptt.obj
 0002:00019b28       ??_C@_1MC@IGEECMDB@?$AAw?$AAc?$AAs?$AAc?$AAp?$AAy?$AA_?$AAs?$AA?$CI?$AAs?$AAz?$AAO?$AAu?$AAt?$AAM?$AAe?$AAs?$AAs?$AAa?$AAg?$AAe?$AA2?$AA?0?$AA?5?$AA4?$AA0?$AA9?$AA6?$AA?0?$AA?5?$AAL?$AA?$CC@ 13184b28     LIBCMTD:dbgrptt.obj
 0002:00019bf0       ??_C@_1IM@OOKIFKOH@?$AAe?$AA?5?$AA?$DN?$AA?5?$AAm?$AAb?$AAs?$AAt?$AAo?$AAw?$AAc?$AAs?$AA_?$AAs?$AA?$CI?$AA?$CG?$AAr?$AAe?$AAt?$AA?0?$AA?5?$AAs?$AAz?$AAO?$AAu?$AAt?$AAM?$AAe?$AAs?$AAs?$AAa?$AAg@ 13184bf0     LIBCMTD:dbgrptt.obj
 0002:00019c80       ??_C@_1FI@IBIOIHEG@?$AAs?$AAt?$AAr?$AAc?$AAp?$AAy?$AA_?$AAs?$AA?$CI?$AAs?$AAz?$AAO?$AAu?$AAt?$AAM?$AAe?$AAs?$AAs?$AAa?$AAg?$AAe?$AA?0?$AA?5?$AA4?$AA0?$AA9?$AA6?$AA?0?$AA?5?$AAs?$AAz?$AAL@ 13184c80     LIBCMTD:dbgrptt.obj
 0002:00019cd8       ??_C@_0M@IPILFDFN@?$CFs?$CI?$CFd?$CJ?5?3?5?$CFs?$AA@ 13184cd8     LIBCMTD:dbgrptt.obj
 0002:00019ce8       ??_C@_1EI@LDHJEDO@?$AAs?$AAt?$AAr?$AAc?$AAa?$AAt?$AA_?$AAs?$AA?$CI?$AAs?$AAz?$AAL?$AAi?$AAn?$AAe?$AAM?$AAe?$AAs?$AAs?$AAa?$AAg?$AAe?$AA?0?$AA?5?$AA4?$AA0?$AA9?$AA6?$AA?0?$AA?5?$AA?$CC?$AA?2@ 13184ce8     LIBCMTD:dbgrptt.obj
 0002:00019d30       ??_C@_01LIIJDEN@?$AN?$AA@  13184d30     LIBCMTD:dbgrptt.obj
 0002:00019d38       ??_C@_1EI@CACDLAFK@?$AAs?$AAt?$AAr?$AAc?$AAa?$AAt?$AA_?$AAs?$AA?$CI?$AAs?$AAz?$AAL?$AAi?$AAn?$AAe?$AAM?$AAe?$AAs?$AAs?$AAa?$AAg?$AAe?$AA?0?$AA?5?$AA4?$AA0?$AA9?$AA6?$AA?0?$AA?5?$AA?$CC?$AA?2@ 13184d38     LIBCMTD:dbgrptt.obj
 0002:00019d80       ??_C@_1FK@NPGBPOFO@?$AAs?$AAt?$AAr?$AAc?$AAa?$AAt?$AA_?$AAs?$AA?$CI?$AAs?$AAz?$AAL?$AAi?$AAn?$AAe?$AAM?$AAe?$AAs?$AAs?$AAa?$AAg?$AAe?$AA?0?$AA?5?$AA4?$AA0?$AA9?$AA6?$AA?0?$AA?5?$AAs?$AAz@ 13184d80     LIBCMTD:dbgrptt.obj
 0002:00019de0       ??_C@_1KK@GIGAEDMO@?$AAs?$AAt?$AAr?$AAc?$AAp?$AAy?$AA_?$AAs?$AA?$CI?$AAs?$AAz?$AAL?$AAi?$AAn?$AAe?$AAM?$AAe?$AAs?$AAs?$AAa?$AAg?$AAe?$AA?0?$AA?5?$AA4?$AA0?$AA9?$AA6?$AA?0?$AA?5?$AAs?$AAz@ 13184de0     LIBCMTD:dbgrptt.obj
 0002:00019e8c       ??_C@_0BD@CAENFOHP@Assertion?5failed?3?5?$AA@ 13184e8c     LIBCMTD:dbgrptt.obj
 0002:00019ea0       ??_C@_1JI@GAALPGBM@?$AAs?$AAt?$AAr?$AAc?$AAp?$AAy?$AA_?$AAs?$AA?$CI?$AAs?$AAz?$AAU?$AAs?$AAe?$AAr?$AAM?$AAe?$AAs?$AAs?$AAa?$AAg?$AAe?$AA?0?$AA?5?$AA4?$AA0?$AA9?$AA6?$AA?0?$AA?5?$AA?$CC?$AA_@ 13184ea0     LIBCMTD:dbgrptt.obj
 0002:00019f38       ??_C@_07BHGABMGB@?0?5Line?5?$AA@ 13184f38     LIBCMTD:dbgrptt.obj
 0002:00019f40       ??_C@_0P@DFJNDPOP@?$DMfile?5unknown?$DO?$AA@ 13184f40     LIBCMTD:dbgrptt.obj
 0002:00019f50       ??_C@_0CG@BNGLOCEO@Second?5Chance?5Assertion?5Failed?3?5@ 13184f50     LIBCMTD:dbgrptt.obj
 0002:00019f78       ??_C@_1FA@JPHJBHEM@?$AA_?$AAi?$AAt?$AAo?$AAa?$AA_?$AAs?$AA?$CI?$AAn?$AAL?$AAi?$AAn?$AAe?$AA?0?$AA?5?$AAs?$AAz?$AAL?$AAi?$AAn?$AAe?$AAM?$AAe?$AAs?$AAs?$AAa?$AAg?$AAe?$AA?0?$AA?5?$AA4?$AA0@ 13184f78     LIBCMTD:dbgrptt.obj
 0002:00019fc8       ??_C@_1CA@KHJHLKA@?$AA_?$AAV?$AAC?$AAr?$AAt?$AAD?$AAb?$AAg?$AAR?$AAe?$AAp?$AAo?$AAr?$AAt?$AAA?$AA?$AA@ 13184fc8     LIBCMTD:dbgrptt.obj
 0002:00019fe8       ??_C@_1IE@CPGKIAGP@?$AAw?$AAc?$AAs?$AAt?$AAo?$AAm?$AAb?$AAs?$AA_?$AAs?$AA?$CI?$AA?$CG?$AAr?$AAe?$AAt?$AA?0?$AA?5?$AAs?$AAz?$AAa?$AAO?$AAu?$AAt?$AAM?$AAe?$AAs?$AAs?$AAa?$AAg?$AAe?$AA?0?$AA?5@ 13184fe8     LIBCMTD:dbgrptt.obj
 0002:0001a070       ??_C@_1MA@LBAMNNOB@?$AAs?$AAt?$AAr?$AAc?$AAp?$AAy?$AA_?$AAs?$AA?$CI?$AAs?$AAz?$AAO?$AAu?$AAt?$AAM?$AAe?$AAs?$AAs?$AAa?$AAg?$AAe?$AA2?$AA?0?$AA?5?$AA4?$AA0?$AA9?$AA6?$AA?0?$AA?5?$AA?$CC?$AA_@ 13185070     LIBCMTD:dbgrptt.obj
 0002:0001a130       ??_C@_1JC@EOAPFDLN@?$AAw?$AAc?$AAs?$AAt?$AAo?$AAm?$AAb?$AAs?$AA_?$AAs?$AA?$CI?$AA?$CI?$AA?$CI?$AAv?$AAo?$AAi?$AAd?$AA?5?$AA?$CK?$AA?$CJ?$AA0?$AA?$CJ?$AA?0?$AA?5?$AAs?$AAz?$AAO?$AAu?$AAt?$AAM?$AAe?$AAs@ 13185130     LIBCMTD:dbgrptt.obj
 0002:0001a1c8       ??_C@_1FI@DBAIJPJE@?$AAw?$AAc?$AAs?$AAc?$AAp?$AAy?$AA_?$AAs?$AA?$CI?$AAs?$AAz?$AAO?$AAu?$AAt?$AAM?$AAe?$AAs?$AAs?$AAa?$AAg?$AAe?$AA?0?$AA?5?$AA4?$AA0?$AA9?$AA6?$AA?0?$AA?5?$AAs?$AAz?$AAL@ 131851c8     LIBCMTD:dbgrptt.obj
 0002:0001a220       ??_C@_1BI@JIDBEPIG@?$AA?$CF?$AAs?$AA?$CI?$AA?$CF?$AAd?$AA?$CJ?$AA?5?$AA?3?$AA?5?$AA?$CF?$AAs?$AA?$AA@ 13185220     LIBCMTD:dbgrptt.obj
 0002:0001a238       ??_C@_1EK@PHCBEDKB@?$AAw?$AAc?$AAs?$AAc?$AAa?$AAt?$AA_?$AAs?$AA?$CI?$AAs?$AAz?$AAL?$AAi?$AAn?$AAe?$AAM?$AAe?$AAs?$AAs?$AAa?$AAg?$AAe?$AA?0?$AA?5?$AA4?$AA0?$AA9?$AA6?$AA?0?$AA?5?$AAL?$AA?$CC@ 13185238     LIBCMTD:dbgrptt.obj
 0002:0001a284       ??_C@_13CMNBPIDO@?$AA?$AN?$AA?$AA@ 13185284     LIBCMTD:dbgrptt.obj
 0002:0001a288       ??_C@_1EK@NMDFGHMF@?$AAw?$AAc?$AAs?$AAc?$AAa?$AAt?$AA_?$AAs?$AA?$CI?$AAs?$AAz?$AAL?$AAi?$AAn?$AAe?$AAM?$AAe?$AAs?$AAs?$AAa?$AAg?$AAe?$AA?0?$AA?5?$AA4?$AA0?$AA9?$AA6?$AA?0?$AA?5?$AAL?$AA?$CC@ 13185288     LIBCMTD:dbgrptt.obj
 0002:0001a2d8       ??_C@_1FK@HPADHBBD@?$AAw?$AAc?$AAs?$AAc?$AAa?$AAt?$AA_?$AAs?$AA?$CI?$AAs?$AAz?$AAL?$AAi?$AAn?$AAe?$AAM?$AAe?$AAs?$AAs?$AAa?$AAg?$AAe?$AA?0?$AA?5?$AA4?$AA0?$AA9?$AA6?$AA?0?$AA?5?$AAs?$AAz@ 131852d8     LIBCMTD:dbgrptt.obj
 0002:0001a338       ??_C@_1KO@DGAHENCH@?$AAw?$AAc?$AAs?$AAc?$AAp?$AAy?$AA_?$AAs?$AA?$CI?$AAs?$AAz?$AAL?$AAi?$AAn?$AAe?$AAM?$AAe?$AAs?$AAs?$AAa?$AAg?$AAe?$AA?0?$AA?5?$AA4?$AA0?$AA9?$AA6?$AA?0?$AA?5?$AAs?$AAz@ 13185338     LIBCMTD:dbgrptt.obj
 0002:0001a3e8       ??_C@_1CG@FFFGGODN@?$AAA?$AAs?$AAs?$AAe?$AAr?$AAt?$AAi?$AAo?$AAn?$AA?5?$AAf?$AAa?$AAi?$AAl?$AAe?$AAd?$AA?3?$AA?5?$AA?$AA@ 131853e8     LIBCMTD:dbgrptt.obj
 0002:0001a410       ??_C@_1JK@KHFABAEO@?$AAw?$AAc?$AAs?$AAc?$AAp?$AAy?$AA_?$AAs?$AA?$CI?$AAs?$AAz?$AAU?$AAs?$AAe?$AAr?$AAM?$AAe?$AAs?$AAs?$AAa?$AAg?$AAe?$AA?0?$AA?5?$AA4?$AA0?$AA9?$AA6?$AA?0?$AA?5?$AAL?$AA?$CC@ 13185410     LIBCMTD:dbgrptt.obj
 0002:0001a4ac       ??_C@_1BA@ELMMDCFC@?$AA?0?$AA?5?$AAL?$AAi?$AAn?$AAe?$AA?5?$AA?$AA@ 131854ac     LIBCMTD:dbgrptt.obj
 0002:0001a4bc       ??_C@_1BO@OCHMLCAG@?$AA?$DM?$AAf?$AAi?$AAl?$AAe?$AA?5?$AAu?$AAn?$AAk?$AAn?$AAo?$AAw?$AAn?$AA?$DO?$AA?$AA@ 131854bc     LIBCMTD:dbgrptt.obj
 0002:0001a4e0       ??_C@_1EM@MJFLEDMB@?$AAS?$AAe?$AAc?$AAo?$AAn?$AAd?$AA?5?$AAC?$AAh?$AAa?$AAn?$AAc?$AAe?$AA?5?$AAA?$AAs?$AAs?$AAe?$AAr?$AAt?$AAi?$AAo?$AAn?$AA?5?$AAF?$AAa?$AAi?$AAl?$AAe?$AAd?$AA?3?$AA?5@ 131854e0     LIBCMTD:dbgrptt.obj
 0002:0001a530       ??_C@_1FA@CNLLOMHI@?$AA_?$AAi?$AAt?$AAo?$AAw?$AA_?$AAs?$AA?$CI?$AAn?$AAL?$AAi?$AAn?$AAe?$AA?0?$AA?5?$AAs?$AAz?$AAL?$AAi?$AAn?$AAe?$AAM?$AAe?$AAs?$AAs?$AAa?$AAg?$AAe?$AA?0?$AA?5?$AA4?$AA0@ 13185530     LIBCMTD:dbgrptt.obj
 0002:0001a580       ??_C@_1CA@HPALHDOD@?$AA_?$AAV?$AAC?$AAr?$AAt?$AAD?$AAb?$AAg?$AAR?$AAe?$AAp?$AAo?$AAr?$AAt?$AAW?$AA?$AA@ 13185580     LIBCMTD:dbgrptt.obj
 0002:0001a5a0       ??_C@_1BE@BMIJMLDD@?$AA_?$AAs?$AAw?$AAp?$AAr?$AAi?$AAn?$AAt?$AAf?$AA?$AA@ 131855a0     LIBCMTD:swprintf.obj
 0002:0001a5b4       ??_C@_1BG@CEFLJIIJ@?$AAs?$AAw?$AAp?$AAr?$AAi?$AAn?$AAt?$AAf?$AA?4?$AAc?$AA?$AA@ 131855b4     LIBCMTD:swprintf.obj
 0002:0001a5cc       ??_C@_1BC@MJNBEDIJ@?$AA_?$AAi?$AAn?$AAp?$AAu?$AAt?$AA_?$AAl?$AA?$AA@ 131855cc     LIBCMTD:input.obj
 0002:0001a5e0       ??_C@_1BA@LIDNIBLD@?$AAi?$AAn?$AAp?$AAu?$AAt?$AA?4?$AAc?$AA?$AA@ 131855e0     LIBCMTD:input.obj
 0002:0001a5f0       ??_C@_07CMLOKKIF@input?4c?$AA@ 131855f0     LIBCMTD:input.obj
 0002:0001a5f8       ??_C@_1DO@MBOKMJPK@?$AAn?$AAF?$AAl?$AAo?$AAa?$AAt?$AAS?$AAt?$AAr?$AAU?$AAs?$AAe?$AAd?$AA?$DM?$AA?$DN?$AA?$CI?$AA?$CK?$AAp?$AAn?$AAF?$AAl?$AAo?$AAa?$AAt?$AAS?$AAt?$AAr?$AAS?$AAz?$AA?$CJ?$AA?$AA@ 131855f8     LIBCMTD:input.obj
 0002:0001a638       ??_C@_1DG@MPPGJOHD@?$AA?$CI?$AA?$CC?$AAI?$AAn?$AAv?$AAa?$AAl?$AAi?$AAd?$AA?5?$AAI?$AAn?$AAp?$AAu?$AAt?$AA?5?$AAF?$AAo?$AAr?$AAm?$AAa?$AAt?$AA?$CC?$AA?0?$AA0?$AA?$CJ?$AA?$AA@ 13185638     LIBCMTD:inputs.obj
 0002:0001a670       ??_C@_1BG@LBKFJFHM@?$AA_?$AAi?$AAn?$AAp?$AAu?$AAt?$AA_?$AAs?$AA_?$AAl?$AA?$AA@ 13185670     LIBCMTD:inputs.obj
 0002:0001a688       ??_C@_1FO@BBFHLJDH@?$AAf?$AA?3?$AA?2?$AAs?$AAp?$AA?2?$AAv?$AAc?$AAt?$AAo?$AAo?$AAl?$AAs?$AA?2?$AAc?$AAr?$AAt?$AA_?$AAb?$AAl?$AAd?$AA?2?$AAs?$AAe?$AAl?$AAf?$AA_?$AAx?$AA8?$AA6?$AA?2?$AAc@ 13185688     LIBCMTD:inputs.obj
 0002:0001a6e8       ??_C@_0CP@LIINODAI@f?3?2sp?2vctools?2crt_bld?2self_x86?2c@ 131856e8     LIBCMTD:inputs.obj
 0002:0001a718       ___lookuptable_s           13185718     LIBCMTD:outputs.obj
 0002:0001a778       ??_C@_1FK@LNCFKALM@?$AA?$CI?$AA?$CI?$AAs?$AAt?$AAa?$AAt?$AAe?$AA?5?$AA?$DN?$AA?$DN?$AA?5?$AAS?$AAT?$AA_?$AAN?$AAO?$AAR?$AAM?$AAA?$AAL?$AA?$CJ?$AA?5?$AA?$HM?$AA?$HM?$AA?5?$AA?$CI?$AAs?$AAt?$AAa?$AAt?$AAe?$AA?5@ 13185778     LIBCMTD:outputs.obj
 0002:0001a7d4       ??_C@_0DA@FHGIAEAH@f?3?2sp?2vctools?2crt_bld?2self_x86?2c@ 131857d4     LIBCMTD:outputs.obj
 0002:0001a808       ??_C@_1EE@DMAIGNBG@?$AA?$CI?$AA?$CC?$AAI?$AAn?$AAc?$AAo?$AAr?$AAr?$AAe?$AAc?$AAt?$AA?5?$AAf?$AAo?$AAr?$AAm?$AAa?$AAt?$AA?5?$AAs?$AAp?$AAe?$AAc?$AAi?$AAf?$AAi?$AAe?$AAr?$AA?$CC?$AA?0?$AA?5?$AA0@ 13185808     LIBCMTD:outputs.obj
 0002:0001a84c       ??_C@_1BI@COFBLHCG@?$AA_?$AAo?$AAu?$AAt?$AAp?$AAu?$AAt?$AA_?$AAs?$AA_?$AAl?$AA?$AA@ 1318584c     LIBCMTD:outputs.obj
 0002:0001a868       ??_C@_1GA@KAEECOIJ@?$AAf?$AA?3?$AA?2?$AAs?$AAp?$AA?2?$AAv?$AAc?$AAt?$AAo?$AAo?$AAl?$AAs?$AA?2?$AAc?$AAr?$AAt?$AA_?$AAb?$AAl?$AAd?$AA?2?$AAs?$AAe?$AAl?$AAf?$AA_?$AAx?$AA8?$AA6?$AA?2?$AAc@ 13185868     LIBCMTD:outputs.obj
 0002:0001a8c8       ??_C@_1FK@BCPANIEK@?$AA?$CI?$AA?$CC?$AAM?$AAi?$AAs?$AAs?$AAi?$AAn?$AAg?$AA?5?$AAp?$AAo?$AAs?$AAi?$AAt?$AAi?$AAo?$AAn?$AA?5?$AAi?$AAn?$AA?5?$AAt?$AAh?$AAe?$AA?5?$AAf?$AAo?$AAr?$AAm?$AAa?$AAt@ 131858c8     LIBCMTD:outputp.obj
 0002:0001a928       ??_C@_1JC@OACKELNN@?$AA_?$AAt?$AAv?$AAa?$AAl?$AAi?$AAd?$AAa?$AAt?$AAe?$AA_?$AAp?$AAa?$AAr?$AAa?$AAm?$AA_?$AAr?$AAe?$AAu?$AAs?$AAe?$AA?$CI?$AA?$CG?$AAp?$AAo?$AAs?$AA_?$AAv?$AAa?$AAl?$AAu@ 13185928     LIBCMTD:outputp.obj
 0002:0001a9c0       ??_C@_1IK@NBGDDCBN@?$AA_?$AAt?$AAv?$AAa?$AAl?$AAi?$AAd?$AAa?$AAt?$AAe?$AA_?$AAp?$AAa?$AAr?$AAa?$AAm?$AA_?$AAr?$AAe?$AAu?$AAs?$AAe?$AA?$CI?$AA?$CG?$AAp?$AAo?$AAs?$AA_?$AAv?$AAa?$AAl?$AAu@ 131859c0     LIBCMTD:outputp.obj
 0002:0001aa4c       ??_C@_1DG@GOHGNKHE@?$AAp?$AAa?$AAs?$AAs?$AA?5?$AA?$DN?$AA?$DN?$AA?5?$AAF?$AAO?$AAR?$AAM?$AAA?$AAT?$AA_?$AAO?$AAU?$AAT?$AAP?$AAU?$AAT?$AA_?$AAP?$AAA?$AAS?$AAS?$AA?$AA@ 13185a4c     LIBCMTD:outputp.obj
 0002:0001aa88       ??_C@_1IM@DNGHAPLB@?$AA_?$AAt?$AAv?$AAa?$AAl?$AAi?$AAd?$AAa?$AAt?$AAe?$AA_?$AAp?$AAa?$AAr?$AAa?$AAm?$AA_?$AAr?$AAe?$AAu?$AAs?$AAe?$AA?$CI?$AA?$CG?$AAp?$AAo?$AAs?$AA_?$AAv?$AAa?$AAl?$AAu@ 13185a88     LIBCMTD:outputp.obj
 0002:0001ab18       ??_C@_1IG@HJIMKDHC@?$AA_?$AAt?$AAv?$AAa?$AAl?$AAi?$AAd?$AAa?$AAt?$AAe?$AA_?$AAp?$AAa?$AAr?$AAa?$AAm?$AA_?$AAr?$AAe?$AAu?$AAs?$AAe?$AA?$CI?$AA?$CG?$AAp?$AAo?$AAs?$AA_?$AAv?$AAa?$AAl?$AAu@ 13185b18     LIBCMTD:outputp.obj
 0002:0001aba0       ??_C@_1IG@FDCPLALG@?$AA_?$AAt?$AAv?$AAa?$AAl?$AAi?$AAd?$AAa?$AAt?$AAe?$AA_?$AAp?$AAa?$AAr?$AAa?$AAm?$AA_?$AAr?$AAe?$AAu?$AAs?$AAe?$AA?$CI?$AA?$CG?$AAp?$AAo?$AAs?$AA_?$AAv?$AAa?$AAl?$AAu@ 13185ba0     LIBCMTD:outputp.obj
 0002:0001ac28       ??_C@_1IK@MHEDJAMK@?$AA_?$AAt?$AAv?$AAa?$AAl?$AAi?$AAd?$AAa?$AAt?$AAe?$AA_?$AAp?$AAa?$AAr?$AAa?$AAm?$AA_?$AAr?$AAe?$AAu?$AAs?$AAe?$AA?$CI?$AA?$CG?$AAp?$AAo?$AAs?$AA_?$AAv?$AAa?$AAl?$AAu@ 13185c28     LIBCMTD:outputp.obj
 0002:0001acb8       ??_C@_1EM@BNPHBBIA@?$AA?$CI?$AA?$CI?$AAt?$AAy?$AAp?$AAe?$AA_?$AAp?$AAo?$AAs?$AA?$DO?$AA?$DN?$AA0?$AA?$CJ?$AA?5?$AA?$CG?$AA?$CG?$AA?5?$AA?$CI?$AAt?$AAy?$AAp?$AAe?$AA_?$AAp?$AAo?$AAs?$AA?$DM?$AA_?$AAA?$AAR?$AAG@ 13185cb8     LIBCMTD:outputp.obj
 0002:0001ad08       ??_C@_1IK@EIEPDKHJ@?$AA_?$AAt?$AAv?$AAa?$AAl?$AAi?$AAd?$AAa?$AAt?$AAe?$AA_?$AAp?$AAa?$AAr?$AAa?$AAm?$AA_?$AAr?$AAe?$AAu?$AAs?$AAe?$AA?$CI?$AA?$CG?$AAp?$AAo?$AAs?$AA_?$AAv?$AAa?$AAl?$AAu@ 13185d08     LIBCMTD:outputp.obj
 0002:0001ad98       ??_C@_1JG@JBJBOCFB@?$AA?$CI?$AA?$CI?$AAp?$AAr?$AAe?$AAc?$AAi?$AAs?$AA_?$AAp?$AAo?$AAs?$AA?5?$AA?$DO?$AA?$DN?$AA?5?$AA0?$AA?$CJ?$AA?5?$AA?$CG?$AA?$CG?$AA?5?$AA?$CI?$AA?$CK?$AAe?$AAn?$AAd?$AA_?$AAp?$AAo?$AAs?$AA?5@ 13185d98     LIBCMTD:outputp.obj
 0002:0001ae30       ??_C@_1II@PIPIMLPF@?$AA_?$AAt?$AAv?$AAa?$AAl?$AAi?$AAd?$AAa?$AAt?$AAe?$AA_?$AAp?$AAa?$AAr?$AAa?$AAm?$AA_?$AAr?$AAe?$AAu?$AAs?$AAe?$AA?$CI?$AA?$CG?$AAp?$AAo?$AAs?$AA_?$AAv?$AAa?$AAl?$AAu@ 13185e30     LIBCMTD:outputp.obj
 0002:0001aeb8       ??_C@_1JE@NMBHOLFI@?$AA?$CI?$AA?$CI?$AAw?$AAi?$AAd?$AAt?$AAh?$AA_?$AAp?$AAo?$AAs?$AA?5?$AA?$DO?$AA?$DN?$AA?5?$AA0?$AA?$CJ?$AA?5?$AA?$CG?$AA?$CG?$AA?5?$AA?$CI?$AA?$CK?$AAe?$AAn?$AAd?$AA_?$AAp?$AAo?$AAs?$AA?5?$AA?$DN@ 13185eb8     LIBCMTD:outputp.obj
 0002:0001af50       ??_C@_1JC@PFJNKEIO@?$AA?$CI?$AA?$CI?$AAt?$AAy?$AAp?$AAe?$AA_?$AAp?$AAo?$AAs?$AA?5?$AA?$DO?$AA?$DN?$AA?5?$AA0?$AA?$CJ?$AA?5?$AA?$CG?$AA?$CG?$AA?5?$AA?$CI?$AA?$CK?$AAe?$AAn?$AAd?$AA_?$AAp?$AAo?$AAs?$AA?5?$AA?$DN?$AA?$DN@ 13185f50     LIBCMTD:outputp.obj
 0002:0001afe4       ??_C@_1BI@KANOLAMF@?$AA_?$AAo?$AAu?$AAt?$AAp?$AAu?$AAt?$AA_?$AAp?$AA_?$AAl?$AA?$AA@ 13185fe4     LIBCMTD:outputp.obj
 0002:0001affc       ??_C@_09IFKHNCOH@_sftbuf?4c?$AA@ 13185ffc     LIBCMTD:_sftbuf.obj
 0002:0001b008       ??_C@_1BE@DFMOKHKL@?$AA_?$AAs?$AAf?$AAt?$AAb?$AAu?$AAf?$AA?4?$AAc?$AA?$AA@ 13186008     LIBCMTD:_sftbuf.obj
 0002:0001b01c       ??_C@_1CO@KCKAACMI@?$AAf?$AAl?$AAa?$AAg?$AA?5?$AA?$DN?$AA?$DN?$AA?5?$AA0?$AA?5?$AA?$HM?$AA?$HM?$AA?5?$AAf?$AAl?$AAa?$AAg?$AA?5?$AA?$DN?$AA?$DN?$AA?5?$AA1?$AA?$AA@ 1318601c     LIBCMTD:_sftbuf.obj
 0002:0001b04c       ??_C@_1O@KLNKIMAP@?$AAf?$AAw?$AAr?$AAi?$AAt?$AAe?$AA?$AA@ 1318604c     LIBCMTD:fwrite.obj
 0002:0001b05c       ??_C@_1BC@JOKKJJOM@?$AAf?$AAw?$AAr?$AAi?$AAt?$AAe?$AA?4?$AAc?$AA?$AA@ 1318605c     LIBCMTD:fwrite.obj
 0002:0001b070       ??_C@_1LG@DCNDJCHK@?$AA?$CI?$AA?$CC?$AAI?$AAn?$AAc?$AAo?$AAn?$AAs?$AAi?$AAs?$AAt?$AAe?$AAn?$AAt?$AA?5?$AAS?$AAt?$AAr?$AAe?$AAa?$AAm?$AA?5?$AAC?$AAo?$AAu?$AAn?$AAt?$AA?4?$AA?5?$AAF?$AAl?$AAu@ 13186070     LIBCMTD:fwrite.obj
 0002:0001b128       ??_C@_1DC@FHEPNAPF@?$AAn?$AAu?$AAm?$AA?5?$AA?$DM?$AA?$DN?$AA?5?$AA?$CI?$AAS?$AAI?$AAZ?$AAE?$AA_?$AAM?$AAA?$AAX?$AA?5?$AA?1?$AA?5?$AAs?$AAi?$AAz?$AAe?$AA?$CJ?$AA?$AA@ 13186128     LIBCMTD:fwrite.obj
 0002:0001b15c       ??_C@_1CC@CGFEEBMC@?$AA?$CI?$AAb?$AAu?$AAf?$AAf?$AAe?$AAr?$AA?5?$AA?$CB?$AA?$DN?$AA?5?$AAN?$AAU?$AAL?$AAL?$AA?$CJ?$AA?$AA@ 1318615c     LIBCMTD:fwrite.obj
 0002:0001b180       ??_C@_1BO@JGPKCBCE@?$AA_?$AAf?$AAw?$AAr?$AAi?$AAt?$AAe?$AA_?$AAn?$AAo?$AAl?$AAo?$AAc?$AAk?$AA?$AA@ 13186180     LIBCMTD:fwrite.obj
 0002:0001b1a0       ??_C@_1BA@JGHIEKKM@?$AA_?$AAf?$AAi?$AAl?$AAe?$AAn?$AAo?$AA?$AA@ 131861a0     LIBCMTD:fileno.obj
 0002:0001b1b0       ??_C@_1BC@FBGAHIFN@?$AAf?$AAi?$AAl?$AAe?$AAn?$AAo?$AA?4?$AAc?$AA?$AA@ 131861b0     LIBCMTD:fileno.obj
 0002:0001b1c8       ??_C@_1JE@ECKHFIFP@?$AA?$CI?$AA?$CC?$AAI?$AAn?$AAv?$AAa?$AAl?$AAi?$AAd?$AA?5?$AAf?$AAi?$AAl?$AAe?$AA?5?$AAd?$AAe?$AAs?$AAc?$AAr?$AAi?$AAp?$AAt?$AAo?$AAr?$AA?4?$AA?5?$AAF?$AAi?$AAl?$AAe?$AA?5@ 131861c8     LIBCMTD:commit.obj
 0002:0001b25c       ??_C@_1DG@LNNHNFHJ@?$AA?$CI?$AA_?$AAo?$AAs?$AAf?$AAi?$AAl?$AAe?$AA?$CI?$AAf?$AAi?$AAl?$AAe?$AAd?$AAe?$AAs?$AA?$CJ?$AA?5?$AA?$CG?$AA?5?$AAF?$AAO?$AAP?$AAE?$AAN?$AA?$CJ?$AA?$AA@ 1318625c     LIBCMTD:commit.obj
 0002:0001b294       ??_C@_1BA@FLNMBBIM@?$AA_?$AAc?$AAo?$AAm?$AAm?$AAi?$AAt?$AA?$AA@ 13186294     LIBCMTD:commit.obj
 0002:0001b2a4       ??_C@_1BC@LOAFNBNC@?$AAc?$AAo?$AAm?$AAm?$AAi?$AAt?$AA?4?$AAc?$AA?$AA@ 131862a4     LIBCMTD:commit.obj
 0002:0001b2b8       ??_C@_1HC@KFLBHHBC@?$AA?$CI?$AAf?$AAi?$AAl?$AAe?$AAd?$AAe?$AAs?$AA?5?$AA?$DO?$AA?$DN?$AA?5?$AA0?$AA?5?$AA?$CG?$AA?$CG?$AA?5?$AA?$CI?$AAu?$AAn?$AAs?$AAi?$AAg?$AAn?$AAe?$AAd?$AA?$CJ?$AAf?$AAi?$AAl?$AAe?$AAd@ 131862b8     LIBCMTD:commit.obj
 0002:0001b32c       ??_C@_1CM@OKGMMMDH@?$AA?$CI?$AA_?$AAo?$AAs?$AAf?$AAi?$AAl?$AAe?$AA?$CI?$AAf?$AAh?$AA?$CJ?$AA?5?$AA?$CG?$AA?5?$AAF?$AAO?$AAP?$AAE?$AAN?$AA?$CJ?$AA?$AA@ 1318632c     LIBCMTD:write.obj
 0002:0001b358       ??_C@_1O@KOFKDHPL@?$AA_?$AAw?$AAr?$AAi?$AAt?$AAe?$AA?$AA@ 13186358     LIBCMTD:write.obj
 0002:0001b368       ??_C@_1BA@PMLNGJCB@?$AAw?$AAr?$AAi?$AAt?$AAe?$AA?4?$AAc?$AA?$AA@ 13186368     LIBCMTD:write.obj
 0002:0001b378       ??_C@_1FO@LPCLHKGE@?$AA?$CI?$AAf?$AAh?$AA?5?$AA?$DO?$AA?$DN?$AA?5?$AA0?$AA?5?$AA?$CG?$AA?$CG?$AA?5?$AA?$CI?$AAu?$AAn?$AAs?$AAi?$AAg?$AAn?$AAe?$AAd?$AA?$CJ?$AAf?$AAh?$AA?5?$AA?$DM?$AA?5?$AA?$CI?$AAu?$AAn?$AAs?$AAi@ 13186378     LIBCMTD:write.obj
 0002:0001b3d8       ??_C@_1CC@EEOLPHGO@?$AA?$CI?$AA?$CI?$AAc?$AAn?$AAt?$AA?5?$AA?$CG?$AA?5?$AA1?$AA?$CJ?$AA?5?$AA?$DN?$AA?$DN?$AA?5?$AA0?$AA?$CJ?$AA?$AA@ 131863d8     LIBCMTD:write.obj
 0002:0001b3fc       ??_C@_1BM@NCANHCIP@?$AA_?$AAw?$AAr?$AAi?$AAt?$AAe?$AA_?$AAn?$AAo?$AAl?$AAo?$AAc?$AAk?$AA?$AA@ 131863fc     LIBCMTD:write.obj
 0002:0001b418       ??_C@_1BM@KFJLMBPG@?$AA?$CI?$AAb?$AAu?$AAf?$AA?5?$AA?$CB?$AA?$DN?$AA?5?$AAN?$AAU?$AAL?$AAL?$AA?$CJ?$AA?$AA@ 13186418     LIBCMTD:write.obj
 0002:0001b434       __pDestructExceptionObject 13186434     LIBCMTD:frame.obj
 0002:0001b438       ??_C@_0O@DPKOEFFH@bad?5exception?$AA@ 13186438     LIBCMTD:frame.obj
 0002:0001b44c       ??_7bad_exception@std@@6B@ 1318644c     LIBCMTD:frame.obj
 0002:0001b454       ??_C@_1BI@JFCCCJAM@?$AAt?$AAy?$AAp?$AAn?$AAa?$AAm?$AAe?$AA?4?$AAc?$AAp?$AAp?$AA?$AA@ 13186454     LIBCMTD:typname.obj
 0002:0001b46c       ??_C@_1CI@IDCGDBOP@?$AAp?$AAN?$AAo?$AAd?$AAe?$AA?9?$AA?$DO?$AAn?$AAe?$AAx?$AAt?$AA?5?$AA?$CB?$AA?$DN?$AA?5?$AAN?$AAU?$AAL?$AAL?$AA?$AA@ 1318646c     LIBCMTD:typname.obj
 0002:0001b498       ??_C@_1JK@MLBKHELP@?$AAs?$AAt?$AAr?$AAc?$AAp?$AAy?$AA_?$AAs?$AA?5?$AA?$CI?$AA?$CI?$AAc?$AAh?$AAa?$AAr?$AA?5?$AA?$CK?$AA?$CJ?$AA?$CI?$AA?$CI?$AAt?$AAy?$AAp?$AAe?$AA_?$AAi?$AAn?$AAf?$AAo?$AA?5?$AA?$CK?$AA?$CJ@ 13186498     LIBCMTD:typname.obj
 0002:0001b534       ??_C@_1CM@OOICDMK@?$AAt?$AAy?$AAp?$AAe?$AA_?$AAi?$AAn?$AAf?$AAo?$AA?3?$AA?3?$AA_?$AAN?$AAa?$AAm?$AAe?$AA_?$AAb?$AAa?$AAs?$AAe?$AA?$AA@ 13186534     LIBCMTD:typname.obj
 0002:0001b560       ??_C@_1DO@OJJLFJPE@?$AAt?$AAy?$AAp?$AAe?$AA_?$AAi?$AAn?$AAf?$AAo?$AA?3?$AA?3?$AA_?$AAN?$AAa?$AAm?$AAe?$AA_?$AAb?$AAa?$AAs?$AAe?$AA_?$AAi?$AAn?$AAt?$AAe?$AAr?$AAn?$AAa?$AAl?$AA?$AA@ 13186560     LIBCMTD:typname.obj
 0002:0001b5a0       ??_C@_0M@EKFFODEC@MSPDB80?4DLL?$AA@ 131865a0     LIBCMTD:pdblkup.obj
 0002:0001b5ac       ??_C@_01KDCPPGHE@r?$AA@    131865ac     LIBCMTD:pdblkup.obj
 0002:0001b5b0       ??_C@_0BB@KCIACLNC@PDBOpenValidate5?$AA@ 131865b0     LIBCMTD:pdblkup.obj
 0002:0001b5c4       ??_C@_0BF@BMIHBHCA@EnvironmentDirectory?$AA@ 131865c4     LIBCMTD:pdblkup.obj
 0002:0001b5dc       ??_C@_0CN@EAEOKKOC@SOFTWARE?2Microsoft?2VisualStudio?2@ 131865dc     LIBCMTD:pdblkup.obj
 0002:0001b60c       ??_C@_0M@HLOHPNFA@RegCloseKey?$AA@ 1318660c     LIBCMTD:pdblkup.obj
 0002:0001b618       ??_C@_0BB@HHEIPGME@RegQueryValueExA?$AA@ 13186618     LIBCMTD:pdblkup.obj
 0002:0001b62c       ??_C@_0O@DCOGKJGG@RegOpenKeyExA?$AA@ 1318662c     LIBCMTD:pdblkup.obj
 0002:0001b63c       ??_C@_0N@JJPEKNFO@ADVAPI32?4DLL?$AA@ 1318663c     LIBCMTD:pdblkup.obj
 0002:0001b64c       ??_C@_0CG@PKBDLMEO@InitializeCriticalSectionAndSpin@ 1318664c     LIBCMTD:initcrit.obj
 0002:0001b674       ??_C@_0N@MDJJJHMB@kernel32?4dll?$AA@ 13186674     LIBCMTD:initcrit.obj
 0002:0001b684       ??_C@_1DK@EGKDBLND@?$AA_?$AA_?$AAc?$AAr?$AAt?$AAI?$AAn?$AAi?$AAt?$AAC?$AAr?$AAi?$AAt?$AAS?$AAe?$AAc?$AAA?$AAn?$AAd?$AAS?$AAp?$AAi?$AAn?$AAC?$AAo?$AAu?$AAn?$AAt?$AA?$AA@ 13186684     LIBCMTD:initcrit.obj
 0002:0001b6c0       ??_C@_1BG@LABPBAGA@?$AAi?$AAn?$AAi?$AAt?$AAc?$AAr?$AAi?$AAt?$AA?4?$AAc?$AA?$AA@ 131866c0     LIBCMTD:initcrit.obj
 0002:0001b6d8       ??_C@_0BC@JEAENNKH@SystemFunction036?$AA@ 131866d8     LIBCMTD:rand_s.obj
 0002:0001b6f0       ??_C@_1GA@EBEDGGGB@?$AA?$CI?$AA?$CC?$AAr?$AAa?$AAn?$AAd?$AA_?$AAs?$AA?5?$AAi?$AAs?$AA?5?$AAn?$AAo?$AAt?$AA?5?$AAa?$AAv?$AAa?$AAi?$AAl?$AAa?$AAb?$AAl?$AAe?$AA?5?$AAo?$AAn?$AA?5?$AAt?$AAh?$AAi@ 131866f0     LIBCMTD:rand_s.obj
 0002:0001b750       ??_C@_1O@IJGPPOGF@?$AAr?$AAa?$AAn?$AAd?$AA_?$AAs?$AA?$AA@ 13186750     LIBCMTD:rand_s.obj
 0002:0001b760       ??_C@_1BC@NBJGCJKM@?$AAr?$AAa?$AAn?$AAd?$AA_?$AAs?$AA?4?$AAc?$AA?$AA@ 13186760     LIBCMTD:rand_s.obj
 0002:0001b774       ??_C@_1CK@GFDNDKK@?$AA_?$AAR?$AAa?$AAn?$AAd?$AAo?$AAm?$AAV?$AAa?$AAl?$AAu?$AAe?$AA?5?$AA?$CB?$AA?$DN?$AA?5?$AAN?$AAU?$AAL?$AAL?$AA?$AA@ 13186774     LIBCMTD:rand_s.obj
 0002:0001b7a0       ??_C@_1BG@BBCDFOMA@?$AA_?$AAw?$AAo?$AAu?$AAt?$AAp?$AAu?$AAt?$AA_?$AAl?$AA?$AA@ 131867a0     LIBCMTD:woutput.obj
 0002:0001b7b8       ??_C@_1CC@MONNFDCM@?$AAv?$AAf?$AAw?$AAp?$AAr?$AAi?$AAn?$AAt?$AAf?$AA_?$AAh?$AAe?$AAl?$AAp?$AAe?$AAr?$AA?$AA@ 131867b8     LIBCMTD:vfwprint.obj
 0002:0001b7dc       ??_C@_1BG@NPPNBJFE@?$AAv?$AAf?$AAw?$AAp?$AAr?$AAi?$AAn?$AAt?$AA?4?$AAc?$AA?$AA@ 131867dc     LIBCMTD:vfwprint.obj
 0002:0001b7f4       ??_C@_1BG@BCLADFND@?$AA_?$AAf?$AAr?$AAe?$AAe?$AAb?$AAu?$AAf?$AA?4?$AAc?$AA?$AA@ 131867f4     LIBCMTD:_freebuf.obj
 0002:0001b80c       ??_C@_1BO@KIJENGPH@?$AAs?$AAt?$AAr?$AAe?$AAa?$AAm?$AA?5?$AA?$CB?$AA?$DN?$AA?5?$AAN?$AAU?$AAL?$AAL?$AA?$AA@ 1318680c     LIBCMTD:_freebuf.obj
 0002:0001b82c       ??_C@_0BK@CIDNPOGP@GetUserObjectInformationA?$AA@ 1318682c     LIBCMTD:crtmbox.obj
 0002:0001b848       ??_C@_1CC@MEIOIKJI@?$AA_?$AA_?$AAc?$AAr?$AAt?$AAM?$AAe?$AAs?$AAs?$AAa?$AAg?$AAe?$AAB?$AAo?$AAx?$AAA?$AA?$AA@ 13186848     LIBCMTD:crtmbox.obj
 0002:0001b86c       ??_C@_1BE@DEODNGG@?$AAc?$AAr?$AAt?$AAm?$AAb?$AAo?$AAx?$AA?4?$AAc?$AA?$AA@ 1318686c     LIBCMTD:crtmbox.obj
 0002:0001b880       ??_C@_0M@CHKKJDAI@MessageBoxA?$AA@ 13186880     LIBCMTD:crtmbox.obj
 0002:0001b88c       ??_C@_0L@NDEGIDAG@USER32?4DLL?$AA@ 1318688c     LIBCMTD:crtmbox.obj
 0002:0001b898       ??_C@_1BA@DNOHIGNM@?$AAf?$AAp?$AAr?$AAi?$AAn?$AAt?$AAf?$AA?$AA@ 13186898     LIBCMTD:fprintf.obj
 0002:0001b8a8       ??_C@_1BE@NEFIHEIC@?$AAf?$AAp?$AAr?$AAi?$AAn?$AAt?$AAf?$AA?4?$AAc?$AA?$AA@ 131868a8     LIBCMTD:fprintf.obj
 0002:0001b8bc       ??_C@_1BK@ONMFGLDB@?$AA_?$AAw?$AAo?$AAu?$AAt?$AAp?$AAu?$AAt?$AA_?$AAs?$AA_?$AAl?$AA?$AA@ 131868bc     LIBCMTD:woutputs.obj
 0002:0001b8d8       ??_C@_1BK@GDEKGMNC@?$AA_?$AAw?$AAo?$AAu?$AAt?$AAp?$AAu?$AAt?$AA_?$AAp?$AA_?$AAl?$AA?$AA@ 131868d8     LIBCMTD:woutputp.obj
 0002:0001b8f4       ??_C@_1BE@NDMJHJJG@?$AAs?$AAt?$AAr?$AAn?$AAc?$AAp?$AAy?$AA_?$AAs?$AA?$AA@ 131868f4     LIBCMTD:strncpy_s.obj
 0002:0001b908       ??_C@_1GA@EDILLMMN@?$AAF?$AA?3?$AA?2?$AAS?$AAP?$AA?2?$AAv?$AAc?$AAt?$AAo?$AAo?$AAl?$AAs?$AA?2?$AAc?$AAr?$AAt?$AA_?$AAb?$AAl?$AAd?$AA?2?$AAS?$AAE?$AAL?$AAF?$AA_?$AAX?$AA8?$AA6?$AA?2?$AAc@ 13186908     LIBCMTD:w_loc.obj
 0002:0001b968       ??_C@_1FE@KNPCCODH@?$AA?$CI?$AA?$CC?$AAC?$AAo?$AAr?$AAr?$AAu?$AAp?$AAt?$AAe?$AAd?$AA?5?$AAp?$AAo?$AAi?$AAn?$AAt?$AAe?$AAr?$AA?5?$AAp?$AAa?$AAs?$AAs?$AAe?$AAd?$AA?5?$AAt?$AAo?$AA?5?$AA_?$AAf@ 13186968     LIBCMTD:w_loc.obj
 0002:0001b9bc       ??_C@_1BE@KHFBJMNM@?$AA_?$AAl?$AAs?$AAe?$AAe?$AAk?$AAi?$AA6?$AA4?$AA?$AA@ 131869bc     LIBCMTD:lseeki64.obj
 0002:0001b9d0       ??_C@_1BG@NGOGNEMB@?$AAl?$AAs?$AAe?$AAe?$AAk?$AAi?$AA6?$AA4?$AA?4?$AAc?$AA?$AA@ 131869d0     LIBCMTD:lseeki64.obj
 0002:0001b9e8       ??_C@_09PKAEMGHJ@_getbuf?4c?$AA@ 131869e8     LIBCMTD:_getbuf.obj
 0002:0001b9f4       ??_C@_1BE@DJANJIEH@?$AA_?$AAg?$AAe?$AAt?$AAb?$AAu?$AAf?$AA?4?$AAc?$AA?$AA@ 131869f4     LIBCMTD:_getbuf.obj
 0002:0001ba08       ??_C@_1BA@LEBDGIHM@?$AA_?$AAi?$AAs?$AAa?$AAt?$AAt?$AAy?$AA?$AA@ 13186a08     LIBCMTD:isatty.obj
 0002:0001ba18       ??_C@_1BC@BPJEKAMC@?$AAi?$AAs?$AAa?$AAt?$AAt?$AAy?$AA?4?$AAc?$AA?$AA@ 13186a18     LIBCMTD:isatty.obj
 0002:0001ba2c       ??_C@_1O@GKDHFACN@?$AAp?$AAr?$AAi?$AAn?$AAt?$AAf?$AA?$AA@ 13186a2c     LIBCMTD:printf.obj
 0002:0001ba3c       ??_C@_1BC@BHLBENIK@?$AAp?$AAr?$AAi?$AAn?$AAt?$AAf?$AA?4?$AAc?$AA?$AA@ 13186a3c     LIBCMTD:printf.obj
 0002:0001ba50       ??_C@_1CA@CBMNPEO@?$AAs?$AAi?$AAz?$AAe?$AAI?$AAn?$AAB?$AAy?$AAt?$AAe?$AAs?$AA?5?$AA?$DO?$AA?5?$AA0?$AA?$AA@ 13186a50     LIBCMTD:wctomb.obj
 0002:0001ba70       ??_C@_1BI@IEADNOHF@?$AA_?$AAw?$AAc?$AAt?$AAo?$AAm?$AAb?$AA_?$AAs?$AA_?$AAl?$AA?$AA@ 13186a70     LIBCMTD:wctomb.obj
 0002:0001ba88       ??_C@_1BC@KLMMEMGB@?$AAw?$AAc?$AAt?$AAo?$AAm?$AAb?$AA?4?$AAc?$AA?$AA@ 13186a88     LIBCMTD:wctomb.obj
 0002:0001ba9c       ??_C@_1CO@HFMIILNF@?$AAs?$AAi?$AAz?$AAe?$AAI?$AAn?$AAB?$AAy?$AAt?$AAe?$AAs?$AA?5?$AA?$DM?$AA?$DN?$AA?5?$AAI?$AAN?$AAT?$AA_?$AAM?$AAA?$AAX?$AA?$AA@ 13186a9c     LIBCMTD:wctomb.obj
 0002:0001bacc       ??_C@_13NOLLCAOD@?$AA?$AA?$AA?$AA@ 13186acc     LIBCMTD:a_map.obj
 0002:0001bad0       ___newctype                13186ad0     LIBCMTD:ctype.obj
 0002:0001bdd0       __wctype                   13186dd0     LIBCMTD:ctype.obj
 0002:0001bfd8       ___newclmap                13186fd8     LIBCMTD:ctype.obj
 0002:0001c158       ___newcumap                13187158     LIBCMTD:ctype.obj
 0002:0001c2d8       ??_C@_1BG@HHBAFOPB@?$AAi?$AAn?$AAi?$AAt?$AAt?$AAi?$AAm?$AAe?$AA?4?$AAc?$AA?$AA@ 131872d8     LIBCMTD:inittime.obj
 0002:0001c2f0       ??_C@_1EE@FDHCFDHN@?$AAp?$AAl?$AAo?$AAc?$AAi?$AA?9?$AA?$DO?$AAl?$AAc?$AA_?$AAt?$AAi?$AAm?$AAe?$AA_?$AAc?$AAu?$AAr?$AAr?$AA?9?$AA?$DO?$AAr?$AAe?$AAf?$AAc?$AAo?$AAu?$AAn?$AAt?$AA?5?$AA?$DO?$AA?5@ 131872f0     LIBCMTD:inittime.obj
 0002:0001c334       ??_C@_0L@IOJADHBB@inittime?4c?$AA@ 13187334     LIBCMTD:inittime.obj
 0002:0001c340       ??_C@_1BE@EAFFGEEO@?$AAi?$AAn?$AAi?$AAt?$AAn?$AAu?$AAm?$AA?4?$AAc?$AA?$AA@ 13187340     LIBCMTD:initnum.obj
 0002:0001c354       ??_C@_1DM@IFKAINNE@?$AAp?$AAl?$AAo?$AAc?$AAi?$AA?9?$AA?$DO?$AAl?$AAc?$AAo?$AAn?$AAv?$AA_?$AAn?$AAu?$AAm?$AA_?$AAr?$AAe?$AAf?$AAc?$AAo?$AAu?$AAn?$AAt?$AA?5?$AA?$DO?$AA?5?$AA0?$AA?$AA@ 13187354     LIBCMTD:initnum.obj
 0002:0001c390       ??_C@_09MECGNAGI@initnum?4c?$AA@ 13187390     LIBCMTD:initnum.obj
 0002:0001c39c       ??_C@_1BE@IJMIKAHM@?$AAi?$AAn?$AAi?$AAt?$AAm?$AAo?$AAn?$AA?4?$AAc?$AA?$AA@ 1318739c     LIBCMTD:initmon.obj
 0002:0001c3b0       ??_C@_1DM@GKAPAMDO@?$AAp?$AAl?$AAo?$AAc?$AAi?$AA?9?$AA?$DO?$AAl?$AAc?$AAo?$AAn?$AAv?$AA_?$AAm?$AAo?$AAn?$AA_?$AAr?$AAe?$AAf?$AAc?$AAo?$AAu?$AAn?$AAt?$AA?5?$AA?$DO?$AA?5?$AA0?$AA?$AA@ 131873b0     LIBCMTD:initmon.obj
 0002:0001c3ec       ??_C@_09HKFHICAL@initmon?4c?$AA@ 131873ec     LIBCMTD:initmon.obj
 0002:0001c3f8       ??_C@_1DG@NMBGBDM@?$AAp?$AAl?$AAo?$AAc?$AAi?$AA?9?$AA?$DO?$AAc?$AAt?$AAy?$AAp?$AAe?$AA1?$AA_?$AAr?$AAe?$AAf?$AAc?$AAo?$AAu?$AAn?$AAt?$AA?5?$AA?$DO?$AA?5?$AA0?$AA?$AA@ 131873f8     LIBCMTD:initctyp.obj
 0002:0001c430       ??_C@_1BG@PMMGDKJC@?$AAi?$AAn?$AAi?$AAt?$AAc?$AAt?$AAy?$AAp?$AA?4?$AAc?$AA?$AA@ 13187430     LIBCMTD:initctyp.obj
 0002:0001c448       ??_C@_0L@GBAGBCPL@initctyp?4c?$AA@ 13187448     LIBCMTD:initctyp.obj
 0002:0001c454       ??_C@_08JCCMCCIL@HH?3mm?3ss?$AA@ 13187454     LIBCMTD:strftime.obj
 0002:0001c460       ??_C@_0BE@CKGJFCPC@dddd?0?5MMMM?5dd?0?5yyyy?$AA@ 13187460     LIBCMTD:strftime.obj
 0002:0001c474       ??_C@_08BPBNCDIB@MM?1dd?1yy?$AA@ 13187474     LIBCMTD:strftime.obj
 0002:0001c480       ??_C@_02CJNFDJBF@PM?$AA@   13187480     LIBCMTD:strftime.obj
 0002:0001c484       ??_C@_02DEDBPAFC@AM?$AA@   13187484     LIBCMTD:strftime.obj
 0002:0001c488       ??_C@_08EDHMEBNP@December?$AA@ 13187488     LIBCMTD:strftime.obj
 0002:0001c494       ??_C@_08HCHEGEOA@November?$AA@ 13187494     LIBCMTD:strftime.obj
 0002:0001c4a0       ??_C@_07JJNFCEND@October?$AA@ 131874a0     LIBCMTD:strftime.obj
 0002:0001c4a8       ??_C@_09BHHEALKD@September?$AA@ 131874a8     LIBCMTD:strftime.obj
 0002:0001c4b4       ??_C@_06LBBHFDDG@August?$AA@ 131874b4     LIBCMTD:strftime.obj
 0002:0001c4bc       ??_C@_04MIEPOIFP@July?$AA@ 131874bc     LIBCMTD:strftime.obj
 0002:0001c4c4       ??_C@_04CNLMGBGM@June?$AA@ 131874c4     LIBCMTD:strftime.obj
 0002:0001c4cc       ??_C@_05DMJDNLEJ@April?$AA@ 131874cc     LIBCMTD:strftime.obj
 0002:0001c4d4       ??_C@_05HPCKOFNC@March?$AA@ 131874d4     LIBCMTD:strftime.obj
 0002:0001c4dc       ??_C@_08GNJGEPFN@February?$AA@ 131874dc     LIBCMTD:strftime.obj
 0002:0001c4e8       ??_C@_07CGJPFGJA@January?$AA@ 131874e8     LIBCMTD:strftime.obj
 0002:0001c4f0       ??_C@_03MKABNOCG@Dec?$AA@  131874f0     LIBCMTD:strftime.obj
 0002:0001c4f4       ??_C@_03JPJOFNIA@Nov?$AA@  131874f4     LIBCMTD:strftime.obj
 0002:0001c4f8       ??_C@_03BMAOKBAD@Oct?$AA@  131874f8     LIBCMTD:strftime.obj
 0002:0001c4fc       ??_C@_03GGCAPAJC@Sep?$AA@  131874fc     LIBCMTD:strftime.obj
 0002:0001c500       ??_C@_03IFJFEIGA@Aug?$AA@  13187500     LIBCMTD:strftime.obj
 0002:0001c504       ??_C@_03LBGABGKK@Jul?$AA@  13187504     LIBCMTD:strftime.obj
 0002:0001c508       ??_C@_03IDFGHECI@Jun?$AA@  13187508     LIBCMTD:strftime.obj
 0002:0001c50c       ??_C@_03CNMDKL@May?$AA@    1318750c     LIBCMTD:strftime.obj
 0002:0001c510       ??_C@_03LEOLGMJP@Apr?$AA@  13187510     LIBCMTD:strftime.obj
 0002:0001c514       ??_C@_03ODNJBKGA@Mar?$AA@  13187514     LIBCMTD:strftime.obj
 0002:0001c518       ??_C@_03HJBDCHOM@Feb?$AA@  13187518     LIBCMTD:strftime.obj
 0002:0001c51c       ??_C@_03JIHJHPIE@Jan?$AA@  1318751c     LIBCMTD:strftime.obj
 0002:0001c520       ??_C@_08INBOOONO@Saturday?$AA@ 13187520     LIBCMTD:strftime.obj
 0002:0001c52c       ??_C@_06JECMNKMI@Friday?$AA@ 1318752c     LIBCMTD:strftime.obj
 0002:0001c534       ??_C@_08HACCIKIA@Thursday?$AA@ 13187534     LIBCMTD:strftime.obj
 0002:0001c540       ??_C@_09DLIGFAKA@Wednesday?$AA@ 13187540     LIBCMTD:strftime.obj
 0002:0001c54c       ??_C@_07BAAGCFCM@Tuesday?$AA@ 1318754c     LIBCMTD:strftime.obj
 0002:0001c554       ??_C@_06JLEDEDGH@Monday?$AA@ 13187554     LIBCMTD:strftime.obj
 0002:0001c55c       ??_C@_06OOPIFAJ@Sunday?$AA@ 1318755c     LIBCMTD:strftime.obj
 0002:0001c564       ??_C@_03FEFJNEK@Sat?$AA@   13187564     LIBCMTD:strftime.obj
 0002:0001c568       ??_C@_03IDIOELNC@Fri?$AA@  13187568     LIBCMTD:strftime.obj
 0002:0001c56c       ??_C@_03IOFIKPDN@Thu?$AA@  1318756c     LIBCMTD:strftime.obj
 0002:0001c570       ??_C@_03MHOMLAJA@Wed?$AA@  13187570     LIBCMTD:strftime.obj
 0002:0001c574       ??_C@_03NAGEINEP@Tue?$AA@  13187574     LIBCMTD:strftime.obj
 0002:0001c578       ??_C@_03PDAGKDH@Mon?$AA@   13187578     LIBCMTD:strftime.obj
 0002:0001c57c       ??_C@_03KOEHGMDN@Sun?$AA@  1318757c     LIBCMTD:strftime.obj
 0002:0001c580       ??_C@_1FM@LPEPDBJF@?$AAs?$AAt?$AAr?$AAc?$AAp?$AAy?$AA_?$AAs?$AA?$CI?$AAs?$AA?0?$AA?5?$AA?$CI?$AAl?$AAe?$AAn?$AA?5?$AA?$CL?$AA?5?$AA1?$AA?$CJ?$AA?5?$AA?9?$AA?5?$AA?$CI?$AAs?$AA?5?$AA?9?$AA?5?$AAp?$AA?$CJ?$AA?0@ 13187580     LIBCMTD:strftime.obj
 0002:0001c5e0       ??_C@_1GG@NAGHPCAA@?$AAs?$AAt?$AAr?$AAc?$AAp?$AAy?$AA_?$AAs?$AA?$CI?$AAs?$AA?0?$AA?5?$AA?$CI?$AAl?$AAe?$AAn?$AA?5?$AA?$CL?$AA?5?$AA1?$AA?$CJ?$AA?5?$AA?9?$AA?5?$AA?$CI?$AAs?$AA?5?$AA?9?$AA?5?$AAp?$AA?$CJ?$AA?0@ 131875e0     LIBCMTD:strftime.obj
 0002:0001c648       ??_C@_1BG@LGACIFJI@?$AA_?$AAG?$AAe?$AAt?$AAd?$AAa?$AAy?$AAs?$AA_?$AAl?$AA?$AA@ 13187648     LIBCMTD:strftime.obj
 0002:0001c660       ??_C@_1BG@EMNEMEKA@?$AAs?$AAt?$AAr?$AAf?$AAt?$AAi?$AAm?$AAe?$AA?4?$AAc?$AA?$AA@ 13187660     LIBCMTD:strftime.obj
 0002:0001c678       ??_C@_0L@OCEOFAIF@strftime?4c?$AA@ 13187678     LIBCMTD:strftime.obj
 0002:0001c688       ??_C@_1FO@IFFKPIEL@?$AAs?$AAt?$AAr?$AAc?$AAp?$AAy?$AA_?$AAs?$AA?$CI?$AAs?$AA?0?$AA?5?$AA?$CI?$AAl?$AAe?$AAn?$AA?5?$AA?$CL?$AA?5?$AA1?$AA?$CJ?$AA?5?$AA?9?$AA?5?$AA?$CI?$AAs?$AA?5?$AA?9?$AA?5?$AAp?$AA?$CJ?$AA?0@ 13187688     LIBCMTD:strftime.obj
 0002:0001c6e8       ??_C@_1GI@LNJDDNLK@?$AAs?$AAt?$AAr?$AAc?$AAp?$AAy?$AA_?$AAs?$AA?$CI?$AAs?$AA?0?$AA?5?$AA?$CI?$AAl?$AAe?$AAn?$AA?5?$AA?$CL?$AA?5?$AA1?$AA?$CJ?$AA?5?$AA?9?$AA?5?$AA?$CI?$AAs?$AA?5?$AA?9?$AA?5?$AAp?$AA?$CJ?$AA?0@ 131876e8     LIBCMTD:strftime.obj
 0002:0001c750       ??_C@_1BK@IDMELNCB@?$AA_?$AAG?$AAe?$AAt?$AAm?$AAo?$AAn?$AAt?$AAh?$AAs?$AA_?$AAl?$AA?$AA@ 13187750     LIBCMTD:strftime.obj
 0002:0001c770       ??_C@_1FG@CJBIADLJ@?$AAs?$AAt?$AAr?$AAc?$AAp?$AAy?$AA_?$AAs?$AA?$CI?$AAs?$AA?0?$AA?5?$AAl?$AAe?$AAn?$AA?5?$AA?9?$AA?5?$AA?$CI?$AAs?$AA?5?$AA?9?$AA?5?$AAp?$AA?$CJ?$AA?0?$AA?5?$AAp?$AAt?$AA?9?$AA?$DO?$AAw@ 13187770     LIBCMTD:strftime.obj
 0002:0001c7c8       ??_C@_1FI@PPIHCJGH@?$AAs?$AAt?$AAr?$AAc?$AAp?$AAy?$AA_?$AAs?$AA?$CI?$AAs?$AA?0?$AA?5?$AAl?$AAe?$AAn?$AA?5?$AA?9?$AA?5?$AA?$CI?$AAs?$AA?5?$AA?9?$AA?5?$AAp?$AA?$CJ?$AA?0?$AA?5?$AAp?$AAt?$AA?9?$AA?$DO?$AAw@ 131877c8     LIBCMTD:strftime.obj
 0002:0001c820       ??_C@_1FI@GDNOPCGD@?$AAs?$AAt?$AAr?$AAc?$AAp?$AAy?$AA_?$AAs?$AA?$CI?$AAs?$AA?0?$AA?5?$AAl?$AAe?$AAn?$AA?5?$AA?9?$AA?5?$AA?$CI?$AAs?$AA?5?$AA?9?$AA?5?$AAp?$AA?$CJ?$AA?0?$AA?5?$AAp?$AAt?$AA?9?$AA?$DO?$AAw@ 13187820     LIBCMTD:strftime.obj
 0002:0001c878       ??_C@_1FA@MEHIJEIL@?$AAs?$AAt?$AAr?$AAc?$AAp?$AAy?$AA_?$AAs?$AA?$CI?$AAs?$AA?0?$AA?5?$AAl?$AAe?$AAn?$AA?5?$AA?9?$AA?5?$AA?$CI?$AAs?$AA?5?$AA?9?$AA?5?$AAp?$AA?$CJ?$AA?0?$AA?5?$AAp?$AAt?$AA?9?$AA?$DO?$AAa@ 13187878     LIBCMTD:strftime.obj
 0002:0001c8c8       ??_C@_1FA@INCJEBF@?$AAs?$AAt?$AAr?$AAc?$AAp?$AAy?$AA_?$AAs?$AA?$CI?$AAs?$AA?0?$AA?5?$AAl?$AAe?$AAn?$AA?5?$AA?9?$AA?5?$AA?$CI?$AAs?$AA?5?$AA?9?$AA?5?$AAp?$AA?$CJ?$AA?0?$AA?5?$AAp?$AAt?$AA?9?$AA?$DO?$AAa@ 131878c8     LIBCMTD:strftime.obj
 0002:0001c918       ??_C@_1FC@BEAPAEGE@?$AAs?$AAt?$AAr?$AAc?$AAp?$AAy?$AA_?$AAs?$AA?$CI?$AAs?$AA?0?$AA?5?$AAl?$AAe?$AAn?$AA?5?$AA?9?$AA?5?$AA?$CI?$AAs?$AA?5?$AA?9?$AA?5?$AAp?$AA?$CJ?$AA?0?$AA?5?$AAp?$AAt?$AA?9?$AA?$DO?$AAm@ 13187918     LIBCMTD:strftime.obj
 0002:0001c970       ??_C@_1FM@CHHONFED@?$AAs?$AAt?$AAr?$AAc?$AAp?$AAy?$AA_?$AAs?$AA?$CI?$AAs?$AA?0?$AA?5?$AAl?$AAe?$AAn?$AA?5?$AA?9?$AA?5?$AA?$CI?$AAs?$AA?5?$AA?9?$AA?5?$AAp?$AA?$CJ?$AA?0?$AA?5?$AAp?$AAt?$AA?9?$AA?$DO?$AAm@ 13187970     LIBCMTD:strftime.obj
 0002:0001c9d0       ??_C@_1FA@EBHJJADL@?$AAs?$AAt?$AAr?$AAc?$AAp?$AAy?$AA_?$AAs?$AA?$CI?$AAs?$AA?0?$AA?5?$AAl?$AAe?$AAn?$AA?5?$AA?9?$AA?5?$AA?$CI?$AAs?$AA?5?$AA?9?$AA?5?$AAp?$AA?$CJ?$AA?0?$AA?5?$AAp?$AAt?$AA?9?$AA?$DO?$AAw@ 131879d0     LIBCMTD:strftime.obj
 0002:0001ca20       ??_C@_1FK@ODMKEFLD@?$AAs?$AAt?$AAr?$AAc?$AAp?$AAy?$AA_?$AAs?$AA?$CI?$AAs?$AA?0?$AA?5?$AAl?$AAe?$AAn?$AA?5?$AA?9?$AA?5?$AA?$CI?$AAs?$AA?5?$AA?9?$AA?5?$AAp?$AA?$CJ?$AA?0?$AA?5?$AAp?$AAt?$AA?9?$AA?$DO?$AAw@ 13187a20     LIBCMTD:strftime.obj
 0002:0001ca7c       ??_C@_1BK@MJNHIAGO@?$AA_?$AAG?$AAe?$AAt?$AAt?$AAn?$AAa?$AAm?$AAe?$AAs?$AA_?$AAl?$AA?$AA@ 13187a7c     LIBCMTD:strftime.obj
 0002:0001ca98       ??_C@_1M@HCOOECOK@?$AAF?$AAA?$AAL?$AAS?$AAE?$AA?$AA@ 13187a98     LIBCMTD:strftime.obj
 0002:0001caa8       ??_C@_1HC@JGDOBCNK@?$AA?$CI?$AA?$CC?$AAI?$AAn?$AAv?$AAa?$AAl?$AAi?$AAd?$AA?5?$AAM?$AAB?$AAC?$AAS?$AA?5?$AAc?$AAh?$AAa?$AAr?$AAa?$AAc?$AAt?$AAe?$AAr?$AA?5?$AAs?$AAe?$AAq?$AAu?$AAe?$AAn?$AAc@ 13187aa8     LIBCMTD:strftime.obj
 0002:0001cb1c       ??_C@_1BG@CCBNLOOI@?$AAt?$AAi?$AAm?$AAe?$AAp?$AAt?$AAr?$AA?$CB?$AA?$DN?$AA0?$AA?$AA@ 13187b1c     LIBCMTD:strftime.obj
 0002:0001cb34       ??_C@_1CG@MHIOFJLE@?$AA?$CI?$AA?5?$AAf?$AAo?$AAr?$AAm?$AAa?$AAt?$AA?5?$AA?$CB?$AA?$DN?$AA?5?$AAN?$AAU?$AAL?$AAL?$AA?5?$AA?$CJ?$AA?$AA@ 13187b34     LIBCMTD:strftime.obj
 0002:0001cb5c       ??_C@_1CC@IHEJKGMG@?$AA?$CI?$AA?5?$AAm?$AAa?$AAx?$AAs?$AAi?$AAz?$AAe?$AA?5?$AA?$CB?$AA?$DN?$AA?5?$AA0?$AA?5?$AA?$CJ?$AA?$AA@ 13187b5c     LIBCMTD:strftime.obj
 0002:0001cb80       ??_C@_1BI@ONBMGNNA@?$AA_?$AAS?$AAt?$AAr?$AAf?$AAt?$AAi?$AAm?$AAe?$AA_?$AAl?$AA?$AA@ 13187b80     LIBCMTD:strftime.obj
 0002:0001cb98       ??_C@_1CG@MPKJHDAA@?$AA?$CI?$AA?5?$AAs?$AAt?$AAr?$AAi?$AAn?$AAg?$AA?5?$AA?$CB?$AA?$DN?$AA?5?$AAN?$AAU?$AAL?$AAL?$AA?5?$AA?$CJ?$AA?$AA@ 13187b98     LIBCMTD:strftime.obj
 0002:0001cbc0       ??_C@_1EG@JNJKHKFI@?$AA?$CI?$AA?5?$AA?$CC?$AAI?$AAn?$AAv?$AAa?$AAl?$AAi?$AAd?$AA?5?$AAf?$AAo?$AAr?$AAm?$AAa?$AAt?$AA?5?$AAd?$AAi?$AAr?$AAe?$AAc?$AAt?$AAi?$AAv?$AAe?$AA?$CC?$AA?5?$AA?0?$AA?5?$AA0@ 13187bc0     LIBCMTD:strftime.obj
 0002:0001cc08       ??_C@_1HM@LBNGKIAD@?$AA?$CI?$AA?5?$AAt?$AAi?$AAm?$AAe?$AAp?$AAt?$AAr?$AA?9?$AA?$DO?$AAt?$AAm?$AA_?$AAy?$AAe?$AAa?$AAr?$AA?5?$AA?$DO?$AA?$DN?$AA?5?$AA?9?$AA1?$AA9?$AA0?$AA0?$AA?5?$AA?$CJ?$AA?5?$AA?$CG?$AA?$CG@ 13187c08     LIBCMTD:strftime.obj
 0002:0001cc84       ??_C@_1DC@NMCFBMJP@?$AA?$CI?$AA?5?$AAt?$AAi?$AAm?$AAe?$AAp?$AAt?$AAr?$AA?9?$AA?$DO?$AAt?$AAm?$AA_?$AAy?$AAe?$AAa?$AAr?$AA?5?$AA?$DO?$AA?$DN?$AA0?$AA?5?$AA?$CJ?$AA?$AA@ 13187c84     LIBCMTD:strftime.obj
 0002:0001ccb8       ??_C@_1HC@HLKHIKOB@?$AA?$CI?$AA?5?$AA?$CI?$AA?5?$AAt?$AAi?$AAm?$AAe?$AAp?$AAt?$AAr?$AA?9?$AA?$DO?$AAt?$AAm?$AA_?$AAs?$AAe?$AAc?$AA?5?$AA?$DO?$AA?$DN?$AA0?$AA?5?$AA?$CJ?$AA?5?$AA?$CG?$AA?$CG?$AA?5?$AA?$CI?$AA?5?$AAt@ 13187cb8     LIBCMTD:strftime.obj
 0002:0001cd30       ??_C@_1HC@IGKDPPHL@?$AA?$CI?$AA?5?$AA?$CI?$AA?5?$AAt?$AAi?$AAm?$AAe?$AAp?$AAt?$AAr?$AA?9?$AA?$DO?$AAt?$AAm?$AA_?$AAm?$AAi?$AAn?$AA?5?$AA?$DO?$AA?$DN?$AA0?$AA?5?$AA?$CJ?$AA?5?$AA?$CG?$AA?$CG?$AA?5?$AA?$CI?$AA?5?$AAt@ 13187d30     LIBCMTD:strftime.obj
 0002:0001cda8       ??_C@_1HI@HHCJCPE@?$AA?$CI?$AA?5?$AA?$CI?$AA?5?$AAt?$AAi?$AAm?$AAe?$AAp?$AAt?$AAr?$AA?9?$AA?$DO?$AAt?$AAm?$AA_?$AAy?$AAd?$AAa?$AAy?$AA?5?$AA?$DO?$AA?$DN?$AA0?$AA?5?$AA?$CJ?$AA?5?$AA?$CG?$AA?$CG?$AA?5?$AA?$CI?$AA?5@ 13187da8     LIBCMTD:strftime.obj
 0002:0001ce20       ??_C@_1HG@KCGGFLNI@?$AA?$CI?$AA?5?$AA?$CI?$AA?5?$AAt?$AAi?$AAm?$AAe?$AAp?$AAt?$AAr?$AA?9?$AA?$DO?$AAt?$AAm?$AA_?$AAh?$AAo?$AAu?$AAr?$AA?5?$AA?$DO?$AA?$DN?$AA0?$AA?5?$AA?$CJ?$AA?5?$AA?$CG?$AA?$CG?$AA?5?$AA?$CI?$AA?5@ 13187e20     LIBCMTD:strftime.obj
 0002:0001ce98       ??_C@_1HG@NFHHOAD@?$AA?$CI?$AA?5?$AA?$CI?$AA?5?$AAt?$AAi?$AAm?$AAe?$AAp?$AAt?$AAr?$AA?9?$AA?$DO?$AAt?$AAm?$AA_?$AAm?$AAd?$AAa?$AAy?$AA?5?$AA?$DO?$AA?$DN?$AA1?$AA?5?$AA?$CJ?$AA?5?$AA?$CG?$AA?$CG?$AA?5?$AA?$CI?$AA?5@ 13187e98     LIBCMTD:strftime.obj
 0002:0001cf10       ??_C@_1HC@OOAMILFB@?$AA?$CI?$AA?5?$AA?$CI?$AA?5?$AAt?$AAi?$AAm?$AAe?$AAp?$AAt?$AAr?$AA?9?$AA?$DO?$AAt?$AAm?$AA_?$AAm?$AAo?$AAn?$AA?5?$AA?$DO?$AA?$DN?$AA0?$AA?5?$AA?$CJ?$AA?5?$AA?$CG?$AA?$CG?$AA?5?$AA?$CI?$AA?5?$AAt@ 13187f10     LIBCMTD:strftime.obj
 0002:0001cf84       ??_C@_1BI@HBKPAJH@?$AA_?$AAe?$AAx?$AAp?$AAa?$AAn?$AAd?$AAt?$AAi?$AAm?$AAe?$AA?$AA@ 13187f84     LIBCMTD:strftime.obj
 0002:0001cfa0       ??_C@_1HE@BFLEOKFO@?$AA?$CI?$AA?5?$AA?$CI?$AA?5?$AAt?$AAi?$AAm?$AAe?$AAp?$AAt?$AAr?$AA?9?$AA?$DO?$AAt?$AAm?$AA_?$AAw?$AAd?$AAa?$AAy?$AA?5?$AA?$DO?$AA?$DN?$AA0?$AA?5?$AA?$CJ?$AA?5?$AA?$CG?$AA?$CG?$AA?5?$AA?$CI?$AA?5@ 13187fa0     LIBCMTD:strftime.obj
 0002:0001d018       ??_C@_1HG@PAEENAPO@?$AA?$CI?$AA?$CC?$AAI?$AAn?$AAv?$AAa?$AAl?$AAi?$AAd?$AA?5?$AAM?$AAB?$AAC?$AAS?$AA?5?$AAc?$AAh?$AAa?$AAr?$AAa?$AAc?$AAt?$AAe?$AAr?$AA?5?$AAs?$AAe?$AAq?$AAu?$AAe?$AAn?$AAc@ 13188018     LIBCMTD:strftime.obj
 0002:0001d090       ??_C@_1IE@EIDABBDG@?$AA?$CI?$AA?$CC?$AAI?$AAn?$AAv?$AAa?$AAl?$AAi?$AAd?$AA?5?$AAM?$AAB?$AAC?$AAS?$AA?5?$AAc?$AAh?$AAa?$AAr?$AAa?$AAc?$AAt?$AAe?$AAr?$AA?5?$AAs?$AAe?$AAq?$AAu?$AAe?$AAn?$AAc@ 13188090     LIBCMTD:strftime.obj
 0002:0001d114       ??_C@_03EBAPMIKO@a?1p?$AA@ 13188114     LIBCMTD:strftime.obj
 0002:0001d118       ??_C@_05JAMEPDIN@am?1pm?$AA@ 13188118     LIBCMTD:strftime.obj
 0002:0001d120       ??_C@_0O@FMJNFNKE@united?9states?$AA@ 13188120     LIBCMTD:getqloc.obj
 0002:0001d130       ??_C@_0P@NDHFFKCA@united?9kingdom?$AA@ 13188130     LIBCMTD:getqloc.obj
 0002:0001d140       ??_C@_0BC@HHDADLGF@trinidad?5?$CG?5tobago?$AA@ 13188140     LIBCMTD:getqloc.obj
 0002:0001d154       ??_C@_0M@IOAEBDAC@south?9korea?$AA@ 13188154     LIBCMTD:getqloc.obj
 0002:0001d160       ??_C@_0N@FIELFKIJ@south?9africa?$AA@ 13188160     LIBCMTD:getqloc.obj
 0002:0001d170       ??_C@_0M@OPNDHCMC@south?5korea?$AA@ 13188170     LIBCMTD:getqloc.obj
 0002:0001d17c       ??_C@_0N@MDEOEPFI@south?5africa?$AA@ 1318817c     LIBCMTD:getqloc.obj
 0002:0001d18c       ??_C@_06FKAPCJLB@slovak?$AA@ 1318818c     LIBCMTD:getqloc.obj
 0002:0001d194       ??_C@_0M@EFJANOAL@puerto?9rico?$AA@ 13188194     LIBCMTD:getqloc.obj
 0002:0001d1a0       ??_C@_08PGOJKDAI@pr?9china?$AA@ 131881a0     LIBCMTD:getqloc.obj
 0002:0001d1ac       ??_C@_08JHDOMCMI@pr?5china?$AA@ 131881ac     LIBCMTD:getqloc.obj
 0002:0001d1b8       ??_C@_02JHCHFBLL@nz?$AA@   131881b8     LIBCMTD:getqloc.obj
 0002:0001d1bc       ??_C@_0M@LINHDHKP@new?9zealand?$AA@ 131881bc     LIBCMTD:getqloc.obj
 0002:0001d1c8       ??_C@_09IIIPPBDB@hong?9kong?$AA@ 131881c8     LIBCMTD:getqloc.obj
 0002:0001d1d4       ??_C@_07HJLCKBG@holland?$AA@ 131881d4     LIBCMTD:getqloc.obj
 0002:0001d1dc       ??_C@_0O@LEHGMHAG@great?5britain?$AA@ 131881dc     LIBCMTD:getqloc.obj
 0002:0001d1ec       ??_C@_07FACOMELA@england?$AA@ 131881ec     LIBCMTD:getqloc.obj
 0002:0001d1f4       ??_C@_05JIHCEICB@czech?$AA@ 131881f4     LIBCMTD:getqloc.obj
 0002:0001d1fc       ??_C@_05BBJOBLGB@china?$AA@ 131881fc     LIBCMTD:getqloc.obj
 0002:0001d204       ??_C@_07GPKPHICP@britain?$AA@ 13188204     LIBCMTD:getqloc.obj
 0002:0001d20c       ??_C@_07MHIPBHMG@america?$AA@ 1318820c     LIBCMTD:getqloc.obj
 0002:0001d214       ??_C@_03KIALPMKC@usa?$AA@  13188214     LIBCMTD:getqloc.obj
 0002:0001d218       ??_C@_02FGJGKGGD@us?$AA@   13188218     LIBCMTD:getqloc.obj
 0002:0001d21c       ??_C@_02NEINDODK@uk?$AA@   1318821c     LIBCMTD:getqloc.obj
 0002:0001d220       ??_C@_05JMPCFJFJ@swiss?$AA@ 13188220     LIBCMTD:getqloc.obj
 0002:0001d228       ??_C@_0BA@HLOCPIOD@swedish?9finland?$AA@ 13188228     LIBCMTD:getqloc.obj
 0002:0001d238       ??_C@_0BC@PKCNIABK@spanish?9venezuela?$AA@ 13188238     LIBCMTD:getqloc.obj
 0002:0001d24c       ??_C@_0BA@GBHHMIJI@spanish?9uruguay?$AA@ 1318824c     LIBCMTD:getqloc.obj
 0002:0001d25c       ??_C@_0BE@BHDOHPMC@spanish?9puerto?5rico?$AA@ 1318825c     LIBCMTD:getqloc.obj
 0002:0001d270       ??_C@_0N@KMOIDGGN@spanish?9peru?$AA@ 13188270     LIBCMTD:getqloc.obj
 0002:0001d280       ??_C@_0BB@HMHLPGPH@spanish?9paraguay?$AA@ 13188280     LIBCMTD:getqloc.obj
 0002:0001d294       ??_C@_0P@MCPKNGFD@spanish?9panama?$AA@ 13188294     LIBCMTD:getqloc.obj
 0002:0001d2a4       ??_C@_0BC@IHOHGAIL@spanish?9nicaragua?$AA@ 131882a4     LIBCMTD:getqloc.obj
 0002:0001d2b8       ??_C@_0P@KLMJDNFJ@spanish?9modern?$AA@ 131882b8     LIBCMTD:getqloc.obj
 0002:0001d2c8       ??_C@_0BA@BPAPGBCM@spanish?9mexican?$AA@ 131882c8     LIBCMTD:getqloc.obj
 0002:0001d2d8       ??_C@_0BB@PDECHHHE@spanish?9honduras?$AA@ 131882d8     LIBCMTD:getqloc.obj
 0002:0001d2ec       ??_C@_0BC@KLHKFGDB@spanish?9guatemala?$AA@ 131882ec     LIBCMTD:getqloc.obj
 0002:0001d300       ??_C@_0BE@MFOOKJAI@spanish?9el?5salvador?$AA@ 13188300     LIBCMTD:getqloc.obj
 0002:0001d314       ??_C@_0BA@FCOKFPFC@spanish?9ecuador?$AA@ 13188314     LIBCMTD:getqloc.obj
 0002:0001d324       ??_C@_0BL@PLMGIMOO@spanish?9dominican?5republic?$AA@ 13188324     LIBCMTD:getqloc.obj
 0002:0001d340       ??_C@_0BD@HLGDNMHB@spanish?9costa?5rica?$AA@ 13188340     LIBCMTD:getqloc.obj
 0002:0001d354       ??_C@_0BB@PKCBKCPE@spanish?9colombia?$AA@ 13188354     LIBCMTD:getqloc.obj
 0002:0001d368       ??_C@_0O@MCBIJGNE@spanish?9chile?$AA@ 13188368     LIBCMTD:getqloc.obj
 0002:0001d378       ??_C@_0BA@BEFEIGJJ@spanish?9bolivia?$AA@ 13188378     LIBCMTD:getqloc.obj
 0002:0001d388       ??_C@_0BC@EMECMPD@spanish?9argentina?$AA@ 13188388     LIBCMTD:getqloc.obj
 0002:0001d39c       ??_C@_0BF@EALFLENP@portuguese?9brazilian?$AA@ 1318839c     LIBCMTD:getqloc.obj
 0002:0001d3b4       ??_C@_0BC@HBLEBLNN@norwegian?9nynorsk?$AA@ 131883b4     LIBCMTD:getqloc.obj
 0002:0001d3c8       ??_C@_0BB@HMACDDCK@norwegian?9bokmal?$AA@ 131883c8     LIBCMTD:getqloc.obj
 0002:0001d3dc       ??_C@_09BAFFPPHE@norwegian?$AA@ 131883dc     LIBCMTD:getqloc.obj
 0002:0001d3e8       ??_C@_0O@EAJFJDFG@italian?9swiss?$AA@ 131883e8     LIBCMTD:getqloc.obj
 0002:0001d3f8       ??_C@_0O@CNOMPGD@irish?9english?$AA@ 131883f8     LIBCMTD:getqloc.obj
 0002:0001d408       ??_C@_0N@EDHBGCKG@german?9swiss?$AA@ 13188408     LIBCMTD:getqloc.obj
 0002:0001d418       ??_C@_0BC@JACMHNBP@german?9luxembourg?$AA@ 13188418     LIBCMTD:getqloc.obj
 0002:0001d42c       ??_C@_0BE@HBGMGFEG@german?9lichtenstein?$AA@ 1318842c     LIBCMTD:getqloc.obj
 0002:0001d440       ??_C@_0BA@HKKBIBKL@german?9austrian?$AA@ 13188440     LIBCMTD:getqloc.obj
 0002:0001d450       ??_C@_0N@GCAEPEBK@french?9swiss?$AA@ 13188450     LIBCMTD:getqloc.obj
 0002:0001d460       ??_C@_0BC@DJFJJCK@french?9luxembourg?$AA@ 13188460     LIBCMTD:getqloc.obj
 0002:0001d474       ??_C@_0BA@NNCEDFIC@french?9canadian?$AA@ 13188474     LIBCMTD:getqloc.obj
 0002:0001d484       ??_C@_0P@CMPOCLM@french?9belgian?$AA@ 13188484     LIBCMTD:getqloc.obj
 0002:0001d494       ??_C@_0M@GHHDJOK@english?9usa?$AA@ 13188494     LIBCMTD:getqloc.obj
 0002:0001d4a0       ??_C@_0L@PLDJKEIL@english?9us?$AA@ 131884a0     LIBCMTD:getqloc.obj
 0002:0001d4ac       ??_C@_0L@HJCCDMNC@english?9uk?$AA@ 131884ac     LIBCMTD:getqloc.obj
 0002:0001d4b8       ??_C@_0BK@CKLIAGJB@english?9trinidad?5y?5tobago?$AA@ 131884b8     LIBCMTD:getqloc.obj
 0002:0001d4d4       ??_C@_0BF@JMJMGNNF@english?9south?5africa?$AA@ 131884d4     LIBCMTD:getqloc.obj
 0002:0001d4ec       ??_C@_0L@DKIIFDFD@english?9nz?$AA@ 131884ec     LIBCMTD:getqloc.obj
 0002:0001d4f8       ??_C@_0BA@ONHGJCLH@english?9jamaica?$AA@ 131884f8     LIBCMTD:getqloc.obj
 0002:0001d508       ??_C@_0M@HJBGHOPO@english?9ire?$AA@ 13188508     LIBCMTD:getqloc.obj
 0002:0001d514       ??_C@_0BC@LFEKMIFB@english?9caribbean?$AA@ 13188514     LIBCMTD:getqloc.obj
 0002:0001d528       ??_C@_0M@OLDPFKHI@english?9can?$AA@ 13188528     LIBCMTD:getqloc.obj
 0002:0001d534       ??_C@_0P@OMDEHBMP@english?9belize?$AA@ 13188534     LIBCMTD:getqloc.obj
 0002:0001d544       ??_C@_0M@KFHFPFED@english?9aus?$AA@ 13188544     LIBCMTD:getqloc.obj
 0002:0001d550       ??_C@_0BB@MNMBKDFE@english?9american?$AA@ 13188550     LIBCMTD:getqloc.obj
 0002:0001d564       ??_C@_0O@KIDLNNBA@dutch?9belgian?$AA@ 13188564     LIBCMTD:getqloc.obj
 0002:0001d574       ??_C@_0BE@JBKABBMH@chinese?9traditional?$AA@ 13188574     LIBCMTD:getqloc.obj
 0002:0001d588       ??_C@_0BC@MJJMPKCG@chinese?9singapore?$AA@ 13188588     LIBCMTD:getqloc.obj
 0002:0001d59c       ??_C@_0BD@FDKADDCP@chinese?9simplified?$AA@ 1318859c     LIBCMTD:getqloc.obj
 0002:0001d5b0       ??_C@_0BB@DBEFDDME@chinese?9hongkong?$AA@ 131885b0     LIBCMTD:getqloc.obj
 0002:0001d5c4       ??_C@_07DHNMFMCI@chinese?$AA@ 131885c4     LIBCMTD:getqloc.obj
 0002:0001d5cc       ??_C@_03FNDDCHI@chi?$AA@   131885cc     LIBCMTD:getqloc.obj
 0002:0001d5d0       ??_C@_03BMMIADDJ@chh?$AA@  131885d0     LIBCMTD:getqloc.obj
 0002:0001d5d4       ??_C@_08OAIPJDGI@canadian?$AA@ 131885d4     LIBCMTD:getqloc.obj
 0002:0001d5e0       ??_C@_07HBPMNPNJ@belgian?$AA@ 131885e0     LIBCMTD:getqloc.obj
 0002:0001d5e8       ??_C@_0L@OEKOPBEL@australian?$AA@ 131885e8     LIBCMTD:getqloc.obj
 0002:0001d5f4       ??_C@_0BB@MEIMBEDG@american?9english?$AA@ 131885f4     LIBCMTD:getqloc.obj
 0002:0001d608       ??_C@_0BB@DFMDPDGB@american?5english?$AA@ 13188608     LIBCMTD:getqloc.obj
 0002:0001d61c       ??_C@_08IJLOKOLL@american?$AA@ 1318861c     LIBCMTD:getqloc.obj
 0002:0001d628       ___rg_language             13188628     LIBCMTD:getqloc.obj
 0002:0001d830       ___rg_country              13188830     LIBCMTD:getqloc.obj
 0002:0001d8e8       ___rglangidNotDefault      131888e8     LIBCMTD:getqloc.obj
 0002:0001d8fc       ??_C@_0BC@NFIEMBLL@Norwegian?9Nynorsk?$AA@ 131888fc     LIBCMTD:getqloc.obj
 0002:0001d910       ??_C@_1OM@OECHDGCF@?$AAs?$AAt?$AAr?$AAc?$AAp?$AAy?$AA_?$AAs?$AA?$CI?$AAl?$AAp?$AAO?$AAu?$AAt?$AAS?$AAt?$AAr?$AA?9?$AA?$DO?$AAs?$AAz?$AAL?$AAa?$AAn?$AAg?$AAu?$AAa?$AAg?$AAe?$AA?0?$AA?5?$AA?$CI@ 13188910     LIBCMTD:getqloc.obj
 0002:0001d9fc       ??_C@_1CO@NJACLALJ@?$AA_?$AA_?$AAg?$AAe?$AAt?$AA_?$AAq?$AAu?$AAa?$AAl?$AAi?$AAf?$AAi?$AAe?$AAd?$AA_?$AAl?$AAo?$AAc?$AAa?$AAl?$AAe?$AA?$AA@ 131889fc     LIBCMTD:getqloc.obj
 0002:0001da2c       ??_C@_1BE@GIJNDGB@?$AAg?$AAe?$AAt?$AAq?$AAl?$AAo?$AAc?$AA?4?$AAc?$AA?$AA@ 13188a2c     LIBCMTD:getqloc.obj
 0002:0001da40       ??_C@_03NFKLAGEF@OCP?$AA@  13188a40     LIBCMTD:getqloc.obj
 0002:0001da44       ??_C@_03DFHEHBHG@ACP?$AA@  13188a44     LIBCMTD:getqloc.obj
 0002:0001da48       ??_C@_1CG@JEHFHLNG@?$AA_?$AAm?$AAb?$AAs?$AAt?$AAo?$AAw?$AAc?$AAs?$AA_?$AAl?$AA_?$AAh?$AAe?$AAl?$AAp?$AAe?$AAr?$AA?$AA@ 13188a48     LIBCMTD:mbstowcs.obj
 0002:0001da70       ??_C@_1BG@KMBPFIPB@?$AAm?$AAb?$AAs?$AAt?$AAo?$AAw?$AAc?$AAs?$AA?4?$AAc?$AA?$AA@ 13188a70     LIBCMTD:mbstowcs.obj
 0002:0001da88       ??_C@_1BE@EEKACIGI@?$AAs?$AA?5?$AA?$CB?$AA?$DN?$AA?5?$AAN?$AAU?$AAL?$AAL?$AA?$AA@ 13188a88     LIBCMTD:mbstowcs.obj
 0002:0001da9c       ??_C@_1CO@JNPEPJAL@?$AAr?$AAe?$AAt?$AAs?$AAi?$AAz?$AAe?$AA?5?$AA?$DM?$AA?$DN?$AA?5?$AAs?$AAi?$AAz?$AAe?$AAI?$AAn?$AAW?$AAo?$AAr?$AAd?$AAs?$AA?$AA@ 13188a9c     LIBCMTD:mbstowcs.obj
 0002:0001dacc       ??_C@_1BM@PHENIGHD@?$AA_?$AAm?$AAb?$AAs?$AAt?$AAo?$AAw?$AAc?$AAs?$AA_?$AAs?$AA_?$AAl?$AA?$AA@ 13188acc     LIBCMTD:mbstowcs.obj
 0002:0001dae8       ??_C@_1JA@JKDFMOPO@?$AA?$CI?$AAp?$AAw?$AAc?$AAs?$AA?5?$AA?$DN?$AA?$DN?$AA?5?$AAN?$AAU?$AAL?$AAL?$AA?5?$AA?$CG?$AA?$CG?$AA?5?$AAs?$AAi?$AAz?$AAe?$AAI?$AAn?$AAW?$AAo?$AAr?$AAd?$AAs?$AA?5?$AA?$DN?$AA?$DN?$AA?5@ 13188ae8     LIBCMTD:mbstowcs.obj
 0002:0001db78       ??_C@_1BK@EPLNBKAK@?$AA_?$AAv?$AAs?$AAw?$AAp?$AAr?$AAi?$AAn?$AAt?$AAf?$AA_?$AAl?$AA?$AA@ 13188b78     LIBCMTD:vswprint.obj
 0002:0001db94       ??_C@_1BG@BELBGCGO@?$AAv?$AAs?$AAw?$AAp?$AAr?$AAi?$AAn?$AAt?$AA?4?$AAc?$AA?$AA@ 13188b94     LIBCMTD:vswprint.obj
 0002:0001dbac       ??_C@_1CG@IMMIEPNA@?$AA_?$AAv?$AAs?$AAc?$AAw?$AAp?$AAr?$AAi?$AAn?$AAt?$AAf?$AA_?$AAh?$AAe?$AAl?$AAp?$AAe?$AAr?$AA?$AA@ 13188bac     LIBCMTD:vswprint.obj
 0002:0001dbd4       ??_C@_1BC@MFKEFFNI@?$AAm?$AAb?$AAt?$AAo?$AAw?$AAc?$AA?4?$AAc?$AA?$AA@ 13188bd4     LIBCMTD:mbtowc.obj
 0002:0001dbe8       ??_C@_1NC@EINCOKCO@?$AA_?$AAl?$AAo?$AAc?$AA_?$AAu?$AAp?$AAd?$AAa?$AAt?$AAe?$AA?4?$AAG?$AAe?$AAt?$AAL?$AAo?$AAc?$AAa?$AAl?$AAe?$AAT?$AA?$CI?$AA?$CJ?$AA?9?$AA?$DO?$AAl?$AAo?$AAc?$AAi?$AAn?$AAf@ 13188be8     LIBCMTD:mbtowc.obj
 0002:0001dcbc       ??_C@_1BA@IIKEPOGH@?$AA_?$AAf?$AAi?$AAl?$AAb?$AAu?$AAf?$AA?$AA@ 13188cbc     LIBCMTD:_filbuf.obj
 0002:0001dccc       ??_C@_1BE@CEJGNPDE@?$AA_?$AAf?$AAi?$AAl?$AAb?$AAu?$AAf?$AA?4?$AAc?$AA?$AA@ 13188ccc     LIBCMTD:_filbuf.obj
 0002:0001dce0       ??_C@_1O@JDPLECOK@?$AAu?$AAn?$AAg?$AAe?$AAt?$AAc?$AA?$AA@ 13188ce0     LIBCMTD:ungetc.obj
 0002:0001dcf0       ??_C@_1BC@EAKHDONB@?$AAu?$AAn?$AAg?$AAe?$AAt?$AAc?$AA?4?$AAc?$AA?$AA@ 13188cf0     LIBCMTD:ungetc.obj
 0002:0001dd04       ??_C@_1BO@OLMLKKEA@?$AA_?$AAu?$AAn?$AAg?$AAe?$AAt?$AAc?$AA_?$AAn?$AAo?$AAl?$AAo?$AAc?$AAk?$AA?$AA@ 13188d04     LIBCMTD:ungetc.obj
 0002:0001dd28       ??_C@_1HC@LIEAMBJN@?$AAF?$AA?3?$AA?2?$AAS?$AAP?$AA?2?$AAv?$AAc?$AAt?$AAo?$AAo?$AAl?$AAs?$AA?2?$AAc?$AAr?$AAt?$AA_?$AAb?$AAl?$AAd?$AA?2?$AAS?$AAE?$AAL?$AAF?$AA_?$AAX?$AA8?$AA6?$AA?2?$AAc@ 13188d28     LIBCMTD:ungetc.obj
 0002:0001dd9c       ??_C@_1O@EGMJNCOI@?$AAf?$AAc?$AAl?$AAo?$AAs?$AAe?$AA?$AA@ 13188d9c     LIBCMTD:fclose.obj
 0002:0001ddac       ??_C@_1BC@MHEDMIA@?$AAf?$AAc?$AAl?$AAo?$AAs?$AAe?$AA?4?$AAc?$AA?$AA@ 13188dac     LIBCMTD:fclose.obj
 0002:0001ddc0       ??_C@_1BO@JINCABEC@?$AA_?$AAf?$AAc?$AAl?$AAo?$AAs?$AAe?$AA_?$AAn?$AAo?$AAl?$AAo?$AAc?$AAk?$AA?$AA@ 13188dc0     LIBCMTD:fclose.obj
 0002:0001dde0       ??_C@_09MGNHMPHC@osfinfo?4c?$AA@ 13188de0     LIBCMTD:osfinfo.obj
 0002:0001ddec       ??_C@_1BO@EMBOBGKE@?$AA_?$AAg?$AAe?$AAt?$AA_?$AAo?$AAs?$AAf?$AAh?$AAa?$AAn?$AAd?$AAl?$AAe?$AA?$AA@ 13188dec     LIBCMTD:osfinfo.obj
 0002:0001de0c       ??_C@_1BE@MIGAHMPD@?$AAo?$AAs?$AAf?$AAi?$AAn?$AAf?$AAo?$AA?4?$AAc?$AA?$AA@ 13188e0c     LIBCMTD:osfinfo.obj
 0002:0001de20       ??_C@_1BA@NGNGNDEP@?$AA_?$AAc?$AAp?$AAu?$AAt?$AAw?$AAs?$AA?$AA@ 13188e20     LIBCMTD:putwch.obj
 0002:0001de30       ??_C@_1BC@HKEJKGAG@?$AAp?$AAu?$AAt?$AAw?$AAc?$AAh?$AA?4?$AAc?$AA?$AA@ 13188e30     LIBCMTD:putwch.obj
 0002:0001de44       ??_C@_0BK@CFCOFLF@?5Complete?5Object?5Locator?8?$AA@ 13188e44     LIBCMTD:undname.obj
 0002:0001de60       ??_C@_0BN@MECKDCOJ@?5Class?5Hierarchy?5Descriptor?8?$AA@ 13188e60     LIBCMTD:undname.obj
 0002:0001de80       ??_C@_0BD@LGICGFMM@?5Base?5Class?5Array?8?$AA@ 13188e80     LIBCMTD:undname.obj
 0002:0001de94       ??_C@_0BM@LDKODKLH@?5Base?5Class?5Descriptor?5at?5?$CI?$AA@ 13188e94     LIBCMTD:undname.obj
 0002:0001deb0       ??_C@_0BC@DAFEJGAK@?5Type?5Descriptor?8?$AA@ 13188eb0     LIBCMTD:undname.obj
 0002:0001dec4       ??_C@_0BM@PMGGMLDN@?$GAlocal?5static?5thread?5guard?8?$AA@ 13188ec4     LIBCMTD:undname.obj
 0002:0001dee0       ??_C@_0CL@FGIJHLCE@?$GAmanaged?5vector?5copy?5constructor@ 13188ee0     LIBCMTD:undname.obj
 0002:0001df0c       ??_C@_0CJ@GJELGAMM@?$GAvector?5vbase?5copy?5constructor?5i@ 13188f0c     LIBCMTD:undname.obj
 0002:0001df38       ??_C@_0CD@CGAJBKEJ@?$GAvector?5copy?5constructor?5iterato@ 13188f38     LIBCMTD:undname.obj
 0002:0001df5c       ??_C@_0CB@PDBIFEP@?$GAdynamic?5atexit?5destructor?5for?5?8@ 13188f5c     LIBCMTD:undname.obj
 0002:0001df80       ??_C@_0BL@CLIPGLGB@?$GAdynamic?5initializer?5for?5?8?$AA@ 13188f80     LIBCMTD:undname.obj
 0002:0001df9c       ??_C@_0CM@FCBBDIGB@?$GAeh?5vector?5vbase?5copy?5constructo@ 13188f9c     LIBCMTD:undname.obj
 0002:0001dfc8       ??_C@_0CG@HLDDJMAG@?$GAeh?5vector?5copy?5constructor?5iter@ 13188fc8     LIBCMTD:undname.obj
 0002:0001dff0       ??_C@_0CF@IMGKMJNO@?$GAmanaged?5vector?5destructor?5itera@ 13188ff0     LIBCMTD:undname.obj
 0002:0001e018       ??_C@_0CG@CFDHKGGD@?$GAmanaged?5vector?5constructor?5iter@ 13189018     LIBCMTD:undname.obj
 0002:0001e040       ??_C@_0BN@CKNJLHMB@?$GAplacement?5delete?$FL?$FN?5closure?8?$AA@ 13189040     LIBCMTD:undname.obj
 0002:0001e060       ??_C@_0BL@CNOONJFP@?$GAplacement?5delete?5closure?8?$AA@ 13189060     LIBCMTD:undname.obj
 0002:0001e07c       ??_C@_0P@HJKNJFNN@?$GAomni?5callsig?8?$AA@ 1318907c     LIBCMTD:undname.obj
 0002:0001e08c       ??_C@_09LBNFPBCA@?5delete?$FL?$FN?$AA@ 1318908c     LIBCMTD:undname.obj
 0002:0001e098       ??_C@_06FHBGPFGH@?5new?$FL?$FN?$AA@ 13189098     LIBCMTD:undname.obj
 0002:0001e0a0       ??_C@_0CE@IIHCMGGL@?$GAlocal?5vftable?5constructor?5closu@ 131890a0     LIBCMTD:undname.obj
 0002:0001e0c4       ??_C@_0BA@KKLDJDLB@?$GAlocal?5vftable?8?$AA@ 131890c4     LIBCMTD:undname.obj
 0002:0001e0d4       ??_C@_05KHLCHHI@?$GARTTI?$AA@ 131890d4     LIBCMTD:undname.obj
 0002:0001e0dc       ??_C@_03KLGMFNMG@?$GAEH?$AA@ 131890dc     LIBCMTD:undname.obj
 0002:0001e0e0       ??_C@_0BA@KBCDOMBN@?$GAudt?5returning?8?$AA@ 131890e0     LIBCMTD:undname.obj
 0002:0001e0f0       ??_C@_0BL@LLKPOHJI@?$GAcopy?5constructor?5closure?8?$AA@ 131890f0     LIBCMTD:undname.obj
 0002:0001e10c       ??_C@_0CH@OOJPLCPH@?$GAeh?5vector?5vbase?5constructor?5ite@ 1318910c     LIBCMTD:undname.obj
 0002:0001e134       ??_C@_0CA@GCEOPDGL@?$GAeh?5vector?5destructor?5iterator?8?$AA@ 13189134     LIBCMTD:undname.obj
 0002:0001e154       ??_C@_0CB@JONCMFFK@?$GAeh?5vector?5constructor?5iterator?8@ 13189154     LIBCMTD:undname.obj
 0002:0001e178       ??_C@_0BL@NILFHHPC@?$GAvirtual?5displacement?5map?8?$AA@ 13189178     LIBCMTD:undname.obj
 0002:0001e194       ??_C@_0CE@IKBNEHA@?$GAvector?5vbase?5constructor?5iterat@ 13189194     LIBCMTD:undname.obj
 0002:0001e1b8       ??_C@_0BN@LFPFMEDL@?$GAvector?5destructor?5iterator?8?$AA@ 131891b8     LIBCMTD:undname.obj
 0002:0001e1d8       ??_C@_0BO@PFGOCPJJ@?$GAvector?5constructor?5iterator?8?$AA@ 131891d8     LIBCMTD:undname.obj
 0002:0001e1f8       ??_C@_0BN@IMDCHIKM@?$GAscalar?5deleting?5destructor?8?$AA@ 131891f8     LIBCMTD:undname.obj
 0002:0001e218       ??_C@_0BO@OBMKPJIG@?$GAdefault?5constructor?5closure?8?$AA@ 13189218     LIBCMTD:undname.obj
 0002:0001e238       ??_C@_0BN@DEGPLNFK@?$GAvector?5deleting?5destructor?8?$AA@ 13189238     LIBCMTD:undname.obj
 0002:0001e258       ??_C@_0BD@JDLKDPAB@?$GAvbase?5destructor?8?$AA@ 13189258     LIBCMTD:undname.obj
 0002:0001e26c       ??_C@_08OBABFOLI@?$GAstring?8?$AA@ 1318926c     LIBCMTD:undname.obj
 0002:0001e278       ??_C@_0BF@KDPPACIK@?$GAlocal?5static?5guard?8?$AA@ 13189278     LIBCMTD:undname.obj
 0002:0001e290       ??_C@_08LLFFHHDJ@?$GAtypeof?8?$AA@ 13189290     LIBCMTD:undname.obj
 0002:0001e29c       ??_C@_07FEEIOKP@?$GAvcall?8?$AA@ 1318929c     LIBCMTD:undname.obj
 0002:0001e2a4       ??_C@_09BLBHBJP@?$GAvbtable?8?$AA@ 131892a4     LIBCMTD:undname.obj
 0002:0001e2b0       ??_C@_09IFPLHPGF@?$GAvftable?8?$AA@ 131892b0     LIBCMTD:undname.obj
 0002:0001e2bc       ??_C@_02MHEGNOJ@?$FO?$DN?$AA@ 131892bc     LIBCMTD:undname.obj
 0002:0001e2c0       ??_C@_02DHLNPPGH@?$HM?$DN?$AA@ 131892c0     LIBCMTD:undname.obj
 0002:0001e2c4       ??_C@_02FGJGFEAB@?$CG?$DN?$AA@ 131892c4     LIBCMTD:undname.obj
 0002:0001e2c8       ??_C@_03CDNPDDLA@?$DM?$DM?$DN?$AA@ 131892c8     LIBCMTD:undname.obj
 0002:0001e2cc       ??_C@_03IKFCCPFF@?$DO?$DO?$DN?$AA@ 131892cc     LIBCMTD:undname.obj
 0002:0001e2d0       ??_C@_02FENAOKFI@?$CF?$DN?$AA@ 131892d0     LIBCMTD:undname.obj
 0002:0001e2d4       ??_C@_02FJEHGPIO@?1?$DN?$AA@ 131892d4     LIBCMTD:undname.obj
 0002:0001e2d8       ??_C@_02FKMDLLOA@?9?$DN?$AA@ 131892d8     LIBCMTD:undname.obj
 0002:0001e2dc       ??_C@_02FOEOMHFC@?$CL?$DN?$AA@ 131892dc     LIBCMTD:undname.obj
 0002:0001e2e0       ??_C@_02FPIMKNGF@?$CK?$DN?$AA@ 131892e0     LIBCMTD:undname.obj
 0002:0001e2e4       ??_C@_02NONPIBCD@?$HM?$HM?$AA@ 131892e4     LIBCMTD:undname.obj
 0002:0001e2e8       ??_C@_02PPKAJPJL@?$CG?$CG?$AA@ 131892e8     LIBCMTD:undname.obj
 0002:0001e2ec       ??_C@_01DNKMNLPK@?$HM?$AA@ 131892ec     LIBCMTD:undname.obj
 0002:0001e2f0       ??_C@_01JKBOJNNK@?$FO?$AA@ 131892f0     LIBCMTD:undname.obj
 0002:0001e2f4       ??_C@_01PJKLJHI@?$HO?$AA@  131892f4     LIBCMTD:undname.obj
 0002:0001e2f8       ??_C@_02HCKGKOFO@?$CI?$CJ?$AA@ 131892f8     LIBCMTD:undname.obj
 0002:0001e2fc       ??_C@_01IHBHIGKO@?0?$AA@   131892fc     LIBCMTD:undname.obj
 0002:0001e300       ??_C@_02EEKDKGMJ@?$DO?$DN?$AA@ 13189300     LIBCMTD:undname.obj
 0002:0001e304       ??_C@_01PPODPGHN@?$DO?$AA@ 13189304     LIBCMTD:undname.obj
 0002:0001e308       ??_C@_02EHCHHCKH@?$DM?$DN?$AA@ 13189308     LIBCMTD:undname.obj
 0002:0001e30c       ??_C@_01MNNFJEPP@?$DM?$AA@ 1318930c     LIBCMTD:undname.obj
 0002:0001e310       ??_C@_01FGNFDNOH@?$CF?$AA@ 13189310     LIBCMTD:undname.obj
 0002:0001e314       ??_C@_01KMDKNFGN@?1?$AA@   13189314     LIBCMTD:undname.obj
 0002:0001e318       ??_C@_03MNHNFDLC@?9?$DO?$CK?$AA@ 13189318     LIBCMTD:undname.obj
 0002:0001e31c       ??_C@_01HNPIGOCE@?$CG?$AA@ 1318931c     LIBCMTD:undname.obj
 0002:0001e320       ??_C@_01MIFGBAGJ@?$CL?$AA@ 13189320     LIBCMTD:undname.obj
 0002:0001e324       ??_C@_01JOAMLHOP@?9?$AA@   13189324     LIBCMTD:undname.obj
 0002:0001e328       ??_C@_02BAABKJLB@?9?9?$AA@ 13189328     LIBCMTD:undname.obj
 0002:0001e32c       ??_C@_02ECNGHCIF@?$CL?$CL?$AA@ 1318932c     LIBCMTD:undname.obj
 0002:0001e330       ??_C@_01NBENCBCI@?$CK?$AA@ 13189330     LIBCMTD:undname.obj
 0002:0001e334       ??_C@_02HBOOOICD@?9?$DO?$AA@ 13189334     LIBCMTD:undname.obj
 0002:0001e338       ??_C@_08LHJFAFGD@operator?$AA@ 13189338     LIBCMTD:undname.obj
 0002:0001e344       ??_C@_02GPECMEKF@?$FL?$FN?$AA@ 13189344     LIBCMTD:undname.obj
 0002:0001e348       ??_C@_02FDNJECIE@?$CB?$DN?$AA@ 13189348     LIBCMTD:undname.obj
 0002:0001e34c       ??_C@_02EGOFBIJA@?$DN?$DN?$AA@ 1318934c     LIBCMTD:undname.obj
 0002:0001e350       ??_C@_01DCLJPIOD@?$CB?$AA@ 13189350     LIBCMTD:undname.obj
 0002:0001e354       ??_C@_02FODMEDOG@?$DM?$DM?$AA@ 13189354     LIBCMTD:undname.obj
 0002:0001e358       ??_C@_02GPIOPFAK@?$DO?$DO?$AA@ 13189358     LIBCMTD:undname.obj
 0002:0001e35c       ??_C@_07FPCDHGMM@?5delete?$AA@ 1318935c     LIBCMTD:undname.obj
 0002:0001e364       ??_C@_04NIHEBCM@?5new?$AA@ 13189364     LIBCMTD:undname.obj
 0002:0001e36c       ??_C@_0M@GFIIJFMG@__unaligned?$AA@ 1318936c     LIBCMTD:undname.obj
 0002:0001e378       ??_C@_0L@PILCLIHE@__restrict?$AA@ 13189378     LIBCMTD:undname.obj
 0002:0001e384       ??_C@_07JOMMBBKO@__ptr64?$AA@ 13189384     LIBCMTD:undname.obj
 0002:0001e38c       ??_C@_09HIJEGCPM@__clrcall?$AA@ 1318938c     LIBCMTD:undname.obj
 0002:0001e398       ??_C@_0L@JMKHOMEK@__fastcall?$AA@ 13189398     LIBCMTD:undname.obj
 0002:0001e3a4       ??_C@_0L@NPHFGOKO@__thiscall?$AA@ 131893a4     LIBCMTD:undname.obj
 0002:0001e3b0       ??_C@_09IFJBGAPI@__stdcall?$AA@ 131893b0     LIBCMTD:undname.obj
 0002:0001e3bc       ??_C@_08GHMPAG@__pascal?$AA@ 131893bc     LIBCMTD:undname.obj
 0002:0001e3c8       ??_C@_07KOLFKCDI@__cdecl?$AA@ 131893c8     LIBCMTD:undname.obj
 0002:0001e3d0       ??_C@_08EHJDFFNH@__based?$CI?$AA@ 131893d0     LIBCMTD:undname.obj
 0002:0001e560       ??_C@_04HEJADOOB@CV?3?5?$AA@ 13189560     LIBCMTD:undname.obj
 0002:0001e568       ??_C@_02MOLJINC@?3?3?$AA@  13189568     LIBCMTD:undname.obj
 0002:0001e56c       ??_C@_01GEODFPGF@?8?$AA@   1318956c     LIBCMTD:undname.obj
 0002:0001e570       ??_C@_01NLNLIGKH@?$GA?$AA@ 13189570     LIBCMTD:undname.obj
 0002:0001e574       ??_C@_0O@KHGCOMHP@generic?9type?9?$AA@ 13189574     LIBCMTD:undname.obj
 0002:0001e584       ??_C@_0BE@JAEOCHPE@template?9parameter?9?$AA@ 13189584     LIBCMTD:undname.obj
 0002:0001e598       ??_C@_02OHHJMEON@?8?8?$AA@ 13189598     LIBCMTD:undname.obj
 0002:0001e59c       ??_C@_0BG@JNJLAMPM@?$GAanonymous?5namespace?8?$AA@ 1318959c     LIBCMTD:undname.obj
 0002:0001e5b4       ??_C@_0BN@IBLMMFAP@?$GAnon?9type?9template?9parameter?$AA@ 131895b4     LIBCMTD:undname.obj
 0002:0001e5d4       ??_C@_0BE@EODMJLIF@?$GAtemplate?9parameter?$AA@ 131895d4     LIBCMTD:undname.obj
 0002:0001e5e8       ??_C@_04GKJNKENE@void?$AA@ 131895e8     LIBCMTD:undname.obj
 0002:0001e5f0       ??_C@_04HIBGFPH@NULL?$AA@  131895f0     LIBCMTD:undname.obj
 0002:0001e5f8       ??_C@_0M@DHNBOJMP@extern?5?$CCC?$CC?5?$AA@ 131895f8     LIBCMTD:undname.obj
 0002:0001e604       ??_C@_08KJLFOPNE@?$FLthunk?$FN?3?$AA@ 13189604     LIBCMTD:undname.obj
 0002:0001e610       ??_C@_08GPDDCMKI@public?3?5?$AA@ 13189610     LIBCMTD:undname.obj
 0002:0001e61c       ??_C@_0M@GAIFPFIP@protected?3?5?$AA@ 1318961c     LIBCMTD:undname.obj
 0002:0001e628       ??_C@_09LAPHOOG@private?3?5?$AA@ 13189628     LIBCMTD:undname.obj
 0002:0001e634       ??_C@_08NIEOINHE@virtual?5?$AA@ 13189634     LIBCMTD:undname.obj
 0002:0001e640       ??_C@_07PGOEDBHP@static?5?$AA@ 13189640     LIBCMTD:undname.obj
 0002:0001e648       ??_C@_0DA@HGFJFBBE@?$GAtemplate?5static?5data?5member?5des@ 13189648     LIBCMTD:undname.obj
 0002:0001e678       ??_C@_0DB@ILEFOCIJ@?$GAtemplate?5static?5data?5member?5con@ 13189678     LIBCMTD:undname.obj
 0002:0001e6ac       ??_C@_0CB@KJDOOODE@?$GAlocal?5static?5destructor?5helper?8@ 131896ac     LIBCMTD:undname.obj
 0002:0001e6d0       ??_C@_0L@HNGCOGAE@?$GAadjustor?$HL?$AA@ 131896d0     LIBCMTD:undname.obj
 0002:0001e6dc       ??_C@_0L@GHPFDFH@?$GAvtordisp?$HL?$AA@ 131896dc     LIBCMTD:undname.obj
 0002:0001e6e8       ??_C@_0N@CBHHHENL@?$GAvtordispex?$HL?$AA@ 131896e8     LIBCMTD:undname.obj
 0002:0001e6f8       ??_C@_01CLKCMJKC@?5?$AA@   131896f8     LIBCMTD:undname.obj
 0002:0001e6fc       ??_C@_02IGFCGPIL@?$HN?8?$AA@ 131896fc     LIBCMTD:undname.obj
 0002:0001e700       ??_C@_03OPGICMGF@?$HN?8?5?$AA@ 13189700     LIBCMTD:undname.obj
 0002:0001e704       ??_C@_02KCKGHPCA@?$CJ?5?$AA@ 13189704     LIBCMTD:undname.obj
 0002:0001e708       ??_C@_05BEFAKPML@void?5?$AA@ 13189708     LIBCMTD:undname.obj
 0002:0001e710       ??_C@_08PABEKFH@volatile?$AA@ 13189710     LIBCMTD:undname.obj
 0002:0001e71c       ??_C@_0M@ELJOJFFH@?0?$DMellipsis?$DO?$AA@ 1318971c     LIBCMTD:undname.obj
 0002:0001e728       ??_C@_04EENFHACM@?0?4?4?4?$AA@ 13189728     LIBCMTD:undname.obj
 0002:0001e730       ??_C@_0L@EGPHHEKN@?$DMellipsis?$DO?$AA@ 13189730     LIBCMTD:undname.obj
 0002:0001e73c       ??_C@_07HDJPLPEK@?5throw?$CI?$AA@ 1318973c     LIBCMTD:undname.obj
 0002:0001e744       ??_C@_09EFNPDFFP@?5volatile?$AA@ 13189744     LIBCMTD:undname.obj
 0002:0001e750       ??_C@_05BNCCCJPP@const?$AA@ 13189750     LIBCMTD:undname.obj
 0002:0001e758       ??_C@_07EDHNAJHC@signed?5?$AA@ 13189758     LIBCMTD:undname.obj
 0002:0001e760       ??_C@_09EBBEKKIH@unsigned?5?$AA@ 13189760     LIBCMTD:undname.obj
 0002:0001e76c       ??_C@_07NFANNNEC@UNKNOWN?$AA@ 1318976c     LIBCMTD:undname.obj
 0002:0001e774       ??_C@_06GCICPBLB@__w64?5?$AA@ 13189774     LIBCMTD:undname.obj
 0002:0001e77c       ??_C@_07CLGGIAMF@wchar_t?$AA@ 1318977c     LIBCMTD:undname.obj
 0002:0001e784       ??_C@_08GAHOLHEO@__int128?$AA@ 13189784     LIBCMTD:undname.obj
 0002:0001e790       ??_C@_07LFCOJCAC@__int64?$AA@ 13189790     LIBCMTD:undname.obj
 0002:0001e798       ??_C@_07OFLPPHGP@__int32?$AA@ 13189798     LIBCMTD:undname.obj
 0002:0001e7a0       ??_C@_07ICFHOGAF@__int16?$AA@ 131897a0     LIBCMTD:undname.obj
 0002:0001e7a8       ??_C@_06EBGKOKIG@__int8?$AA@ 131897a8     LIBCMTD:undname.obj
 0002:0001e7b0       ??_C@_04DDKJGDCM@bool?$AA@ 131897b0     LIBCMTD:undname.obj
 0002:0001e7b8       ??_C@_06BNJCAIGJ@double?$AA@ 131897b8     LIBCMTD:undname.obj
 0002:0001e7c0       ??_C@_05CJIMAING@long?5?$AA@ 131897c0     LIBCMTD:undname.obj
 0002:0001e7c8       ??_C@_05KNFBNCOH@float?$AA@ 131897c8     LIBCMTD:undname.obj
 0002:0001e7d0       ??_C@_04GOKPGOLB@long?$AA@ 131897d0     LIBCMTD:undname.obj
 0002:0001e7d8       ??_C@_03JBIPMCLC@int?$AA@  131897d8     LIBCMTD:undname.obj
 0002:0001e7dc       ??_C@_05BFKKPKCG@short?$AA@ 131897dc     LIBCMTD:undname.obj
 0002:0001e7e4       ??_C@_04ENMBGAPA@char?$AA@ 131897e4     LIBCMTD:undname.obj
 0002:0001e7ec       ??_C@_05LJGMCFOG@enum?5?$AA@ 131897ec     LIBCMTD:undname.obj
 0002:0001e7f4       ??_C@_0N@DLIEFKNA@cointerface?5?$AA@ 131897f4     LIBCMTD:undname.obj
 0002:0001e804       ??_C@_08KOFANOFK@coclass?5?$AA@ 13189804     LIBCMTD:undname.obj
 0002:0001e810       ??_C@_06LJBABKPM@class?5?$AA@ 13189810     LIBCMTD:undname.obj
 0002:0001e818       ??_C@_07DIBCDNGL@struct?5?$AA@ 13189818     LIBCMTD:undname.obj
 0002:0001e820       ??_C@_06MOJHIBMG@union?5?$AA@ 13189820     LIBCMTD:undname.obj
 0002:0001e828       ??_C@_0P@GCIFDJCJ@?$GAunknown?5ecsu?8?$AA@ 13189828     LIBCMTD:undname.obj
 0002:0001e838       ??_C@_04LAHKHJMA@int?5?$AA@ 13189838     LIBCMTD:undname.obj
 0002:0001e840       ??_C@_06EHJMALKF@short?5?$AA@ 13189840     LIBCMTD:undname.obj
 0002:0001e848       ??_C@_05CIHEBHNO@char?5?$AA@ 13189848     LIBCMTD:undname.obj
 0002:0001e850       ??_C@_06LIJLOJAG@const?5?$AA@ 13189850     LIBCMTD:undname.obj
 0002:0001e858       ??_C@_09GAIEOBLP@volatile?5?$AA@ 13189858     LIBCMTD:undname.obj
 0002:0001e864       ??_C@_0O@GKABPPIF@cli?3?3pin_ptr?$DM?$AA@ 13189864     LIBCMTD:undname.obj
 0002:0001e874       ??_C@_0M@EALIELKG@cli?3?3array?$DM?$AA@ 13189874     LIBCMTD:undname.obj
 0002:0001e880       ??_C@_02GOGNNPBN@?$CJ?$FL?$AA@ 13189880     LIBCMTD:undname.obj
 0002:0001e884       ??_C@_06EEGAIFAK@?$HLflat?$HN?$AA@ 13189884     LIBCMTD:undname.obj
 0002:0001e88c       ??_C@_02MDINNEEG@s?5?$AA@  1318988c     LIBCMTD:undname.obj
 0002:0001e890       ??_C@_05JIBOFOHK@?$HLfor?5?$AA@ 13189890     LIBCMTD:undname.obj
 0002:0001e89c       ??_7DNameNode@@6B@         1318989c     LIBCMTD:undname.obj
 0002:0001e8ac       ??_7charNode@@6B@          131898ac     LIBCMTD:undname.obj
 0002:0001e8bc       ??_7pcharNode@@6B@         131898bc     LIBCMTD:undname.obj
 0002:0001e8cc       ??_7pDNameNode@@6B@        131898cc     LIBCMTD:undname.obj
 0002:0001e8dc       ??_7DNameStatusNode@@6B@   131898dc     LIBCMTD:undname.obj
 0002:0001e8e8       ??_C@_04OKOHEJBO@?5?$DP?$DP?5?$AA@ 131898e8     LIBCMTD:undname.obj
 0002:0001e8f0       ??_C@_1O@HJNPHHHB@?$AAf?$AAp?$AAu?$AAt?$AAw?$AAc?$AA?$AA@ 131898f0     LIBCMTD:fputwc.obj
 0002:0001e900       ??_C@_1BC@LJHBJFMP@?$AAf?$AAp?$AAu?$AAt?$AAw?$AAc?$AA?4?$AAc?$AA?$AA@ 13189900     LIBCMTD:fputwc.obj
 0002:0001e914       ??_C@_1BM@BENFBNLI@?$AA_?$AAm?$AAb?$AAs?$AAn?$AAb?$AAc?$AAa?$AAt?$AA_?$AAs?$AA_?$AAl?$AA?$AA@ 13189914     LIBCMTD:mbsnbcat_s_l.obj
 0002:0001e930       ??_C@_1GK@LCCDCHEO@?$AAF?$AA?3?$AA?2?$AAS?$AAP?$AA?2?$AAv?$AAc?$AAt?$AAo?$AAo?$AAl?$AAs?$AA?2?$AAc?$AAr?$AAt?$AA_?$AAb?$AAl?$AAd?$AA?2?$AAS?$AAE?$AAL?$AAF?$AA_?$AAX?$AA8?$AA6?$AA?2?$AAc@ 13189930     LIBCMTD:mbsnbcat_s_l.obj
 0002:0001e99c       ??_C@_1BM@HBMHMBEM@?$AA_?$AAm?$AAb?$AAs?$AAn?$AAb?$AAc?$AAp?$AAy?$AA_?$AAs?$AA_?$AAl?$AA?$AA@ 1318999c     LIBCMTD:mbsnbcpy_s_l.obj
 0002:0001e9b8       ??_C@_1GK@HKJIIPOO@?$AAF?$AA?3?$AA?2?$AAS?$AAP?$AA?2?$AAv?$AAc?$AAt?$AAo?$AAo?$AAl?$AAs?$AA?2?$AAc?$AAr?$AAt?$AA_?$AAb?$AAl?$AAd?$AA?2?$AAS?$AAE?$AAL?$AAF?$AA_?$AAX?$AA8?$AA6?$AA?2?$AAc@ 131899b8     LIBCMTD:mbsnbcpy_s_l.obj
 0002:0001ea24       ??_C@_1CA@OEHMHBJF@?$AAv?$AAf?$AAp?$AAr?$AAi?$AAn?$AAt?$AAf?$AA_?$AAh?$AAe?$AAl?$AAp?$AAe?$AAr?$AA?$AA@ 13189a24     LIBCMTD:vfprintf.obj
 0002:0001ea44       ??_C@_1BG@OKHDPPCK@?$AAv?$AAf?$AAp?$AAr?$AAi?$AAn?$AAt?$AAf?$AA?4?$AAc?$AA?$AA@ 13189a44     LIBCMTD:vfprintf.obj
 0002:0001ea5c       ??_C@_1BA@PCFLFGNC@?$AAw?$AAc?$AAs?$AAt?$AAo?$AAx?$AAl?$AA?$AA@ 13189a5c     LIBCMTD:wcstol.obj
 0002:0001ea6c       ??_C@_1BC@KCPEGNFM@?$AAw?$AAc?$AAs?$AAt?$AAo?$AAl?$AA?4?$AAc?$AA?$AA@ 13189a6c     LIBCMTD:wcstol.obj
 0002:0001ea80       ??_C@_1BO@JGFPDJCP@?$AAv?$AAp?$AAr?$AAi?$AAn?$AAt?$AAf?$AA_?$AAh?$AAe?$AAl?$AAp?$AAe?$AAr?$AA?$AA@ 13189a80     LIBCMTD:vprintf.obj
 0002:0001eaa0       ??_C@_1BE@DEJONPKH@?$AAv?$AAp?$AAr?$AAi?$AAn?$AAt?$AAf?$AA?4?$AAc?$AA?$AA@ 13189aa0     LIBCMTD:vprintf.obj
 0002:0001eab4       ??_C@_0L@KBNGFDKM@convrtcp?4c?$AA@ 13189ab4     LIBCMTD:convrtcp.obj
 0002:0001eac0       ___dnames                  13189ac0     LIBCMTD:timeset.obj
 0002:0001ead8       ___mnames                  13189ad8     LIBCMTD:timeset.obj
 0002:0001eb00       ??_C@_1BM@FIMHBHEB@?$AA_?$AAg?$AAe?$AAt?$AA_?$AAd?$AAa?$AAy?$AAl?$AAi?$AAg?$AAh?$AAt?$AA?$AA@ 13189b00     LIBCMTD:timeset.obj
 0002:0001eb1c       ??_C@_1BE@OINBFMF@?$AAt?$AAi?$AAm?$AAe?$AAs?$AAe?$AAt?$AA?4?$AAc?$AA?$AA@ 13189b1c     LIBCMTD:timeset.obj
 0002:0001eb30       ??_C@_1CI@MKJEHFPG@?$AA?$CI?$AA_?$AAD?$AAa?$AAy?$AAl?$AAi?$AAg?$AAh?$AAt?$AA?5?$AA?$CB?$AA?$DN?$AA?5?$AAN?$AAU?$AAL?$AAL?$AA?$CJ?$AA?$AA@ 13189b30     LIBCMTD:timeset.obj
 0002:0001eb58       ??_C@_1BK@EMODDHEE@?$AA_?$AAg?$AAe?$AAt?$AA_?$AAd?$AAs?$AAt?$AAb?$AAi?$AAa?$AAs?$AA?$AA@ 13189b58     LIBCMTD:timeset.obj
 0002:0001eb78       ??_C@_1EC@PKDJPAAB@?$AA?$CI?$AA_?$AAD?$AAa?$AAy?$AAl?$AAi?$AAg?$AAh?$AAt?$AA_?$AAs?$AAa?$AAv?$AAi?$AAn?$AAg?$AAs?$AA_?$AAb?$AAi?$AAa?$AAs?$AA?5?$AA?$CB?$AA?$DN?$AA?5?$AAN?$AAU?$AAL?$AAL?$AA?$CJ@ 13189b78     LIBCMTD:timeset.obj
 0002:0001ebbc       ??_C@_1BM@MGEAKPEJ@?$AA_?$AAg?$AAe?$AAt?$AA_?$AAt?$AAi?$AAm?$AAe?$AAz?$AAo?$AAn?$AAe?$AA?$AA@ 13189bbc     LIBCMTD:timeset.obj
 0002:0001ebd8       ??_C@_1CI@PODJJGAL@?$AA?$CI?$AA_?$AAT?$AAi?$AAm?$AAe?$AAz?$AAo?$AAn?$AAe?$AA?5?$AA?$CB?$AA?$DN?$AA?5?$AAN?$AAU?$AAL?$AAL?$AA?$CJ?$AA?$AA@ 13189bd8     LIBCMTD:timeset.obj
