 aggregator

 Timestamp is 568e0cbc (Thu Jan 07 14:59:08 2016)

 Preferred load address is 13000000

 Start         Length     Name                   Class
 0001:00000000 00145a4eH .text                   CODE
 0001:00145a50 00001233H .text$x                 CODE
 0001:00146c90 0000110bH .text$yc                CODE
 0001:00147da0 000010acH .text$yd                CODE
 0002:00000000 00000104H .CRT$XCA                DATA
 0002:00000104 00000104H .CRT$XCC                DATA
 0002:00000208 00000118H .CRT$XCU                DATA
 0002:00000320 00000104H .CRT$XCZ                DATA
 0002:00000424 00000104H .CRT$XIA                DATA
 0002:00000528 00000118H .CRT$XIC                DATA
 0002:00000640 00000104H .CRT$XIZ                DATA
 0002:00000744 00000104H .CRT$XPA                DATA
 0002:00000848 00000109H .CRT$XPX                DATA
 0002:00000954 00000104H .CRT$XPXA               DATA
 0002:00000a58 00000104H .CRT$XPZ                DATA
 0002:00000b5c 00000104H .CRT$XTA                DATA
 0002:00000c60 00000104H .CRT$XTZ                DATA
 0002:00000d70 00037a94H .rdata                  DATA
 0002:00038804 00000160H .rdata$debug            DATA
 0002:00038964 000006b8H .rdata$r                DATA
 0002:00039020 00000148H .rdata$sxdata           DATA
 0002:00039168 00000104H .rtc$IAA                DATA
 0002:0003926c 000001d3H .rtc$IMZ                DATA
 0002:00039440 00000104H .rtc$IZZ                DATA
 0002:00039544 00000104H .rtc$TAA                DATA
 0002:00039648 000001d3H .rtc$TMZ                DATA
 0002:0003981c 00000104H .rtc$TZZ                DATA
 0002:00039920 0000151eH .xdata$x                DATA
 0002:0003ae40 0000016dH .edata                  DATA
 0003:00000000 0000311bH .data                   DATA
 0003:00003120 00002570H .bss                    DATA
 0004:00000000 00000014H .idata$2                DATA
 0004:00000014 00000014H .idata$3                DATA
 0004:00000028 00000258H .idata$4                DATA
 0004:00000280 00000258H .idata$5                DATA
 0004:000004d8 00000a2fH .idata$6                DATA
 0005:00000000 00000169H .rsrc$01                DATA
 0005:00000170 000001b6H .rsrc$02                DATA

  Address         Publics by Value              Rva+Base       Lib:Object

 0000:00000000       __except_list              00000000     <absolute>
 0000:0000000f       ___safe_se_handler_count   0000000f     <absolute>
 0000:00000000       ___ImageBase               13000000     <linker-defined>
 0001:000047a0       ?protobuf_ShutdownFile_aggregator_2eproto@aggregator@@YAXXZ 130057a0 f   aggregator.pb.obj
 0001:00005270       ?protobuf_AddDesc_aggregator_2eproto_impl@aggregator@@YAXXZ 13006270 f   aggregator.pb.obj
 0001:00005d10       ?protobuf_AddDesc_aggregator_2eproto@aggregator@@YAXXZ 13006d10 f   aggregator.pb.obj
 0001:00005d40       ?GoogleOnceInit@protobuf@google@@YAXPAHP6AXXZ@Z 13006d40 f i aggregator.pb.obj
 0001:00005df0       ??0FunctionClosure0@internal@protobuf@google@@QAE@P6AXXZ_N@Z 13006df0 f i aggregator.pb.obj
 0001:00005e50       ??0Closure@protobuf@google@@QAE@XZ 13006e50 f i aggregator.pb.obj
 0001:00005e80       ??_GClosure@protobuf@google@@UAEPAXI@Z 13006e80 f i aggregator.pb.obj
 0001:00005e80       ??_EClosure@protobuf@google@@UAEPAXI@Z 13006e80 f i aggregator.pb.obj
 0001:00005ed0       ?Run@FunctionClosure0@internal@protobuf@google@@UAEXXZ 13006ed0 f i aggregator.pb.obj
 0001:00005f80       ??_EFunctionClosure0@internal@protobuf@google@@UAEPAXI@Z 13006f80 f i aggregator.pb.obj
 0001:00005f80       ??_GFunctionClosure0@internal@protobuf@google@@UAEPAXI@Z 13006f80 f i aggregator.pb.obj
 0001:00005fd0       ?Acquire_Load@internal@protobuf@google@@YAHPDH@Z 13006fd0 f i aggregator.pb.obj
 0001:00005ff0       ??0FileID@aggregator@@QAE@XZ 13006ff0 f   aggregator.pb.obj
 0001:00006040       ??0MessageLite@protobuf@google@@QAE@XZ 13007040 f i aggregator.pb.obj
 0001:00006070       ??_EMessageLite@protobuf@google@@UAEPAXI@Z 13007070 f i aggregator.pb.obj
 0001:00006070       ??_GMessageLite@protobuf@google@@UAEPAXI@Z 13007070 f i aggregator.pb.obj
 0001:000060c0       ?GetCachedSize@FileID@aggregator@@UBEHXZ 130070c0 f i aggregator.pb.obj
 0001:000060e0       ??_EFileID@aggregator@@UAEPAXI@Z 130070e0 f i aggregator.pb.obj
 0001:000060e0       ??_GFileID@aggregator@@UAEPAXI@Z 130070e0 f i aggregator.pb.obj
 0001:00006130       ?InitAsDefaultInstance@FileID@aggregator@@AAEXXZ 13007130 f   aggregator.pb.obj
 0001:00006150       ??0FileID@aggregator@@QAE@ABV01@@Z 13007150 f   aggregator.pb.obj
 0001:000061b0       ?SharedCtor@FileID@aggregator@@AAEXXZ 130071b0 f   aggregator.pb.obj
 0001:00006210       ??1FileID@aggregator@@UAE@XZ 13007210 f   aggregator.pb.obj
 0001:00006260       ?SharedDtor@FileID@aggregator@@AAEXXZ 13007260 f   aggregator.pb.obj
 0001:00006290       ?SetCachedSize@FileID@aggregator@@ABEXH@Z 13007290 f   aggregator.pb.obj
 0001:000062c0       ?default_instance@FileID@aggregator@@SAABV12@XZ 130072c0 f   aggregator.pb.obj
 0001:000062e0       ?New@FileID@aggregator@@UBEPAV12@XZ 130072e0 f   aggregator.pb.obj
 0001:00006350       ?Clear@FileID@aggregator@@UAEXXZ 13007350 f   aggregator.pb.obj
 0001:000063b0       ?MergePartialFromCodedStream@FileID@aggregator@@UAE_NPAVCodedInputStream@io@protobuf@google@@@Z 130073b0 f   aggregator.pb.obj
 0001:000064d0       ?ReadTag@CodedInputStream@io@protobuf@google@@QAEIXZ 130074d0 f i aggregator.pb.obj
 0001:00006560       ?ExpectAtEnd@CodedInputStream@io@protobuf@google@@QAE_NXZ 13007560 f i aggregator.pb.obj
 0001:000065c0       ?Advance@CodedInputStream@io@protobuf@google@@AAEXH@Z 130075c0 f i aggregator.pb.obj
 0001:000065f0       ?set_has_id@FileID@aggregator@@AAEXXZ 130075f0 f i aggregator.pb.obj
 0001:00006620       ?GetTagWireType@WireFormatLite@internal@protobuf@google@@SA?AW4WireType@1234@I@Z 13007620 f i aggregator.pb.obj
 0001:00006630       ?GetTagFieldNumber@WireFormatLite@internal@protobuf@google@@SAHI@Z 13007630 f i aggregator.pb.obj
 0001:00006640       ??$ReadPrimitive@I$0N@@WireFormatLite@internal@protobuf@google@@SA_NPAVCodedInputStream@io@23@PAI@Z 13007640 f i aggregator.pb.obj
 0001:00006660       ?ReadVarint32@CodedInputStream@io@protobuf@google@@QAE_NPAI@Z 13007660 f i aggregator.pb.obj
 0001:000066e0       ?SerializeWithCachedSizes@FileID@aggregator@@UBEXPAVCodedOutputStream@io@protobuf@google@@@Z 130076e0 f   aggregator.pb.obj
 0001:00006740       ?has_id@FileID@aggregator@@QBE_NXZ 13007740 f i aggregator.pb.obj
 0001:00006770       ?id@FileID@aggregator@@QBEIXZ 13007770 f i aggregator.pb.obj
 0001:00006790       ?ByteSize@FileID@aggregator@@UBEHXZ 13007790 f   aggregator.pb.obj
 0001:00006820       ?UInt32Size@WireFormatLite@internal@protobuf@google@@SAHI@Z 13007820 f i aggregator.pb.obj
 0001:00006840       ?VarintSize32@CodedOutputStream@io@protobuf@google@@SAHI@Z 13007840 f i aggregator.pb.obj
 0001:00006880       ?CheckTypeAndMergeFrom@FileID@aggregator@@UAEXABVMessageLite@protobuf@google@@@Z 13007880 f   aggregator.pb.obj
 0001:000068c0       ?MergeFrom@FileID@aggregator@@QAEXABV12@@Z 130078c0 f   aggregator.pb.obj
 0001:000069a0       ?set_id@FileID@aggregator@@QAEXI@Z 130079a0 f i aggregator.pb.obj
 0001:000069e0       ?CopyFrom@FileID@aggregator@@QAEXABV12@@Z 130079e0 f   aggregator.pb.obj
 0001:00006a40       ?IsInitialized@FileID@aggregator@@UBE_NXZ 13007a40 f   aggregator.pb.obj
 0001:00006a70       ?Swap@FileID@aggregator@@QAEXPAV12@@Z 13007a70 f   aggregator.pb.obj
 0001:00006b00       ?GetTypeName@FileID@aggregator@@UBE?AV?$basic_string@DU?$char_traits@D@std@@V?$allocator@D@2@@std@@XZ 13007b00 f   aggregator.pb.obj
 0001:00006b40       ??0CheckSumRequest@aggregator@@QAE@XZ 13007b40 f   aggregator.pb.obj
 0001:00006b90       ?GetCachedSize@CheckSumRequest@aggregator@@UBEHXZ 13007b90 f i aggregator.pb.obj
 0001:00006bb0       ??_ECheckSumRequest@aggregator@@UAEPAXI@Z 13007bb0 f i aggregator.pb.obj
 0001:00006bb0       ??_GCheckSumRequest@aggregator@@UAEPAXI@Z 13007bb0 f i aggregator.pb.obj
 0001:00006c00       ?InitAsDefaultInstance@CheckSumRequest@aggregator@@AAEXXZ 13007c00 f   aggregator.pb.obj
 0001:00006c30       ?internal_default_instance@FileID@aggregator@@SAPBV12@XZ 13007c30 f i aggregator.pb.obj
 0001:00006c40       ??0CheckSumRequest@aggregator@@QAE@ABV01@@Z 13007c40 f   aggregator.pb.obj
 0001:00006ca0       ?SharedCtor@CheckSumRequest@aggregator@@AAEXXZ 13007ca0 f   aggregator.pb.obj
 0001:00006d10       ??1CheckSumRequest@aggregator@@UAE@XZ 13007d10 f   aggregator.pb.obj
 0001:00006d60       ?SharedDtor@CheckSumRequest@aggregator@@AAEXXZ 13007d60 f   aggregator.pb.obj
 0001:00006df0       ?SetCachedSize@CheckSumRequest@aggregator@@ABEXH@Z 13007df0 f   aggregator.pb.obj
 0001:00006e20       ?default_instance@CheckSumRequest@aggregator@@SAABV12@XZ 13007e20 f   aggregator.pb.obj
 0001:00006e40       ?New@CheckSumRequest@aggregator@@UBEPAV12@XZ 13007e40 f   aggregator.pb.obj
 0001:00006eb0       ?Clear@CheckSumRequest@aggregator@@UAEXXZ 13007eb0 f   aggregator.pb.obj
 0001:00006f50       ?has_id@CheckSumRequest@aggregator@@QBE_NXZ 13007f50 f i aggregator.pb.obj
 0001:00006f80       ?MergePartialFromCodedStream@CheckSumRequest@aggregator@@UAE_NPAVCodedInputStream@io@protobuf@google@@@Z 13007f80 f   aggregator.pb.obj
 0001:000071a0       ?ExpectTag@CodedInputStream@io@protobuf@google@@QAE_NI@Z 130081a0 f i aggregator.pb.obj
 0001:00007290       ?BufferSize@CodedInputStream@io@protobuf@google@@ABEHXZ 13008290 f i aggregator.pb.obj
 0001:000072c0       ?mutable_id@CheckSumRequest@aggregator@@QAEPAVFileID@2@XZ 130082c0 f i aggregator.pb.obj
 0001:00007350       ?set_has_id@CheckSumRequest@aggregator@@AAEXXZ 13008350 f i aggregator.pb.obj
 0001:00007380       ?set_has_fb_cs_pos@CheckSumRequest@aggregator@@AAEXXZ 13008380 f i aggregator.pb.obj
 0001:000073b0       ?set_has_fb_cs_count@CheckSumRequest@aggregator@@AAEXXZ 130083b0 f i aggregator.pb.obj
 0001:000073e0       ?SerializeWithCachedSizes@CheckSumRequest@aggregator@@UBEXPAVCodedOutputStream@io@protobuf@google@@@Z 130083e0 f   aggregator.pb.obj
 0001:000074a0       ?id@CheckSumRequest@aggregator@@QBEABVFileID@2@XZ 130084a0 f i aggregator.pb.obj
 0001:00007510       ?has_fb_cs_pos@CheckSumRequest@aggregator@@QBE_NXZ 13008510 f i aggregator.pb.obj
 0001:00007540       ?fb_cs_pos@CheckSumRequest@aggregator@@QBEIXZ 13008540 f i aggregator.pb.obj
 0001:00007560       ?has_fb_cs_count@CheckSumRequest@aggregator@@QBE_NXZ 13008560 f i aggregator.pb.obj
 0001:00007590       ?fb_cs_count@CheckSumRequest@aggregator@@QBEIXZ 13008590 f i aggregator.pb.obj
 0001:000075b0       ?ByteSize@CheckSumRequest@aggregator@@UBEHXZ 130085b0 f   aggregator.pb.obj
 0001:000076b0       ?CheckTypeAndMergeFrom@CheckSumRequest@aggregator@@UAEXABVMessageLite@protobuf@google@@@Z 130086b0 f   aggregator.pb.obj
 0001:000076f0       ?MergeFrom@CheckSumRequest@aggregator@@QAEXABV12@@Z 130086f0 f   aggregator.pb.obj
 0001:00007830       ?set_fb_cs_pos@CheckSumRequest@aggregator@@QAEXI@Z 13008830 f i aggregator.pb.obj
 0001:00007870       ?set_fb_cs_count@CheckSumRequest@aggregator@@QAEXI@Z 13008870 f i aggregator.pb.obj
 0001:000078b0       ?CopyFrom@CheckSumRequest@aggregator@@QAEXABV12@@Z 130088b0 f   aggregator.pb.obj
 0001:00007910       ?IsInitialized@CheckSumRequest@aggregator@@UBE_NXZ 13008910 f   aggregator.pb.obj
 0001:000079b0       ?Swap@CheckSumRequest@aggregator@@QAEXPAV12@@Z 130089b0 f   aggregator.pb.obj
 0001:00007a70       ?GetTypeName@CheckSumRequest@aggregator@@UBE?AV?$basic_string@DU?$char_traits@D@std@@V?$allocator@D@2@@std@@XZ 13008a70 f   aggregator.pb.obj
 0001:00007ab0       ??0CheckSumResponse@aggregator@@QAE@XZ 13008ab0 f   aggregator.pb.obj
 0001:00007b00       ?GetCachedSize@CheckSumResponse@aggregator@@UBEHXZ 13008b00 f i aggregator.pb.obj
 0001:00007b20       ??_GCheckSumResponse@aggregator@@UAEPAXI@Z 13008b20 f i aggregator.pb.obj
 0001:00007b20       ??_ECheckSumResponse@aggregator@@UAEPAXI@Z 13008b20 f i aggregator.pb.obj
 0001:00007b70       ?InitAsDefaultInstance@CheckSumResponse@aggregator@@AAEXXZ 13008b70 f   aggregator.pb.obj
 0001:00007ba0       ??0CheckSumResponse@aggregator@@QAE@ABV01@@Z 13008ba0 f   aggregator.pb.obj
 0001:00007c00       ?SharedCtor@CheckSumResponse@aggregator@@AAEXXZ 13008c00 f   aggregator.pb.obj
 0001:00007c80       ??1CheckSumResponse@aggregator@@UAE@XZ 13008c80 f   aggregator.pb.obj
 0001:00007cd0       ?SharedDtor@CheckSumResponse@aggregator@@AAEXXZ 13008cd0 f   aggregator.pb.obj
 0001:00007db0       ??_G?$basic_string@DU?$char_traits@D@std@@V?$allocator@D@2@@std@@QAEPAXI@Z 13008db0 f i aggregator.pb.obj
 0001:00007e00       ?SetCachedSize@CheckSumResponse@aggregator@@ABEXH@Z 13008e00 f   aggregator.pb.obj
 0001:00007e30       ?default_instance@CheckSumResponse@aggregator@@SAABV12@XZ 13008e30 f   aggregator.pb.obj
 0001:00007e50       ?New@CheckSumResponse@aggregator@@UBEPAV12@XZ 13008e50 f   aggregator.pb.obj
 0001:00007ec0       ?Clear@CheckSumResponse@aggregator@@UAEXXZ 13008ec0 f   aggregator.pb.obj
 0001:00007f80       ?has_id@CheckSumResponse@aggregator@@QBE_NXZ 13008f80 f i aggregator.pb.obj
 0001:00007fb0       ?has_fb_cs_data@CheckSumResponse@aggregator@@QBE_NXZ 13008fb0 f i aggregator.pb.obj
 0001:00007fe0       ?MergePartialFromCodedStream@CheckSumResponse@aggregator@@UAE_NPAVCodedInputStream@io@protobuf@google@@@Z 13008fe0 f   aggregator.pb.obj
 0001:00008280       ?mutable_id@CheckSumResponse@aggregator@@QAEPAVFileID@2@XZ 13009280 f i aggregator.pb.obj
 0001:00008310       ?set_has_id@CheckSumResponse@aggregator@@AAEXXZ 13009310 f i aggregator.pb.obj
 0001:00008340       ?set_has_fb_cs_pos@CheckSumResponse@aggregator@@AAEXXZ 13009340 f i aggregator.pb.obj
 0001:00008370       ?set_has_fb_cs_count@CheckSumResponse@aggregator@@AAEXXZ 13009370 f i aggregator.pb.obj
 0001:000083a0       ?mutable_fb_cs_data@CheckSumResponse@aggregator@@QAEPAV?$basic_string@DU?$char_traits@D@std@@V?$allocator@D@2@@std@@XZ 130093a0 f i aggregator.pb.obj
 0001:00008440       ?set_has_fb_cs_data@CheckSumResponse@aggregator@@AAEXXZ 13009440 f i aggregator.pb.obj
 0001:00008470       ?SerializeWithCachedSizes@CheckSumResponse@aggregator@@UBEXPAVCodedOutputStream@io@protobuf@google@@@Z 13009470 f   aggregator.pb.obj
 0001:00008560       ?id@CheckSumResponse@aggregator@@QBEABVFileID@2@XZ 13009560 f i aggregator.pb.obj
 0001:000085d0       ?has_fb_cs_pos@CheckSumResponse@aggregator@@QBE_NXZ 130095d0 f i aggregator.pb.obj
 0001:00008600       ?fb_cs_pos@CheckSumResponse@aggregator@@QBEIXZ 13009600 f i aggregator.pb.obj
 0001:00008620       ?has_fb_cs_count@CheckSumResponse@aggregator@@QBE_NXZ 13009620 f i aggregator.pb.obj
 0001:00008650       ?fb_cs_count@CheckSumResponse@aggregator@@QBEIXZ 13009650 f i aggregator.pb.obj
 0001:00008670       ?fb_cs_data@CheckSumResponse@aggregator@@QBEABV?$basic_string@DU?$char_traits@D@std@@V?$allocator@D@2@@std@@XZ 13009670 f i aggregator.pb.obj
 0001:00008690       ?ByteSize@CheckSumResponse@aggregator@@UBEHXZ 13009690 f   aggregator.pb.obj
 0001:000087c0       ?BytesSize@WireFormatLite@internal@protobuf@google@@SAHABV?$basic_string@DU?$char_traits@D@std@@V?$allocator@D@2@@std@@@Z 130097c0 f i aggregator.pb.obj
 0001:00008800       ?CheckTypeAndMergeFrom@CheckSumResponse@aggregator@@UAEXABVMessageLite@protobuf@google@@@Z 13009800 f   aggregator.pb.obj
 0001:00008840       ?MergeFrom@CheckSumResponse@aggregator@@QAEXABV12@@Z 13009840 f   aggregator.pb.obj
 0001:000089b0       ?set_fb_cs_pos@CheckSumResponse@aggregator@@QAEXI@Z 130099b0 f i aggregator.pb.obj
 0001:000089f0       ?set_fb_cs_count@CheckSumResponse@aggregator@@QAEXI@Z 130099f0 f i aggregator.pb.obj
 0001:00008a30       ?set_fb_cs_data@CheckSumResponse@aggregator@@QAEXABV?$basic_string@DU?$char_traits@D@std@@V?$allocator@D@2@@std@@@Z 13009a30 f i aggregator.pb.obj
 0001:00008ae0       ?CopyFrom@CheckSumResponse@aggregator@@QAEXABV12@@Z 13009ae0 f   aggregator.pb.obj
 0001:00008b40       ?IsInitialized@CheckSumResponse@aggregator@@UBE_NXZ 13009b40 f   aggregator.pb.obj
 0001:00008be0       ?Swap@CheckSumResponse@aggregator@@QAEXPAV12@@Z 13009be0 f   aggregator.pb.obj
 0001:00008cc0       ?GetTypeName@CheckSumResponse@aggregator@@UBE?AV?$basic_string@DU?$char_traits@D@std@@V?$allocator@D@2@@std@@XZ 13009cc0 f   aggregator.pb.obj
 0001:00008d00       ??0LogRequest@aggregator@@QAE@XZ 13009d00 f   aggregator.pb.obj
 0001:00008d50       ?GetCachedSize@LogRequest@aggregator@@UBEHXZ 13009d50 f i aggregator.pb.obj
 0001:00008d70       ??_ELogRequest@aggregator@@UAEPAXI@Z 13009d70 f i aggregator.pb.obj
 0001:00008d70       ??_GLogRequest@aggregator@@UAEPAXI@Z 13009d70 f i aggregator.pb.obj
 0001:00008dc0       ?InitAsDefaultInstance@LogRequest@aggregator@@AAEXXZ 13009dc0 f   aggregator.pb.obj
 0001:00008de0       ??0LogRequest@aggregator@@QAE@ABV01@@Z 13009de0 f   aggregator.pb.obj
 0001:00008e40       ?SharedCtor@LogRequest@aggregator@@AAEXXZ 13009e40 f   aggregator.pb.obj
 0001:00008eb0       ??1LogRequest@aggregator@@UAE@XZ 13009eb0 f   aggregator.pb.obj
 0001:00008f00       ?SharedDtor@LogRequest@aggregator@@AAEXXZ 13009f00 f   aggregator.pb.obj
 0001:00008fd0       ?SetCachedSize@LogRequest@aggregator@@ABEXH@Z 13009fd0 f   aggregator.pb.obj
 0001:00009000       ?default_instance@LogRequest@aggregator@@SAABV12@XZ 1300a000 f   aggregator.pb.obj
 0001:00009020       ?New@LogRequest@aggregator@@UBEPAV12@XZ 1300a020 f   aggregator.pb.obj
 0001:00009090       ?Clear@LogRequest@aggregator@@UAEXXZ 1300a090 f   aggregator.pb.obj
 0001:00009150       ?has_data@LogRequest@aggregator@@QBE_NXZ 1300a150 f i aggregator.pb.obj
 0001:00009180       ?has_content@LogRequest@aggregator@@QBE_NXZ 1300a180 f i aggregator.pb.obj
 0001:000091b0       ?MergePartialFromCodedStream@LogRequest@aggregator@@UAE_NPAVCodedInputStream@io@protobuf@google@@@Z 1300a1b0 f   aggregator.pb.obj
 0001:000093c0       ?set_has_type@LogRequest@aggregator@@AAEXXZ 1300a3c0 f i aggregator.pb.obj
 0001:000093f0       ?mutable_data@LogRequest@aggregator@@QAEPAV?$basic_string@DU?$char_traits@D@std@@V?$allocator@D@2@@std@@XZ 1300a3f0 f i aggregator.pb.obj
 0001:00009490       ?set_has_data@LogRequest@aggregator@@AAEXXZ 1300a490 f i aggregator.pb.obj
 0001:000094c0       ?mutable_content@LogRequest@aggregator@@QAEPAV?$basic_string@DU?$char_traits@D@std@@V?$allocator@D@2@@std@@XZ 1300a4c0 f i aggregator.pb.obj
 0001:00009560       ?set_has_content@LogRequest@aggregator@@AAEXXZ 1300a560 f i aggregator.pb.obj
 0001:00009590       ?SerializeWithCachedSizes@LogRequest@aggregator@@UBEXPAVCodedOutputStream@io@protobuf@google@@@Z 1300a590 f   aggregator.pb.obj
 0001:00009650       ?has_type@LogRequest@aggregator@@QBE_NXZ 1300a650 f i aggregator.pb.obj
 0001:00009680       ?type@LogRequest@aggregator@@QBEIXZ 1300a680 f i aggregator.pb.obj
 0001:000096a0       ?data@LogRequest@aggregator@@QBEABV?$basic_string@DU?$char_traits@D@std@@V?$allocator@D@2@@std@@XZ 1300a6a0 f i aggregator.pb.obj
 0001:000096c0       ?content@LogRequest@aggregator@@QBEABV?$basic_string@DU?$char_traits@D@std@@V?$allocator@D@2@@std@@XZ 1300a6c0 f i aggregator.pb.obj
 0001:000096e0       ?ByteSize@LogRequest@aggregator@@UBEHXZ 1300a6e0 f   aggregator.pb.obj
 0001:000097e0       ?StringSize@WireFormatLite@internal@protobuf@google@@SAHABV?$basic_string@DU?$char_traits@D@std@@V?$allocator@D@2@@std@@@Z 1300a7e0 f i aggregator.pb.obj
 0001:00009820       ?CheckTypeAndMergeFrom@LogRequest@aggregator@@UAEXABVMessageLite@protobuf@google@@@Z 1300a820 f   aggregator.pb.obj
 0001:00009860       ?MergeFrom@LogRequest@aggregator@@QAEXABV12@@Z 1300a860 f   aggregator.pb.obj
 0001:00009990       ?set_type@LogRequest@aggregator@@QAEXI@Z 1300a990 f i aggregator.pb.obj
 0001:000099d0       ?set_data@LogRequest@aggregator@@QAEXABV?$basic_string@DU?$char_traits@D@std@@V?$allocator@D@2@@std@@@Z 1300a9d0 f i aggregator.pb.obj
 0001:00009a80       ?set_content@LogRequest@aggregator@@QAEXABV?$basic_string@DU?$char_traits@D@std@@V?$allocator@D@2@@std@@@Z 1300aa80 f i aggregator.pb.obj
 0001:00009b30       ?CopyFrom@LogRequest@aggregator@@QAEXABV12@@Z 1300ab30 f   aggregator.pb.obj
 0001:00009b90       ?IsInitialized@LogRequest@aggregator@@UBE_NXZ 1300ab90 f   aggregator.pb.obj
 0001:00009bc0       ?Swap@LogRequest@aggregator@@QAEXPAV12@@Z 1300abc0 f   aggregator.pb.obj
 0001:00009c80       ?GetTypeName@LogRequest@aggregator@@UBE?AV?$basic_string@DU?$char_traits@D@std@@V?$allocator@D@2@@std@@XZ 1300ac80 f   aggregator.pb.obj
 0001:00009cc0       ??0LogResponse@aggregator@@QAE@XZ 1300acc0 f   aggregator.pb.obj
 0001:00009d10       ?GetCachedSize@LogResponse@aggregator@@UBEHXZ 1300ad10 f i aggregator.pb.obj
 0001:00009d30       ??_GLogResponse@aggregator@@UAEPAXI@Z 1300ad30 f i aggregator.pb.obj
 0001:00009d30       ??_ELogResponse@aggregator@@UAEPAXI@Z 1300ad30 f i aggregator.pb.obj
 0001:00009d80       ?InitAsDefaultInstance@LogResponse@aggregator@@AAEXXZ 1300ad80 f   aggregator.pb.obj
 0001:00009da0       ??0LogResponse@aggregator@@QAE@ABV01@@Z 1300ada0 f   aggregator.pb.obj
 0001:00009e00       ?SharedCtor@LogResponse@aggregator@@AAEXXZ 1300ae00 f   aggregator.pb.obj
 0001:00009e50       ??1LogResponse@aggregator@@UAE@XZ 1300ae50 f   aggregator.pb.obj
 0001:00009ea0       ?SharedDtor@LogResponse@aggregator@@AAEXXZ 1300aea0 f   aggregator.pb.obj
 0001:00009ed0       ?SetCachedSize@LogResponse@aggregator@@ABEXH@Z 1300aed0 f   aggregator.pb.obj
 0001:00009f00       ?default_instance@LogResponse@aggregator@@SAABV12@XZ 1300af00 f   aggregator.pb.obj
 0001:00009f20       ?New@LogResponse@aggregator@@UBEPAV12@XZ 1300af20 f   aggregator.pb.obj
 0001:00009f90       ?Clear@LogResponse@aggregator@@UAEXXZ 1300af90 f   aggregator.pb.obj
 0001:00009fd0       ?MergePartialFromCodedStream@LogResponse@aggregator@@UAE_NPAVCodedInputStream@io@protobuf@google@@@Z 1300afd0 f   aggregator.pb.obj
 0001:0000a060       ?SerializeWithCachedSizes@LogResponse@aggregator@@UBEXPAVCodedOutputStream@io@protobuf@google@@@Z 1300b060 f   aggregator.pb.obj
 0001:0000a080       ?ByteSize@LogResponse@aggregator@@UBEHXZ 1300b080 f   aggregator.pb.obj
 0001:0000a0c0       ?CheckTypeAndMergeFrom@LogResponse@aggregator@@UAEXABVMessageLite@protobuf@google@@@Z 1300b0c0 f   aggregator.pb.obj
 0001:0000a100       ?MergeFrom@LogResponse@aggregator@@QAEXABV12@@Z 1300b100 f   aggregator.pb.obj
 0001:0000a1b0       ?CopyFrom@LogResponse@aggregator@@QAEXABV12@@Z 1300b1b0 f   aggregator.pb.obj
 0001:0000a210       ?IsInitialized@LogResponse@aggregator@@UBE_NXZ 1300b210 f   aggregator.pb.obj
 0001:0000a230       ?Swap@LogResponse@aggregator@@QAEXPAV12@@Z 1300b230 f   aggregator.pb.obj
 0001:0000a280       ?GetTypeName@LogResponse@aggregator@@UBE?AV?$basic_string@DU?$char_traits@D@std@@V?$allocator@D@2@@std@@XZ 1300b280 f   aggregator.pb.obj
 0001:0000a2c0       ??0FileRequest_File@aggregator@@QAE@XZ 1300b2c0 f   aggregator.pb.obj
 0001:0000a310       ?GetCachedSize@FileRequest_File@aggregator@@UBEHXZ 1300b310 f i aggregator.pb.obj
 0001:0000a330       ??_GFileRequest_File@aggregator@@UAEPAXI@Z 1300b330 f i aggregator.pb.obj
 0001:0000a330       ??_EFileRequest_File@aggregator@@UAEPAXI@Z 1300b330 f i aggregator.pb.obj
 0001:0000a380       ?InitAsDefaultInstance@FileRequest_File@aggregator@@AAEXXZ 1300b380 f   aggregator.pb.obj
 0001:0000a3a0       ??0FileRequest_File@aggregator@@QAE@ABV01@@Z 1300b3a0 f   aggregator.pb.obj
 0001:0000a400       ?SharedCtor@FileRequest_File@aggregator@@AAEXXZ 1300b400 f   aggregator.pb.obj
 0001:0000a480       ??1FileRequest_File@aggregator@@UAE@XZ 1300b480 f   aggregator.pb.obj
 0001:0000a4d0       ?SharedDtor@FileRequest_File@aggregator@@AAEXXZ 1300b4d0 f   aggregator.pb.obj
 0001:0000a5a0       ?SetCachedSize@FileRequest_File@aggregator@@ABEXH@Z 1300b5a0 f   aggregator.pb.obj
 0001:0000a5d0       ?default_instance@FileRequest_File@aggregator@@SAABV12@XZ 1300b5d0 f   aggregator.pb.obj
 0001:0000a5f0       ?New@FileRequest_File@aggregator@@UBEPAV12@XZ 1300b5f0 f   aggregator.pb.obj
 0001:0000a660       ?Clear@FileRequest_File@aggregator@@UAEXXZ 1300b660 f   aggregator.pb.obj
 0001:0000a720       ?has_dir@FileRequest_File@aggregator@@QBE_NXZ 1300b720 f i aggregator.pb.obj
 0001:0000a750       ?has_name@FileRequest_File@aggregator@@QBE_NXZ 1300b750 f i aggregator.pb.obj
 0001:0000a780       ?MergePartialFromCodedStream@FileRequest_File@aggregator@@UAE_NPAVCodedInputStream@io@protobuf@google@@@Z 1300b780 f   aggregator.pb.obj
 0001:0000a990       ?mutable_dir@FileRequest_File@aggregator@@QAEPAV?$basic_string@DU?$char_traits@D@std@@V?$allocator@D@2@@std@@XZ 1300b990 f i aggregator.pb.obj
 0001:0000aa30       ?set_has_dir@FileRequest_File@aggregator@@AAEXXZ 1300ba30 f i aggregator.pb.obj
 0001:0000aa60       ?mutable_name@FileRequest_File@aggregator@@QAEPAV?$basic_string@DU?$char_traits@D@std@@V?$allocator@D@2@@std@@XZ 1300ba60 f i aggregator.pb.obj
 0001:0000ab00       ?set_has_name@FileRequest_File@aggregator@@AAEXXZ 1300bb00 f i aggregator.pb.obj
 0001:0000ab30       ?set_has_ctime@FileRequest_File@aggregator@@AAEXXZ 1300bb30 f i aggregator.pb.obj
 0001:0000ab60       ??$ReadPrimitive@_K$03@WireFormatLite@internal@protobuf@google@@SA_NPAVCodedInputStream@io@23@PA_K@Z 1300bb60 f i aggregator.pb.obj
 0001:0000ab80       ?ReadVarint64@CodedInputStream@io@protobuf@google@@QAE_NPA_K@Z 1300bb80 f i aggregator.pb.obj
 0001:0000ac10       ?SerializeWithCachedSizes@FileRequest_File@aggregator@@UBEXPAVCodedOutputStream@io@protobuf@google@@@Z 1300bc10 f   aggregator.pb.obj
 0001:0000acd0       ?dir@FileRequest_File@aggregator@@QBEABV?$basic_string@DU?$char_traits@D@std@@V?$allocator@D@2@@std@@XZ 1300bcd0 f i aggregator.pb.obj
 0001:0000acf0       ?name@FileRequest_File@aggregator@@QBEABV?$basic_string@DU?$char_traits@D@std@@V?$allocator@D@2@@std@@XZ 1300bcf0 f i aggregator.pb.obj
 0001:0000ad10       ?has_ctime@FileRequest_File@aggregator@@QBE_NXZ 1300bd10 f i aggregator.pb.obj
 0001:0000ad40       ?ctime@FileRequest_File@aggregator@@QBE_KXZ 1300bd40 f i aggregator.pb.obj
 0001:0000ad70       ?ByteSize@FileRequest_File@aggregator@@UBEHXZ 1300bd70 f   aggregator.pb.obj
 0001:0000ae70       ?UInt64Size@WireFormatLite@internal@protobuf@google@@SAH_K@Z 1300be70 f i aggregator.pb.obj
 0001:0000aea0       ?CheckTypeAndMergeFrom@FileRequest_File@aggregator@@UAEXABVMessageLite@protobuf@google@@@Z 1300bea0 f   aggregator.pb.obj
 0001:0000aee0       ?MergeFrom@FileRequest_File@aggregator@@QAEXABV12@@Z 1300bee0 f   aggregator.pb.obj
 0001:0000b010       ?set_dir@FileRequest_File@aggregator@@QAEXABV?$basic_string@DU?$char_traits@D@std@@V?$allocator@D@2@@std@@@Z 1300c010 f i aggregator.pb.obj
 0001:0000b0c0       ?set_name@FileRequest_File@aggregator@@QAEXABV?$basic_string@DU?$char_traits@D@std@@V?$allocator@D@2@@std@@@Z 1300c0c0 f i aggregator.pb.obj
 0001:0000b170       ?set_ctime@FileRequest_File@aggregator@@QAEX_K@Z 1300c170 f i aggregator.pb.obj
 0001:0000b1c0       ?CopyFrom@FileRequest_File@aggregator@@QAEXABV12@@Z 1300c1c0 f   aggregator.pb.obj
 0001:0000b220       ?IsInitialized@FileRequest_File@aggregator@@UBE_NXZ 1300c220 f   aggregator.pb.obj
 0001:0000b250       ?Swap@FileRequest_File@aggregator@@QAEXPAV12@@Z 1300c250 f   aggregator.pb.obj
 0001:0000b310       ?GetTypeName@FileRequest_File@aggregator@@UBE?AV?$basic_string@DU?$char_traits@D@std@@V?$allocator@D@2@@std@@XZ 1300c310 f   aggregator.pb.obj
 0001:0000b350       ??0FileRequest@aggregator@@QAE@XZ 1300c350 f   aggregator.pb.obj
 0001:0000b3b0       ?GetCachedSize@FileRequest@aggregator@@UBEHXZ 1300c3b0 f i aggregator.pb.obj
 0001:0000b3d0       ??_EFileRequest@aggregator@@UAEPAXI@Z 1300c3d0 f i aggregator.pb.obj
 0001:0000b3d0       ??_GFileRequest@aggregator@@UAEPAXI@Z 1300c3d0 f i aggregator.pb.obj
 0001:0000b420       ?InitAsDefaultInstance@FileRequest@aggregator@@AAEXXZ 1300c420 f   aggregator.pb.obj
 0001:0000b440       ??0FileRequest@aggregator@@QAE@ABV01@@Z 1300c440 f   aggregator.pb.obj
 0001:0000b4b0       ?SharedCtor@FileRequest@aggregator@@AAEXXZ 1300c4b0 f   aggregator.pb.obj
 0001:0000b500       ??1FileRequest@aggregator@@UAE@XZ 1300c500 f   aggregator.pb.obj
 0001:0000b550       ?SharedDtor@FileRequest@aggregator@@AAEXXZ 1300c550 f   aggregator.pb.obj
 0001:0000b580       ?SetCachedSize@FileRequest@aggregator@@ABEXH@Z 1300c580 f   aggregator.pb.obj
 0001:0000b5b0       ?default_instance@FileRequest@aggregator@@SAABV12@XZ 1300c5b0 f   aggregator.pb.obj
 0001:0000b5d0       ?New@FileRequest@aggregator@@UBEPAV12@XZ 1300c5d0 f   aggregator.pb.obj
 0001:0000b640       ?Clear@FileRequest@aggregator@@UAEXXZ 1300c640 f   aggregator.pb.obj
 0001:0000b690       ?MergePartialFromCodedStream@FileRequest@aggregator@@UAE_NPAVCodedInputStream@io@protobuf@google@@@Z 1300c690 f   aggregator.pb.obj
 0001:0000b7d0       ?add_file@FileRequest@aggregator@@QAEPAVFileRequest_File@2@XZ 1300c7d0 f i aggregator.pb.obj
 0001:0000b800       ?SerializeWithCachedSizes@FileRequest@aggregator@@UBEXPAVCodedOutputStream@io@protobuf@google@@@Z 1300c800 f   aggregator.pb.obj
 0001:0000b880       ?file_size@FileRequest@aggregator@@QBEHXZ 1300c880 f i aggregator.pb.obj
 0001:0000b8b0       ?file@FileRequest@aggregator@@QBEABVFileRequest_File@2@H@Z 1300c8b0 f i aggregator.pb.obj
 0001:0000b8f0       ?ByteSize@FileRequest@aggregator@@UBEHXZ 1300c8f0 f   aggregator.pb.obj
 0001:0000b9a0       ?CheckTypeAndMergeFrom@FileRequest@aggregator@@UAEXABVMessageLite@protobuf@google@@@Z 1300c9a0 f   aggregator.pb.obj
 0001:0000b9e0       ?MergeFrom@FileRequest@aggregator@@QAEXABV12@@Z 1300c9e0 f   aggregator.pb.obj
 0001:0000baa0       ?CopyFrom@FileRequest@aggregator@@QAEXABV12@@Z 1300caa0 f   aggregator.pb.obj
 0001:0000bb00       ?IsInitialized@FileRequest@aggregator@@UBE_NXZ 1300cb00 f   aggregator.pb.obj
 0001:0000bbb0       ?Swap@FileRequest@aggregator@@QAEXPAV12@@Z 1300cbb0 f   aggregator.pb.obj
 0001:0000bc30       ?GetTypeName@FileRequest@aggregator@@UBE?AV?$basic_string@DU?$char_traits@D@std@@V?$allocator@D@2@@std@@XZ 1300cc30 f   aggregator.pb.obj
 0001:0000bc70       ??0FileResponse_File@aggregator@@QAE@XZ 1300cc70 f   aggregator.pb.obj
 0001:0000bcc0       ?GetCachedSize@FileResponse_File@aggregator@@UBEHXZ 1300ccc0 f i aggregator.pb.obj
 0001:0000bce0       ??_EFileResponse_File@aggregator@@UAEPAXI@Z 1300cce0 f i aggregator.pb.obj
 0001:0000bce0       ??_GFileResponse_File@aggregator@@UAEPAXI@Z 1300cce0 f i aggregator.pb.obj
 0001:0000bd30       ?InitAsDefaultInstance@FileResponse_File@aggregator@@AAEXXZ 1300cd30 f   aggregator.pb.obj
 0001:0000bd60       ??0FileResponse_File@aggregator@@QAE@ABV01@@Z 1300cd60 f   aggregator.pb.obj
 0001:0000bdc0       ?SharedCtor@FileResponse_File@aggregator@@AAEXXZ 1300cdc0 f   aggregator.pb.obj
 0001:0000be30       ??1FileResponse_File@aggregator@@UAE@XZ 1300ce30 f   aggregator.pb.obj
 0001:0000be80       ?SharedDtor@FileResponse_File@aggregator@@AAEXXZ 1300ce80 f   aggregator.pb.obj
 0001:0000bfa0       ?SetCachedSize@FileResponse_File@aggregator@@ABEXH@Z 1300cfa0 f   aggregator.pb.obj
 0001:0000bfd0       ?default_instance@FileResponse_File@aggregator@@SAABV12@XZ 1300cfd0 f   aggregator.pb.obj
 0001:0000bff0       ?New@FileResponse_File@aggregator@@UBEPAV12@XZ 1300cff0 f   aggregator.pb.obj
 0001:0000c060       ?Clear@FileResponse_File@aggregator@@UAEXXZ 1300d060 f   aggregator.pb.obj
 0001:0000c140       ?has_id@FileResponse_File@aggregator@@QBE_NXZ 1300d140 f i aggregator.pb.obj
 0001:0000c170       ?has_dir@FileResponse_File@aggregator@@QBE_NXZ 1300d170 f i aggregator.pb.obj
 0001:0000c1a0       ?has_name@FileResponse_File@aggregator@@QBE_NXZ 1300d1a0 f i aggregator.pb.obj
 0001:0000c1d0       ?MergePartialFromCodedStream@FileResponse_File@aggregator@@UAE_NPAVCodedInputStream@io@protobuf@google@@@Z 1300d1d0 f   aggregator.pb.obj
 0001:0000c3e0       ?mutable_id@FileResponse_File@aggregator@@QAEPAVFileID@2@XZ 1300d3e0 f i aggregator.pb.obj
 0001:0000c470       ?set_has_id@FileResponse_File@aggregator@@AAEXXZ 1300d470 f i aggregator.pb.obj
 0001:0000c4a0       ?mutable_dir@FileResponse_File@aggregator@@QAEPAV?$basic_string@DU?$char_traits@D@std@@V?$allocator@D@2@@std@@XZ 1300d4a0 f i aggregator.pb.obj
 0001:0000c540       ?set_has_dir@FileResponse_File@aggregator@@AAEXXZ 1300d540 f i aggregator.pb.obj
 0001:0000c570       ?mutable_name@FileResponse_File@aggregator@@QAEPAV?$basic_string@DU?$char_traits@D@std@@V?$allocator@D@2@@std@@XZ 1300d570 f i aggregator.pb.obj
 0001:0000c610       ?set_has_name@FileResponse_File@aggregator@@AAEXXZ 1300d610 f i aggregator.pb.obj
 0001:0000c640       ?SerializeWithCachedSizes@FileResponse_File@aggregator@@UBEXPAVCodedOutputStream@io@protobuf@google@@@Z 1300d640 f   aggregator.pb.obj
 0001:0000c700       ?id@FileResponse_File@aggregator@@QBEABVFileID@2@XZ 1300d700 f i aggregator.pb.obj
 0001:0000c770       ?dir@FileResponse_File@aggregator@@QBEABV?$basic_string@DU?$char_traits@D@std@@V?$allocator@D@2@@std@@XZ 1300d770 f i aggregator.pb.obj
 0001:0000c790       ?name@FileResponse_File@aggregator@@QBEABV?$basic_string@DU?$char_traits@D@std@@V?$allocator@D@2@@std@@XZ 1300d790 f i aggregator.pb.obj
 0001:0000c7b0       ?ByteSize@FileResponse_File@aggregator@@UBEHXZ 1300d7b0 f   aggregator.pb.obj
 0001:0000c8b0       ?CheckTypeAndMergeFrom@FileResponse_File@aggregator@@UAEXABVMessageLite@protobuf@google@@@Z 1300d8b0 f   aggregator.pb.obj
 0001:0000c8f0       ?MergeFrom@FileResponse_File@aggregator@@QAEXABV12@@Z 1300d8f0 f   aggregator.pb.obj
 0001:0000ca30       ?set_dir@FileResponse_File@aggregator@@QAEXABV?$basic_string@DU?$char_traits@D@std@@V?$allocator@D@2@@std@@@Z 1300da30 f i aggregator.pb.obj
 0001:0000cae0       ?set_name@FileResponse_File@aggregator@@QAEXABV?$basic_string@DU?$char_traits@D@std@@V?$allocator@D@2@@std@@@Z 1300dae0 f i aggregator.pb.obj
 0001:0000cb90       ?CopyFrom@FileResponse_File@aggregator@@QAEXABV12@@Z 1300db90 f   aggregator.pb.obj
 0001:0000cbf0       ?IsInitialized@FileResponse_File@aggregator@@UBE_NXZ 1300dbf0 f   aggregator.pb.obj
 0001:0000cc90       ?Swap@FileResponse_File@aggregator@@QAEXPAV12@@Z 1300dc90 f   aggregator.pb.obj
 0001:0000cd50       ?GetTypeName@FileResponse_File@aggregator@@UBE?AV?$basic_string@DU?$char_traits@D@std@@V?$allocator@D@2@@std@@XZ 1300dd50 f   aggregator.pb.obj
 0001:0000cd90       ??0FileResponse@aggregator@@QAE@XZ 1300dd90 f   aggregator.pb.obj
 0001:0000cdf0       ?GetCachedSize@FileResponse@aggregator@@UBEHXZ 1300ddf0 f i aggregator.pb.obj
 0001:0000ce10       ??_EFileResponse@aggregator@@UAEPAXI@Z 1300de10 f i aggregator.pb.obj
 0001:0000ce10       ??_GFileResponse@aggregator@@UAEPAXI@Z 1300de10 f i aggregator.pb.obj
 0001:0000ce60       ?InitAsDefaultInstance@FileResponse@aggregator@@AAEXXZ 1300de60 f   aggregator.pb.obj
 0001:0000ce80       ??0FileResponse@aggregator@@QAE@ABV01@@Z 1300de80 f   aggregator.pb.obj
 0001:0000cef0       ?SharedCtor@FileResponse@aggregator@@AAEXXZ 1300def0 f   aggregator.pb.obj
 0001:0000cf40       ??1FileResponse@aggregator@@UAE@XZ 1300df40 f   aggregator.pb.obj
 0001:0000cf90       ?SharedDtor@FileResponse@aggregator@@AAEXXZ 1300df90 f   aggregator.pb.obj
 0001:0000cfc0       ?SetCachedSize@FileResponse@aggregator@@ABEXH@Z 1300dfc0 f   aggregator.pb.obj
 0001:0000cff0       ?default_instance@FileResponse@aggregator@@SAABV12@XZ 1300dff0 f   aggregator.pb.obj
 0001:0000d010       ?New@FileResponse@aggregator@@UBEPAV12@XZ 1300e010 f   aggregator.pb.obj
 0001:0000d080       ?Clear@FileResponse@aggregator@@UAEXXZ 1300e080 f   aggregator.pb.obj
 0001:0000d0d0       ?MergePartialFromCodedStream@FileResponse@aggregator@@UAE_NPAVCodedInputStream@io@protobuf@google@@@Z 1300e0d0 f   aggregator.pb.obj
 0001:0000d210       ?add_file@FileResponse@aggregator@@QAEPAVFileResponse_File@2@XZ 1300e210 f i aggregator.pb.obj
 0001:0000d240       ?SerializeWithCachedSizes@FileResponse@aggregator@@UBEXPAVCodedOutputStream@io@protobuf@google@@@Z 1300e240 f   aggregator.pb.obj
 0001:0000d2c0       ?file_size@FileResponse@aggregator@@QBEHXZ 1300e2c0 f i aggregator.pb.obj
 0001:0000d2f0       ?file@FileResponse@aggregator@@QBEABVFileResponse_File@2@H@Z 1300e2f0 f i aggregator.pb.obj
 0001:0000d330       ?ByteSize@FileResponse@aggregator@@UBEHXZ 1300e330 f   aggregator.pb.obj
 0001:0000d3e0       ?CheckTypeAndMergeFrom@FileResponse@aggregator@@UAEXABVMessageLite@protobuf@google@@@Z 1300e3e0 f   aggregator.pb.obj
 0001:0000d420       ?MergeFrom@FileResponse@aggregator@@QAEXABV12@@Z 1300e420 f   aggregator.pb.obj
 0001:0000d4e0       ?CopyFrom@FileResponse@aggregator@@QAEXABV12@@Z 1300e4e0 f   aggregator.pb.obj
 0001:0000d540       ?IsInitialized@FileResponse@aggregator@@UBE_NXZ 1300e540 f   aggregator.pb.obj
 0001:0000d5f0       ?Swap@FileResponse@aggregator@@QAEXPAV12@@Z 1300e5f0 f   aggregator.pb.obj
 0001:0000d670       ?GetTypeName@FileResponse@aggregator@@UBE?AV?$basic_string@DU?$char_traits@D@std@@V?$allocator@D@2@@std@@XZ 1300e670 f   aggregator.pb.obj
 0001:0000d6b0       ?FileDataRequest_FileData_EncodeType_IsValid@aggregator@@YA_NH@Z 1300e6b0 f   aggregator.pb.obj
 0001:0000d6f0       ??0FileDataRequest_FileData@aggregator@@QAE@XZ 1300e6f0 f   aggregator.pb.obj
 0001:0000d740       ?GetCachedSize@FileDataRequest_FileData@aggregator@@UBEHXZ 1300e740 f i aggregator.pb.obj
 0001:0000d760       ??_GFileDataRequest_FileData@aggregator@@UAEPAXI@Z 1300e760 f i aggregator.pb.obj
 0001:0000d760       ??_EFileDataRequest_FileData@aggregator@@UAEPAXI@Z 1300e760 f i aggregator.pb.obj
 0001:0000d7b0       ?InitAsDefaultInstance@FileDataRequest_FileData@aggregator@@AAEXXZ 1300e7b0 f   aggregator.pb.obj
 0001:0000d7e0       ??0FileDataRequest_FileData@aggregator@@QAE@ABV01@@Z 1300e7e0 f   aggregator.pb.obj
 0001:0000d840       ?SharedCtor@FileDataRequest_FileData@aggregator@@AAEXXZ 1300e840 f   aggregator.pb.obj
 0001:0000d8d0       ??1FileDataRequest_FileData@aggregator@@UAE@XZ 1300e8d0 f   aggregator.pb.obj
 0001:0000d920       ?SharedDtor@FileDataRequest_FileData@aggregator@@AAEXXZ 1300e920 f   aggregator.pb.obj
 0001:0000da00       ?SetCachedSize@FileDataRequest_FileData@aggregator@@ABEXH@Z 1300ea00 f   aggregator.pb.obj
 0001:0000da30       ?default_instance@FileDataRequest_FileData@aggregator@@SAABV12@XZ 1300ea30 f   aggregator.pb.obj
 0001:0000da50       ?New@FileDataRequest_FileData@aggregator@@UBEPAV12@XZ 1300ea50 f   aggregator.pb.obj
 0001:0000dac0       ?Clear@FileDataRequest_FileData@aggregator@@UAEXXZ 1300eac0 f   aggregator.pb.obj
 0001:0000dba0       ?has_id@FileDataRequest_FileData@aggregator@@QBE_NXZ 1300eba0 f i aggregator.pb.obj
 0001:0000dbd0       ?has_data@FileDataRequest_FileData@aggregator@@QBE_NXZ 1300ebd0 f i aggregator.pb.obj
 0001:0000dc00       ?MergePartialFromCodedStream@FileDataRequest_FileData@aggregator@@UAE_NPAVCodedInputStream@io@protobuf@google@@@Z 1300ec00 f   aggregator.pb.obj
 0001:0000df70       ?mutable_id@FileDataRequest_FileData@aggregator@@QAEPAVFileID@2@XZ 1300ef70 f i aggregator.pb.obj
 0001:0000e000       ?set_has_id@FileDataRequest_FileData@aggregator@@AAEXXZ 1300f000 f i aggregator.pb.obj
 0001:0000e030       ?set_has_pos@FileDataRequest_FileData@aggregator@@AAEXXZ 1300f030 f i aggregator.pb.obj
 0001:0000e060       ?set_encode@FileDataRequest_FileData@aggregator@@QAEXW4FileDataRequest_FileData_EncodeType@2@@Z 1300f060 f i aggregator.pb.obj
 0001:0000e130       ?set_has_encode@FileDataRequest_FileData@aggregator@@AAEXXZ 1300f130 f i aggregator.pb.obj
 0001:0000e160       ?set_has_org_len@FileDataRequest_FileData@aggregator@@AAEXXZ 1300f160 f i aggregator.pb.obj
 0001:0000e190       ?mutable_data@FileDataRequest_FileData@aggregator@@QAEPAV?$basic_string@DU?$char_traits@D@std@@V?$allocator@D@2@@std@@XZ 1300f190 f i aggregator.pb.obj
 0001:0000e230       ?set_has_data@FileDataRequest_FileData@aggregator@@AAEXXZ 1300f230 f i aggregator.pb.obj
 0001:0000e260       ??$ReadPrimitive@H$0O@@WireFormatLite@internal@protobuf@google@@SA_NPAVCodedInputStream@io@23@PAH@Z 1300f260 f i aggregator.pb.obj
 0001:0000e300       ?SerializeWithCachedSizes@FileDataRequest_FileData@aggregator@@UBEXPAVCodedOutputStream@io@protobuf@google@@@Z 1300f300 f   aggregator.pb.obj
 0001:0000e420       ?id@FileDataRequest_FileData@aggregator@@QBEABVFileID@2@XZ 1300f420 f i aggregator.pb.obj
 0001:0000e490       ?has_pos@FileDataRequest_FileData@aggregator@@QBE_NXZ 1300f490 f i aggregator.pb.obj
 0001:0000e4c0       ?pos@FileDataRequest_FileData@aggregator@@QBE_KXZ 1300f4c0 f i aggregator.pb.obj
 0001:0000e4f0       ?has_encode@FileDataRequest_FileData@aggregator@@QBE_NXZ 1300f4f0 f i aggregator.pb.obj
 0001:0000e520       ?encode@FileDataRequest_FileData@aggregator@@QBE?AW4FileDataRequest_FileData_EncodeType@2@XZ 1300f520 f i aggregator.pb.obj
 0001:0000e540       ?has_org_len@FileDataRequest_FileData@aggregator@@QBE_NXZ 1300f540 f i aggregator.pb.obj
 0001:0000e570       ?org_len@FileDataRequest_FileData@aggregator@@QBEIXZ 1300f570 f i aggregator.pb.obj
 0001:0000e590       ?data@FileDataRequest_FileData@aggregator@@QBEABV?$basic_string@DU?$char_traits@D@std@@V?$allocator@D@2@@std@@XZ 1300f590 f i aggregator.pb.obj
 0001:0000e5b0       ?ByteSize@FileDataRequest_FileData@aggregator@@UBEHXZ 1300f5b0 f   aggregator.pb.obj
 0001:0000e720       ?EnumSize@WireFormatLite@internal@protobuf@google@@SAHH@Z 1300f720 f i aggregator.pb.obj
 0001:0000e740       ?VarintSize32SignExtended@CodedOutputStream@io@protobuf@google@@SAHH@Z 1300f740 f i aggregator.pb.obj
 0001:0000e770       ?CheckTypeAndMergeFrom@FileDataRequest_FileData@aggregator@@UAEXABVMessageLite@protobuf@google@@@Z 1300f770 f   aggregator.pb.obj
 0001:0000e7b0       ?MergeFrom@FileDataRequest_FileData@aggregator@@QAEXABV12@@Z 1300f7b0 f   aggregator.pb.obj
 0001:0000e940       ?set_pos@FileDataRequest_FileData@aggregator@@QAEX_K@Z 1300f940 f i aggregator.pb.obj
 0001:0000e990       ?set_org_len@FileDataRequest_FileData@aggregator@@QAEXI@Z 1300f990 f i aggregator.pb.obj
 0001:0000e9d0       ?set_data@FileDataRequest_FileData@aggregator@@QAEXABV?$basic_string@DU?$char_traits@D@std@@V?$allocator@D@2@@std@@@Z 1300f9d0 f i aggregator.pb.obj
 0001:0000ea80       ?CopyFrom@FileDataRequest_FileData@aggregator@@QAEXABV12@@Z 1300fa80 f   aggregator.pb.obj
 0001:0000eae0       ?IsInitialized@FileDataRequest_FileData@aggregator@@UBE_NXZ 1300fae0 f   aggregator.pb.obj
 0001:0000eb80       ?Swap@FileDataRequest_FileData@aggregator@@QAEXPAV12@@Z 1300fb80 f   aggregator.pb.obj
 0001:0000ec80       ?GetTypeName@FileDataRequest_FileData@aggregator@@UBE?AV?$basic_string@DU?$char_traits@D@std@@V?$allocator@D@2@@std@@XZ 1300fc80 f   aggregator.pb.obj
 0001:0000ecc0       ??0FileDataRequest@aggregator@@QAE@XZ 1300fcc0 f   aggregator.pb.obj
 0001:0000ed20       ?GetCachedSize@FileDataRequest@aggregator@@UBEHXZ 1300fd20 f i aggregator.pb.obj
 0001:0000ed40       ??_EFileDataRequest@aggregator@@UAEPAXI@Z 1300fd40 f i aggregator.pb.obj
 0001:0000ed40       ??_GFileDataRequest@aggregator@@UAEPAXI@Z 1300fd40 f i aggregator.pb.obj
 0001:0000ed90       ?InitAsDefaultInstance@FileDataRequest@aggregator@@AAEXXZ 1300fd90 f   aggregator.pb.obj
 0001:0000edb0       ??0FileDataRequest@aggregator@@QAE@ABV01@@Z 1300fdb0 f   aggregator.pb.obj
 0001:0000ee20       ?SharedCtor@FileDataRequest@aggregator@@AAEXXZ 1300fe20 f   aggregator.pb.obj
 0001:0000ee70       ??1FileDataRequest@aggregator@@UAE@XZ 1300fe70 f   aggregator.pb.obj
 0001:0000eec0       ?SharedDtor@FileDataRequest@aggregator@@AAEXXZ 1300fec0 f   aggregator.pb.obj
 0001:0000eef0       ?SetCachedSize@FileDataRequest@aggregator@@ABEXH@Z 1300fef0 f   aggregator.pb.obj
 0001:0000ef20       ?default_instance@FileDataRequest@aggregator@@SAABV12@XZ 1300ff20 f   aggregator.pb.obj
 0001:0000ef40       ?New@FileDataRequest@aggregator@@UBEPAV12@XZ 1300ff40 f   aggregator.pb.obj
 0001:0000efb0       ?Clear@FileDataRequest@aggregator@@UAEXXZ 1300ffb0 f   aggregator.pb.obj
 0001:0000f000       ?MergePartialFromCodedStream@FileDataRequest@aggregator@@UAE_NPAVCodedInputStream@io@protobuf@google@@@Z 13010000 f   aggregator.pb.obj
 0001:0000f140       ?add_filedata@FileDataRequest@aggregator@@QAEPAVFileDataRequest_FileData@2@XZ 13010140 f i aggregator.pb.obj
 0001:0000f170       ?SerializeWithCachedSizes@FileDataRequest@aggregator@@UBEXPAVCodedOutputStream@io@protobuf@google@@@Z 13010170 f   aggregator.pb.obj
 0001:0000f1f0       ?filedata_size@FileDataRequest@aggregator@@QBEHXZ 130101f0 f i aggregator.pb.obj
 0001:0000f220       ?filedata@FileDataRequest@aggregator@@QBEABVFileDataRequest_FileData@2@H@Z 13010220 f i aggregator.pb.obj
 0001:0000f260       ?ByteSize@FileDataRequest@aggregator@@UBEHXZ 13010260 f   aggregator.pb.obj
 0001:0000f310       ?CheckTypeAndMergeFrom@FileDataRequest@aggregator@@UAEXABVMessageLite@protobuf@google@@@Z 13010310 f   aggregator.pb.obj
 0001:0000f350       ?MergeFrom@FileDataRequest@aggregator@@QAEXABV12@@Z 13010350 f   aggregator.pb.obj
 0001:0000f410       ?CopyFrom@FileDataRequest@aggregator@@QAEXABV12@@Z 13010410 f   aggregator.pb.obj
 0001:0000f470       ?IsInitialized@FileDataRequest@aggregator@@UBE_NXZ 13010470 f   aggregator.pb.obj
 0001:0000f520       ?Swap@FileDataRequest@aggregator@@QAEXPAV12@@Z 13010520 f   aggregator.pb.obj
 0001:0000f5a0       ?GetTypeName@FileDataRequest@aggregator@@UBE?AV?$basic_string@DU?$char_traits@D@std@@V?$allocator@D@2@@std@@XZ 130105a0 f   aggregator.pb.obj
 0001:0000f5e0       ?FileDataResponse_FileData_FileStatus_IsValid@aggregator@@YA_NH@Z 130105e0 f   aggregator.pb.obj
 0001:0000f620       ??0FileDataResponse_FileData@aggregator@@QAE@XZ 13010620 f   aggregator.pb.obj
 0001:0000f670       ?GetCachedSize@FileDataResponse_FileData@aggregator@@UBEHXZ 13010670 f i aggregator.pb.obj
 0001:0000f690       ??_EFileDataResponse_FileData@aggregator@@UAEPAXI@Z 13010690 f i aggregator.pb.obj
 0001:0000f690       ??_GFileDataResponse_FileData@aggregator@@UAEPAXI@Z 13010690 f i aggregator.pb.obj
 0001:0000f6e0       ?InitAsDefaultInstance@FileDataResponse_FileData@aggregator@@AAEXXZ 130106e0 f   aggregator.pb.obj
 0001:0000f710       ??0FileDataResponse_FileData@aggregator@@QAE@ABV01@@Z 13010710 f   aggregator.pb.obj
 0001:0000f770       ?SharedCtor@FileDataResponse_FileData@aggregator@@AAEXXZ 13010770 f   aggregator.pb.obj
 0001:0000f800       ??1FileDataResponse_FileData@aggregator@@UAE@XZ 13010800 f   aggregator.pb.obj
 0001:0000f850       ?SharedDtor@FileDataResponse_FileData@aggregator@@AAEXXZ 13010850 f   aggregator.pb.obj
 0001:0000f930       ?SetCachedSize@FileDataResponse_FileData@aggregator@@ABEXH@Z 13010930 f   aggregator.pb.obj
 0001:0000f960       ?default_instance@FileDataResponse_FileData@aggregator@@SAABV12@XZ 13010960 f   aggregator.pb.obj
 0001:0000f980       ?New@FileDataResponse_FileData@aggregator@@UBEPAV12@XZ 13010980 f   aggregator.pb.obj
 0001:0000f9f0       ?Clear@FileDataResponse_FileData@aggregator@@UAEXXZ 130109f0 f   aggregator.pb.obj
 0001:0000fac0       ?has_id@FileDataResponse_FileData@aggregator@@QBE_NXZ 13010ac0 f i aggregator.pb.obj
 0001:0000faf0       ?has_checksum@FileDataResponse_FileData@aggregator@@QBE_NXZ 13010af0 f i aggregator.pb.obj
 0001:0000fb20       ?MergePartialFromCodedStream@FileDataResponse_FileData@aggregator@@UAE_NPAVCodedInputStream@io@protobuf@google@@@Z 13010b20 f   aggregator.pb.obj
 0001:0000fe10       ?mutable_id@FileDataResponse_FileData@aggregator@@QAEPAVFileID@2@XZ 13010e10 f i aggregator.pb.obj
 0001:0000fea0       ?set_has_id@FileDataResponse_FileData@aggregator@@AAEXXZ 13010ea0 f i aggregator.pb.obj
 0001:0000fed0       ?set_has_size@FileDataResponse_FileData@aggregator@@AAEXXZ 13010ed0 f i aggregator.pb.obj
 0001:0000ff00       ?set_status@FileDataResponse_FileData@aggregator@@QAEXW4FileDataResponse_FileData_FileStatus@2@@Z 13010f00 f i aggregator.pb.obj
 0001:0000ffd0       ?set_has_status@FileDataResponse_FileData@aggregator@@AAEXXZ 13010fd0 f i aggregator.pb.obj
 0001:00010000       ?mutable_checksum@FileDataResponse_FileData@aggregator@@QAEPAV?$basic_string@DU?$char_traits@D@std@@V?$allocator@D@2@@std@@XZ 13011000 f i aggregator.pb.obj
 0001:000100a0       ?set_has_checksum@FileDataResponse_FileData@aggregator@@AAEXXZ 130110a0 f i aggregator.pb.obj
 0001:000100d0       ?SerializeWithCachedSizes@FileDataResponse_FileData@aggregator@@UBEXPAVCodedOutputStream@io@protobuf@google@@@Z 130110d0 f   aggregator.pb.obj
 0001:000101c0       ?id@FileDataResponse_FileData@aggregator@@QBEABVFileID@2@XZ 130111c0 f i aggregator.pb.obj
 0001:00010230       ?has_size@FileDataResponse_FileData@aggregator@@QBE_NXZ 13011230 f i aggregator.pb.obj
 0001:00010260       ?size@FileDataResponse_FileData@aggregator@@QBE_KXZ 13011260 f i aggregator.pb.obj
 0001:00010290       ?has_status@FileDataResponse_FileData@aggregator@@QBE_NXZ 13011290 f i aggregator.pb.obj
 0001:000102c0       ?status@FileDataResponse_FileData@aggregator@@QBE?AW4FileDataResponse_FileData_FileStatus@2@XZ 130112c0 f i aggregator.pb.obj
 0001:000102e0       ?checksum@FileDataResponse_FileData@aggregator@@QBEABV?$basic_string@DU?$char_traits@D@std@@V?$allocator@D@2@@std@@XZ 130112e0 f i aggregator.pb.obj
 0001:00010300       ?ByteSize@FileDataResponse_FileData@aggregator@@UBEHXZ 13011300 f   aggregator.pb.obj
 0001:00010430       ?CheckTypeAndMergeFrom@FileDataResponse_FileData@aggregator@@UAEXABVMessageLite@protobuf@google@@@Z 13011430 f   aggregator.pb.obj
 0001:00010470       ?MergeFrom@FileDataResponse_FileData@aggregator@@QAEXABV12@@Z 13011470 f   aggregator.pb.obj
 0001:000105e0       ?set_size@FileDataResponse_FileData@aggregator@@QAEX_K@Z 130115e0 f i aggregator.pb.obj
 0001:00010630       ?set_checksum@FileDataResponse_FileData@aggregator@@QAEXABV?$basic_string@DU?$char_traits@D@std@@V?$allocator@D@2@@std@@@Z 13011630 f i aggregator.pb.obj
 0001:000106e0       ?CopyFrom@FileDataResponse_FileData@aggregator@@QAEXABV12@@Z 130116e0 f   aggregator.pb.obj
 0001:00010740       ?IsInitialized@FileDataResponse_FileData@aggregator@@UBE_NXZ 13011740 f   aggregator.pb.obj
 0001:000107e0       ?Swap@FileDataResponse_FileData@aggregator@@QAEXPAV12@@Z 130117e0 f   aggregator.pb.obj
 0001:000108c0       ?GetTypeName@FileDataResponse_FileData@aggregator@@UBE?AV?$basic_string@DU?$char_traits@D@std@@V?$allocator@D@2@@std@@XZ 130118c0 f   aggregator.pb.obj
 0001:00010900       ??0FileDataResponse@aggregator@@QAE@XZ 13011900 f   aggregator.pb.obj
 0001:00010960       ?GetCachedSize@FileDataResponse@aggregator@@UBEHXZ 13011960 f i aggregator.pb.obj
 0001:00010980       ??_GFileDataResponse@aggregator@@UAEPAXI@Z 13011980 f i aggregator.pb.obj
 0001:00010980       ??_EFileDataResponse@aggregator@@UAEPAXI@Z 13011980 f i aggregator.pb.obj
 0001:000109d0       ?InitAsDefaultInstance@FileDataResponse@aggregator@@AAEXXZ 130119d0 f   aggregator.pb.obj
 0001:000109f0       ??0FileDataResponse@aggregator@@QAE@ABV01@@Z 130119f0 f   aggregator.pb.obj
 0001:00010a60       ?SharedCtor@FileDataResponse@aggregator@@AAEXXZ 13011a60 f   aggregator.pb.obj
 0001:00010ab0       ??1FileDataResponse@aggregator@@UAE@XZ 13011ab0 f   aggregator.pb.obj
 0001:00010b00       ?SharedDtor@FileDataResponse@aggregator@@AAEXXZ 13011b00 f   aggregator.pb.obj
 0001:00010b30       ?SetCachedSize@FileDataResponse@aggregator@@ABEXH@Z 13011b30 f   aggregator.pb.obj
 0001:00010b60       ?default_instance@FileDataResponse@aggregator@@SAABV12@XZ 13011b60 f   aggregator.pb.obj
 0001:00010b80       ?New@FileDataResponse@aggregator@@UBEPAV12@XZ 13011b80 f   aggregator.pb.obj
 0001:00010bf0       ?Clear@FileDataResponse@aggregator@@UAEXXZ 13011bf0 f   aggregator.pb.obj
 0001:00010c40       ?MergePartialFromCodedStream@FileDataResponse@aggregator@@UAE_NPAVCodedInputStream@io@protobuf@google@@@Z 13011c40 f   aggregator.pb.obj
 0001:00010d80       ?add_filedata@FileDataResponse@aggregator@@QAEPAVFileDataResponse_FileData@2@XZ 13011d80 f i aggregator.pb.obj
 0001:00010db0       ?SerializeWithCachedSizes@FileDataResponse@aggregator@@UBEXPAVCodedOutputStream@io@protobuf@google@@@Z 13011db0 f   aggregator.pb.obj
 0001:00010e30       ?filedata_size@FileDataResponse@aggregator@@QBEHXZ 13011e30 f i aggregator.pb.obj
 0001:00010e60       ?filedata@FileDataResponse@aggregator@@QBEABVFileDataResponse_FileData@2@H@Z 13011e60 f i aggregator.pb.obj
 0001:00010ea0       ?ByteSize@FileDataResponse@aggregator@@UBEHXZ 13011ea0 f   aggregator.pb.obj
 0001:00010f50       ?CheckTypeAndMergeFrom@FileDataResponse@aggregator@@UAEXABVMessageLite@protobuf@google@@@Z 13011f50 f   aggregator.pb.obj
 0001:00010f90       ?MergeFrom@FileDataResponse@aggregator@@QAEXABV12@@Z 13011f90 f   aggregator.pb.obj
 0001:00011050       ?CopyFrom@FileDataResponse@aggregator@@QAEXABV12@@Z 13012050 f   aggregator.pb.obj
 0001:000110b0       ?IsInitialized@FileDataResponse@aggregator@@UBE_NXZ 130120b0 f   aggregator.pb.obj
 0001:00011160       ?Swap@FileDataResponse@aggregator@@QAEXPAV12@@Z 13012160 f   aggregator.pb.obj
 0001:000111e0       ?GetTypeName@FileDataResponse@aggregator@@UBE?AV?$basic_string@DU?$char_traits@D@std@@V?$allocator@D@2@@std@@XZ 130121e0 f   aggregator.pb.obj
 0001:00011220       ??0CollectorFileRequest@aggregator@@QAE@XZ 13012220 f   aggregator.pb.obj
 0001:00011270       ?GetCachedSize@CollectorFileRequest@aggregator@@UBEHXZ 13012270 f i aggregator.pb.obj
 0001:00011290       ??_ECollectorFileRequest@aggregator@@UAEPAXI@Z 13012290 f i aggregator.pb.obj
 0001:00011290       ??_GCollectorFileRequest@aggregator@@UAEPAXI@Z 13012290 f i aggregator.pb.obj
 0001:000112e0       ?InitAsDefaultInstance@CollectorFileRequest@aggregator@@AAEXXZ 130122e0 f   aggregator.pb.obj
 0001:00011300       ??0CollectorFileRequest@aggregator@@QAE@ABV01@@Z 13012300 f   aggregator.pb.obj
 0001:00011360       ?SharedCtor@CollectorFileRequest@aggregator@@AAEXXZ 13012360 f   aggregator.pb.obj
 0001:000113b0       ??1CollectorFileRequest@aggregator@@UAE@XZ 130123b0 f   aggregator.pb.obj
 0001:00011400       ?SharedDtor@CollectorFileRequest@aggregator@@AAEXXZ 13012400 f   aggregator.pb.obj
 0001:00011430       ?SetCachedSize@CollectorFileRequest@aggregator@@ABEXH@Z 13012430 f   aggregator.pb.obj
 0001:00011460       ?default_instance@CollectorFileRequest@aggregator@@SAABV12@XZ 13012460 f   aggregator.pb.obj
 0001:00011480       ?New@CollectorFileRequest@aggregator@@UBEPAV12@XZ 13012480 f   aggregator.pb.obj
 0001:000114f0       ?Clear@CollectorFileRequest@aggregator@@UAEXXZ 130124f0 f   aggregator.pb.obj
 0001:00011530       ?MergePartialFromCodedStream@CollectorFileRequest@aggregator@@UAE_NPAVCodedInputStream@io@protobuf@google@@@Z 13012530 f   aggregator.pb.obj
 0001:000115c0       ?SerializeWithCachedSizes@CollectorFileRequest@aggregator@@UBEXPAVCodedOutputStream@io@protobuf@google@@@Z 130125c0 f   aggregator.pb.obj
 0001:000115e0       ?ByteSize@CollectorFileRequest@aggregator@@UBEHXZ 130125e0 f   aggregator.pb.obj
 0001:00011620       ?CheckTypeAndMergeFrom@CollectorFileRequest@aggregator@@UAEXABVMessageLite@protobuf@google@@@Z 13012620 f   aggregator.pb.obj
 0001:00011660       ?MergeFrom@CollectorFileRequest@aggregator@@QAEXABV12@@Z 13012660 f   aggregator.pb.obj
 0001:00011710       ?CopyFrom@CollectorFileRequest@aggregator@@QAEXABV12@@Z 13012710 f   aggregator.pb.obj
 0001:00011770       ?IsInitialized@CollectorFileRequest@aggregator@@UBE_NXZ 13012770 f   aggregator.pb.obj
 0001:00011790       ?Swap@CollectorFileRequest@aggregator@@QAEXPAV12@@Z 13012790 f   aggregator.pb.obj
 0001:000117e0       ?GetTypeName@CollectorFileRequest@aggregator@@UBE?AV?$basic_string@DU?$char_traits@D@std@@V?$allocator@D@2@@std@@XZ 130127e0 f   aggregator.pb.obj
 0001:00011820       ??0CollectorFileResponse_File@aggregator@@QAE@XZ 13012820 f   aggregator.pb.obj
 0001:00011870       ?GetCachedSize@CollectorFileResponse_File@aggregator@@UBEHXZ 13012870 f i aggregator.pb.obj
 0001:00011890       ??_ECollectorFileResponse_File@aggregator@@UAEPAXI@Z 13012890 f i aggregator.pb.obj
 0001:00011890       ??_GCollectorFileResponse_File@aggregator@@UAEPAXI@Z 13012890 f i aggregator.pb.obj
 0001:000118e0       ?InitAsDefaultInstance@CollectorFileResponse_File@aggregator@@AAEXXZ 130128e0 f   aggregator.pb.obj
 0001:00011910       ??0CollectorFileResponse_File@aggregator@@QAE@ABV01@@Z 13012910 f   aggregator.pb.obj
 0001:00011970       ?SharedCtor@CollectorFileResponse_File@aggregator@@AAEXXZ 13012970 f   aggregator.pb.obj
 0001:00011a00       ??1CollectorFileResponse_File@aggregator@@UAE@XZ 13012a00 f   aggregator.pb.obj
 0001:00011a50       ?SharedDtor@CollectorFileResponse_File@aggregator@@AAEXXZ 13012a50 f   aggregator.pb.obj
 0001:00011b70       ?SetCachedSize@CollectorFileResponse_File@aggregator@@ABEXH@Z 13012b70 f   aggregator.pb.obj
 0001:00011ba0       ?default_instance@CollectorFileResponse_File@aggregator@@SAABV12@XZ 13012ba0 f   aggregator.pb.obj
 0001:00011bc0       ?New@CollectorFileResponse_File@aggregator@@UBEPAV12@XZ 13012bc0 f   aggregator.pb.obj
 0001:00011c30       ?Clear@CollectorFileResponse_File@aggregator@@UAEXXZ 13012c30 f   aggregator.pb.obj
 0001:00011d30       ?has_id@CollectorFileResponse_File@aggregator@@QBE_NXZ 13012d30 f i aggregator.pb.obj
 0001:00011d60       ?has_dir@CollectorFileResponse_File@aggregator@@QBE_NXZ 13012d60 f i aggregator.pb.obj
 0001:00011d90       ?has_name@CollectorFileResponse_File@aggregator@@QBE_NXZ 13012d90 f i aggregator.pb.obj
 0001:00011dc0       ?MergePartialFromCodedStream@CollectorFileResponse_File@aggregator@@UAE_NPAVCodedInputStream@io@protobuf@google@@@Z 13012dc0 f   aggregator.pb.obj
 0001:000120e0       ?mutable_id@CollectorFileResponse_File@aggregator@@QAEPAVFileID@2@XZ 130130e0 f i aggregator.pb.obj
 0001:00012170       ?set_has_id@CollectorFileResponse_File@aggregator@@AAEXXZ 13013170 f i aggregator.pb.obj
 0001:000121a0       ?set_has_pos@CollectorFileResponse_File@aggregator@@AAEXXZ 130131a0 f i aggregator.pb.obj
 0001:000121d0       ?set_has_finish@CollectorFileResponse_File@aggregator@@AAEXXZ 130131d0 f i aggregator.pb.obj
 0001:00012200       ?mutable_dir@CollectorFileResponse_File@aggregator@@QAEPAV?$basic_string@DU?$char_traits@D@std@@V?$allocator@D@2@@std@@XZ 13013200 f i aggregator.pb.obj
 0001:000122a0       ?set_has_dir@CollectorFileResponse_File@aggregator@@AAEXXZ 130132a0 f i aggregator.pb.obj
 0001:000122d0       ?mutable_name@CollectorFileResponse_File@aggregator@@QAEPAV?$basic_string@DU?$char_traits@D@std@@V?$allocator@D@2@@std@@XZ 130132d0 f i aggregator.pb.obj
 0001:00012370       ?set_has_name@CollectorFileResponse_File@aggregator@@AAEXXZ 13013370 f i aggregator.pb.obj
 0001:000123a0       ??$ReadPrimitive@_N$07@WireFormatLite@internal@protobuf@google@@SA_NPAVCodedInputStream@io@23@PA_N@Z 130133a0 f i aggregator.pb.obj
 0001:00012440       ?SerializeWithCachedSizes@CollectorFileResponse_File@aggregator@@UBEXPAVCodedOutputStream@io@protobuf@google@@@Z 13013440 f   aggregator.pb.obj
 0001:00012560       ?id@CollectorFileResponse_File@aggregator@@QBEABVFileID@2@XZ 13013560 f i aggregator.pb.obj
 0001:000125d0       ?has_pos@CollectorFileResponse_File@aggregator@@QBE_NXZ 130135d0 f i aggregator.pb.obj
 0001:00012600       ?pos@CollectorFileResponse_File@aggregator@@QBE_KXZ 13013600 f i aggregator.pb.obj
 0001:00012630       ?has_finish@CollectorFileResponse_File@aggregator@@QBE_NXZ 13013630 f i aggregator.pb.obj
 0001:00012660       ?finish@CollectorFileResponse_File@aggregator@@QBE_NXZ 13013660 f i aggregator.pb.obj
 0001:00012680       ?dir@CollectorFileResponse_File@aggregator@@QBEABV?$basic_string@DU?$char_traits@D@std@@V?$allocator@D@2@@std@@XZ 13013680 f i aggregator.pb.obj
 0001:000126a0       ?name@CollectorFileResponse_File@aggregator@@QBEABV?$basic_string@DU?$char_traits@D@std@@V?$allocator@D@2@@std@@XZ 130136a0 f i aggregator.pb.obj
 0001:000126c0       ?ByteSize@CollectorFileResponse_File@aggregator@@UBEHXZ 130136c0 f   aggregator.pb.obj
 0001:00012810       ?CheckTypeAndMergeFrom@CollectorFileResponse_File@aggregator@@UAEXABVMessageLite@protobuf@google@@@Z 13013810 f   aggregator.pb.obj
 0001:00012850       ?MergeFrom@CollectorFileResponse_File@aggregator@@QAEXABV12@@Z 13013850 f   aggregator.pb.obj
 0001:000129e0       ?set_pos@CollectorFileResponse_File@aggregator@@QAEX_K@Z 130139e0 f i aggregator.pb.obj
 0001:00012a30       ?set_finish@CollectorFileResponse_File@aggregator@@QAEX_N@Z 13013a30 f i aggregator.pb.obj
 0001:00012a70       ?set_dir@CollectorFileResponse_File@aggregator@@QAEXABV?$basic_string@DU?$char_traits@D@std@@V?$allocator@D@2@@std@@@Z 13013a70 f i aggregator.pb.obj
 0001:00012b20       ?set_name@CollectorFileResponse_File@aggregator@@QAEXABV?$basic_string@DU?$char_traits@D@std@@V?$allocator@D@2@@std@@@Z 13013b20 f i aggregator.pb.obj
 0001:00012bd0       ?CopyFrom@CollectorFileResponse_File@aggregator@@QAEXABV12@@Z 13013bd0 f   aggregator.pb.obj
 0001:00012c30       ?IsInitialized@CollectorFileResponse_File@aggregator@@UBE_NXZ 13013c30 f   aggregator.pb.obj
 0001:00012cd0       ?Swap@CollectorFileResponse_File@aggregator@@QAEXPAV12@@Z 13013cd0 f   aggregator.pb.obj
 0001:00012dd0       ?GetTypeName@CollectorFileResponse_File@aggregator@@UBE?AV?$basic_string@DU?$char_traits@D@std@@V?$allocator@D@2@@std@@XZ 13013dd0 f   aggregator.pb.obj
 0001:00012e10       ??0CollectorFileResponse@aggregator@@QAE@XZ 13013e10 f   aggregator.pb.obj
 0001:00012e70       ?GetCachedSize@CollectorFileResponse@aggregator@@UBEHXZ 13013e70 f i aggregator.pb.obj
 0001:00012e90       ??_GCollectorFileResponse@aggregator@@UAEPAXI@Z 13013e90 f i aggregator.pb.obj
 0001:00012e90       ??_ECollectorFileResponse@aggregator@@UAEPAXI@Z 13013e90 f i aggregator.pb.obj
 0001:00012ee0       ?InitAsDefaultInstance@CollectorFileResponse@aggregator@@AAEXXZ 13013ee0 f   aggregator.pb.obj
 0001:00012f00       ??0CollectorFileResponse@aggregator@@QAE@ABV01@@Z 13013f00 f   aggregator.pb.obj
 0001:00012f70       ?SharedCtor@CollectorFileResponse@aggregator@@AAEXXZ 13013f70 f   aggregator.pb.obj
 0001:00012fc0       ??1CollectorFileResponse@aggregator@@UAE@XZ 13013fc0 f   aggregator.pb.obj
 0001:00013010       ?SharedDtor@CollectorFileResponse@aggregator@@AAEXXZ 13014010 f   aggregator.pb.obj
 0001:00013040       ?SetCachedSize@CollectorFileResponse@aggregator@@ABEXH@Z 13014040 f   aggregator.pb.obj
 0001:00013070       ?default_instance@CollectorFileResponse@aggregator@@SAABV12@XZ 13014070 f   aggregator.pb.obj
 0001:00013090       ?New@CollectorFileResponse@aggregator@@UBEPAV12@XZ 13014090 f   aggregator.pb.obj
 0001:00013100       ?Clear@CollectorFileResponse@aggregator@@UAEXXZ 13014100 f   aggregator.pb.obj
 0001:00013150       ?MergePartialFromCodedStream@CollectorFileResponse@aggregator@@UAE_NPAVCodedInputStream@io@protobuf@google@@@Z 13014150 f   aggregator.pb.obj
 0001:00013290       ?add_file@CollectorFileResponse@aggregator@@QAEPAVCollectorFileResponse_File@2@XZ 13014290 f i aggregator.pb.obj
 0001:000132c0       ?SerializeWithCachedSizes@CollectorFileResponse@aggregator@@UBEXPAVCodedOutputStream@io@protobuf@google@@@Z 130142c0 f   aggregator.pb.obj
 0001:00013340       ?file_size@CollectorFileResponse@aggregator@@QBEHXZ 13014340 f i aggregator.pb.obj
 0001:00013370       ?file@CollectorFileResponse@aggregator@@QBEABVCollectorFileResponse_File@2@H@Z 13014370 f i aggregator.pb.obj
 0001:000133b0       ?ByteSize@CollectorFileResponse@aggregator@@UBEHXZ 130143b0 f   aggregator.pb.obj
 0001:00013460       ?CheckTypeAndMergeFrom@CollectorFileResponse@aggregator@@UAEXABVMessageLite@protobuf@google@@@Z 13014460 f   aggregator.pb.obj
 0001:000134a0       ?MergeFrom@CollectorFileResponse@aggregator@@QAEXABV12@@Z 130144a0 f   aggregator.pb.obj
 0001:00013560       ?CopyFrom@CollectorFileResponse@aggregator@@QAEXABV12@@Z 13014560 f   aggregator.pb.obj
 0001:000135c0       ?IsInitialized@CollectorFileResponse@aggregator@@UBE_NXZ 130145c0 f   aggregator.pb.obj
 0001:00013670       ?Swap@CollectorFileResponse@aggregator@@QAEXPAV12@@Z 13014670 f   aggregator.pb.obj
 0001:000136f0       ?GetTypeName@CollectorFileResponse@aggregator@@UBE?AV?$basic_string@DU?$char_traits@D@std@@V?$allocator@D@2@@std@@XZ 130146f0 f   aggregator.pb.obj
 0001:00013730       ??0CollectRuleRequest@aggregator@@QAE@XZ 13014730 f   aggregator.pb.obj
 0001:00013780       ?GetCachedSize@CollectRuleRequest@aggregator@@UBEHXZ 13014780 f i aggregator.pb.obj
 0001:000137a0       ??_GCollectRuleRequest@aggregator@@UAEPAXI@Z 130147a0 f i aggregator.pb.obj
 0001:000137a0       ??_ECollectRuleRequest@aggregator@@UAEPAXI@Z 130147a0 f i aggregator.pb.obj
 0001:000137f0       ?InitAsDefaultInstance@CollectRuleRequest@aggregator@@AAEXXZ 130147f0 f   aggregator.pb.obj
 0001:00013810       ??0CollectRuleRequest@aggregator@@QAE@ABV01@@Z 13014810 f   aggregator.pb.obj
 0001:00013870       ?SharedCtor@CollectRuleRequest@aggregator@@AAEXXZ 13014870 f   aggregator.pb.obj
 0001:000138c0       ??1CollectRuleRequest@aggregator@@UAE@XZ 130148c0 f   aggregator.pb.obj
 0001:00013910       ?SharedDtor@CollectRuleRequest@aggregator@@AAEXXZ 13014910 f   aggregator.pb.obj
 0001:00013940       ?SetCachedSize@CollectRuleRequest@aggregator@@ABEXH@Z 13014940 f   aggregator.pb.obj
 0001:00013970       ?default_instance@CollectRuleRequest@aggregator@@SAABV12@XZ 13014970 f   aggregator.pb.obj
 0001:00013990       ?New@CollectRuleRequest@aggregator@@UBEPAV12@XZ 13014990 f   aggregator.pb.obj
 0001:00013a00       ?Clear@CollectRuleRequest@aggregator@@UAEXXZ 13014a00 f   aggregator.pb.obj
 0001:00013a40       ?MergePartialFromCodedStream@CollectRuleRequest@aggregator@@UAE_NPAVCodedInputStream@io@protobuf@google@@@Z 13014a40 f   aggregator.pb.obj
 0001:00013ad0       ?SerializeWithCachedSizes@CollectRuleRequest@aggregator@@UBEXPAVCodedOutputStream@io@protobuf@google@@@Z 13014ad0 f   aggregator.pb.obj
 0001:00013af0       ?ByteSize@CollectRuleRequest@aggregator@@UBEHXZ 13014af0 f   aggregator.pb.obj
 0001:00013b30       ?CheckTypeAndMergeFrom@CollectRuleRequest@aggregator@@UAEXABVMessageLite@protobuf@google@@@Z 13014b30 f   aggregator.pb.obj
 0001:00013b70       ?MergeFrom@CollectRuleRequest@aggregator@@QAEXABV12@@Z 13014b70 f   aggregator.pb.obj
 0001:00013c20       ?CopyFrom@CollectRuleRequest@aggregator@@QAEXABV12@@Z 13014c20 f   aggregator.pb.obj
 0001:00013c80       ?IsInitialized@CollectRuleRequest@aggregator@@UBE_NXZ 13014c80 f   aggregator.pb.obj
 0001:00013ca0       ?Swap@CollectRuleRequest@aggregator@@QAEXPAV12@@Z 13014ca0 f   aggregator.pb.obj
 0001:00013cf0       ?GetTypeName@CollectRuleRequest@aggregator@@UBE?AV?$basic_string@DU?$char_traits@D@std@@V?$allocator@D@2@@std@@XZ 13014cf0 f   aggregator.pb.obj
 0001:00013d30       ??0CollectRuleResponse_Rule@aggregator@@QAE@XZ 13014d30 f   aggregator.pb.obj
 0001:00013d80       ?GetCachedSize@CollectRuleResponse_Rule@aggregator@@UBEHXZ 13014d80 f i aggregator.pb.obj
 0001:00013da0       ??_GCollectRuleResponse_Rule@aggregator@@UAEPAXI@Z 13014da0 f i aggregator.pb.obj
 0001:00013da0       ??_ECollectRuleResponse_Rule@aggregator@@UAEPAXI@Z 13014da0 f i aggregator.pb.obj
 0001:00013df0       ?InitAsDefaultInstance@CollectRuleResponse_Rule@aggregator@@AAEXXZ 13014df0 f   aggregator.pb.obj
 0001:00013e10       ??0CollectRuleResponse_Rule@aggregator@@QAE@ABV01@@Z 13014e10 f   aggregator.pb.obj
 0001:00013e70       ?SharedCtor@CollectRuleResponse_Rule@aggregator@@AAEXXZ 13014e70 f   aggregator.pb.obj
 0001:00013ee0       ??1CollectRuleResponse_Rule@aggregator@@UAE@XZ 13014ee0 f   aggregator.pb.obj
 0001:00013f30       ?SharedDtor@CollectRuleResponse_Rule@aggregator@@AAEXXZ 13014f30 f   aggregator.pb.obj
 0001:00014040       ?SetCachedSize@CollectRuleResponse_Rule@aggregator@@ABEXH@Z 13015040 f   aggregator.pb.obj
 0001:00014070       ?default_instance@CollectRuleResponse_Rule@aggregator@@SAABV12@XZ 13015070 f   aggregator.pb.obj
 0001:00014090       ?New@CollectRuleResponse_Rule@aggregator@@UBEPAV12@XZ 13015090 f   aggregator.pb.obj
 0001:00014100       ?Clear@CollectRuleResponse_Rule@aggregator@@UAEXXZ 13015100 f   aggregator.pb.obj
 0001:000141e0       ?has_dir@CollectRuleResponse_Rule@aggregator@@QBE_NXZ 130151e0 f i aggregator.pb.obj
 0001:00014210       ?has_exclude@CollectRuleResponse_Rule@aggregator@@QBE_NXZ 13015210 f i aggregator.pb.obj
 0001:00014240       ?has_include@CollectRuleResponse_Rule@aggregator@@QBE_NXZ 13015240 f i aggregator.pb.obj
 0001:00014270       ?MergePartialFromCodedStream@CollectRuleResponse_Rule@aggregator@@UAE_NPAVCodedInputStream@io@protobuf@google@@@Z 13015270 f   aggregator.pb.obj
 0001:00014480       ?mutable_dir@CollectRuleResponse_Rule@aggregator@@QAEPAV?$basic_string@DU?$char_traits@D@std@@V?$allocator@D@2@@std@@XZ 13015480 f i aggregator.pb.obj
 0001:00014520       ?set_has_dir@CollectRuleResponse_Rule@aggregator@@AAEXXZ 13015520 f i aggregator.pb.obj
 0001:00014550       ?mutable_exclude@CollectRuleResponse_Rule@aggregator@@QAEPAV?$basic_string@DU?$char_traits@D@std@@V?$allocator@D@2@@std@@XZ 13015550 f i aggregator.pb.obj
 0001:000145f0       ?set_has_exclude@CollectRuleResponse_Rule@aggregator@@AAEXXZ 130155f0 f i aggregator.pb.obj
 0001:00014620       ?mutable_include@CollectRuleResponse_Rule@aggregator@@QAEPAV?$basic_string@DU?$char_traits@D@std@@V?$allocator@D@2@@std@@XZ 13015620 f i aggregator.pb.obj
 0001:000146c0       ?set_has_include@CollectRuleResponse_Rule@aggregator@@AAEXXZ 130156c0 f i aggregator.pb.obj
 0001:000146f0       ?SerializeWithCachedSizes@CollectRuleResponse_Rule@aggregator@@UBEXPAVCodedOutputStream@io@protobuf@google@@@Z 130156f0 f   aggregator.pb.obj
 0001:000147b0       ?dir@CollectRuleResponse_Rule@aggregator@@QBEABV?$basic_string@DU?$char_traits@D@std@@V?$allocator@D@2@@std@@XZ 130157b0 f i aggregator.pb.obj
 0001:000147d0       ?exclude@CollectRuleResponse_Rule@aggregator@@QBEABV?$basic_string@DU?$char_traits@D@std@@V?$allocator@D@2@@std@@XZ 130157d0 f i aggregator.pb.obj
 0001:000147f0       ?include@CollectRuleResponse_Rule@aggregator@@QBEABV?$basic_string@DU?$char_traits@D@std@@V?$allocator@D@2@@std@@XZ 130157f0 f i aggregator.pb.obj
 0001:00014810       ?ByteSize@CollectRuleResponse_Rule@aggregator@@UBEHXZ 13015810 f   aggregator.pb.obj
 0001:00014910       ?CheckTypeAndMergeFrom@CollectRuleResponse_Rule@aggregator@@UAEXABVMessageLite@protobuf@google@@@Z 13015910 f   aggregator.pb.obj
 0001:00014950       ?MergeFrom@CollectRuleResponse_Rule@aggregator@@QAEXABV12@@Z 13015950 f   aggregator.pb.obj
 0001:00014a80       ?set_dir@CollectRuleResponse_Rule@aggregator@@QAEXABV?$basic_string@DU?$char_traits@D@std@@V?$allocator@D@2@@std@@@Z 13015a80 f i aggregator.pb.obj
 0001:00014b30       ?set_exclude@CollectRuleResponse_Rule@aggregator@@QAEXABV?$basic_string@DU?$char_traits@D@std@@V?$allocator@D@2@@std@@@Z 13015b30 f i aggregator.pb.obj
 0001:00014be0       ?set_include@CollectRuleResponse_Rule@aggregator@@QAEXABV?$basic_string@DU?$char_traits@D@std@@V?$allocator@D@2@@std@@@Z 13015be0 f i aggregator.pb.obj
 0001:00014c90       ?CopyFrom@CollectRuleResponse_Rule@aggregator@@QAEXABV12@@Z 13015c90 f   aggregator.pb.obj
 0001:00014cf0       ?IsInitialized@CollectRuleResponse_Rule@aggregator@@UBE_NXZ 13015cf0 f   aggregator.pb.obj
 0001:00014d20       ?Swap@CollectRuleResponse_Rule@aggregator@@QAEXPAV12@@Z 13015d20 f   aggregator.pb.obj
 0001:00014de0       ?GetTypeName@CollectRuleResponse_Rule@aggregator@@UBE?AV?$basic_string@DU?$char_traits@D@std@@V?$allocator@D@2@@std@@XZ 13015de0 f   aggregator.pb.obj
 0001:00014e20       ??0CollectRuleResponse@aggregator@@QAE@XZ 13015e20 f   aggregator.pb.obj
 0001:00014e80       ?GetCachedSize@CollectRuleResponse@aggregator@@UBEHXZ 13015e80 f i aggregator.pb.obj
 0001:00014ea0       ??_GCollectRuleResponse@aggregator@@UAEPAXI@Z 13015ea0 f i aggregator.pb.obj
 0001:00014ea0       ??_ECollectRuleResponse@aggregator@@UAEPAXI@Z 13015ea0 f i aggregator.pb.obj
 0001:00014ef0       ?InitAsDefaultInstance@CollectRuleResponse@aggregator@@AAEXXZ 13015ef0 f   aggregator.pb.obj
 0001:00014f10       ??0CollectRuleResponse@aggregator@@QAE@ABV01@@Z 13015f10 f   aggregator.pb.obj
 0001:00014f80       ?SharedCtor@CollectRuleResponse@aggregator@@AAEXXZ 13015f80 f   aggregator.pb.obj
 0001:00014fd0       ??1CollectRuleResponse@aggregator@@UAE@XZ 13015fd0 f   aggregator.pb.obj
 0001:00015020       ?SharedDtor@CollectRuleResponse@aggregator@@AAEXXZ 13016020 f   aggregator.pb.obj
 0001:00015050       ?SetCachedSize@CollectRuleResponse@aggregator@@ABEXH@Z 13016050 f   aggregator.pb.obj
 0001:00015080       ?default_instance@CollectRuleResponse@aggregator@@SAABV12@XZ 13016080 f   aggregator.pb.obj
 0001:000150a0       ?New@CollectRuleResponse@aggregator@@UBEPAV12@XZ 130160a0 f   aggregator.pb.obj
 0001:00015110       ?Clear@CollectRuleResponse@aggregator@@UAEXXZ 13016110 f   aggregator.pb.obj
 0001:00015160       ?MergePartialFromCodedStream@CollectRuleResponse@aggregator@@UAE_NPAVCodedInputStream@io@protobuf@google@@@Z 13016160 f   aggregator.pb.obj
 0001:000152a0       ?add_rule@CollectRuleResponse@aggregator@@QAEPAVCollectRuleResponse_Rule@2@XZ 130162a0 f i aggregator.pb.obj
 0001:000152d0       ?SerializeWithCachedSizes@CollectRuleResponse@aggregator@@UBEXPAVCodedOutputStream@io@protobuf@google@@@Z 130162d0 f   aggregator.pb.obj
 0001:00015350       ?rule_size@CollectRuleResponse@aggregator@@QBEHXZ 13016350 f i aggregator.pb.obj
 0001:00015380       ?rule@CollectRuleResponse@aggregator@@QBEABVCollectRuleResponse_Rule@2@H@Z 13016380 f i aggregator.pb.obj
 0001:000153c0       ?ByteSize@CollectRuleResponse@aggregator@@UBEHXZ 130163c0 f   aggregator.pb.obj
 0001:00015470       ?CheckTypeAndMergeFrom@CollectRuleResponse@aggregator@@UAEXABVMessageLite@protobuf@google@@@Z 13016470 f   aggregator.pb.obj
 0001:000154b0       ?MergeFrom@CollectRuleResponse@aggregator@@QAEXABV12@@Z 130164b0 f   aggregator.pb.obj
 0001:00015570       ?CopyFrom@CollectRuleResponse@aggregator@@QAEXABV12@@Z 13016570 f   aggregator.pb.obj
 0001:000155d0       ?IsInitialized@CollectRuleResponse@aggregator@@UBE_NXZ 130165d0 f   aggregator.pb.obj
 0001:00015680       ?Swap@CollectRuleResponse@aggregator@@QAEXPAV12@@Z 13016680 f   aggregator.pb.obj
 0001:00015700       ?GetTypeName@CollectRuleResponse@aggregator@@UBE?AV?$basic_string@DU?$char_traits@D@std@@V?$allocator@D@2@@std@@XZ 13016700 f   aggregator.pb.obj
 0001:00015740       ??0ConfigRequest@aggregator@@QAE@XZ 13016740 f   aggregator.pb.obj
 0001:00015790       ?GetCachedSize@ConfigRequest@aggregator@@UBEHXZ 13016790 f i aggregator.pb.obj
 0001:000157b0       ??_EConfigRequest@aggregator@@UAEPAXI@Z 130167b0 f i aggregator.pb.obj
 0001:000157b0       ??_GConfigRequest@aggregator@@UAEPAXI@Z 130167b0 f i aggregator.pb.obj
 0001:00015800       ?InitAsDefaultInstance@ConfigRequest@aggregator@@AAEXXZ 13016800 f   aggregator.pb.obj
 0001:00015820       ??0ConfigRequest@aggregator@@QAE@ABV01@@Z 13016820 f   aggregator.pb.obj
 0001:00015880       ?SharedCtor@ConfigRequest@aggregator@@AAEXXZ 13016880 f   aggregator.pb.obj
 0001:000158d0       ??1ConfigRequest@aggregator@@UAE@XZ 130168d0 f   aggregator.pb.obj
 0001:00015920       ?SharedDtor@ConfigRequest@aggregator@@AAEXXZ 13016920 f   aggregator.pb.obj
 0001:00015950       ?SetCachedSize@ConfigRequest@aggregator@@ABEXH@Z 13016950 f   aggregator.pb.obj
 0001:00015980       ?default_instance@ConfigRequest@aggregator@@SAABV12@XZ 13016980 f   aggregator.pb.obj
 0001:000159a0       ?New@ConfigRequest@aggregator@@UBEPAV12@XZ 130169a0 f   aggregator.pb.obj
 0001:00015a10       ?Clear@ConfigRequest@aggregator@@UAEXXZ 13016a10 f   aggregator.pb.obj
 0001:00015a50       ?MergePartialFromCodedStream@ConfigRequest@aggregator@@UAE_NPAVCodedInputStream@io@protobuf@google@@@Z 13016a50 f   aggregator.pb.obj
 0001:00015ae0       ?SerializeWithCachedSizes@ConfigRequest@aggregator@@UBEXPAVCodedOutputStream@io@protobuf@google@@@Z 13016ae0 f   aggregator.pb.obj
 0001:00015b00       ?ByteSize@ConfigRequest@aggregator@@UBEHXZ 13016b00 f   aggregator.pb.obj
 0001:00015b40       ?CheckTypeAndMergeFrom@ConfigRequest@aggregator@@UAEXABVMessageLite@protobuf@google@@@Z 13016b40 f   aggregator.pb.obj
 0001:00015b80       ?MergeFrom@ConfigRequest@aggregator@@QAEXABV12@@Z 13016b80 f   aggregator.pb.obj
 0001:00015c30       ?CopyFrom@ConfigRequest@aggregator@@QAEXABV12@@Z 13016c30 f   aggregator.pb.obj
 0001:00015c90       ?IsInitialized@ConfigRequest@aggregator@@UBE_NXZ 13016c90 f   aggregator.pb.obj
 0001:00015cb0       ?Swap@ConfigRequest@aggregator@@QAEXPAV12@@Z 13016cb0 f   aggregator.pb.obj
 0001:00015d00       ?GetTypeName@ConfigRequest@aggregator@@UBE?AV?$basic_string@DU?$char_traits@D@std@@V?$allocator@D@2@@std@@XZ 13016d00 f   aggregator.pb.obj
 0001:00015d40       ??0ConfigResponse_Time@aggregator@@QAE@XZ 13016d40 f   aggregator.pb.obj
 0001:00015d90       ?GetCachedSize@ConfigResponse_Time@aggregator@@UBEHXZ 13016d90 f i aggregator.pb.obj
 0001:00015db0       ??_GConfigResponse_Time@aggregator@@UAEPAXI@Z 13016db0 f i aggregator.pb.obj
 0001:00015db0       ??_EConfigResponse_Time@aggregator@@UAEPAXI@Z 13016db0 f i aggregator.pb.obj
 0001:00015e00       ?InitAsDefaultInstance@ConfigResponse_Time@aggregator@@AAEXXZ 13016e00 f   aggregator.pb.obj
 0001:00015e20       ??0ConfigResponse_Time@aggregator@@QAE@ABV01@@Z 13016e20 f   aggregator.pb.obj
 0001:00015e80       ?SharedCtor@ConfigResponse_Time@aggregator@@AAEXXZ 13016e80 f   aggregator.pb.obj
 0001:00015f20       ??1ConfigResponse_Time@aggregator@@UAE@XZ 13016f20 f   aggregator.pb.obj
 0001:00015f70       ?SharedDtor@ConfigResponse_Time@aggregator@@AAEXXZ 13016f70 f   aggregator.pb.obj
 0001:00015fa0       ?SetCachedSize@ConfigResponse_Time@aggregator@@ABEXH@Z 13016fa0 f   aggregator.pb.obj
 0001:00015fd0       ?default_instance@ConfigResponse_Time@aggregator@@SAABV12@XZ 13016fd0 f   aggregator.pb.obj
 0001:00015ff0       ?New@ConfigResponse_Time@aggregator@@UBEPAV12@XZ 13016ff0 f   aggregator.pb.obj
 0001:00016060       ?Clear@ConfigResponse_Time@aggregator@@UAEXXZ 13017060 f   aggregator.pb.obj
 0001:00016100       ?MergePartialFromCodedStream@ConfigResponse_Time@aggregator@@UAE_NPAVCodedInputStream@io@protobuf@google@@@Z 13017100 f   aggregator.pb.obj
 0001:000164b0       ?set_has_no@ConfigResponse_Time@aggregator@@AAEXXZ 130174b0 f i aggregator.pb.obj
 0001:000164e0       ?set_has_keepalive@ConfigResponse_Time@aggregator@@AAEXXZ 130174e0 f i aggregator.pb.obj
 0001:00016510       ?set_has_rate@ConfigResponse_Time@aggregator@@AAEXXZ 13017510 f i aggregator.pb.obj
 0001:00016540       ?set_has_start@ConfigResponse_Time@aggregator@@AAEXXZ 13017540 f i aggregator.pb.obj
 0001:00016570       ?set_has_end@ConfigResponse_Time@aggregator@@AAEXXZ 13017570 f i aggregator.pb.obj
 0001:000165a0       ?set_has_steptime@ConfigResponse_Time@aggregator@@AAEXXZ 130175a0 f i aggregator.pb.obj
 0001:000165d0       ?SerializeWithCachedSizes@ConfigResponse_Time@aggregator@@UBEXPAVCodedOutputStream@io@protobuf@google@@@Z 130175d0 f   aggregator.pb.obj
 0001:00016720       ?has_no@ConfigResponse_Time@aggregator@@QBE_NXZ 13017720 f i aggregator.pb.obj
 0001:00016750       ?no@ConfigResponse_Time@aggregator@@QBEIXZ 13017750 f i aggregator.pb.obj
 0001:00016770       ?has_keepalive@ConfigResponse_Time@aggregator@@QBE_NXZ 13017770 f i aggregator.pb.obj
 0001:000167a0       ?keepalive@ConfigResponse_Time@aggregator@@QBEIXZ 130177a0 f i aggregator.pb.obj
 0001:000167c0       ?has_rate@ConfigResponse_Time@aggregator@@QBE_NXZ 130177c0 f i aggregator.pb.obj
 0001:000167f0       ?rate@ConfigResponse_Time@aggregator@@QBEIXZ 130177f0 f i aggregator.pb.obj
 0001:00016810       ?has_start@ConfigResponse_Time@aggregator@@QBE_NXZ 13017810 f i aggregator.pb.obj
 0001:00016840       ?start@ConfigResponse_Time@aggregator@@QBEIXZ 13017840 f i aggregator.pb.obj
 0001:00016860       ?has_end@ConfigResponse_Time@aggregator@@QBE_NXZ 13017860 f i aggregator.pb.obj
 0001:00016890       ?end@ConfigResponse_Time@aggregator@@QBEIXZ 13017890 f i aggregator.pb.obj
 0001:000168b0       ?has_steptime@ConfigResponse_Time@aggregator@@QBE_NXZ 130178b0 f i aggregator.pb.obj
 0001:000168e0       ?steptime@ConfigResponse_Time@aggregator@@QBEIXZ 130178e0 f i aggregator.pb.obj
 0001:00016900       ?ByteSize@ConfigResponse_Time@aggregator@@UBEHXZ 13017900 f   aggregator.pb.obj
 0001:00016aa0       ?CheckTypeAndMergeFrom@ConfigResponse_Time@aggregator@@UAEXABVMessageLite@protobuf@google@@@Z 13017aa0 f   aggregator.pb.obj
 0001:00016ae0       ?MergeFrom@ConfigResponse_Time@aggregator@@QAEXABV12@@Z 13017ae0 f   aggregator.pb.obj
 0001:00016c90       ?set_no@ConfigResponse_Time@aggregator@@QAEXI@Z 13017c90 f i aggregator.pb.obj
 0001:00016cd0       ?set_keepalive@ConfigResponse_Time@aggregator@@QAEXI@Z 13017cd0 f i aggregator.pb.obj
 0001:00016d10       ?set_rate@ConfigResponse_Time@aggregator@@QAEXI@Z 13017d10 f i aggregator.pb.obj
 0001:00016d50       ?set_start@ConfigResponse_Time@aggregator@@QAEXI@Z 13017d50 f i aggregator.pb.obj
 0001:00016d90       ?set_end@ConfigResponse_Time@aggregator@@QAEXI@Z 13017d90 f i aggregator.pb.obj
 0001:00016dd0       ?set_steptime@ConfigResponse_Time@aggregator@@QAEXI@Z 13017dd0 f i aggregator.pb.obj
 0001:00016e10       ?CopyFrom@ConfigResponse_Time@aggregator@@QAEXABV12@@Z 13017e10 f   aggregator.pb.obj
 0001:00016e70       ?IsInitialized@ConfigResponse_Time@aggregator@@UBE_NXZ 13017e70 f   aggregator.pb.obj
 0001:00016ea0       ?Swap@ConfigResponse_Time@aggregator@@QAEXPAV12@@Z 13017ea0 f   aggregator.pb.obj
 0001:00016fb0       ?GetTypeName@ConfigResponse_Time@aggregator@@UBE?AV?$basic_string@DU?$char_traits@D@std@@V?$allocator@D@2@@std@@XZ 13017fb0 f   aggregator.pb.obj
 0001:00016ff0       ??0ConfigResponse@aggregator@@QAE@XZ 13017ff0 f   aggregator.pb.obj
 0001:00017050       ?GetCachedSize@ConfigResponse@aggregator@@UBEHXZ 13018050 f i aggregator.pb.obj
 0001:00017070       ??_GConfigResponse@aggregator@@UAEPAXI@Z 13018070 f i aggregator.pb.obj
 0001:00017070       ??_EConfigResponse@aggregator@@UAEPAXI@Z 13018070 f i aggregator.pb.obj
 0001:000170c0       ?InitAsDefaultInstance@ConfigResponse@aggregator@@AAEXXZ 130180c0 f   aggregator.pb.obj
 0001:000170e0       ??0ConfigResponse@aggregator@@QAE@ABV01@@Z 130180e0 f   aggregator.pb.obj
 0001:00017150       ?SharedCtor@ConfigResponse@aggregator@@AAEXXZ 13018150 f   aggregator.pb.obj
 0001:000171a0       ??1ConfigResponse@aggregator@@UAE@XZ 130181a0 f   aggregator.pb.obj
 0001:000171f0       ?SharedDtor@ConfigResponse@aggregator@@AAEXXZ 130181f0 f   aggregator.pb.obj
 0001:00017220       ?SetCachedSize@ConfigResponse@aggregator@@ABEXH@Z 13018220 f   aggregator.pb.obj
 0001:00017250       ?default_instance@ConfigResponse@aggregator@@SAABV12@XZ 13018250 f   aggregator.pb.obj
 0001:00017270       ?New@ConfigResponse@aggregator@@UBEPAV12@XZ 13018270 f   aggregator.pb.obj
 0001:000172e0       ?Clear@ConfigResponse@aggregator@@UAEXXZ 130182e0 f   aggregator.pb.obj
 0001:00017330       ?MergePartialFromCodedStream@ConfigResponse@aggregator@@UAE_NPAVCodedInputStream@io@protobuf@google@@@Z 13018330 f   aggregator.pb.obj
 0001:00017470       ?add_time@ConfigResponse@aggregator@@QAEPAVConfigResponse_Time@2@XZ 13018470 f i aggregator.pb.obj
 0001:000174a0       ?SerializeWithCachedSizes@ConfigResponse@aggregator@@UBEXPAVCodedOutputStream@io@protobuf@google@@@Z 130184a0 f   aggregator.pb.obj
 0001:00017520       ?time_size@ConfigResponse@aggregator@@QBEHXZ 13018520 f i aggregator.pb.obj
 0001:00017550       ?time@ConfigResponse@aggregator@@QBEABVConfigResponse_Time@2@H@Z 13018550 f i aggregator.pb.obj
 0001:00017590       ?ByteSize@ConfigResponse@aggregator@@UBEHXZ 13018590 f   aggregator.pb.obj
 0001:00017640       ?CheckTypeAndMergeFrom@ConfigResponse@aggregator@@UAEXABVMessageLite@protobuf@google@@@Z 13018640 f   aggregator.pb.obj
 0001:00017680       ?MergeFrom@ConfigResponse@aggregator@@QAEXABV12@@Z 13018680 f   aggregator.pb.obj
 0001:00017740       ?CopyFrom@ConfigResponse@aggregator@@QAEXABV12@@Z 13018740 f   aggregator.pb.obj
 0001:000177a0       ?IsInitialized@ConfigResponse@aggregator@@UBE_NXZ 130187a0 f   aggregator.pb.obj
 0001:00017850       ?Swap@ConfigResponse@aggregator@@QAEXPAV12@@Z 13018850 f   aggregator.pb.obj
 0001:000178d0       ?GetTypeName@ConfigResponse@aggregator@@UBE?AV?$basic_string@DU?$char_traits@D@std@@V?$allocator@D@2@@std@@XZ 130188d0 f   aggregator.pb.obj
 0001:00017910       ??0LogonRequest@aggregator@@QAE@XZ 13018910 f   aggregator.pb.obj
 0001:00017960       ?GetCachedSize@LogonRequest@aggregator@@UBEHXZ 13018960 f i aggregator.pb.obj
 0001:00017980       ??_GLogonRequest@aggregator@@UAEPAXI@Z 13018980 f i aggregator.pb.obj
 0001:00017980       ??_ELogonRequest@aggregator@@UAEPAXI@Z 13018980 f i aggregator.pb.obj
 0001:000179d0       ?InitAsDefaultInstance@LogonRequest@aggregator@@AAEXXZ 130189d0 f   aggregator.pb.obj
 0001:000179f0       ??0LogonRequest@aggregator@@QAE@ABV01@@Z 130189f0 f   aggregator.pb.obj
 0001:00017a50       ?SharedCtor@LogonRequest@aggregator@@AAEXXZ 13018a50 f   aggregator.pb.obj
 0001:00017ac0       ??1LogonRequest@aggregator@@UAE@XZ 13018ac0 f   aggregator.pb.obj
 0001:00017b10       ?SharedDtor@LogonRequest@aggregator@@AAEXXZ 13018b10 f   aggregator.pb.obj
 0001:00017be0       ?SetCachedSize@LogonRequest@aggregator@@ABEXH@Z 13018be0 f   aggregator.pb.obj
 0001:00017c10       ?default_instance@LogonRequest@aggregator@@SAABV12@XZ 13018c10 f   aggregator.pb.obj
 0001:00017c30       ?New@LogonRequest@aggregator@@UBEPAV12@XZ 13018c30 f   aggregator.pb.obj
 0001:00017ca0       ?Clear@LogonRequest@aggregator@@UAEXXZ 13018ca0 f   aggregator.pb.obj
 0001:00017d60       ?has_name@LogonRequest@aggregator@@QBE_NXZ 13018d60 f i aggregator.pb.obj
 0001:00017d90       ?has_info@LogonRequest@aggregator@@QBE_NXZ 13018d90 f i aggregator.pb.obj
 0001:00017dc0       ?MergePartialFromCodedStream@LogonRequest@aggregator@@UAE_NPAVCodedInputStream@io@protobuf@google@@@Z 13018dc0 f   aggregator.pb.obj
 0001:00017fd0       ?set_has_ver@LogonRequest@aggregator@@AAEXXZ 13018fd0 f i aggregator.pb.obj
 0001:00018000       ?mutable_name@LogonRequest@aggregator@@QAEPAV?$basic_string@DU?$char_traits@D@std@@V?$allocator@D@2@@std@@XZ 13019000 f i aggregator.pb.obj
 0001:000180a0       ?set_has_name@LogonRequest@aggregator@@AAEXXZ 130190a0 f i aggregator.pb.obj
 0001:000180d0       ?mutable_info@LogonRequest@aggregator@@QAEPAV?$basic_string@DU?$char_traits@D@std@@V?$allocator@D@2@@std@@XZ 130190d0 f i aggregator.pb.obj
 0001:00018170       ?set_has_info@LogonRequest@aggregator@@AAEXXZ 13019170 f i aggregator.pb.obj
 0001:000181a0       ?SerializeWithCachedSizes@LogonRequest@aggregator@@UBEXPAVCodedOutputStream@io@protobuf@google@@@Z 130191a0 f   aggregator.pb.obj
 0001:00018260       ?has_ver@LogonRequest@aggregator@@QBE_NXZ 13019260 f i aggregator.pb.obj
 0001:00018290       ?ver@LogonRequest@aggregator@@QBEIXZ 13019290 f i aggregator.pb.obj
 0001:000182b0       ?name@LogonRequest@aggregator@@QBEABV?$basic_string@DU?$char_traits@D@std@@V?$allocator@D@2@@std@@XZ 130192b0 f i aggregator.pb.obj
 0001:000182d0       ?info@LogonRequest@aggregator@@QBEABV?$basic_string@DU?$char_traits@D@std@@V?$allocator@D@2@@std@@XZ 130192d0 f i aggregator.pb.obj
 0001:000182f0       ?ByteSize@LogonRequest@aggregator@@UBEHXZ 130192f0 f   aggregator.pb.obj
 0001:000183f0       ?CheckTypeAndMergeFrom@LogonRequest@aggregator@@UAEXABVMessageLite@protobuf@google@@@Z 130193f0 f   aggregator.pb.obj
 0001:00018430       ?MergeFrom@LogonRequest@aggregator@@QAEXABV12@@Z 13019430 f   aggregator.pb.obj
 0001:00018560       ?set_ver@LogonRequest@aggregator@@QAEXI@Z 13019560 f i aggregator.pb.obj
 0001:000185a0       ?set_name@LogonRequest@aggregator@@QAEXABV?$basic_string@DU?$char_traits@D@std@@V?$allocator@D@2@@std@@@Z 130195a0 f i aggregator.pb.obj
 0001:00018650       ?set_info@LogonRequest@aggregator@@QAEXABV?$basic_string@DU?$char_traits@D@std@@V?$allocator@D@2@@std@@@Z 13019650 f i aggregator.pb.obj
 0001:00018700       ?CopyFrom@LogonRequest@aggregator@@QAEXABV12@@Z 13019700 f   aggregator.pb.obj
 0001:00018760       ?IsInitialized@LogonRequest@aggregator@@UBE_NXZ 13019760 f   aggregator.pb.obj
 0001:00018790       ?Swap@LogonRequest@aggregator@@QAEXPAV12@@Z 13019790 f   aggregator.pb.obj
 0001:00018850       ?GetTypeName@LogonRequest@aggregator@@UBE?AV?$basic_string@DU?$char_traits@D@std@@V?$allocator@D@2@@std@@XZ 13019850 f   aggregator.pb.obj
 0001:00018890       ??0LogonResponse@aggregator@@QAE@XZ 13019890 f   aggregator.pb.obj
 0001:000188e0       ?GetCachedSize@LogonResponse@aggregator@@UBEHXZ 130198e0 f i aggregator.pb.obj
 0001:00018900       ??_GLogonResponse@aggregator@@UAEPAXI@Z 13019900 f i aggregator.pb.obj
 0001:00018900       ??_ELogonResponse@aggregator@@UAEPAXI@Z 13019900 f i aggregator.pb.obj
 0001:00018950       ?InitAsDefaultInstance@LogonResponse@aggregator@@AAEXXZ 13019950 f   aggregator.pb.obj
 0001:00018970       ??0LogonResponse@aggregator@@QAE@ABV01@@Z 13019970 f   aggregator.pb.obj
 0001:000189d0       ?SharedCtor@LogonResponse@aggregator@@AAEXXZ 130199d0 f   aggregator.pb.obj
 0001:00018a40       ??1LogonResponse@aggregator@@UAE@XZ 13019a40 f   aggregator.pb.obj
 0001:00018a90       ?SharedDtor@LogonResponse@aggregator@@AAEXXZ 13019a90 f   aggregator.pb.obj
 0001:00018b10       ?SetCachedSize@LogonResponse@aggregator@@ABEXH@Z 13019b10 f   aggregator.pb.obj
 0001:00018b40       ?default_instance@LogonResponse@aggregator@@SAABV12@XZ 13019b40 f   aggregator.pb.obj
 0001:00018b60       ?New@LogonResponse@aggregator@@UBEPAV12@XZ 13019b60 f   aggregator.pb.obj
 0001:00018bd0       ?Clear@LogonResponse@aggregator@@UAEXXZ 13019bd0 f   aggregator.pb.obj
 0001:00018c70       ?has_info@LogonResponse@aggregator@@QBE_NXZ 13019c70 f i aggregator.pb.obj
 0001:00018ca0       ?MergePartialFromCodedStream@LogonResponse@aggregator@@UAE_NPAVCodedInputStream@io@protobuf@google@@@Z 13019ca0 f   aggregator.pb.obj
 0001:00018e30       ?set_has_session_id@LogonResponse@aggregator@@AAEXXZ 13019e30 f i aggregator.pb.obj
 0001:00018e60       ?mutable_info@LogonResponse@aggregator@@QAEPAV?$basic_string@DU?$char_traits@D@std@@V?$allocator@D@2@@std@@XZ 13019e60 f i aggregator.pb.obj
 0001:00018f00       ?set_has_info@LogonResponse@aggregator@@AAEXXZ 13019f00 f i aggregator.pb.obj
 0001:00018f30       ?SerializeWithCachedSizes@LogonResponse@aggregator@@UBEXPAVCodedOutputStream@io@protobuf@google@@@Z 13019f30 f   aggregator.pb.obj
 0001:00018fc0       ?has_session_id@LogonResponse@aggregator@@QBE_NXZ 13019fc0 f i aggregator.pb.obj
 0001:00018ff0       ?session_id@LogonResponse@aggregator@@QBE_KXZ 13019ff0 f i aggregator.pb.obj
 0001:00019020       ?info@LogonResponse@aggregator@@QBEABV?$basic_string@DU?$char_traits@D@std@@V?$allocator@D@2@@std@@XZ 1301a020 f i aggregator.pb.obj
 0001:00019040       ?ByteSize@LogonResponse@aggregator@@UBEHXZ 1301a040 f   aggregator.pb.obj
 0001:00019110       ?CheckTypeAndMergeFrom@LogonResponse@aggregator@@UAEXABVMessageLite@protobuf@google@@@Z 1301a110 f   aggregator.pb.obj
 0001:00019150       ?MergeFrom@LogonResponse@aggregator@@QAEXABV12@@Z 1301a150 f   aggregator.pb.obj
 0001:00019260       ?set_session_id@LogonResponse@aggregator@@QAEX_K@Z 1301a260 f i aggregator.pb.obj
 0001:000192b0       ?set_info@LogonResponse@aggregator@@QAEXABV?$basic_string@DU?$char_traits@D@std@@V?$allocator@D@2@@std@@@Z 1301a2b0 f i aggregator.pb.obj
 0001:00019360       ?CopyFrom@LogonResponse@aggregator@@QAEXABV12@@Z 1301a360 f   aggregator.pb.obj
 0001:000193c0       ?IsInitialized@LogonResponse@aggregator@@UBE_NXZ 1301a3c0 f   aggregator.pb.obj
 0001:000193f0       ?Swap@LogonResponse@aggregator@@QAEXPAV12@@Z 1301a3f0 f   aggregator.pb.obj
 0001:00019490       ?GetTypeName@LogonResponse@aggregator@@UBE?AV?$basic_string@DU?$char_traits@D@std@@V?$allocator@D@2@@std@@XZ 1301a490 f   aggregator.pb.obj
 0001:000194d0       ??0LogoutRequest@aggregator@@QAE@XZ 1301a4d0 f   aggregator.pb.obj
 0001:00019520       ?GetCachedSize@LogoutRequest@aggregator@@UBEHXZ 1301a520 f i aggregator.pb.obj
 0001:00019540       ??_ELogoutRequest@aggregator@@UAEPAXI@Z 1301a540 f i aggregator.pb.obj
 0001:00019540       ??_GLogoutRequest@aggregator@@UAEPAXI@Z 1301a540 f i aggregator.pb.obj
 0001:00019590       ?InitAsDefaultInstance@LogoutRequest@aggregator@@AAEXXZ 1301a590 f   aggregator.pb.obj
 0001:000195b0       ??0LogoutRequest@aggregator@@QAE@ABV01@@Z 1301a5b0 f   aggregator.pb.obj
 0001:00019610       ?SharedCtor@LogoutRequest@aggregator@@AAEXXZ 1301a610 f   aggregator.pb.obj
 0001:00019670       ??1LogoutRequest@aggregator@@UAE@XZ 1301a670 f   aggregator.pb.obj
 0001:000196c0       ?SharedDtor@LogoutRequest@aggregator@@AAEXXZ 1301a6c0 f   aggregator.pb.obj
 0001:00019740       ?SetCachedSize@LogoutRequest@aggregator@@ABEXH@Z 1301a740 f   aggregator.pb.obj
 0001:00019770       ?default_instance@LogoutRequest@aggregator@@SAABV12@XZ 1301a770 f   aggregator.pb.obj
 0001:00019790       ?New@LogoutRequest@aggregator@@UBEPAV12@XZ 1301a790 f   aggregator.pb.obj
 0001:00019800       ?Clear@LogoutRequest@aggregator@@UAEXXZ 1301a800 f   aggregator.pb.obj
 0001:00019880       ?has_msg@LogoutRequest@aggregator@@QBE_NXZ 1301a880 f i aggregator.pb.obj
 0001:000198b0       ?MergePartialFromCodedStream@LogoutRequest@aggregator@@UAE_NPAVCodedInputStream@io@protobuf@google@@@Z 1301a8b0 f   aggregator.pb.obj
 0001:000199d0       ?mutable_msg@LogoutRequest@aggregator@@QAEPAV?$basic_string@DU?$char_traits@D@std@@V?$allocator@D@2@@std@@XZ 1301a9d0 f i aggregator.pb.obj
 0001:00019a70       ?set_has_msg@LogoutRequest@aggregator@@AAEXXZ 1301aa70 f i aggregator.pb.obj
 0001:00019aa0       ?SerializeWithCachedSizes@LogoutRequest@aggregator@@UBEXPAVCodedOutputStream@io@protobuf@google@@@Z 1301aaa0 f   aggregator.pb.obj
 0001:00019b00       ?msg@LogoutRequest@aggregator@@QBEABV?$basic_string@DU?$char_traits@D@std@@V?$allocator@D@2@@std@@XZ 1301ab00 f i aggregator.pb.obj
 0001:00019b20       ?ByteSize@LogoutRequest@aggregator@@UBEHXZ 1301ab20 f   aggregator.pb.obj
 0001:00019bb0       ?CheckTypeAndMergeFrom@LogoutRequest@aggregator@@UAEXABVMessageLite@protobuf@google@@@Z 1301abb0 f   aggregator.pb.obj
 0001:00019bf0       ?MergeFrom@LogoutRequest@aggregator@@QAEXABV12@@Z 1301abf0 f   aggregator.pb.obj
 0001:00019cd0       ?set_msg@LogoutRequest@aggregator@@QAEXABV?$basic_string@DU?$char_traits@D@std@@V?$allocator@D@2@@std@@@Z 1301acd0 f i aggregator.pb.obj
 0001:00019d80       ?CopyFrom@LogoutRequest@aggregator@@QAEXABV12@@Z 1301ad80 f   aggregator.pb.obj
 0001:00019de0       ?IsInitialized@LogoutRequest@aggregator@@UBE_NXZ 1301ade0 f   aggregator.pb.obj
 0001:00019e00       ?Swap@LogoutRequest@aggregator@@QAEXPAV12@@Z 1301ae00 f   aggregator.pb.obj
 0001:00019e90       ?GetTypeName@LogoutRequest@aggregator@@UBE?AV?$basic_string@DU?$char_traits@D@std@@V?$allocator@D@2@@std@@XZ 1301ae90 f   aggregator.pb.obj
 0001:00019ed0       ??0KeepAliveRequest@aggregator@@QAE@XZ 1301aed0 f   aggregator.pb.obj
 0001:00019f20       ?GetCachedSize@KeepAliveRequest@aggregator@@UBEHXZ 1301af20 f i aggregator.pb.obj
 0001:00019f40       ??_GKeepAliveRequest@aggregator@@UAEPAXI@Z 1301af40 f i aggregator.pb.obj
 0001:00019f40       ??_EKeepAliveRequest@aggregator@@UAEPAXI@Z 1301af40 f i aggregator.pb.obj
 0001:00019f90       ?InitAsDefaultInstance@KeepAliveRequest@aggregator@@AAEXXZ 1301af90 f   aggregator.pb.obj
 0001:00019fb0       ??0KeepAliveRequest@aggregator@@QAE@ABV01@@Z 1301afb0 f   aggregator.pb.obj
 0001:0001a010       ?SharedCtor@KeepAliveRequest@aggregator@@AAEXXZ 1301b010 f   aggregator.pb.obj
 0001:0001a080       ??1KeepAliveRequest@aggregator@@UAE@XZ 1301b080 f   aggregator.pb.obj
 0001:0001a0d0       ?SharedDtor@KeepAliveRequest@aggregator@@AAEXXZ 1301b0d0 f   aggregator.pb.obj
 0001:0001a150       ?SetCachedSize@KeepAliveRequest@aggregator@@ABEXH@Z 1301b150 f   aggregator.pb.obj
 0001:0001a180       ?default_instance@KeepAliveRequest@aggregator@@SAABV12@XZ 1301b180 f   aggregator.pb.obj
 0001:0001a1a0       ?New@KeepAliveRequest@aggregator@@UBEPAV12@XZ 1301b1a0 f   aggregator.pb.obj
 0001:0001a210       ?Clear@KeepAliveRequest@aggregator@@UAEXXZ 1301b210 f   aggregator.pb.obj
 0001:0001a2b0       ?has_msg@KeepAliveRequest@aggregator@@QBE_NXZ 1301b2b0 f i aggregator.pb.obj
 0001:0001a2e0       ?MergePartialFromCodedStream@KeepAliveRequest@aggregator@@UAE_NPAVCodedInputStream@io@protobuf@google@@@Z 1301b2e0 f   aggregator.pb.obj
 0001:0001a470       ?set_has_sync_pos@KeepAliveRequest@aggregator@@AAEXXZ 1301b470 f i aggregator.pb.obj
 0001:0001a4a0       ?mutable_msg@KeepAliveRequest@aggregator@@QAEPAV?$basic_string@DU?$char_traits@D@std@@V?$allocator@D@2@@std@@XZ 1301b4a0 f i aggregator.pb.obj
 0001:0001a540       ?set_has_msg@KeepAliveRequest@aggregator@@AAEXXZ 1301b540 f i aggregator.pb.obj
 0001:0001a570       ?SerializeWithCachedSizes@KeepAliveRequest@aggregator@@UBEXPAVCodedOutputStream@io@protobuf@google@@@Z 1301b570 f   aggregator.pb.obj
 0001:0001a600       ?has_sync_pos@KeepAliveRequest@aggregator@@QBE_NXZ 1301b600 f i aggregator.pb.obj
 0001:0001a630       ?sync_pos@KeepAliveRequest@aggregator@@QBE_KXZ 1301b630 f i aggregator.pb.obj
 0001:0001a660       ?msg@KeepAliveRequest@aggregator@@QBEABV?$basic_string@DU?$char_traits@D@std@@V?$allocator@D@2@@std@@XZ 1301b660 f i aggregator.pb.obj
 0001:0001a680       ?ByteSize@KeepAliveRequest@aggregator@@UBEHXZ 1301b680 f   aggregator.pb.obj
 0001:0001a750       ?CheckTypeAndMergeFrom@KeepAliveRequest@aggregator@@UAEXABVMessageLite@protobuf@google@@@Z 1301b750 f   aggregator.pb.obj
 0001:0001a790       ?MergeFrom@KeepAliveRequest@aggregator@@QAEXABV12@@Z 1301b790 f   aggregator.pb.obj
 0001:0001a8a0       ?set_sync_pos@KeepAliveRequest@aggregator@@QAEX_K@Z 1301b8a0 f i aggregator.pb.obj
 0001:0001a8f0       ?set_msg@KeepAliveRequest@aggregator@@QAEXABV?$basic_string@DU?$char_traits@D@std@@V?$allocator@D@2@@std@@@Z 1301b8f0 f i aggregator.pb.obj
 0001:0001a9a0       ?CopyFrom@KeepAliveRequest@aggregator@@QAEXABV12@@Z 1301b9a0 f   aggregator.pb.obj
 0001:0001aa00       ?IsInitialized@KeepAliveRequest@aggregator@@UBE_NXZ 1301ba00 f   aggregator.pb.obj
 0001:0001aa30       ?Swap@KeepAliveRequest@aggregator@@QAEXPAV12@@Z 1301ba30 f   aggregator.pb.obj
 0001:0001aad0       ?GetTypeName@KeepAliveRequest@aggregator@@UBE?AV?$basic_string@DU?$char_traits@D@std@@V?$allocator@D@2@@std@@XZ 1301bad0 f   aggregator.pb.obj
 0001:0001ab10       ??0KeepAliveResponse@aggregator@@QAE@XZ 1301bb10 f   aggregator.pb.obj
 0001:0001ab60       ?GetCachedSize@KeepAliveResponse@aggregator@@UBEHXZ 1301bb60 f i aggregator.pb.obj
 0001:0001ab80       ??_GKeepAliveResponse@aggregator@@UAEPAXI@Z 1301bb80 f i aggregator.pb.obj
 0001:0001ab80       ??_EKeepAliveResponse@aggregator@@UAEPAXI@Z 1301bb80 f i aggregator.pb.obj
 0001:0001abd0       ?InitAsDefaultInstance@KeepAliveResponse@aggregator@@AAEXXZ 1301bbd0 f   aggregator.pb.obj
 0001:0001abf0       ??0KeepAliveResponse@aggregator@@QAE@ABV01@@Z 1301bbf0 f   aggregator.pb.obj
 0001:0001ac50       ?SharedCtor@KeepAliveResponse@aggregator@@AAEXXZ 1301bc50 f   aggregator.pb.obj
 0001:0001acc0       ??1KeepAliveResponse@aggregator@@UAE@XZ 1301bcc0 f   aggregator.pb.obj
 0001:0001ad10       ?SharedDtor@KeepAliveResponse@aggregator@@AAEXXZ 1301bd10 f   aggregator.pb.obj
 0001:0001ad90       ?SetCachedSize@KeepAliveResponse@aggregator@@ABEXH@Z 1301bd90 f   aggregator.pb.obj
 0001:0001adc0       ?default_instance@KeepAliveResponse@aggregator@@SAABV12@XZ 1301bdc0 f   aggregator.pb.obj
 0001:0001ade0       ?New@KeepAliveResponse@aggregator@@UBEPAV12@XZ 1301bde0 f   aggregator.pb.obj
 0001:0001ae50       ?Clear@KeepAliveResponse@aggregator@@UAEXXZ 1301be50 f   aggregator.pb.obj
 0001:0001aef0       ?has_msg@KeepAliveResponse@aggregator@@QBE_NXZ 1301bef0 f i aggregator.pb.obj
 0001:0001af20       ?MergePartialFromCodedStream@KeepAliveResponse@aggregator@@UAE_NPAVCodedInputStream@io@protobuf@google@@@Z 1301bf20 f   aggregator.pb.obj
 0001:0001b0b0       ?set_has_sync_pos@KeepAliveResponse@aggregator@@AAEXXZ 1301c0b0 f i aggregator.pb.obj
 0001:0001b0e0       ?mutable_msg@KeepAliveResponse@aggregator@@QAEPAV?$basic_string@DU?$char_traits@D@std@@V?$allocator@D@2@@std@@XZ 1301c0e0 f i aggregator.pb.obj
 0001:0001b180       ?set_has_msg@KeepAliveResponse@aggregator@@AAEXXZ 1301c180 f i aggregator.pb.obj
 0001:0001b1b0       ?SerializeWithCachedSizes@KeepAliveResponse@aggregator@@UBEXPAVCodedOutputStream@io@protobuf@google@@@Z 1301c1b0 f   aggregator.pb.obj
 0001:0001b240       ?has_sync_pos@KeepAliveResponse@aggregator@@QBE_NXZ 1301c240 f i aggregator.pb.obj
 0001:0001b270       ?sync_pos@KeepAliveResponse@aggregator@@QBE_KXZ 1301c270 f i aggregator.pb.obj
 0001:0001b2a0       ?msg@KeepAliveResponse@aggregator@@QBEABV?$basic_string@DU?$char_traits@D@std@@V?$allocator@D@2@@std@@XZ 1301c2a0 f i aggregator.pb.obj
 0001:0001b2c0       ?ByteSize@KeepAliveResponse@aggregator@@UBEHXZ 1301c2c0 f   aggregator.pb.obj
 0001:0001b390       ?CheckTypeAndMergeFrom@KeepAliveResponse@aggregator@@UAEXABVMessageLite@protobuf@google@@@Z 1301c390 f   aggregator.pb.obj
 0001:0001b3d0       ?MergeFrom@KeepAliveResponse@aggregator@@QAEXABV12@@Z 1301c3d0 f   aggregator.pb.obj
 0001:0001b4e0       ?set_sync_pos@KeepAliveResponse@aggregator@@QAEX_K@Z 1301c4e0 f i aggregator.pb.obj
 0001:0001b530       ?set_msg@KeepAliveResponse@aggregator@@QAEXABV?$basic_string@DU?$char_traits@D@std@@V?$allocator@D@2@@std@@@Z 1301c530 f i aggregator.pb.obj
 0001:0001b5e0       ?CopyFrom@KeepAliveResponse@aggregator@@QAEXABV12@@Z 1301c5e0 f   aggregator.pb.obj
 0001:0001b640       ?IsInitialized@KeepAliveResponse@aggregator@@UBE_NXZ 1301c640 f   aggregator.pb.obj
 0001:0001b670       ?Swap@KeepAliveResponse@aggregator@@QAEXPAV12@@Z 1301c670 f   aggregator.pb.obj
 0001:0001b710       ?GetTypeName@KeepAliveResponse@aggregator@@UBE?AV?$basic_string@DU?$char_traits@D@std@@V?$allocator@D@2@@std@@XZ 1301c710 f   aggregator.pb.obj
 0001:0001b750       ?InstructResponse_EncodeType_IsValid@aggregator@@YA_NH@Z 1301c750 f   aggregator.pb.obj
 0001:0001b790       ??0InstructResponse@aggregator@@QAE@XZ 1301c790 f   aggregator.pb.obj
 0001:0001b7e0       ?GetCachedSize@InstructResponse@aggregator@@UBEHXZ 1301c7e0 f i aggregator.pb.obj
 0001:0001b800       ??_EInstructResponse@aggregator@@UAEPAXI@Z 1301c800 f i aggregator.pb.obj
 0001:0001b800       ??_GInstructResponse@aggregator@@UAEPAXI@Z 1301c800 f i aggregator.pb.obj
 0001:0001b850       ?InitAsDefaultInstance@InstructResponse@aggregator@@AAEXXZ 1301c850 f   aggregator.pb.obj
 0001:0001b870       ??0InstructResponse@aggregator@@QAE@ABV01@@Z 1301c870 f   aggregator.pb.obj
 0001:0001b8d0       ?SharedCtor@InstructResponse@aggregator@@AAEXXZ 1301c8d0 f   aggregator.pb.obj
 0001:0001b930       ??1InstructResponse@aggregator@@UAE@XZ 1301c930 f   aggregator.pb.obj
 0001:0001b980       ?SharedDtor@InstructResponse@aggregator@@AAEXXZ 1301c980 f   aggregator.pb.obj
 0001:0001b9b0       ?SetCachedSize@InstructResponse@aggregator@@ABEXH@Z 1301c9b0 f   aggregator.pb.obj
 0001:0001b9e0       ?default_instance@InstructResponse@aggregator@@SAABV12@XZ 1301c9e0 f   aggregator.pb.obj
 0001:0001ba00       ?New@InstructResponse@aggregator@@UBEPAV12@XZ 1301ca00 f   aggregator.pb.obj
 0001:0001ba70       ?Clear@InstructResponse@aggregator@@UAEXXZ 1301ca70 f   aggregator.pb.obj
 0001:0001bad0       ?MergePartialFromCodedStream@InstructResponse@aggregator@@UAE_NPAVCodedInputStream@io@protobuf@google@@@Z 1301cad0 f   aggregator.pb.obj
 0001:0001bbf0       ?set_has_instruction@InstructResponse@aggregator@@AAEXXZ 1301cbf0 f i aggregator.pb.obj
 0001:0001bc20       ?SerializeWithCachedSizes@InstructResponse@aggregator@@UBEXPAVCodedOutputStream@io@protobuf@google@@@Z 1301cc20 f   aggregator.pb.obj
 0001:0001bc80       ?has_instruction@InstructResponse@aggregator@@QBE_NXZ 1301cc80 f i aggregator.pb.obj
 0001:0001bcb0       ?instruction@InstructResponse@aggregator@@QBEIXZ 1301ccb0 f i aggregator.pb.obj
 0001:0001bcd0       ?ByteSize@InstructResponse@aggregator@@UBEHXZ 1301ccd0 f   aggregator.pb.obj
 0001:0001bd60       ?CheckTypeAndMergeFrom@InstructResponse@aggregator@@UAEXABVMessageLite@protobuf@google@@@Z 1301cd60 f   aggregator.pb.obj
 0001:0001bda0       ?MergeFrom@InstructResponse@aggregator@@QAEXABV12@@Z 1301cda0 f   aggregator.pb.obj
 0001:0001be80       ?set_instruction@InstructResponse@aggregator@@QAEXI@Z 1301ce80 f i aggregator.pb.obj
 0001:0001bec0       ?CopyFrom@InstructResponse@aggregator@@QAEXABV12@@Z 1301cec0 f   aggregator.pb.obj
 0001:0001bf20       ?IsInitialized@InstructResponse@aggregator@@UBE_NXZ 1301cf20 f   aggregator.pb.obj
 0001:0001bf50       ?Swap@InstructResponse@aggregator@@QAEXPAV12@@Z 1301cf50 f   aggregator.pb.obj
 0001:0001bfe0       ?GetTypeName@InstructResponse@aggregator@@UBE?AV?$basic_string@DU?$char_traits@D@std@@V?$allocator@D@2@@std@@XZ 1301cfe0 f   aggregator.pb.obj
 0001:0001c020       ??0TransID@aggregator@@QAE@XZ 1301d020 f   aggregator.pb.obj
 0001:0001c070       ?GetCachedSize@TransID@aggregator@@UBEHXZ 1301d070 f i aggregator.pb.obj
 0001:0001c090       ??_ETransID@aggregator@@UAEPAXI@Z 1301d090 f i aggregator.pb.obj
 0001:0001c090       ??_GTransID@aggregator@@UAEPAXI@Z 1301d090 f i aggregator.pb.obj
 0001:0001c0e0       ?InitAsDefaultInstance@TransID@aggregator@@AAEXXZ 1301d0e0 f   aggregator.pb.obj
 0001:0001c100       ??0TransID@aggregator@@QAE@ABV01@@Z 1301d100 f   aggregator.pb.obj
 0001:0001c160       ?SharedCtor@TransID@aggregator@@AAEXXZ 1301d160 f   aggregator.pb.obj
 0001:0001c1c0       ??1TransID@aggregator@@UAE@XZ 1301d1c0 f   aggregator.pb.obj
 0001:0001c210       ?SharedDtor@TransID@aggregator@@AAEXXZ 1301d210 f   aggregator.pb.obj
 0001:0001c240       ?SetCachedSize@TransID@aggregator@@ABEXH@Z 1301d240 f   aggregator.pb.obj
 0001:0001c270       ?default_instance@TransID@aggregator@@SAABV12@XZ 1301d270 f   aggregator.pb.obj
 0001:0001c290       ?New@TransID@aggregator@@UBEPAV12@XZ 1301d290 f   aggregator.pb.obj
 0001:0001c300       ?Clear@TransID@aggregator@@UAEXXZ 1301d300 f   aggregator.pb.obj
 0001:0001c360       ?MergePartialFromCodedStream@TransID@aggregator@@UAE_NPAVCodedInputStream@io@protobuf@google@@@Z 1301d360 f   aggregator.pb.obj
 0001:0001c480       ?set_has_id@TransID@aggregator@@AAEXXZ 1301d480 f i aggregator.pb.obj
 0001:0001c4b0       ?SerializeWithCachedSizes@TransID@aggregator@@UBEXPAVCodedOutputStream@io@protobuf@google@@@Z 1301d4b0 f   aggregator.pb.obj
 0001:0001c510       ?has_id@TransID@aggregator@@QBE_NXZ 1301d510 f i aggregator.pb.obj
 0001:0001c540       ?id@TransID@aggregator@@QBEIXZ 1301d540 f i aggregator.pb.obj
 0001:0001c560       ?ByteSize@TransID@aggregator@@UBEHXZ 1301d560 f   aggregator.pb.obj
 0001:0001c5f0       ?CheckTypeAndMergeFrom@TransID@aggregator@@UAEXABVMessageLite@protobuf@google@@@Z 1301d5f0 f   aggregator.pb.obj
 0001:0001c630       ?MergeFrom@TransID@aggregator@@QAEXABV12@@Z 1301d630 f   aggregator.pb.obj
 0001:0001c710       ?set_id@TransID@aggregator@@QAEXI@Z 1301d710 f i aggregator.pb.obj
 0001:0001c750       ?CopyFrom@TransID@aggregator@@QAEXABV12@@Z 1301d750 f   aggregator.pb.obj
 0001:0001c7b0       ?IsInitialized@TransID@aggregator@@UBE_NXZ 1301d7b0 f   aggregator.pb.obj
 0001:0001c7e0       ?Swap@TransID@aggregator@@QAEXPAV12@@Z 1301d7e0 f   aggregator.pb.obj
 0001:0001c870       ?GetTypeName@TransID@aggregator@@UBE?AV?$basic_string@DU?$char_traits@D@std@@V?$allocator@D@2@@std@@XZ 1301d870 f   aggregator.pb.obj
 0001:0001c8b0       ??0CollectorRequest@aggregator@@QAE@XZ 1301d8b0 f   aggregator.pb.obj
 0001:0001c900       ?GetCachedSize@CollectorRequest@aggregator@@UBEHXZ 1301d900 f i aggregator.pb.obj
 0001:0001c920       ??_GCollectorRequest@aggregator@@UAEPAXI@Z 1301d920 f i aggregator.pb.obj
 0001:0001c920       ??_ECollectorRequest@aggregator@@UAEPAXI@Z 1301d920 f i aggregator.pb.obj
 0001:0001c970       ?InitAsDefaultInstance@CollectorRequest@aggregator@@AAEXXZ 1301d970 f   aggregator.pb.obj
 0001:0001ca30       ?internal_default_instance@CheckSumRequest@aggregator@@SAPBV12@XZ 1301da30 f i aggregator.pb.obj
 0001:0001ca40       ?internal_default_instance@LogRequest@aggregator@@SAPBV12@XZ 1301da40 f i aggregator.pb.obj
 0001:0001ca50       ?internal_default_instance@FileRequest@aggregator@@SAPBV12@XZ 1301da50 f i aggregator.pb.obj
 0001:0001ca60       ?internal_default_instance@FileDataRequest@aggregator@@SAPBV12@XZ 1301da60 f i aggregator.pb.obj
 0001:0001ca70       ?internal_default_instance@CollectorFileRequest@aggregator@@SAPBV12@XZ 1301da70 f i aggregator.pb.obj
 0001:0001ca80       ?internal_default_instance@CollectRuleRequest@aggregator@@SAPBV12@XZ 1301da80 f i aggregator.pb.obj
 0001:0001ca90       ?internal_default_instance@ConfigRequest@aggregator@@SAPBV12@XZ 1301da90 f i aggregator.pb.obj
 0001:0001caa0       ?internal_default_instance@LogonRequest@aggregator@@SAPBV12@XZ 1301daa0 f i aggregator.pb.obj
 0001:0001cab0       ?internal_default_instance@LogoutRequest@aggregator@@SAPBV12@XZ 1301dab0 f i aggregator.pb.obj
 0001:0001cac0       ?internal_default_instance@KeepAliveRequest@aggregator@@SAPBV12@XZ 1301dac0 f i aggregator.pb.obj
 0001:0001cad0       ?internal_default_instance@TransID@aggregator@@SAPBV12@XZ 1301dad0 f i aggregator.pb.obj
 0001:0001cae0       ??0CollectorRequest@aggregator@@QAE@ABV01@@Z 1301dae0 f   aggregator.pb.obj
 0001:0001cb40       ?SharedCtor@CollectorRequest@aggregator@@AAEXXZ 1301db40 f   aggregator.pb.obj
 0001:0001cc30       ??1CollectorRequest@aggregator@@UAE@XZ 1301dc30 f   aggregator.pb.obj
 0001:0001cc80       ?SharedDtor@CollectorRequest@aggregator@@AAEXXZ 1301dc80 f   aggregator.pb.obj
 0001:0001cff0       ?SetCachedSize@CollectorRequest@aggregator@@ABEXH@Z 1301dff0 f   aggregator.pb.obj
 0001:0001d020       ?default_instance@CollectorRequest@aggregator@@SAABV12@XZ 1301e020 f   aggregator.pb.obj
 0001:0001d040       ?New@CollectorRequest@aggregator@@UBEPAV12@XZ 1301e040 f   aggregator.pb.obj
 0001:0001d0b0       ?Clear@CollectorRequest@aggregator@@UAEXXZ 1301e0b0 f   aggregator.pb.obj
 0001:0001d310       ?has_trxid_request@CollectorRequest@aggregator@@QBE_NXZ 1301e310 f i aggregator.pb.obj
 0001:0001d340       ?has_logon_request@CollectorRequest@aggregator@@QBE_NXZ 1301e340 f i aggregator.pb.obj
 0001:0001d370       ?has_logout_request@CollectorRequest@aggregator@@QBE_NXZ 1301e370 f i aggregator.pb.obj
 0001:0001d3a0       ?has_keepalive_request@CollectorRequest@aggregator@@QBE_NXZ 1301e3a0 f i aggregator.pb.obj
 0001:0001d3d0       ?has_log_request@CollectorRequest@aggregator@@QBE_NXZ 1301e3d0 f i aggregator.pb.obj
 0001:0001d400       ?has_config_request@CollectorRequest@aggregator@@QBE_NXZ 1301e400 f i aggregator.pb.obj
 0001:0001d430       ?has_collectorfile_request@CollectorRequest@aggregator@@QBE_NXZ 1301e430 f i aggregator.pb.obj
 0001:0001d460       ?has_collectrule_request@CollectorRequest@aggregator@@QBE_NXZ 1301e460 f i aggregator.pb.obj
 0001:0001d490       ?has_file_request@CollectorRequest@aggregator@@QBE_NXZ 1301e490 f i aggregator.pb.obj
 0001:0001d4c0       ?has_filedata_request@CollectorRequest@aggregator@@QBE_NXZ 1301e4c0 f i aggregator.pb.obj
 0001:0001d4f0       ?has_checksum_request@CollectorRequest@aggregator@@QBE_NXZ 1301e4f0 f i aggregator.pb.obj
 0001:0001d520       ?MergePartialFromCodedStream@CollectorRequest@aggregator@@UAE_NPAVCodedInputStream@io@protobuf@google@@@Z 1301e520 f   aggregator.pb.obj
 0001:0001db70       ?set_has_session_id@CollectorRequest@aggregator@@AAEXXZ 1301eb70 f i aggregator.pb.obj
 0001:0001dba0       ?mutable_trxid_request@CollectorRequest@aggregator@@QAEPAVTransID@2@XZ 1301eba0 f i aggregator.pb.obj
 0001:0001dc30       ?set_has_trxid_request@CollectorRequest@aggregator@@AAEXXZ 1301ec30 f i aggregator.pb.obj
 0001:0001dc60       ?mutable_logon_request@CollectorRequest@aggregator@@QAEPAVLogonRequest@2@XZ 1301ec60 f i aggregator.pb.obj
 0001:0001dcf0       ?set_has_logon_request@CollectorRequest@aggregator@@AAEXXZ 1301ecf0 f i aggregator.pb.obj
 0001:0001dd20       ?mutable_logout_request@CollectorRequest@aggregator@@QAEPAVLogoutRequest@2@XZ 1301ed20 f i aggregator.pb.obj
 0001:0001ddb0       ?set_has_logout_request@CollectorRequest@aggregator@@AAEXXZ 1301edb0 f i aggregator.pb.obj
 0001:0001dde0       ?mutable_keepalive_request@CollectorRequest@aggregator@@QAEPAVKeepAliveRequest@2@XZ 1301ede0 f i aggregator.pb.obj
 0001:0001de70       ?set_has_keepalive_request@CollectorRequest@aggregator@@AAEXXZ 1301ee70 f i aggregator.pb.obj
 0001:0001dea0       ?mutable_log_request@CollectorRequest@aggregator@@QAEPAVLogRequest@2@XZ 1301eea0 f i aggregator.pb.obj
 0001:0001df30       ?set_has_log_request@CollectorRequest@aggregator@@AAEXXZ 1301ef30 f i aggregator.pb.obj
 0001:0001df60       ?mutable_config_request@CollectorRequest@aggregator@@QAEPAVConfigRequest@2@XZ 1301ef60 f i aggregator.pb.obj
 0001:0001dff0       ?set_has_config_request@CollectorRequest@aggregator@@AAEXXZ 1301eff0 f i aggregator.pb.obj
 0001:0001e020       ?mutable_collectorfile_request@CollectorRequest@aggregator@@QAEPAVCollectorFileRequest@2@XZ 1301f020 f i aggregator.pb.obj
 0001:0001e0b0       ?set_has_collectorfile_request@CollectorRequest@aggregator@@AAEXXZ 1301f0b0 f i aggregator.pb.obj
 0001:0001e0e0       ?mutable_collectrule_request@CollectorRequest@aggregator@@QAEPAVCollectRuleRequest@2@XZ 1301f0e0 f i aggregator.pb.obj
 0001:0001e170       ?set_has_collectrule_request@CollectorRequest@aggregator@@AAEXXZ 1301f170 f i aggregator.pb.obj
 0001:0001e1a0       ?mutable_file_request@CollectorRequest@aggregator@@QAEPAVFileRequest@2@XZ 1301f1a0 f i aggregator.pb.obj
 0001:0001e230       ?set_has_file_request@CollectorRequest@aggregator@@AAEXXZ 1301f230 f i aggregator.pb.obj
 0001:0001e260       ?mutable_filedata_request@CollectorRequest@aggregator@@QAEPAVFileDataRequest@2@XZ 1301f260 f i aggregator.pb.obj
 0001:0001e2f0       ?set_has_filedata_request@CollectorRequest@aggregator@@AAEXXZ 1301f2f0 f i aggregator.pb.obj
 0001:0001e320       ?mutable_checksum_request@CollectorRequest@aggregator@@QAEPAVCheckSumRequest@2@XZ 1301f320 f i aggregator.pb.obj
 0001:0001e3b0       ?set_has_checksum_request@CollectorRequest@aggregator@@AAEXXZ 1301f3b0 f i aggregator.pb.obj
 0001:0001e3e0       ?SerializeWithCachedSizes@CollectorRequest@aggregator@@UBEXPAVCodedOutputStream@io@protobuf@google@@@Z 1301f3e0 f   aggregator.pb.obj
 0001:0001e640       ?has_session_id@CollectorRequest@aggregator@@QBE_NXZ 1301f640 f i aggregator.pb.obj
 0001:0001e670       ?session_id@CollectorRequest@aggregator@@QBE_KXZ 1301f670 f i aggregator.pb.obj
 0001:0001e6a0       ?trxid_request@CollectorRequest@aggregator@@QBEABVTransID@2@XZ 1301f6a0 f i aggregator.pb.obj
 0001:0001e710       ?logon_request@CollectorRequest@aggregator@@QBEABVLogonRequest@2@XZ 1301f710 f i aggregator.pb.obj
 0001:0001e780       ?logout_request@CollectorRequest@aggregator@@QBEABVLogoutRequest@2@XZ 1301f780 f i aggregator.pb.obj
 0001:0001e7f0       ?keepalive_request@CollectorRequest@aggregator@@QBEABVKeepAliveRequest@2@XZ 1301f7f0 f i aggregator.pb.obj
 0001:0001e860       ?log_request@CollectorRequest@aggregator@@QBEABVLogRequest@2@XZ 1301f860 f i aggregator.pb.obj
 0001:0001e8d0       ?config_request@CollectorRequest@aggregator@@QBEABVConfigRequest@2@XZ 1301f8d0 f i aggregator.pb.obj
 0001:0001e940       ?collectorfile_request@CollectorRequest@aggregator@@QBEABVCollectorFileRequest@2@XZ 1301f940 f i aggregator.pb.obj
 0001:0001e9b0       ?collectrule_request@CollectorRequest@aggregator@@QBEABVCollectRuleRequest@2@XZ 1301f9b0 f i aggregator.pb.obj
 0001:0001ea20       ?file_request@CollectorRequest@aggregator@@QBEABVFileRequest@2@XZ 1301fa20 f i aggregator.pb.obj
 0001:0001ea90       ?filedata_request@CollectorRequest@aggregator@@QBEABVFileDataRequest@2@XZ 1301fa90 f i aggregator.pb.obj
 0001:0001eb00       ?checksum_request@CollectorRequest@aggregator@@QBEABVCheckSumRequest@2@XZ 1301fb00 f i aggregator.pb.obj
 0001:0001eb70       ?ByteSize@CollectorRequest@aggregator@@UBEHXZ 1301fb70 f   aggregator.pb.obj
 0001:0001ee60       ?CheckTypeAndMergeFrom@CollectorRequest@aggregator@@UAEXABVMessageLite@protobuf@google@@@Z 1301fe60 f   aggregator.pb.obj
 0001:0001eea0       ?MergeFrom@CollectorRequest@aggregator@@QAEXABV12@@Z 1301fea0 f   aggregator.pb.obj
 0001:0001f1c0       ?set_session_id@CollectorRequest@aggregator@@QAEX_K@Z 130201c0 f i aggregator.pb.obj
 0001:0001f210       ?CopyFrom@CollectorRequest@aggregator@@QAEXABV12@@Z 13020210 f   aggregator.pb.obj
 0001:0001f270       ?IsInitialized@CollectorRequest@aggregator@@UBE_NXZ 13020270 f   aggregator.pb.obj
 0001:0001f4e0       ?Swap@CollectorRequest@aggregator@@QAEXPAV12@@Z 130204e0 f   aggregator.pb.obj
 0001:0001f6a0       ?GetTypeName@CollectorRequest@aggregator@@UBE?AV?$basic_string@DU?$char_traits@D@std@@V?$allocator@D@2@@std@@XZ 130206a0 f   aggregator.pb.obj
 0001:0001f6e0       ??0AggregatorResponse@aggregator@@QAE@XZ 130206e0 f   aggregator.pb.obj
 0001:0001f730       ?GetCachedSize@AggregatorResponse@aggregator@@UBEHXZ 13020730 f i aggregator.pb.obj
 0001:0001f750       ??_EAggregatorResponse@aggregator@@UAEPAXI@Z 13020750 f i aggregator.pb.obj
 0001:0001f750       ??_GAggregatorResponse@aggregator@@UAEPAXI@Z 13020750 f i aggregator.pb.obj
 0001:0001f7a0       ?InitAsDefaultInstance@AggregatorResponse@aggregator@@AAEXXZ 130207a0 f   aggregator.pb.obj
 0001:0001f860       ?internal_default_instance@CheckSumResponse@aggregator@@SAPBV12@XZ 13020860 f i aggregator.pb.obj
 0001:0001f870       ?internal_default_instance@LogResponse@aggregator@@SAPBV12@XZ 13020870 f i aggregator.pb.obj
 0001:0001f880       ?internal_default_instance@FileResponse@aggregator@@SAPBV12@XZ 13020880 f i aggregator.pb.obj
 0001:0001f890       ?internal_default_instance@FileDataResponse@aggregator@@SAPBV12@XZ 13020890 f i aggregator.pb.obj
 0001:0001f8a0       ?internal_default_instance@CollectorFileResponse@aggregator@@SAPBV12@XZ 130208a0 f i aggregator.pb.obj
 0001:0001f8b0       ?internal_default_instance@CollectRuleResponse@aggregator@@SAPBV12@XZ 130208b0 f i aggregator.pb.obj
 0001:0001f8c0       ?internal_default_instance@ConfigResponse@aggregator@@SAPBV12@XZ 130208c0 f i aggregator.pb.obj
 0001:0001f8d0       ?internal_default_instance@LogonResponse@aggregator@@SAPBV12@XZ 130208d0 f i aggregator.pb.obj
 0001:0001f8e0       ?internal_default_instance@KeepAliveResponse@aggregator@@SAPBV12@XZ 130208e0 f i aggregator.pb.obj
 0001:0001f8f0       ?internal_default_instance@InstructResponse@aggregator@@SAPBV12@XZ 130208f0 f i aggregator.pb.obj
 0001:0001f900       ??0AggregatorResponse@aggregator@@QAE@ABV01@@Z 13020900 f   aggregator.pb.obj
 0001:0001f960       ?SharedCtor@AggregatorResponse@aggregator@@AAEXXZ 13020960 f   aggregator.pb.obj
 0001:0001fa50       ??1AggregatorResponse@aggregator@@UAE@XZ 13020a50 f   aggregator.pb.obj
 0001:0001faa0       ?SharedDtor@AggregatorResponse@aggregator@@AAEXXZ 13020aa0 f   aggregator.pb.obj
 0001:0001fe60       ?SetCachedSize@AggregatorResponse@aggregator@@ABEXH@Z 13020e60 f   aggregator.pb.obj
 0001:0001fe90       ?default_instance@AggregatorResponse@aggregator@@SAABV12@XZ 13020e90 f   aggregator.pb.obj
 0001:0001feb0       ?New@AggregatorResponse@aggregator@@UBEPAV12@XZ 13020eb0 f   aggregator.pb.obj
 0001:0001ff20       ?Clear@AggregatorResponse@aggregator@@UAEXXZ 13020f20 f   aggregator.pb.obj
 0001:000201b0       ?has_error_message@AggregatorResponse@aggregator@@QBE_NXZ 130211b0 f i aggregator.pb.obj
 0001:000201e0       ?has_trxid_response@AggregatorResponse@aggregator@@QBE_NXZ 130211e0 f i aggregator.pb.obj
 0001:00020210       ?has_logon_response@AggregatorResponse@aggregator@@QBE_NXZ 13021210 f i aggregator.pb.obj
 0001:00020240       ?has_keepalive_response@AggregatorResponse@aggregator@@QBE_NXZ 13021240 f i aggregator.pb.obj
 0001:00020270       ?has_log_response@AggregatorResponse@aggregator@@QBE_NXZ 13021270 f i aggregator.pb.obj
 0001:000202a0       ?has_config_response@AggregatorResponse@aggregator@@QBE_NXZ 130212a0 f i aggregator.pb.obj
 0001:000202d0       ?has_collectorfile_response@AggregatorResponse@aggregator@@QBE_NXZ 130212d0 f i aggregator.pb.obj
 0001:00020300       ?has_collectrule_response@AggregatorResponse@aggregator@@QBE_NXZ 13021300 f i aggregator.pb.obj
 0001:00020330       ?has_file_response@AggregatorResponse@aggregator@@QBE_NXZ 13021330 f i aggregator.pb.obj
 0001:00020360       ?has_filedata_response@AggregatorResponse@aggregator@@QBE_NXZ 13021360 f i aggregator.pb.obj
 0001:00020390       ?has_checksum_response@AggregatorResponse@aggregator@@QBE_NXZ 13021390 f i aggregator.pb.obj
 0001:000203c0       ?has_instruct_response@AggregatorResponse@aggregator@@QBE_NXZ 130213c0 f i aggregator.pb.obj
 0001:000203f0       ?MergePartialFromCodedStream@AggregatorResponse@aggregator@@UAE_NPAVCodedInputStream@io@protobuf@google@@@Z 130213f0 f   aggregator.pb.obj
 0001:00020ac0       ?set_has_error_code@AggregatorResponse@aggregator@@AAEXXZ 13021ac0 f i aggregator.pb.obj
 0001:00020af0       ?mutable_error_message@AggregatorResponse@aggregator@@QAEPAV?$basic_string@DU?$char_traits@D@std@@V?$allocator@D@2@@std@@XZ 13021af0 f i aggregator.pb.obj
 0001:00020b90       ?set_has_error_message@AggregatorResponse@aggregator@@AAEXXZ 13021b90 f i aggregator.pb.obj
 0001:00020bc0       ?mutable_trxid_response@AggregatorResponse@aggregator@@QAEPAVTransID@2@XZ 13021bc0 f i aggregator.pb.obj
 0001:00020c50       ?set_has_trxid_response@AggregatorResponse@aggregator@@AAEXXZ 13021c50 f i aggregator.pb.obj
 0001:00020c80       ?mutable_logon_response@AggregatorResponse@aggregator@@QAEPAVLogonResponse@2@XZ 13021c80 f i aggregator.pb.obj
 0001:00020d10       ?set_has_logon_response@AggregatorResponse@aggregator@@AAEXXZ 13021d10 f i aggregator.pb.obj
 0001:00020d40       ?mutable_keepalive_response@AggregatorResponse@aggregator@@QAEPAVKeepAliveResponse@2@XZ 13021d40 f i aggregator.pb.obj
 0001:00020dd0       ?set_has_keepalive_response@AggregatorResponse@aggregator@@AAEXXZ 13021dd0 f i aggregator.pb.obj
 0001:00020e00       ?mutable_log_response@AggregatorResponse@aggregator@@QAEPAVLogResponse@2@XZ 13021e00 f i aggregator.pb.obj
 0001:00020e90       ?set_has_log_response@AggregatorResponse@aggregator@@AAEXXZ 13021e90 f i aggregator.pb.obj
 0001:00020ec0       ?mutable_config_response@AggregatorResponse@aggregator@@QAEPAVConfigResponse@2@XZ 13021ec0 f i aggregator.pb.obj
 0001:00020f50       ?set_has_config_response@AggregatorResponse@aggregator@@AAEXXZ 13021f50 f i aggregator.pb.obj
 0001:00020f80       ?mutable_collectorfile_response@AggregatorResponse@aggregator@@QAEPAVCollectorFileResponse@2@XZ 13021f80 f i aggregator.pb.obj
 0001:00021010       ?set_has_collectorfile_response@AggregatorResponse@aggregator@@AAEXXZ 13022010 f i aggregator.pb.obj
 0001:00021040       ?mutable_collectrule_response@AggregatorResponse@aggregator@@QAEPAVCollectRuleResponse@2@XZ 13022040 f i aggregator.pb.obj
 0001:000210d0       ?set_has_collectrule_response@AggregatorResponse@aggregator@@AAEXXZ 130220d0 f i aggregator.pb.obj
 0001:00021100       ?mutable_file_response@AggregatorResponse@aggregator@@QAEPAVFileResponse@2@XZ 13022100 f i aggregator.pb.obj
 0001:00021190       ?set_has_file_response@AggregatorResponse@aggregator@@AAEXXZ 13022190 f i aggregator.pb.obj
 0001:000211c0       ?mutable_filedata_response@AggregatorResponse@aggregator@@QAEPAVFileDataResponse@2@XZ 130221c0 f i aggregator.pb.obj
 0001:00021250       ?set_has_filedata_response@AggregatorResponse@aggregator@@AAEXXZ 13022250 f i aggregator.pb.obj
 0001:00021280       ?mutable_checksum_response@AggregatorResponse@aggregator@@QAEPAVCheckSumResponse@2@XZ 13022280 f i aggregator.pb.obj
 0001:00021310       ?set_has_checksum_response@AggregatorResponse@aggregator@@AAEXXZ 13022310 f i aggregator.pb.obj
 0001:00021340       ?mutable_instruct_response@AggregatorResponse@aggregator@@QAEPAVInstructResponse@2@XZ 13022340 f i aggregator.pb.obj
 0001:000213d0       ?set_has_instruct_response@AggregatorResponse@aggregator@@AAEXXZ 130223d0 f i aggregator.pb.obj
 0001:00021400       ?SerializeWithCachedSizes@AggregatorResponse@aggregator@@UBEXPAVCodedOutputStream@io@protobuf@google@@@Z 13022400 f   aggregator.pb.obj
 0001:00021690       ?has_error_code@AggregatorResponse@aggregator@@QBE_NXZ 13022690 f i aggregator.pb.obj
 0001:000216c0       ?error_code@AggregatorResponse@aggregator@@QBEIXZ 130226c0 f i aggregator.pb.obj
 0001:000216e0       ?error_message@AggregatorResponse@aggregator@@QBEABV?$basic_string@DU?$char_traits@D@std@@V?$allocator@D@2@@std@@XZ 130226e0 f i aggregator.pb.obj
 0001:00021700       ?trxid_response@AggregatorResponse@aggregator@@QBEABVTransID@2@XZ 13022700 f i aggregator.pb.obj
 0001:00021770       ?logon_response@AggregatorResponse@aggregator@@QBEABVLogonResponse@2@XZ 13022770 f i aggregator.pb.obj
 0001:000217e0       ?keepalive_response@AggregatorResponse@aggregator@@QBEABVKeepAliveResponse@2@XZ 130227e0 f i aggregator.pb.obj
 0001:00021850       ?log_response@AggregatorResponse@aggregator@@QBEABVLogResponse@2@XZ 13022850 f i aggregator.pb.obj
 0001:000218c0       ?config_response@AggregatorResponse@aggregator@@QBEABVConfigResponse@2@XZ 130228c0 f i aggregator.pb.obj
 0001:00021930       ?collectorfile_response@AggregatorResponse@aggregator@@QBEABVCollectorFileResponse@2@XZ 13022930 f i aggregator.pb.obj
 0001:000219a0       ?collectrule_response@AggregatorResponse@aggregator@@QBEABVCollectRuleResponse@2@XZ 130229a0 f i aggregator.pb.obj
 0001:00021a10       ?file_response@AggregatorResponse@aggregator@@QBEABVFileResponse@2@XZ 13022a10 f i aggregator.pb.obj
 0001:00021a80       ?filedata_response@AggregatorResponse@aggregator@@QBEABVFileDataResponse@2@XZ 13022a80 f i aggregator.pb.obj
 0001:00021af0       ?checksum_response@AggregatorResponse@aggregator@@QBEABVCheckSumResponse@2@XZ 13022af0 f i aggregator.pb.obj
 0001:00021b60       ?instruct_response@AggregatorResponse@aggregator@@QBEABVInstructResponse@2@XZ 13022b60 f i aggregator.pb.obj
 0001:00021bd0       ?ByteSize@AggregatorResponse@aggregator@@UBEHXZ 13022bd0 f   aggregator.pb.obj
 0001:00021ef0       ?CheckTypeAndMergeFrom@AggregatorResponse@aggregator@@UAEXABVMessageLite@protobuf@google@@@Z 13022ef0 f   aggregator.pb.obj
 0001:00021f30       ?MergeFrom@AggregatorResponse@aggregator@@QAEXABV12@@Z 13022f30 f   aggregator.pb.obj
 0001:00022270       ?set_error_code@AggregatorResponse@aggregator@@QAEXI@Z 13023270 f i aggregator.pb.obj
 0001:000222b0       ?set_error_message@AggregatorResponse@aggregator@@QAEXABV?$basic_string@DU?$char_traits@D@std@@V?$allocator@D@2@@std@@@Z 130232b0 f i aggregator.pb.obj
 0001:00022360       ?CopyFrom@AggregatorResponse@aggregator@@QAEXABV12@@Z 13023360 f   aggregator.pb.obj
 0001:000223c0       ?IsInitialized@AggregatorResponse@aggregator@@UBE_NXZ 130233c0 f   aggregator.pb.obj
 0001:00022710       ?Swap@AggregatorResponse@aggregator@@QAEXPAV12@@Z 13023710 f   aggregator.pb.obj
 0001:000228f0       ?GetTypeName@AggregatorResponse@aggregator@@UBE?AV?$basic_string@DU?$char_traits@D@std@@V?$allocator@D@2@@std@@XZ 130238f0 f   aggregator.pb.obj
 0001:00022930       ??0?$basic_string@DU?$char_traits@D@std@@V?$allocator@D@2@@std@@QAE@XZ 13023930 f i aggregator.pb.obj
 0001:00022990       ??0?$basic_string@DU?$char_traits@D@std@@V?$allocator@D@2@@std@@QAE@PBD@Z 13023990 f i aggregator.pb.obj
 0001:00022a00       ??1?$basic_string@DU?$char_traits@D@std@@V?$allocator@D@2@@std@@QAE@XZ 13023a00 f i aggregator.pb.obj
 0001:00022a40       ?assign@?$basic_string@DU?$char_traits@D@std@@V?$allocator@D@2@@std@@QAEAAV12@ABV12@@Z 13023a40 f i aggregator.pb.obj
 0001:00022a80       ?assign@?$basic_string@DU?$char_traits@D@std@@V?$allocator@D@2@@std@@QAEAAV12@PBD@Z 13023a80 f i aggregator.pb.obj
 0001:00022ad0       ?length@?$char_traits@D@std@@SAIPBD@Z 13023ad0 f i aggregator.pb.obj
 0001:00022af0       ?assign@?$basic_string@DU?$char_traits@D@std@@V?$allocator@D@2@@std@@QAEAAV12@PBDI@Z 13023af0 f i aggregator.pb.obj
 0001:00022bb0       ?clear@?$basic_string@DU?$char_traits@D@std@@V?$allocator@D@2@@std@@QAEXXZ 13023bb0 f i aggregator.pb.obj
 0001:00022c20       ?size@?$basic_string@DU?$char_traits@D@std@@V?$allocator@D@2@@std@@QBEIXZ 13023c20 f i aggregator.pb.obj
 0001:00022c40       ?allocate@?$_DebugHeapAllocator@D@std@@QAAPADIPBX@Z 13023c40 f i aggregator.pb.obj
 0001:00022ce0       ?_Raise@exception@stdext@@QBEXXZ 13023ce0 f i aggregator.pb.obj
 0001:00022d60       ??0bad_alloc@stdext@@QAE@PBD@Z 13023d60 f i aggregator.pb.obj
 0001:00022db0       ??0exception@stdext@@QAE@PBDH@Z 13023db0 f i aggregator.pb.obj
 0001:00022df0       ?what@exception@stdext@@UBEPBDXZ 13023df0 f i aggregator.pb.obj
 0001:00022e10       ?_Doraise@exception@stdext@@MBEXXZ 13023e10 f i aggregator.pb.obj
 0001:00022e30       ??_Gexception@stdext@@UAEPAXI@Z 13023e30 f i aggregator.pb.obj
 0001:00022e30       ??_Eexception@stdext@@UAEPAXI@Z 13023e30 f i aggregator.pb.obj
 0001:00022e80       ??1exception@stdext@@UAE@XZ 13023e80 f i aggregator.pb.obj
 0001:00022eb0       ??1bad_alloc@stdext@@UAE@XZ 13023eb0 f i aggregator.pb.obj
 0001:00022ef0       ?_Doraise@bad_alloc@stdext@@MBEXXZ 13023ef0 f i aggregator.pb.obj
 0001:00022f30       ??_Ebad_alloc@stdext@@UAEPAXI@Z 13023f30 f i aggregator.pb.obj
 0001:00022f30       ??_Gbad_alloc@stdext@@UAEPAXI@Z 13023f30 f i aggregator.pb.obj
 0001:00022f80       ?allocate@?$_DebugHeapAllocator@D@std@@QAEPADI@Z 13023f80 f i aggregator.pb.obj
 0001:00023020       ?deallocate@?$_DebugHeapAllocator@D@std@@QAEXPADI@Z 13024020 f i aggregator.pb.obj
 0001:00023060       ??1?$_String_val@DV?$allocator@D@std@@@std@@QAE@XZ 13024060 f i aggregator.pb.obj
 0001:00023090       ??1?$_String_iterator@DU?$char_traits@D@std@@V?$allocator@D@2@@std@@QAE@XZ 13024090 f i aggregator.pb.obj
 0001:000230c0       ??0?$_DebugHeapAllocator@D@std@@QAE@XZ 130240c0 f i aggregator.pb.obj
 0001:000230f0       ??1_String_base@std@@QAE@XZ 130240f0 f i aggregator.pb.obj
 0001:00023120       ??1_Container_base@std@@QAE@XZ 13024120 f i aggregator.pb.obj
 0001:00023150       ?_Orphan_all@_Container_base@std@@QBEXXZ 13024150 f i aggregator.pb.obj
 0001:00023220       ??1?$_String_const_iterator@DU?$char_traits@D@std@@V?$allocator@D@2@@std@@QAE@XZ 13024220 f i aggregator.pb.obj
 0001:00023250       ??1?$_Ranit_base@DHPBDABDV_Iterator_base@std@@@std@@QAE@XZ 13024250 f i aggregator.pb.obj
 0001:00023280       ??1_Iterator_base@std@@QAE@XZ 13024280 f i aggregator.pb.obj
 0001:00023310       ?_Orphan_me@_Iterator_base@std@@QAEXXZ 13024310 f i aggregator.pb.obj
 0001:000233d0       ?assign@?$basic_string@DU?$char_traits@D@std@@V?$allocator@D@2@@std@@QAEAAV12@ABV12@II@Z 130243d0 f i aggregator.pb.obj
 0001:000234e0       ?erase@?$basic_string@DU?$char_traits@D@std@@V?$allocator@D@2@@std@@QAE?AV?$_String_iterator@DU?$char_traits@D@std@@V?$allocator@D@2@@2@V32@0@Z 130244e0 f i aggregator.pb.obj
 0001:000235e0       ?begin@?$basic_string@DU?$char_traits@D@std@@V?$allocator@D@2@@std@@QAE?AV?$_String_iterator@DU?$char_traits@D@std@@V?$allocator@D@2@@2@XZ 130245e0 f i aggregator.pb.obj
 0001:00023630       ?end@?$basic_string@DU?$char_traits@D@std@@V?$allocator@D@2@@std@@QAE?AV?$_String_iterator@DU?$char_traits@D@std@@V?$allocator@D@2@@2@XZ 13024630 f i aggregator.pb.obj
 0001:00023680       ?_Eos@?$basic_string@DU?$char_traits@D@std@@V?$allocator@D@2@@std@@IAEXI@Z 13024680 f i aggregator.pb.obj
 0001:000236e0       ?assign@?$char_traits@D@std@@SAXAADABD@Z 130246e0 f i aggregator.pb.obj
 0001:00023700       ?_Grow@?$basic_string@DU?$char_traits@D@std@@V?$allocator@D@2@@std@@IAE_NI_N@Z 13024700 f i aggregator.pb.obj
 0001:000237e0       ?_Inside@?$basic_string@DU?$char_traits@D@std@@V?$allocator@D@2@@std@@IAE_NPBD@Z 130247e0 f i aggregator.pb.obj
 0001:00023860       ?_Tidy@?$basic_string@DU?$char_traits@D@std@@V?$allocator@D@2@@std@@IAEX_NI@Z 13024860 f i aggregator.pb.obj
 0001:00023920       ?_Myptr@?$basic_string@DU?$char_traits@D@std@@V?$allocator@D@2@@std@@IAEPADXZ 13024920 f i aggregator.pb.obj
 0001:00023970       ?_Myptr@?$basic_string@DU?$char_traits@D@std@@V?$allocator@D@2@@std@@IBEPBDXZ 13024970 f i aggregator.pb.obj
 0001:000239c0       ??0?$_String_val@DV?$allocator@D@std@@@std@@IAE@V?$allocator@D@1@@Z 130249c0 f i aggregator.pb.obj
 0001:00023a10       ??0?$allocator@D@std@@QAE@XZ 13024a10 f i aggregator.pb.obj
 0001:00023a30       ??0?$_String_const_iterator@DU?$char_traits@D@std@@V?$allocator@D@2@@std@@QAE@ABV01@@Z 13024a30 f i aggregator.pb.obj
 0001:00023a80       ??0_String_base@std@@QAE@XZ 13024a80 f i aggregator.pb.obj
 0001:00023ab0       ??0_Container_base@std@@QAE@XZ 13024ab0 f i aggregator.pb.obj
 0001:00023ae0       ??0?$_DebugHeapAllocator@D@std@@QAE@ABV01@@Z 13024ae0 f i aggregator.pb.obj
 0001:00023b20       ??0?$_Ranit_base@DHPBDABDV_Iterator_base@std@@@std@@QAE@ABU01@@Z 13024b20 f i aggregator.pb.obj
 0001:00023b60       ??0_Iterator_base@std@@QAE@ABV01@@Z 13024b60 f i aggregator.pb.obj
 0001:00023bb0       ??4_Iterator_base@std@@QAEAAV01@ABV01@@Z 13024bb0 f i aggregator.pb.obj
 0001:00023c70       ?_Adopt@_Iterator_base@std@@QAEXPBV_Container_base@2@@Z 13024c70 f i aggregator.pb.obj
 0001:00023d40       ?erase@?$basic_string@DU?$char_traits@D@std@@V?$allocator@D@2@@std@@QAEAAV12@II@Z 13024d40 f i aggregator.pb.obj
 0001:00023e20       ?max_size@?$basic_string@DU?$char_traits@D@std@@V?$allocator@D@2@@std@@QBEIXZ 13024e20 f i aggregator.pb.obj
 0001:00023e90       ?_Copy@?$basic_string@DU?$char_traits@D@std@@V?$allocator@D@2@@std@@IAEXII@Z 13024e90 f i aggregator.pb.obj
 0001:00024010       ?_Pdif@?$basic_string@DU?$char_traits@D@std@@V?$allocator@D@2@@std@@KAIV?$_String_const_iterator@DU?$char_traits@D@std@@V?$allocator@D@2@@2@0@Z 13025010 f i aggregator.pb.obj
 0001:00024080       ??0?$allocator@D@std@@QAE@ABV01@@Z 13025080 f i aggregator.pb.obj
 0001:000240a0       ?deallocate@?$allocator@D@std@@QAEXPADI@Z 130250a0 f i aggregator.pb.obj
 0001:000240e0       ??0?$_String_iterator@DU?$char_traits@D@std@@V?$allocator@D@2@@std@@QAE@PADPBV_Container_base@1@@Z 130250e0 f i aggregator.pb.obj
 0001:00024120       ?allocate@?$allocator@D@std@@QAEPADI@Z 13025120 f i aggregator.pb.obj
 0001:00024160       ?max_size@?$allocator@D@std@@QBEIXZ 13025160 f i aggregator.pb.obj
 0001:000241c0       ??0?$_String_const_iterator@DU?$char_traits@D@std@@V?$allocator@D@2@@std@@QAE@PBDPBV_Container_base@1@@Z 130251c0 f i aggregator.pb.obj
 0001:00024290       ??G?$_String_const_iterator@DU?$char_traits@D@std@@V?$allocator@D@2@@std@@QBEHABV01@@Z 13025290 f i aggregator.pb.obj
 0001:000242e0       ??0?$_Ranit_base@DHPBDABDV_Iterator_base@std@@@std@@QAE@XZ 130252e0 f i aggregator.pb.obj
 0001:00024310       ??0_Iterator_base@std@@QAE@XZ 13025310 f i aggregator.pb.obj
 0001:00024350       ?_Compat@?$_String_const_iterator@DU?$char_traits@D@std@@V?$allocator@D@2@@std@@QBEXABV12@@Z 13025350 f i aggregator.pb.obj
 0001:00024400       ??$_Debug_pointer@D@std@@YAXPBDPB_WI@Z 13025400 f i aggregator.pb.obj
 0001:00024430       ??0?$RepeatedPtrField@VFileRequest_File@aggregator@@@protobuf@google@@QAE@XZ 13025430 f i aggregator.pb.obj
 0001:00024460       ??0RepeatedPtrFieldBase@internal@protobuf@google@@IAE@XZ 13025460 f i aggregator.pb.obj
 0001:000244b0       ??1?$RepeatedPtrField@VFileRequest_File@aggregator@@@protobuf@google@@QAE@XZ 130254b0 f i aggregator.pb.obj
 0001:000244e0       ?size@?$RepeatedPtrField@VFileRequest_File@aggregator@@@protobuf@google@@QBEHXZ 130254e0 f i aggregator.pb.obj
 0001:00024510       ?size@RepeatedPtrFieldBase@internal@protobuf@google@@IBEHXZ 13025510 f i aggregator.pb.obj
 0001:00024530       ?Get@?$RepeatedPtrField@VFileRequest_File@aggregator@@@protobuf@google@@QBEABVFileRequest_File@aggregator@@H@Z 13025530 f i aggregator.pb.obj
 0001:00024570       ?Add@?$RepeatedPtrField@VFileRequest_File@aggregator@@@protobuf@google@@QAEPAVFileRequest_File@aggregator@@XZ 13025570 f i aggregator.pb.obj
 0001:000245a0       ?Clear@?$RepeatedPtrField@VFileRequest_File@aggregator@@@protobuf@google@@QAEXXZ 130255a0 f i aggregator.pb.obj
 0001:000245d0       ?MergeFrom@?$RepeatedPtrField@VFileRequest_File@aggregator@@@protobuf@google@@QAEXABV123@@Z 130255d0 f i aggregator.pb.obj
 0001:00024610       ?Swap@?$RepeatedPtrField@VFileRequest_File@aggregator@@@protobuf@google@@QAEXPAV123@@Z 13025610 f i aggregator.pb.obj
 0001:00024650       ??0?$RepeatedPtrField@VFileResponse_File@aggregator@@@protobuf@google@@QAE@XZ 13025650 f i aggregator.pb.obj
 0001:00024680       ??1?$RepeatedPtrField@VFileResponse_File@aggregator@@@protobuf@google@@QAE@XZ 13025680 f i aggregator.pb.obj
 0001:000246b0       ?size@?$RepeatedPtrField@VFileResponse_File@aggregator@@@protobuf@google@@QBEHXZ 130256b0 f i aggregator.pb.obj
 0001:000246e0       ?Get@?$RepeatedPtrField@VFileResponse_File@aggregator@@@protobuf@google@@QBEABVFileResponse_File@aggregator@@H@Z 130256e0 f i aggregator.pb.obj
 0001:00024720       ?Add@?$RepeatedPtrField@VFileResponse_File@aggregator@@@protobuf@google@@QAEPAVFileResponse_File@aggregator@@XZ 13025720 f i aggregator.pb.obj
 0001:00024750       ?Clear@?$RepeatedPtrField@VFileResponse_File@aggregator@@@protobuf@google@@QAEXXZ 13025750 f i aggregator.pb.obj
 0001:00024780       ?MergeFrom@?$RepeatedPtrField@VFileResponse_File@aggregator@@@protobuf@google@@QAEXABV123@@Z 13025780 f i aggregator.pb.obj
 0001:000247c0       ?Swap@?$RepeatedPtrField@VFileResponse_File@aggregator@@@protobuf@google@@QAEXPAV123@@Z 130257c0 f i aggregator.pb.obj
 0001:00024800       ??0?$RepeatedPtrField@VFileDataRequest_FileData@aggregator@@@protobuf@google@@QAE@XZ 13025800 f i aggregator.pb.obj
 0001:00024830       ??1?$RepeatedPtrField@VFileDataRequest_FileData@aggregator@@@protobuf@google@@QAE@XZ 13025830 f i aggregator.pb.obj
 0001:00024860       ?size@?$RepeatedPtrField@VFileDataRequest_FileData@aggregator@@@protobuf@google@@QBEHXZ 13025860 f i aggregator.pb.obj
 0001:00024890       ?Get@?$RepeatedPtrField@VFileDataRequest_FileData@aggregator@@@protobuf@google@@QBEABVFileDataRequest_FileData@aggregator@@H@Z 13025890 f i aggregator.pb.obj
 0001:000248d0       ?Add@?$RepeatedPtrField@VFileDataRequest_FileData@aggregator@@@protobuf@google@@QAEPAVFileDataRequest_FileData@aggregator@@XZ 130258d0 f i aggregator.pb.obj
 0001:00024900       ?Clear@?$RepeatedPtrField@VFileDataRequest_FileData@aggregator@@@protobuf@google@@QAEXXZ 13025900 f i aggregator.pb.obj
 0001:00024930       ?MergeFrom@?$RepeatedPtrField@VFileDataRequest_FileData@aggregator@@@protobuf@google@@QAEXABV123@@Z 13025930 f i aggregator.pb.obj
 0001:00024970       ?Swap@?$RepeatedPtrField@VFileDataRequest_FileData@aggregator@@@protobuf@google@@QAEXPAV123@@Z 13025970 f i aggregator.pb.obj
 0001:000249b0       ??0?$RepeatedPtrField@VFileDataResponse_FileData@aggregator@@@protobuf@google@@QAE@XZ 130259b0 f i aggregator.pb.obj
 0001:000249e0       ??1?$RepeatedPtrField@VFileDataResponse_FileData@aggregator@@@protobuf@google@@QAE@XZ 130259e0 f i aggregator.pb.obj
 0001:00024a10       ?size@?$RepeatedPtrField@VFileDataResponse_FileData@aggregator@@@protobuf@google@@QBEHXZ 13025a10 f i aggregator.pb.obj
 0001:00024a40       ?Get@?$RepeatedPtrField@VFileDataResponse_FileData@aggregator@@@protobuf@google@@QBEABVFileDataResponse_FileData@aggregator@@H@Z 13025a40 f i aggregator.pb.obj
 0001:00024a80       ?Add@?$RepeatedPtrField@VFileDataResponse_FileData@aggregator@@@protobuf@google@@QAEPAVFileDataResponse_FileData@aggregator@@XZ 13025a80 f i aggregator.pb.obj
 0001:00024ab0       ?Clear@?$RepeatedPtrField@VFileDataResponse_FileData@aggregator@@@protobuf@google@@QAEXXZ 13025ab0 f i aggregator.pb.obj
 0001:00024ae0       ?MergeFrom@?$RepeatedPtrField@VFileDataResponse_FileData@aggregator@@@protobuf@google@@QAEXABV123@@Z 13025ae0 f i aggregator.pb.obj
 0001:00024b20       ?Swap@?$RepeatedPtrField@VFileDataResponse_FileData@aggregator@@@protobuf@google@@QAEXPAV123@@Z 13025b20 f i aggregator.pb.obj
 0001:00024b60       ??0?$RepeatedPtrField@VCollectorFileResponse_File@aggregator@@@protobuf@google@@QAE@XZ 13025b60 f i aggregator.pb.obj
 0001:00024b90       ??1?$RepeatedPtrField@VCollectorFileResponse_File@aggregator@@@protobuf@google@@QAE@XZ 13025b90 f i aggregator.pb.obj
 0001:00024bc0       ?size@?$RepeatedPtrField@VCollectorFileResponse_File@aggregator@@@protobuf@google@@QBEHXZ 13025bc0 f i aggregator.pb.obj
 0001:00024bf0       ?Get@?$RepeatedPtrField@VCollectorFileResponse_File@aggregator@@@protobuf@google@@QBEABVCollectorFileResponse_File@aggregator@@H@Z 13025bf0 f i aggregator.pb.obj
 0001:00024c30       ?Add@?$RepeatedPtrField@VCollectorFileResponse_File@aggregator@@@protobuf@google@@QAEPAVCollectorFileResponse_File@aggregator@@XZ 13025c30 f i aggregator.pb.obj
 0001:00024c60       ?Clear@?$RepeatedPtrField@VCollectorFileResponse_File@aggregator@@@protobuf@google@@QAEXXZ 13025c60 f i aggregator.pb.obj
 0001:00024c90       ?MergeFrom@?$RepeatedPtrField@VCollectorFileResponse_File@aggregator@@@protobuf@google@@QAEXABV123@@Z 13025c90 f i aggregator.pb.obj
 0001:00024cd0       ?Swap@?$RepeatedPtrField@VCollectorFileResponse_File@aggregator@@@protobuf@google@@QAEXPAV123@@Z 13025cd0 f i aggregator.pb.obj
 0001:00024d10       ??0?$RepeatedPtrField@VCollectRuleResponse_Rule@aggregator@@@protobuf@google@@QAE@XZ 13025d10 f i aggregator.pb.obj
 0001:00024d40       ??1?$RepeatedPtrField@VCollectRuleResponse_Rule@aggregator@@@protobuf@google@@QAE@XZ 13025d40 f i aggregator.pb.obj
 0001:00024d70       ?size@?$RepeatedPtrField@VCollectRuleResponse_Rule@aggregator@@@protobuf@google@@QBEHXZ 13025d70 f i aggregator.pb.obj
 0001:00024da0       ?Get@?$RepeatedPtrField@VCollectRuleResponse_Rule@aggregator@@@protobuf@google@@QBEABVCollectRuleResponse_Rule@aggregator@@H@Z 13025da0 f i aggregator.pb.obj
 0001:00024de0       ?Add@?$RepeatedPtrField@VCollectRuleResponse_Rule@aggregator@@@protobuf@google@@QAEPAVCollectRuleResponse_Rule@aggregator@@XZ 13025de0 f i aggregator.pb.obj
 0001:00024e10       ?Clear@?$RepeatedPtrField@VCollectRuleResponse_Rule@aggregator@@@protobuf@google@@QAEXXZ 13025e10 f i aggregator.pb.obj
 0001:00024e40       ?MergeFrom@?$RepeatedPtrField@VCollectRuleResponse_Rule@aggregator@@@protobuf@google@@QAEXABV123@@Z 13025e40 f i aggregator.pb.obj
 0001:00024e80       ?Swap@?$RepeatedPtrField@VCollectRuleResponse_Rule@aggregator@@@protobuf@google@@QAEXPAV123@@Z 13025e80 f i aggregator.pb.obj
 0001:00024ec0       ??0?$RepeatedPtrField@VConfigResponse_Time@aggregator@@@protobuf@google@@QAE@XZ 13025ec0 f i aggregator.pb.obj
 0001:00024ef0       ??1?$RepeatedPtrField@VConfigResponse_Time@aggregator@@@protobuf@google@@QAE@XZ 13025ef0 f i aggregator.pb.obj
 0001:00024f20       ?size@?$RepeatedPtrField@VConfigResponse_Time@aggregator@@@protobuf@google@@QBEHXZ 13025f20 f i aggregator.pb.obj
 0001:00024f50       ?Get@?$RepeatedPtrField@VConfigResponse_Time@aggregator@@@protobuf@google@@QBEABVConfigResponse_Time@aggregator@@H@Z 13025f50 f i aggregator.pb.obj
 0001:00024f90       ?Add@?$RepeatedPtrField@VConfigResponse_Time@aggregator@@@protobuf@google@@QAEPAVConfigResponse_Time@aggregator@@XZ 13025f90 f i aggregator.pb.obj
 0001:00024fc0       ?Clear@?$RepeatedPtrField@VConfigResponse_Time@aggregator@@@protobuf@google@@QAEXXZ 13025fc0 f i aggregator.pb.obj
 0001:00024ff0       ?MergeFrom@?$RepeatedPtrField@VConfigResponse_Time@aggregator@@@protobuf@google@@QAEXABV123@@Z 13025ff0 f i aggregator.pb.obj
 0001:00025030       ?Swap@?$RepeatedPtrField@VConfigResponse_Time@aggregator@@@protobuf@google@@QAEXPAV123@@Z 13026030 f i aggregator.pb.obj
 0001:00025070       ??$down_cast@PBVFileID@aggregator@@$$CBVMessageLite@protobuf@google@@@internal@protobuf@google@@YAPBVFileID@aggregator@@PBVMessageLite@12@@Z 13026070 f i aggregator.pb.obj
 0001:000250b0       ??$swap@I@std@@YAXAAI0@Z   130260b0 f i aggregator.pb.obj
 0001:000250f0       ??$swap@H@std@@YAXAAH0@Z   130260f0 f i aggregator.pb.obj
 0001:00025130       ??$ReadMessageNoVirtual@VFileID@aggregator@@@WireFormatLite@internal@protobuf@google@@SA_NPAVCodedInputStream@io@23@PAVFileID@aggregator@@@Z 13026130 f i aggregator.pb.obj
 0001:00025230       ?ConsumedEntireMessage@CodedInputStream@io@protobuf@google@@QAE_NXZ 13026230 f i aggregator.pb.obj
 0001:00025250       ?IncrementRecursionDepth@CodedInputStream@io@protobuf@google@@QAE_NXZ 13026250 f i aggregator.pb.obj
 0001:00025290       ?DecrementRecursionDepth@CodedInputStream@io@protobuf@google@@QAEXXZ 13026290 f i aggregator.pb.obj
 0001:000252d0       ??$MessageSizeNoVirtual@VFileID@aggregator@@@WireFormatLite@internal@protobuf@google@@SAHABVFileID@aggregator@@@Z 130262d0 f i aggregator.pb.obj
 0001:00025310       ??$down_cast@PBVCheckSumRequest@aggregator@@$$CBVMessageLite@protobuf@google@@@internal@protobuf@google@@YAPBVCheckSumRequest@aggregator@@PBVMessageLite@12@@Z 13026310 f i aggregator.pb.obj
 0001:00025350       ??$swap@PAVFileID@aggregator@@@std@@YAXAAPAVFileID@aggregator@@0@Z 13026350 f i aggregator.pb.obj
 0001:00025390       ??$down_cast@PBVCheckSumResponse@aggregator@@$$CBVMessageLite@protobuf@google@@@internal@protobuf@google@@YAPBVCheckSumResponse@aggregator@@PBVMessageLite@12@@Z 13026390 f i aggregator.pb.obj
 0001:000253d0       ??$swap@PAV?$basic_string@DU?$char_traits@D@std@@V?$allocator@D@2@@std@@@std@@YAXAAPAV?$basic_string@DU?$char_traits@D@std@@V?$allocator@D@2@@0@0@Z 130263d0 f i aggregator.pb.obj
 0001:00025410       ??$down_cast@PBVLogRequest@aggregator@@$$CBVMessageLite@protobuf@google@@@internal@protobuf@google@@YAPBVLogRequest@aggregator@@PBVMessageLite@12@@Z 13026410 f i aggregator.pb.obj
 0001:00025450       ??$down_cast@PBVLogResponse@aggregator@@$$CBVMessageLite@protobuf@google@@@internal@protobuf@google@@YAPBVLogResponse@aggregator@@PBVMessageLite@12@@Z 13026450 f i aggregator.pb.obj
 0001:00025490       ??$down_cast@PBVFileRequest_File@aggregator@@$$CBVMessageLite@protobuf@google@@@internal@protobuf@google@@YAPBVFileRequest_File@aggregator@@PBVMessageLite@12@@Z 13026490 f i aggregator.pb.obj
 0001:000254d0       ??$swap@_K@std@@YAXAA_K0@Z 130264d0 f i aggregator.pb.obj
 0001:00025530       ??$ReadGroupNoVirtual@VFileRequest_File@aggregator@@@WireFormatLite@internal@protobuf@google@@SA_NHPAVCodedInputStream@io@23@PAVFileRequest_File@aggregator@@@Z 13026530 f i aggregator.pb.obj
 0001:000255b0       ?LastTagWas@CodedInputStream@io@protobuf@google@@QAE_NI@Z 130265b0 f i aggregator.pb.obj
 0001:000255e0       ?MakeTag@WireFormatLite@internal@protobuf@google@@SAIHW4WireType@1234@@Z 130265e0 f i aggregator.pb.obj
 0001:00025600       ??$GroupSizeNoVirtual@VFileRequest_File@aggregator@@@WireFormatLite@internal@protobuf@google@@SAHABVFileRequest_File@aggregator@@@Z 13026600 f i aggregator.pb.obj
 0001:00025620       ??$down_cast@PBVFileRequest@aggregator@@$$CBVMessageLite@protobuf@google@@@internal@protobuf@google@@YAPBVFileRequest@aggregator@@PBVMessageLite@12@@Z 13026620 f i aggregator.pb.obj
 0001:00025660       ??$down_cast@PBVFileResponse_File@aggregator@@$$CBVMessageLite@protobuf@google@@@internal@protobuf@google@@YAPBVFileResponse_File@aggregator@@PBVMessageLite@12@@Z 13026660 f i aggregator.pb.obj
 0001:000256a0       ??$ReadGroupNoVirtual@VFileResponse_File@aggregator@@@WireFormatLite@internal@protobuf@google@@SA_NHPAVCodedInputStream@io@23@PAVFileResponse_File@aggregator@@@Z 130266a0 f i aggregator.pb.obj
 0001:00025720       ??$GroupSizeNoVirtual@VFileResponse_File@aggregator@@@WireFormatLite@internal@protobuf@google@@SAHABVFileResponse_File@aggregator@@@Z 13026720 f i aggregator.pb.obj
 0001:00025740       ??$down_cast@PBVFileResponse@aggregator@@$$CBVMessageLite@protobuf@google@@@internal@protobuf@google@@YAPBVFileResponse@aggregator@@PBVMessageLite@12@@Z 13026740 f i aggregator.pb.obj
 0001:00025780       ??$down_cast@PBVFileDataRequest_FileData@aggregator@@$$CBVMessageLite@protobuf@google@@@internal@protobuf@google@@YAPBVFileDataRequest_FileData@aggregator@@PBVMessageLite@12@@Z 13026780 f i aggregator.pb.obj
 0001:000257c0       ??$ReadGroupNoVirtual@VFileDataRequest_FileData@aggregator@@@WireFormatLite@internal@protobuf@google@@SA_NHPAVCodedInputStream@io@23@PAVFileDataRequest_FileData@aggregator@@@Z 130267c0 f i aggregator.pb.obj
 0001:00025840       ??$GroupSizeNoVirtual@VFileDataRequest_FileData@aggregator@@@WireFormatLite@internal@protobuf@google@@SAHABVFileDataRequest_FileData@aggregator@@@Z 13026840 f i aggregator.pb.obj
 0001:00025860       ??$down_cast@PBVFileDataRequest@aggregator@@$$CBVMessageLite@protobuf@google@@@internal@protobuf@google@@YAPBVFileDataRequest@aggregator@@PBVMessageLite@12@@Z 13026860 f i aggregator.pb.obj
 0001:000258a0       ??$down_cast@PBVFileDataResponse_FileData@aggregator@@$$CBVMessageLite@protobuf@google@@@internal@protobuf@google@@YAPBVFileDataResponse_FileData@aggregator@@PBVMessageLite@12@@Z 130268a0 f i aggregator.pb.obj
 0001:000258e0       ??$ReadGroupNoVirtual@VFileDataResponse_FileData@aggregator@@@WireFormatLite@internal@protobuf@google@@SA_NHPAVCodedInputStream@io@23@PAVFileDataResponse_FileData@aggregator@@@Z 130268e0 f i aggregator.pb.obj
 0001:00025960       ??$GroupSizeNoVirtual@VFileDataResponse_FileData@aggregator@@@WireFormatLite@internal@protobuf@google@@SAHABVFileDataResponse_FileData@aggregator@@@Z 13026960 f i aggregator.pb.obj
 0001:00025980       ??$down_cast@PBVFileDataResponse@aggregator@@$$CBVMessageLite@protobuf@google@@@internal@protobuf@google@@YAPBVFileDataResponse@aggregator@@PBVMessageLite@12@@Z 13026980 f i aggregator.pb.obj
 0001:000259c0       ??$down_cast@PBVCollectorFileRequest@aggregator@@$$CBVMessageLite@protobuf@google@@@internal@protobuf@google@@YAPBVCollectorFileRequest@aggregator@@PBVMessageLite@12@@Z 130269c0 f i aggregator.pb.obj
 0001:00025a00       ??$down_cast@PBVCollectorFileResponse_File@aggregator@@$$CBVMessageLite@protobuf@google@@@internal@protobuf@google@@YAPBVCollectorFileResponse_File@aggregator@@PBVMessageLite@12@@Z 13026a00 f i aggregator.pb.obj
 0001:00025a40       ??$swap@_N@std@@YAXAA_N0@Z 13026a40 f i aggregator.pb.obj
 0001:00025a80       ??$ReadGroupNoVirtual@VCollectorFileResponse_File@aggregator@@@WireFormatLite@internal@protobuf@google@@SA_NHPAVCodedInputStream@io@23@PAVCollectorFileResponse_File@aggregator@@@Z 13026a80 f i aggregator.pb.obj
 0001:00025b00       ??$GroupSizeNoVirtual@VCollectorFileResponse_File@aggregator@@@WireFormatLite@internal@protobuf@google@@SAHABVCollectorFileResponse_File@aggregator@@@Z 13026b00 f i aggregator.pb.obj
 0001:00025b20       ??$down_cast@PBVCollectorFileResponse@aggregator@@$$CBVMessageLite@protobuf@google@@@internal@protobuf@google@@YAPBVCollectorFileResponse@aggregator@@PBVMessageLite@12@@Z 13026b20 f i aggregator.pb.obj
 0001:00025b60       ??$down_cast@PBVCollectRuleRequest@aggregator@@$$CBVMessageLite@protobuf@google@@@internal@protobuf@google@@YAPBVCollectRuleRequest@aggregator@@PBVMessageLite@12@@Z 13026b60 f i aggregator.pb.obj
 0001:00025ba0       ??$down_cast@PBVCollectRuleResponse_Rule@aggregator@@$$CBVMessageLite@protobuf@google@@@internal@protobuf@google@@YAPBVCollectRuleResponse_Rule@aggregator@@PBVMessageLite@12@@Z 13026ba0 f i aggregator.pb.obj
 0001:00025be0       ??$ReadGroupNoVirtual@VCollectRuleResponse_Rule@aggregator@@@WireFormatLite@internal@protobuf@google@@SA_NHPAVCodedInputStream@io@23@PAVCollectRuleResponse_Rule@aggregator@@@Z 13026be0 f i aggregator.pb.obj
 0001:00025c60       ??$GroupSizeNoVirtual@VCollectRuleResponse_Rule@aggregator@@@WireFormatLite@internal@protobuf@google@@SAHABVCollectRuleResponse_Rule@aggregator@@@Z 13026c60 f i aggregator.pb.obj
 0001:00025c80       ??$down_cast@PBVCollectRuleResponse@aggregator@@$$CBVMessageLite@protobuf@google@@@internal@protobuf@google@@YAPBVCollectRuleResponse@aggregator@@PBVMessageLite@12@@Z 13026c80 f i aggregator.pb.obj
 0001:00025cc0       ??$down_cast@PBVConfigRequest@aggregator@@$$CBVMessageLite@protobuf@google@@@internal@protobuf@google@@YAPBVConfigRequest@aggregator@@PBVMessageLite@12@@Z 13026cc0 f i aggregator.pb.obj
 0001:00025d00       ??$down_cast@PBVConfigResponse_Time@aggregator@@$$CBVMessageLite@protobuf@google@@@internal@protobuf@google@@YAPBVConfigResponse_Time@aggregator@@PBVMessageLite@12@@Z 13026d00 f i aggregator.pb.obj
 0001:00025d40       ??$ReadGroupNoVirtual@VConfigResponse_Time@aggregator@@@WireFormatLite@internal@protobuf@google@@SA_NHPAVCodedInputStream@io@23@PAVConfigResponse_Time@aggregator@@@Z 13026d40 f i aggregator.pb.obj
 0001:00025dc0       ??$GroupSizeNoVirtual@VConfigResponse_Time@aggregator@@@WireFormatLite@internal@protobuf@google@@SAHABVConfigResponse_Time@aggregator@@@Z 13026dc0 f i aggregator.pb.obj
 0001:00025de0       ??$down_cast@PBVConfigResponse@aggregator@@$$CBVMessageLite@protobuf@google@@@internal@protobuf@google@@YAPBVConfigResponse@aggregator@@PBVMessageLite@12@@Z 13026de0 f i aggregator.pb.obj
 0001:00025e20       ??$down_cast@PBVLogonRequest@aggregator@@$$CBVMessageLite@protobuf@google@@@internal@protobuf@google@@YAPBVLogonRequest@aggregator@@PBVMessageLite@12@@Z 13026e20 f i aggregator.pb.obj
 0001:00025e60       ??$down_cast@PBVLogonResponse@aggregator@@$$CBVMessageLite@protobuf@google@@@internal@protobuf@google@@YAPBVLogonResponse@aggregator@@PBVMessageLite@12@@Z 13026e60 f i aggregator.pb.obj
 0001:00025ea0       ??$down_cast@PBVLogoutRequest@aggregator@@$$CBVMessageLite@protobuf@google@@@internal@protobuf@google@@YAPBVLogoutRequest@aggregator@@PBVMessageLite@12@@Z 13026ea0 f i aggregator.pb.obj
 0001:00025ee0       ??$down_cast@PBVKeepAliveRequest@aggregator@@$$CBVMessageLite@protobuf@google@@@internal@protobuf@google@@YAPBVKeepAliveRequest@aggregator@@PBVMessageLite@12@@Z 13026ee0 f i aggregator.pb.obj
 0001:00025f20       ??$down_cast@PBVKeepAliveResponse@aggregator@@$$CBVMessageLite@protobuf@google@@@internal@protobuf@google@@YAPBVKeepAliveResponse@aggregator@@PBVMessageLite@12@@Z 13026f20 f i aggregator.pb.obj
 0001:00025f60       ??$down_cast@PBVInstructResponse@aggregator@@$$CBVMessageLite@protobuf@google@@@internal@protobuf@google@@YAPBVInstructResponse@aggregator@@PBVMessageLite@12@@Z 13026f60 f i aggregator.pb.obj
 0001:00025fa0       ??$down_cast@PBVTransID@aggregator@@$$CBVMessageLite@protobuf@google@@@internal@protobuf@google@@YAPBVTransID@aggregator@@PBVMessageLite@12@@Z 13026fa0 f i aggregator.pb.obj
 0001:00025fe0       ??$ReadMessageNoVirtual@VTransID@aggregator@@@WireFormatLite@internal@protobuf@google@@SA_NPAVCodedInputStream@io@23@PAVTransID@aggregator@@@Z 13026fe0 f i aggregator.pb.obj
 0001:000260e0       ??$ReadMessageNoVirtual@VLogonRequest@aggregator@@@WireFormatLite@internal@protobuf@google@@SA_NPAVCodedInputStream@io@23@PAVLogonRequest@aggregator@@@Z 130270e0 f i aggregator.pb.obj
 0001:000261e0       ??$ReadMessageNoVirtual@VLogoutRequest@aggregator@@@WireFormatLite@internal@protobuf@google@@SA_NPAVCodedInputStream@io@23@PAVLogoutRequest@aggregator@@@Z 130271e0 f i aggregator.pb.obj
 0001:000262e0       ??$ReadMessageNoVirtual@VKeepAliveRequest@aggregator@@@WireFormatLite@internal@protobuf@google@@SA_NPAVCodedInputStream@io@23@PAVKeepAliveRequest@aggregator@@@Z 130272e0 f i aggregator.pb.obj
 0001:000263e0       ??$ReadMessageNoVirtual@VLogRequest@aggregator@@@WireFormatLite@internal@protobuf@google@@SA_NPAVCodedInputStream@io@23@PAVLogRequest@aggregator@@@Z 130273e0 f i aggregator.pb.obj
 0001:000264e0       ??$ReadMessageNoVirtual@VConfigRequest@aggregator@@@WireFormatLite@internal@protobuf@google@@SA_NPAVCodedInputStream@io@23@PAVConfigRequest@aggregator@@@Z 130274e0 f i aggregator.pb.obj
 0001:000265e0       ??$ReadMessageNoVirtual@VCollectorFileRequest@aggregator@@@WireFormatLite@internal@protobuf@google@@SA_NPAVCodedInputStream@io@23@PAVCollectorFileRequest@aggregator@@@Z 130275e0 f i aggregator.pb.obj
 0001:000266e0       ??$ReadMessageNoVirtual@VCollectRuleRequest@aggregator@@@WireFormatLite@internal@protobuf@google@@SA_NPAVCodedInputStream@io@23@PAVCollectRuleRequest@aggregator@@@Z 130276e0 f i aggregator.pb.obj
 0001:000267e0       ??$ReadMessageNoVirtual@VFileRequest@aggregator@@@WireFormatLite@internal@protobuf@google@@SA_NPAVCodedInputStream@io@23@PAVFileRequest@aggregator@@@Z 130277e0 f i aggregator.pb.obj
 0001:000268e0       ??$ReadMessageNoVirtual@VFileDataRequest@aggregator@@@WireFormatLite@internal@protobuf@google@@SA_NPAVCodedInputStream@io@23@PAVFileDataRequest@aggregator@@@Z 130278e0 f i aggregator.pb.obj
 0001:000269e0       ??$ReadMessageNoVirtual@VCheckSumRequest@aggregator@@@WireFormatLite@internal@protobuf@google@@SA_NPAVCodedInputStream@io@23@PAVCheckSumRequest@aggregator@@@Z 130279e0 f i aggregator.pb.obj
 0001:00026ae0       ??$MessageSizeNoVirtual@VTransID@aggregator@@@WireFormatLite@internal@protobuf@google@@SAHABVTransID@aggregator@@@Z 13027ae0 f i aggregator.pb.obj
 0001:00026b20       ??$MessageSizeNoVirtual@VLogonRequest@aggregator@@@WireFormatLite@internal@protobuf@google@@SAHABVLogonRequest@aggregator@@@Z 13027b20 f i aggregator.pb.obj
 0001:00026b60       ??$MessageSizeNoVirtual@VLogoutRequest@aggregator@@@WireFormatLite@internal@protobuf@google@@SAHABVLogoutRequest@aggregator@@@Z 13027b60 f i aggregator.pb.obj
 0001:00026ba0       ??$MessageSizeNoVirtual@VKeepAliveRequest@aggregator@@@WireFormatLite@internal@protobuf@google@@SAHABVKeepAliveRequest@aggregator@@@Z 13027ba0 f i aggregator.pb.obj
 0001:00026be0       ??$MessageSizeNoVirtual@VLogRequest@aggregator@@@WireFormatLite@internal@protobuf@google@@SAHABVLogRequest@aggregator@@@Z 13027be0 f i aggregator.pb.obj
 0001:00026c20       ??$MessageSizeNoVirtual@VConfigRequest@aggregator@@@WireFormatLite@internal@protobuf@google@@SAHABVConfigRequest@aggregator@@@Z 13027c20 f i aggregator.pb.obj
 0001:00026c60       ??$MessageSizeNoVirtual@VCollectorFileRequest@aggregator@@@WireFormatLite@internal@protobuf@google@@SAHABVCollectorFileRequest@aggregator@@@Z 13027c60 f i aggregator.pb.obj
 0001:00026ca0       ??$MessageSizeNoVirtual@VCollectRuleRequest@aggregator@@@WireFormatLite@internal@protobuf@google@@SAHABVCollectRuleRequest@aggregator@@@Z 13027ca0 f i aggregator.pb.obj
 0001:00026ce0       ??$MessageSizeNoVirtual@VFileRequest@aggregator@@@WireFormatLite@internal@protobuf@google@@SAHABVFileRequest@aggregator@@@Z 13027ce0 f i aggregator.pb.obj
 0001:00026d20       ??$MessageSizeNoVirtual@VFileDataRequest@aggregator@@@WireFormatLite@internal@protobuf@google@@SAHABVFileDataRequest@aggregator@@@Z 13027d20 f i aggregator.pb.obj
 0001:00026d60       ??$MessageSizeNoVirtual@VCheckSumRequest@aggregator@@@WireFormatLite@internal@protobuf@google@@SAHABVCheckSumRequest@aggregator@@@Z 13027d60 f i aggregator.pb.obj
 0001:00026da0       ??$down_cast@PBVCollectorRequest@aggregator@@$$CBVMessageLite@protobuf@google@@@internal@protobuf@google@@YAPBVCollectorRequest@aggregator@@PBVMessageLite@12@@Z 13027da0 f i aggregator.pb.obj
 0001:00026de0       ??$swap@PAVTransID@aggregator@@@std@@YAXAAPAVTransID@aggregator@@0@Z 13027de0 f i aggregator.pb.obj
 0001:00026e20       ??$swap@PAVLogonRequest@aggregator@@@std@@YAXAAPAVLogonRequest@aggregator@@0@Z 13027e20 f i aggregator.pb.obj
 0001:00026e60       ??$swap@PAVLogoutRequest@aggregator@@@std@@YAXAAPAVLogoutRequest@aggregator@@0@Z 13027e60 f i aggregator.pb.obj
 0001:00026ea0       ??$swap@PAVKeepAliveRequest@aggregator@@@std@@YAXAAPAVKeepAliveRequest@aggregator@@0@Z 13027ea0 f i aggregator.pb.obj
 0001:00026ee0       ??$swap@PAVLogRequest@aggregator@@@std@@YAXAAPAVLogRequest@aggregator@@0@Z 13027ee0 f i aggregator.pb.obj
 0001:00026f20       ??$swap@PAVConfigRequest@aggregator@@@std@@YAXAAPAVConfigRequest@aggregator@@0@Z 13027f20 f i aggregator.pb.obj
 0001:00026f60       ??$swap@PAVCollectorFileRequest@aggregator@@@std@@YAXAAPAVCollectorFileRequest@aggregator@@0@Z 13027f60 f i aggregator.pb.obj
 0001:00026fa0       ??$swap@PAVCollectRuleRequest@aggregator@@@std@@YAXAAPAVCollectRuleRequest@aggregator@@0@Z 13027fa0 f i aggregator.pb.obj
 0001:00026fe0       ??$swap@PAVFileRequest@aggregator@@@std@@YAXAAPAVFileRequest@aggregator@@0@Z 13027fe0 f i aggregator.pb.obj
 0001:00027020       ??$swap@PAVFileDataRequest@aggregator@@@std@@YAXAAPAVFileDataRequest@aggregator@@0@Z 13028020 f i aggregator.pb.obj
 0001:00027060       ??$swap@PAVCheckSumRequest@aggregator@@@std@@YAXAAPAVCheckSumRequest@aggregator@@0@Z 13028060 f i aggregator.pb.obj
 0001:000270a0       ??$ReadMessageNoVirtual@VLogonResponse@aggregator@@@WireFormatLite@internal@protobuf@google@@SA_NPAVCodedInputStream@io@23@PAVLogonResponse@aggregator@@@Z 130280a0 f i aggregator.pb.obj
 0001:000271a0       ??$ReadMessageNoVirtual@VKeepAliveResponse@aggregator@@@WireFormatLite@internal@protobuf@google@@SA_NPAVCodedInputStream@io@23@PAVKeepAliveResponse@aggregator@@@Z 130281a0 f i aggregator.pb.obj
 0001:000272a0       ??$ReadMessageNoVirtual@VLogResponse@aggregator@@@WireFormatLite@internal@protobuf@google@@SA_NPAVCodedInputStream@io@23@PAVLogResponse@aggregator@@@Z 130282a0 f i aggregator.pb.obj
 0001:000273a0       ??$ReadMessageNoVirtual@VConfigResponse@aggregator@@@WireFormatLite@internal@protobuf@google@@SA_NPAVCodedInputStream@io@23@PAVConfigResponse@aggregator@@@Z 130283a0 f i aggregator.pb.obj
 0001:000274a0       ??$ReadMessageNoVirtual@VCollectorFileResponse@aggregator@@@WireFormatLite@internal@protobuf@google@@SA_NPAVCodedInputStream@io@23@PAVCollectorFileResponse@aggregator@@@Z 130284a0 f i aggregator.pb.obj
 0001:000275a0       ??$ReadMessageNoVirtual@VCollectRuleResponse@aggregator@@@WireFormatLite@internal@protobuf@google@@SA_NPAVCodedInputStream@io@23@PAVCollectRuleResponse@aggregator@@@Z 130285a0 f i aggregator.pb.obj
 0001:000276a0       ??$ReadMessageNoVirtual@VFileResponse@aggregator@@@WireFormatLite@internal@protobuf@google@@SA_NPAVCodedInputStream@io@23@PAVFileResponse@aggregator@@@Z 130286a0 f i aggregator.pb.obj
 0001:000277a0       ??$ReadMessageNoVirtual@VFileDataResponse@aggregator@@@WireFormatLite@internal@protobuf@google@@SA_NPAVCodedInputStream@io@23@PAVFileDataResponse@aggregator@@@Z 130287a0 f i aggregator.pb.obj
 0001:000278a0       ??$ReadMessageNoVirtual@VCheckSumResponse@aggregator@@@WireFormatLite@internal@protobuf@google@@SA_NPAVCodedInputStream@io@23@PAVCheckSumResponse@aggregator@@@Z 130288a0 f i aggregator.pb.obj
 0001:000279a0       ??$ReadMessageNoVirtual@VInstructResponse@aggregator@@@WireFormatLite@internal@protobuf@google@@SA_NPAVCodedInputStream@io@23@PAVInstructResponse@aggregator@@@Z 130289a0 f i aggregator.pb.obj
 0001:00027aa0       ??$MessageSizeNoVirtual@VLogonResponse@aggregator@@@WireFormatLite@internal@protobuf@google@@SAHABVLogonResponse@aggregator@@@Z 13028aa0 f i aggregator.pb.obj
 0001:00027ae0       ??$MessageSizeNoVirtual@VKeepAliveResponse@aggregator@@@WireFormatLite@internal@protobuf@google@@SAHABVKeepAliveResponse@aggregator@@@Z 13028ae0 f i aggregator.pb.obj
 0001:00027b20       ??$MessageSizeNoVirtual@VLogResponse@aggregator@@@WireFormatLite@internal@protobuf@google@@SAHABVLogResponse@aggregator@@@Z 13028b20 f i aggregator.pb.obj
 0001:00027b60       ??$MessageSizeNoVirtual@VConfigResponse@aggregator@@@WireFormatLite@internal@protobuf@google@@SAHABVConfigResponse@aggregator@@@Z 13028b60 f i aggregator.pb.obj
 0001:00027ba0       ??$MessageSizeNoVirtual@VCollectorFileResponse@aggregator@@@WireFormatLite@internal@protobuf@google@@SAHABVCollectorFileResponse@aggregator@@@Z 13028ba0 f i aggregator.pb.obj
 0001:00027be0       ??$MessageSizeNoVirtual@VCollectRuleResponse@aggregator@@@WireFormatLite@internal@protobuf@google@@SAHABVCollectRuleResponse@aggregator@@@Z 13028be0 f i aggregator.pb.obj
 0001:00027c20       ??$MessageSizeNoVirtual@VFileResponse@aggregator@@@WireFormatLite@internal@protobuf@google@@SAHABVFileResponse@aggregator@@@Z 13028c20 f i aggregator.pb.obj
 0001:00027c60       ??$MessageSizeNoVirtual@VFileDataResponse@aggregator@@@WireFormatLite@internal@protobuf@google@@SAHABVFileDataResponse@aggregator@@@Z 13028c60 f i aggregator.pb.obj
 0001:00027ca0       ??$MessageSizeNoVirtual@VCheckSumResponse@aggregator@@@WireFormatLite@internal@protobuf@google@@SAHABVCheckSumResponse@aggregator@@@Z 13028ca0 f i aggregator.pb.obj
 0001:00027ce0       ??$MessageSizeNoVirtual@VInstructResponse@aggregator@@@WireFormatLite@internal@protobuf@google@@SAHABVInstructResponse@aggregator@@@Z 13028ce0 f i aggregator.pb.obj
 0001:00027d20       ??$down_cast@PBVAggregatorResponse@aggregator@@$$CBVMessageLite@protobuf@google@@@internal@protobuf@google@@YAPBVAggregatorResponse@aggregator@@PBVMessageLite@12@@Z 13028d20 f i aggregator.pb.obj
 0001:00027d60       ??$swap@PAVLogonResponse@aggregator@@@std@@YAXAAPAVLogonResponse@aggregator@@0@Z 13028d60 f i aggregator.pb.obj
 0001:00027da0       ??$swap@PAVKeepAliveResponse@aggregator@@@std@@YAXAAPAVKeepAliveResponse@aggregator@@0@Z 13028da0 f i aggregator.pb.obj
 0001:00027de0       ??$swap@PAVLogResponse@aggregator@@@std@@YAXAAPAVLogResponse@aggregator@@0@Z 13028de0 f i aggregator.pb.obj
 0001:00027e20       ??$swap@PAVConfigResponse@aggregator@@@std@@YAXAAPAVConfigResponse@aggregator@@0@Z 13028e20 f i aggregator.pb.obj
 0001:00027e60       ??$swap@PAVCollectorFileResponse@aggregator@@@std@@YAXAAPAVCollectorFileResponse@aggregator@@0@Z 13028e60 f i aggregator.pb.obj
 0001:00027ea0       ??$swap@PAVCollectRuleResponse@aggregator@@@std@@YAXAAPAVCollectRuleResponse@aggregator@@0@Z 13028ea0 f i aggregator.pb.obj
 0001:00027ee0       ??$swap@PAVFileResponse@aggregator@@@std@@YAXAAPAVFileResponse@aggregator@@0@Z 13028ee0 f i aggregator.pb.obj
 0001:00027f20       ??$swap@PAVFileDataResponse@aggregator@@@std@@YAXAAPAVFileDataResponse@aggregator@@0@Z 13028f20 f i aggregator.pb.obj
 0001:00027f60       ??$swap@PAVCheckSumResponse@aggregator@@@std@@YAXAAPAVCheckSumResponse@aggregator@@0@Z 13028f60 f i aggregator.pb.obj
 0001:00027fa0       ??$swap@PAVInstructResponse@aggregator@@@std@@YAXAAPAVInstructResponse@aggregator@@0@Z 13028fa0 f i aggregator.pb.obj
 0001:00027fe0       ??$copy_s@U?$char_traits@D@std@@@_Traits_helper@std@@YAPADPADIPBDI@Z 13028fe0 f i aggregator.pb.obj
 0001:00028030       ??$_DebugHeapDelete@X@std@@YAXPAX@Z 13029030 f i aggregator.pb.obj
 0001:00028060       ??$move_s@U?$char_traits@D@std@@@_Traits_helper@std@@YAPADPADIPBDI@Z 13029060 f i aggregator.pb.obj
 0001:000280b0       ??$_Allocate@D@std@@YAPADIPAD@Z 130290b0 f i aggregator.pb.obj
 0001:00028130       ??$Destroy@VTypeHandler@?$RepeatedPtrField@VFileRequest_File@aggregator@@@protobuf@google@@@RepeatedPtrFieldBase@internal@protobuf@google@@IAEXXZ 13029130 f i aggregator.pb.obj
 0001:000281e0       ??$Get@VTypeHandler@?$RepeatedPtrField@VFileRequest_File@aggregator@@@protobuf@google@@@RepeatedPtrFieldBase@internal@protobuf@google@@IBEABVFileRequest_File@aggregator@@H@Z 130291e0 f i aggregator.pb.obj
 0001:000282b0       ??$Add@VTypeHandler@?$RepeatedPtrField@VFileRequest_File@aggregator@@@protobuf@google@@@RepeatedPtrFieldBase@internal@protobuf@google@@IAEPAVFileRequest_File@aggregator@@XZ 130292b0 f i aggregator.pb.obj
 0001:000283b0       ??$Clear@VTypeHandler@?$RepeatedPtrField@VFileRequest_File@aggregator@@@protobuf@google@@@RepeatedPtrFieldBase@internal@protobuf@google@@IAEXXZ 130293b0 f i aggregator.pb.obj
 0001:00028440       ??$MergeFrom@VTypeHandler@?$RepeatedPtrField@VFileRequest_File@aggregator@@@protobuf@google@@@RepeatedPtrFieldBase@internal@protobuf@google@@IAEXABV0123@@Z 13029440 f i aggregator.pb.obj
 0001:000284e0       ??$Destroy@VTypeHandler@?$RepeatedPtrField@VFileResponse_File@aggregator@@@protobuf@google@@@RepeatedPtrFieldBase@internal@protobuf@google@@IAEXXZ 130294e0 f i aggregator.pb.obj
 0001:00028590       ??$Get@VTypeHandler@?$RepeatedPtrField@VFileResponse_File@aggregator@@@protobuf@google@@@RepeatedPtrFieldBase@internal@protobuf@google@@IBEABVFileResponse_File@aggregator@@H@Z 13029590 f i aggregator.pb.obj
 0001:00028660       ??$Add@VTypeHandler@?$RepeatedPtrField@VFileResponse_File@aggregator@@@protobuf@google@@@RepeatedPtrFieldBase@internal@protobuf@google@@IAEPAVFileResponse_File@aggregator@@XZ 13029660 f i aggregator.pb.obj
 0001:00028760       ??$Clear@VTypeHandler@?$RepeatedPtrField@VFileResponse_File@aggregator@@@protobuf@google@@@RepeatedPtrFieldBase@internal@protobuf@google@@IAEXXZ 13029760 f i aggregator.pb.obj
 0001:000287f0       ??$MergeFrom@VTypeHandler@?$RepeatedPtrField@VFileResponse_File@aggregator@@@protobuf@google@@@RepeatedPtrFieldBase@internal@protobuf@google@@IAEXABV0123@@Z 130297f0 f i aggregator.pb.obj
 0001:00028890       ??$Destroy@VTypeHandler@?$RepeatedPtrField@VFileDataRequest_FileData@aggregator@@@protobuf@google@@@RepeatedPtrFieldBase@internal@protobuf@google@@IAEXXZ 13029890 f i aggregator.pb.obj
 0001:00028940       ??$Get@VTypeHandler@?$RepeatedPtrField@VFileDataRequest_FileData@aggregator@@@protobuf@google@@@RepeatedPtrFieldBase@internal@protobuf@google@@IBEABVFileDataRequest_FileData@aggregator@@H@Z 13029940 f i aggregator.pb.obj
 0001:00028a10       ??$Add@VTypeHandler@?$RepeatedPtrField@VFileDataRequest_FileData@aggregator@@@protobuf@google@@@RepeatedPtrFieldBase@internal@protobuf@google@@IAEPAVFileDataRequest_FileData@aggregator@@XZ 13029a10 f i aggregator.pb.obj
 0001:00028b10       ??$Clear@VTypeHandler@?$RepeatedPtrField@VFileDataRequest_FileData@aggregator@@@protobuf@google@@@RepeatedPtrFieldBase@internal@protobuf@google@@IAEXXZ 13029b10 f i aggregator.pb.obj
 0001:00028ba0       ??$MergeFrom@VTypeHandler@?$RepeatedPtrField@VFileDataRequest_FileData@aggregator@@@protobuf@google@@@RepeatedPtrFieldBase@internal@protobuf@google@@IAEXABV0123@@Z 13029ba0 f i aggregator.pb.obj
 0001:00028c40       ??$Destroy@VTypeHandler@?$RepeatedPtrField@VFileDataResponse_FileData@aggregator@@@protobuf@google@@@RepeatedPtrFieldBase@internal@protobuf@google@@IAEXXZ 13029c40 f i aggregator.pb.obj
 0001:00028cf0       ??$Get@VTypeHandler@?$RepeatedPtrField@VFileDataResponse_FileData@aggregator@@@protobuf@google@@@RepeatedPtrFieldBase@internal@protobuf@google@@IBEABVFileDataResponse_FileData@aggregator@@H@Z 13029cf0 f i aggregator.pb.obj
 0001:00028dc0       ??$Add@VTypeHandler@?$RepeatedPtrField@VFileDataResponse_FileData@aggregator@@@protobuf@google@@@RepeatedPtrFieldBase@internal@protobuf@google@@IAEPAVFileDataResponse_FileData@aggregator@@XZ 13029dc0 f i aggregator.pb.obj
 0001:00028ec0       ??$Clear@VTypeHandler@?$RepeatedPtrField@VFileDataResponse_FileData@aggregator@@@protobuf@google@@@RepeatedPtrFieldBase@internal@protobuf@google@@IAEXXZ 13029ec0 f i aggregator.pb.obj
 0001:00028f50       ??$MergeFrom@VTypeHandler@?$RepeatedPtrField@VFileDataResponse_FileData@aggregator@@@protobuf@google@@@RepeatedPtrFieldBase@internal@protobuf@google@@IAEXABV0123@@Z 13029f50 f i aggregator.pb.obj
 0001:00028ff0       ??$Destroy@VTypeHandler@?$RepeatedPtrField@VCollectorFileResponse_File@aggregator@@@protobuf@google@@@RepeatedPtrFieldBase@internal@protobuf@google@@IAEXXZ 13029ff0 f i aggregator.pb.obj
 0001:000290a0       ??$Get@VTypeHandler@?$RepeatedPtrField@VCollectorFileResponse_File@aggregator@@@protobuf@google@@@RepeatedPtrFieldBase@internal@protobuf@google@@IBEABVCollectorFileResponse_File@aggregator@@H@Z 1302a0a0 f i aggregator.pb.obj
 0001:00029170       ??$Add@VTypeHandler@?$RepeatedPtrField@VCollectorFileResponse_File@aggregator@@@protobuf@google@@@RepeatedPtrFieldBase@internal@protobuf@google@@IAEPAVCollectorFileResponse_File@aggregator@@XZ 1302a170 f i aggregator.pb.obj
 0001:00029270       ??$Clear@VTypeHandler@?$RepeatedPtrField@VCollectorFileResponse_File@aggregator@@@protobuf@google@@@RepeatedPtrFieldBase@internal@protobuf@google@@IAEXXZ 1302a270 f i aggregator.pb.obj
 0001:00029300       ??$MergeFrom@VTypeHandler@?$RepeatedPtrField@VCollectorFileResponse_File@aggregator@@@protobuf@google@@@RepeatedPtrFieldBase@internal@protobuf@google@@IAEXABV0123@@Z 1302a300 f i aggregator.pb.obj
 0001:000293a0       ??$Destroy@VTypeHandler@?$RepeatedPtrField@VCollectRuleResponse_Rule@aggregator@@@protobuf@google@@@RepeatedPtrFieldBase@internal@protobuf@google@@IAEXXZ 1302a3a0 f i aggregator.pb.obj
 0001:00029450       ??$Get@VTypeHandler@?$RepeatedPtrField@VCollectRuleResponse_Rule@aggregator@@@protobuf@google@@@RepeatedPtrFieldBase@internal@protobuf@google@@IBEABVCollectRuleResponse_Rule@aggregator@@H@Z 1302a450 f i aggregator.pb.obj
 0001:00029520       ??$Add@VTypeHandler@?$RepeatedPtrField@VCollectRuleResponse_Rule@aggregator@@@protobuf@google@@@RepeatedPtrFieldBase@internal@protobuf@google@@IAEPAVCollectRuleResponse_Rule@aggregator@@XZ 1302a520 f i aggregator.pb.obj
 0001:00029620       ??$Clear@VTypeHandler@?$RepeatedPtrField@VCollectRuleResponse_Rule@aggregator@@@protobuf@google@@@RepeatedPtrFieldBase@internal@protobuf@google@@IAEXXZ 1302a620 f i aggregator.pb.obj
 0001:000296b0       ??$MergeFrom@VTypeHandler@?$RepeatedPtrField@VCollectRuleResponse_Rule@aggregator@@@protobuf@google@@@RepeatedPtrFieldBase@internal@protobuf@google@@IAEXABV0123@@Z 1302a6b0 f i aggregator.pb.obj
 0001:00029750       ??$Destroy@VTypeHandler@?$RepeatedPtrField@VConfigResponse_Time@aggregator@@@protobuf@google@@@RepeatedPtrFieldBase@internal@protobuf@google@@IAEXXZ 1302a750 f i aggregator.pb.obj
 0001:00029800       ??$Get@VTypeHandler@?$RepeatedPtrField@VConfigResponse_Time@aggregator@@@protobuf@google@@@RepeatedPtrFieldBase@internal@protobuf@google@@IBEABVConfigResponse_Time@aggregator@@H@Z 1302a800 f i aggregator.pb.obj
 0001:000298d0       ??$Add@VTypeHandler@?$RepeatedPtrField@VConfigResponse_Time@aggregator@@@protobuf@google@@@RepeatedPtrFieldBase@internal@protobuf@google@@IAEPAVConfigResponse_Time@aggregator@@XZ 1302a8d0 f i aggregator.pb.obj
 0001:000299d0       ??$Clear@VTypeHandler@?$RepeatedPtrField@VConfigResponse_Time@aggregator@@@protobuf@google@@@RepeatedPtrFieldBase@internal@protobuf@google@@IAEXXZ 1302a9d0 f i aggregator.pb.obj
 0001:00029a60       ??$MergeFrom@VTypeHandler@?$RepeatedPtrField@VConfigResponse_Time@aggregator@@@protobuf@google@@@RepeatedPtrFieldBase@internal@protobuf@google@@IAEXABV0123@@Z 1302aa60 f i aggregator.pb.obj
 0001:00029b00       ??$implicit_cast@PBVMessageLite@protobuf@google@@PBVFileID@aggregator@@@internal@protobuf@google@@YAPBVMessageLite@12@ABQBVFileID@aggregator@@@Z 1302ab00 f i aggregator.pb.obj
 0001:00029b10       ??$implicit_cast@PBVMessageLite@protobuf@google@@PBVCheckSumRequest@aggregator@@@internal@protobuf@google@@YAPBVMessageLite@12@ABQBVCheckSumRequest@aggregator@@@Z 1302ab10 f i aggregator.pb.obj
 0001:00029b20       ??$implicit_cast@PBVMessageLite@protobuf@google@@PBVCheckSumResponse@aggregator@@@internal@protobuf@google@@YAPBVMessageLite@12@ABQBVCheckSumResponse@aggregator@@@Z 1302ab20 f i aggregator.pb.obj
 0001:00029b30       ??$implicit_cast@PBVMessageLite@protobuf@google@@PBVLogRequest@aggregator@@@internal@protobuf@google@@YAPBVMessageLite@12@ABQBVLogRequest@aggregator@@@Z 1302ab30 f i aggregator.pb.obj
 0001:00029b40       ??$implicit_cast@PBVMessageLite@protobuf@google@@PBVLogResponse@aggregator@@@internal@protobuf@google@@YAPBVMessageLite@12@ABQBVLogResponse@aggregator@@@Z 1302ab40 f i aggregator.pb.obj
 0001:00029b50       ??$implicit_cast@PBVMessageLite@protobuf@google@@PBVFileRequest_File@aggregator@@@internal@protobuf@google@@YAPBVMessageLite@12@ABQBVFileRequest_File@aggregator@@@Z 1302ab50 f i aggregator.pb.obj
 0001:00029b60       ??$implicit_cast@PBVMessageLite@protobuf@google@@PBVFileRequest@aggregator@@@internal@protobuf@google@@YAPBVMessageLite@12@ABQBVFileRequest@aggregator@@@Z 1302ab60 f i aggregator.pb.obj
 0001:00029b70       ??$implicit_cast@PBVMessageLite@protobuf@google@@PBVFileResponse_File@aggregator@@@internal@protobuf@google@@YAPBVMessageLite@12@ABQBVFileResponse_File@aggregator@@@Z 1302ab70 f i aggregator.pb.obj
 0001:00029b80       ??$implicit_cast@PBVMessageLite@protobuf@google@@PBVFileResponse@aggregator@@@internal@protobuf@google@@YAPBVMessageLite@12@ABQBVFileResponse@aggregator@@@Z 1302ab80 f i aggregator.pb.obj
 0001:00029b90       ??$implicit_cast@PBVMessageLite@protobuf@google@@PBVFileDataRequest_FileData@aggregator@@@internal@protobuf@google@@YAPBVMessageLite@12@ABQBVFileDataRequest_FileData@aggregator@@@Z 1302ab90 f i aggregator.pb.obj
 0001:00029ba0       ??$implicit_cast@PBVMessageLite@protobuf@google@@PBVFileDataRequest@aggregator@@@internal@protobuf@google@@YAPBVMessageLite@12@ABQBVFileDataRequest@aggregator@@@Z 1302aba0 f i aggregator.pb.obj
 0001:00029bb0       ??$implicit_cast@PBVMessageLite@protobuf@google@@PBVFileDataResponse_FileData@aggregator@@@internal@protobuf@google@@YAPBVMessageLite@12@ABQBVFileDataResponse_FileData@aggregator@@@Z 1302abb0 f i aggregator.pb.obj
 0001:00029bc0       ??$implicit_cast@PBVMessageLite@protobuf@google@@PBVFileDataResponse@aggregator@@@internal@protobuf@google@@YAPBVMessageLite@12@ABQBVFileDataResponse@aggregator@@@Z 1302abc0 f i aggregator.pb.obj
 0001:00029bd0       ??$implicit_cast@PBVMessageLite@protobuf@google@@PBVCollectorFileRequest@aggregator@@@internal@protobuf@google@@YAPBVMessageLite@12@ABQBVCollectorFileRequest@aggregator@@@Z 1302abd0 f i aggregator.pb.obj
 0001:00029be0       ??$implicit_cast@PBVMessageLite@protobuf@google@@PBVCollectorFileResponse_File@aggregator@@@internal@protobuf@google@@YAPBVMessageLite@12@ABQBVCollectorFileResponse_File@aggregator@@@Z 1302abe0 f i aggregator.pb.obj
 0001:00029bf0       ??$implicit_cast@PBVMessageLite@protobuf@google@@PBVCollectorFileResponse@aggregator@@@internal@protobuf@google@@YAPBVMessageLite@12@ABQBVCollectorFileResponse@aggregator@@@Z 1302abf0 f i aggregator.pb.obj
 0001:00029c00       ??$implicit_cast@PBVMessageLite@protobuf@google@@PBVCollectRuleRequest@aggregator@@@internal@protobuf@google@@YAPBVMessageLite@12@ABQBVCollectRuleRequest@aggregator@@@Z 1302ac00 f i aggregator.pb.obj
 0001:00029c10       ??$implicit_cast@PBVMessageLite@protobuf@google@@PBVCollectRuleResponse_Rule@aggregator@@@internal@protobuf@google@@YAPBVMessageLite@12@ABQBVCollectRuleResponse_Rule@aggregator@@@Z 1302ac10 f i aggregator.pb.obj
 0001:00029c20       ??$implicit_cast@PBVMessageLite@protobuf@google@@PBVCollectRuleResponse@aggregator@@@internal@protobuf@google@@YAPBVMessageLite@12@ABQBVCollectRuleResponse@aggregator@@@Z 1302ac20 f i aggregator.pb.obj
 0001:00029c30       ??$implicit_cast@PBVMessageLite@protobuf@google@@PBVConfigRequest@aggregator@@@internal@protobuf@google@@YAPBVMessageLite@12@ABQBVConfigRequest@aggregator@@@Z 1302ac30 f i aggregator.pb.obj
 0001:00029c40       ??$implicit_cast@PBVMessageLite@protobuf@google@@PBVConfigResponse_Time@aggregator@@@internal@protobuf@google@@YAPBVMessageLite@12@ABQBVConfigResponse_Time@aggregator@@@Z 1302ac40 f i aggregator.pb.obj
 0001:00029c50       ??$implicit_cast@PBVMessageLite@protobuf@google@@PBVConfigResponse@aggregator@@@internal@protobuf@google@@YAPBVMessageLite@12@ABQBVConfigResponse@aggregator@@@Z 1302ac50 f i aggregator.pb.obj
 0001:00029c60       ??$implicit_cast@PBVMessageLite@protobuf@google@@PBVLogonRequest@aggregator@@@internal@protobuf@google@@YAPBVMessageLite@12@ABQBVLogonRequest@aggregator@@@Z 1302ac60 f i aggregator.pb.obj
 0001:00029c70       ??$implicit_cast@PBVMessageLite@protobuf@google@@PBVLogonResponse@aggregator@@@internal@protobuf@google@@YAPBVMessageLite@12@ABQBVLogonResponse@aggregator@@@Z 1302ac70 f i aggregator.pb.obj
 0001:00029c80       ??$implicit_cast@PBVMessageLite@protobuf@google@@PBVLogoutRequest@aggregator@@@internal@protobuf@google@@YAPBVMessageLite@12@ABQBVLogoutRequest@aggregator@@@Z 1302ac80 f i aggregator.pb.obj
 0001:00029c90       ??$implicit_cast@PBVMessageLite@protobuf@google@@PBVKeepAliveRequest@aggregator@@@internal@protobuf@google@@YAPBVMessageLite@12@ABQBVKeepAliveRequest@aggregator@@@Z 1302ac90 f i aggregator.pb.obj
 0001:00029ca0       ??$implicit_cast@PBVMessageLite@protobuf@google@@PBVKeepAliveResponse@aggregator@@@internal@protobuf@google@@YAPBVMessageLite@12@ABQBVKeepAliveResponse@aggregator@@@Z 1302aca0 f i aggregator.pb.obj
 0001:00029cb0       ??$implicit_cast@PBVMessageLite@protobuf@google@@PBVInstructResponse@aggregator@@@internal@protobuf@google@@YAPBVMessageLite@12@ABQBVInstructResponse@aggregator@@@Z 1302acb0 f i aggregator.pb.obj
 0001:00029cc0       ??$implicit_cast@PBVMessageLite@protobuf@google@@PBVTransID@aggregator@@@internal@protobuf@google@@YAPBVMessageLite@12@ABQBVTransID@aggregator@@@Z 1302acc0 f i aggregator.pb.obj
 0001:00029cd0       ??$implicit_cast@PBVMessageLite@protobuf@google@@PBVCollectorRequest@aggregator@@@internal@protobuf@google@@YAPBVMessageLite@12@ABQBVCollectorRequest@aggregator@@@Z 1302acd0 f i aggregator.pb.obj
 0001:00029ce0       ??$implicit_cast@PBVMessageLite@protobuf@google@@PBVAggregatorResponse@aggregator@@@internal@protobuf@google@@YAPBVMessageLite@12@ABQBVAggregatorResponse@aggregator@@@Z 1302ace0 f i aggregator.pb.obj
 0001:00029cf0       ??$_Char_traits_cat@U?$char_traits@D@std@@@std@@YA?AU_Secure_char_traits_tag@0@XZ 1302acf0 f i aggregator.pb.obj
 0001:00029d60       ??$copy_s@U?$char_traits@D@std@@@_Traits_helper@std@@YAPADPADIPBDIU_Secure_char_traits_tag@1@@Z 1302ad60 f i aggregator.pb.obj
 0001:00029d90       ?_Copy_s@?$char_traits@D@std@@SAPADPADIPBDI@Z 1302ad90 f i aggregator.pb.obj
 0001:00029dc0       ??$move_s@U?$char_traits@D@std@@@_Traits_helper@std@@YAPADPADIPBDIU_Secure_char_traits_tag@1@@Z 1302adc0 f i aggregator.pb.obj
 0001:00029df0       ?_Move_s@?$char_traits@D@std@@SAPADPADIPBDI@Z 1302adf0 f i aggregator.pb.obj
 0001:00029e20       ?New@?$GenericTypeHandler@VFileRequest_File@aggregator@@@internal@protobuf@google@@SAPAVFileRequest_File@aggregator@@XZ 1302ae20 f i aggregator.pb.obj
 0001:00029e80       ?Delete@?$GenericTypeHandler@VFileRequest_File@aggregator@@@internal@protobuf@google@@SAXPAVFileRequest_File@aggregator@@@Z 1302ae80 f i aggregator.pb.obj
 0001:00029f00       ?Clear@?$GenericTypeHandler@VFileRequest_File@aggregator@@@internal@protobuf@google@@SAXPAVFileRequest_File@aggregator@@@Z 1302af00 f i aggregator.pb.obj
 0001:00029f30       ?Merge@?$GenericTypeHandler@VFileRequest_File@aggregator@@@internal@protobuf@google@@SAXABVFileRequest_File@aggregator@@PAV56@@Z 1302af30 f i aggregator.pb.obj
 0001:00029f50       ?New@?$GenericTypeHandler@VFileResponse_File@aggregator@@@internal@protobuf@google@@SAPAVFileResponse_File@aggregator@@XZ 1302af50 f i aggregator.pb.obj
 0001:00029fb0       ?Delete@?$GenericTypeHandler@VFileResponse_File@aggregator@@@internal@protobuf@google@@SAXPAVFileResponse_File@aggregator@@@Z 1302afb0 f i aggregator.pb.obj
 0001:0002a030       ?Clear@?$GenericTypeHandler@VFileResponse_File@aggregator@@@internal@protobuf@google@@SAXPAVFileResponse_File@aggregator@@@Z 1302b030 f i aggregator.pb.obj
 0001:0002a060       ?Merge@?$GenericTypeHandler@VFileResponse_File@aggregator@@@internal@protobuf@google@@SAXABVFileResponse_File@aggregator@@PAV56@@Z 1302b060 f i aggregator.pb.obj
 0001:0002a080       ?New@?$GenericTypeHandler@VFileDataRequest_FileData@aggregator@@@internal@protobuf@google@@SAPAVFileDataRequest_FileData@aggregator@@XZ 1302b080 f i aggregator.pb.obj
 0001:0002a0e0       ?Delete@?$GenericTypeHandler@VFileDataRequest_FileData@aggregator@@@internal@protobuf@google@@SAXPAVFileDataRequest_FileData@aggregator@@@Z 1302b0e0 f i aggregator.pb.obj
 0001:0002a160       ?Clear@?$GenericTypeHandler@VFileDataRequest_FileData@aggregator@@@internal@protobuf@google@@SAXPAVFileDataRequest_FileData@aggregator@@@Z 1302b160 f i aggregator.pb.obj
 0001:0002a190       ?Merge@?$GenericTypeHandler@VFileDataRequest_FileData@aggregator@@@internal@protobuf@google@@SAXABVFileDataRequest_FileData@aggregator@@PAV56@@Z 1302b190 f i aggregator.pb.obj
 0001:0002a1b0       ?New@?$GenericTypeHandler@VFileDataResponse_FileData@aggregator@@@internal@protobuf@google@@SAPAVFileDataResponse_FileData@aggregator@@XZ 1302b1b0 f i aggregator.pb.obj
 0001:0002a210       ?Delete@?$GenericTypeHandler@VFileDataResponse_FileData@aggregator@@@internal@protobuf@google@@SAXPAVFileDataResponse_FileData@aggregator@@@Z 1302b210 f i aggregator.pb.obj
 0001:0002a290       ?Clear@?$GenericTypeHandler@VFileDataResponse_FileData@aggregator@@@internal@protobuf@google@@SAXPAVFileDataResponse_FileData@aggregator@@@Z 1302b290 f i aggregator.pb.obj
 0001:0002a2c0       ?Merge@?$GenericTypeHandler@VFileDataResponse_FileData@aggregator@@@internal@protobuf@google@@SAXABVFileDataResponse_FileData@aggregator@@PAV56@@Z 1302b2c0 f i aggregator.pb.obj
 0001:0002a2e0       ?New@?$GenericTypeHandler@VCollectorFileResponse_File@aggregator@@@internal@protobuf@google@@SAPAVCollectorFileResponse_File@aggregator@@XZ 1302b2e0 f i aggregator.pb.obj
 0001:0002a340       ?Delete@?$GenericTypeHandler@VCollectorFileResponse_File@aggregator@@@internal@protobuf@google@@SAXPAVCollectorFileResponse_File@aggregator@@@Z 1302b340 f i aggregator.pb.obj
 0001:0002a3c0       ?Clear@?$GenericTypeHandler@VCollectorFileResponse_File@aggregator@@@internal@protobuf@google@@SAXPAVCollectorFileResponse_File@aggregator@@@Z 1302b3c0 f i aggregator.pb.obj
 0001:0002a3f0       ?Merge@?$GenericTypeHandler@VCollectorFileResponse_File@aggregator@@@internal@protobuf@google@@SAXABVCollectorFileResponse_File@aggregator@@PAV56@@Z 1302b3f0 f i aggregator.pb.obj
 0001:0002a410       ?New@?$GenericTypeHandler@VCollectRuleResponse_Rule@aggregator@@@internal@protobuf@google@@SAPAVCollectRuleResponse_Rule@aggregator@@XZ 1302b410 f i aggregator.pb.obj
 0001:0002a470       ?Delete@?$GenericTypeHandler@VCollectRuleResponse_Rule@aggregator@@@internal@protobuf@google@@SAXPAVCollectRuleResponse_Rule@aggregator@@@Z 1302b470 f i aggregator.pb.obj
 0001:0002a4f0       ?Clear@?$GenericTypeHandler@VCollectRuleResponse_Rule@aggregator@@@internal@protobuf@google@@SAXPAVCollectRuleResponse_Rule@aggregator@@@Z 1302b4f0 f i aggregator.pb.obj
 0001:0002a520       ?Merge@?$GenericTypeHandler@VCollectRuleResponse_Rule@aggregator@@@internal@protobuf@google@@SAXABVCollectRuleResponse_Rule@aggregator@@PAV56@@Z 1302b520 f i aggregator.pb.obj
 0001:0002a540       ?New@?$GenericTypeHandler@VConfigResponse_Time@aggregator@@@internal@protobuf@google@@SAPAVConfigResponse_Time@aggregator@@XZ 1302b540 f i aggregator.pb.obj
 0001:0002a5a0       ?Delete@?$GenericTypeHandler@VConfigResponse_Time@aggregator@@@internal@protobuf@google@@SAXPAVConfigResponse_Time@aggregator@@@Z 1302b5a0 f i aggregator.pb.obj
 0001:0002a620       ?Clear@?$GenericTypeHandler@VConfigResponse_Time@aggregator@@@internal@protobuf@google@@SAXPAVConfigResponse_Time@aggregator@@@Z 1302b620 f i aggregator.pb.obj
 0001:0002a650       ?Merge@?$GenericTypeHandler@VConfigResponse_Time@aggregator@@@internal@protobuf@google@@SAXABVConfigResponse_Time@aggregator@@PAV56@@Z 1302b650 f i aggregator.pb.obj
 0001:0002a670       ??$cast@VTypeHandler@?$RepeatedPtrField@VFileRequest_File@aggregator@@@protobuf@google@@@RepeatedPtrFieldBase@internal@protobuf@google@@CAPAVFileRequest_File@aggregator@@PAX@Z 1302b670 f i aggregator.pb.obj
 0001:0002a680       ??$cast@VTypeHandler@?$RepeatedPtrField@VFileResponse_File@aggregator@@@protobuf@google@@@RepeatedPtrFieldBase@internal@protobuf@google@@CAPAVFileResponse_File@aggregator@@PAX@Z 1302b680 f i aggregator.pb.obj
 0001:0002a690       ??$cast@VTypeHandler@?$RepeatedPtrField@VFileDataRequest_FileData@aggregator@@@protobuf@google@@@RepeatedPtrFieldBase@internal@protobuf@google@@CAPAVFileDataRequest_FileData@aggregator@@PAX@Z 1302b690 f i aggregator.pb.obj
 0001:0002a6a0       ??$cast@VTypeHandler@?$RepeatedPtrField@VFileDataResponse_FileData@aggregator@@@protobuf@google@@@RepeatedPtrFieldBase@internal@protobuf@google@@CAPAVFileDataResponse_FileData@aggregator@@PAX@Z 1302b6a0 f i aggregator.pb.obj
 0001:0002a6b0       ??$cast@VTypeHandler@?$RepeatedPtrField@VCollectorFileResponse_File@aggregator@@@protobuf@google@@@RepeatedPtrFieldBase@internal@protobuf@google@@CAPAVCollectorFileResponse_File@aggregator@@PAX@Z 1302b6b0 f i aggregator.pb.obj
 0001:0002a6c0       ??$cast@VTypeHandler@?$RepeatedPtrField@VCollectRuleResponse_Rule@aggregator@@@protobuf@google@@@RepeatedPtrFieldBase@internal@protobuf@google@@CAPAVCollectRuleResponse_Rule@aggregator@@PAX@Z 1302b6c0 f i aggregator.pb.obj
 0001:0002a6d0       ??$cast@VTypeHandler@?$RepeatedPtrField@VConfigResponse_Time@aggregator@@@protobuf@google@@@RepeatedPtrFieldBase@internal@protobuf@google@@CAPAVConfigResponse_Time@aggregator@@PAX@Z 1302b6d0 f i aggregator.pb.obj
 0001:0002a6e0       ??0CollectorConfig@aggregator@tls@@QAE@PBD@Z 1302b6e0 f   collector_config.obj
 0001:0002a810       ??1CollectorConfig@aggregator@tls@@QAE@XZ 1302b810 f   collector_config.obj
 0001:0002a8a0       ?defaultConfig@CollectorConfig@aggregator@tls@@AAEXXZ 1302b8a0 f   collector_config.obj
 0001:0002a960       ?SetConfigResponse@CollectorConfig@aggregator@tls@@QAEXABVConfigResponse@2@@Z 1302b960 f   collector_config.obj
 0001:0002a9b0       ?UpdateConfig@CollectorConfig@aggregator@tls@@QAE?AW4rc_e@@PAVAggregatorImpl@23@PAX@Z 1302b9b0 f   collector_config.obj
 0001:0002adf0       ?AddFile@CollectClient@AggregatorImpl@aggregator@tls@@QAEXI@Z 1302bdf0 f i collector_config.obj
 0001:0002ae50       ?ClearFile@CollectClient@AggregatorImpl@aggregator@tls@@QAEXXZ 1302be50 f i collector_config.obj
 0001:0002ae90       ??0GetCollectorFileResult@aggregator@tls@@QAE@PAVCollectorFileResponse@1@PAVAggregatorImpl@12@@Z 1302be90 f i collector_config.obj
 0001:0002aed0       ?push_back@?$list@IV?$allocator@I@std@@@std@@QAEXABI@Z 1302bed0 f i collector_config.obj
 0001:0002af20       ?end@?$list@IV?$allocator@I@std@@@std@@QAE?AV?$_Iterator@$00@12@XZ 1302bf20 f i collector_config.obj
 0001:0002af70       ?clear@?$list@IV?$allocator@I@std@@@std@@QAEXXZ 1302bf70 f i collector_config.obj
 0001:0002b070       ??0?$GetSetParamImpl@PAVConfigResponse@aggregator@@@aggregator@tls@@QAE@PAVConfigResponse@1@PBDI1I1I1I1I1I@Z 1302c070 f i collector_config.obj
 0001:0002b100       ?SetResult@?$GetSetParamImpl@PAVConfigResponse@aggregator@@@aggregator@tls@@UAEXIIPBDI@Z 1302c100 f i collector_config.obj
 0001:0002b2a0       ?mutable_time@ConfigResponse@aggregator@@QAEPAVConfigResponse_Time@2@H@Z 1302c2a0 f i collector_config.obj
 0001:0002b2e0       ?GetCondition@?$GetSetParamImpl@PAVConfigResponse@aggregator@@@aggregator@tls@@UBEPBDIPAI@Z 1302c2e0 f i collector_config.obj
 0001:0002b330       ??0?$GetSetParamImpl@PAUGetCollectorFileResult@aggregator@tls@@@aggregator@tls@@QAE@PAUGetCollectorFileResult@12@PBDI1I1I1I1I1I@Z 1302c330 f i collector_config.obj
 0001:0002b3c0       ?SetResult@?$GetSetParamImpl@PAUGetCollectorFileResult@aggregator@tls@@@aggregator@tls@@UAEXIIPBDI@Z 1302c3c0 f i collector_config.obj
 0001:0002b690       ?set_dir@CollectorFileResponse_File@aggregator@@QAEXPBD@Z 1302c690 f i collector_config.obj
 0001:0002b740       ?set_name@CollectorFileResponse_File@aggregator@@QAEXPBD@Z 1302c740 f i collector_config.obj
 0001:0002b7f0       ?mutable_file@CollectorFileResponse@aggregator@@QAEPAVCollectorFileResponse_File@2@H@Z 1302c7f0 f i collector_config.obj
 0001:0002b830       ?GetFileNode@AggregatorImpl@aggregator@tls@@QAEPAUIFileNode@23@ABI@Z 1302c830 f i collector_config.obj
 0001:0002b870       ?GetCondition@?$GetSetParamImpl@PAUGetCollectorFileResult@aggregator@tls@@@aggregator@tls@@UBEPBDIPAI@Z 1302c870 f i collector_config.obj
 0001:0002b8c0       ??0?$AutoRelease@PAUIFileNode@aggregator@tls@@@tls@@QAE@PAUIFileNode@aggregator@1@@Z 1302c8c0 f i collector_config.obj
 0001:0002b8f0       ??1?$AutoRelease@PAUIFileNode@aggregator@tls@@@tls@@QAE@XZ 1302c8f0 f i collector_config.obj
 0001:0002b920       ??C?$AutoRelease@PAUIFileNode@aggregator@tls@@@tls@@QAEPAUIFileNode@aggregator@1@XZ 1302c920 f i collector_config.obj
 0001:0002b940       ??B?$AutoRelease@PAUIFileNode@aggregator@tls@@@tls@@QAEPAUIFileNode@aggregator@1@XZ 1302c940 f i collector_config.obj
 0001:0002b960       ??0?$GetSetParamImpl@PAVCollectRuleResponse@aggregator@@@aggregator@tls@@QAE@PAVCollectRuleResponse@1@PBDI1I1I1I1I1I@Z 1302c960 f i collector_config.obj
 0001:0002b9f0       ?SetResult@?$GetSetParamImpl@PAVCollectRuleResponse@aggregator@@@aggregator@tls@@UAEXIIPBDI@Z 1302c9f0 f i collector_config.obj
 0001:0002bb00       ?set_dir@CollectRuleResponse_Rule@aggregator@@QAEXPBD@Z 1302cb00 f i collector_config.obj
 0001:0002bbb0       ?set_exclude@CollectRuleResponse_Rule@aggregator@@QAEXPBD@Z 1302cbb0 f i collector_config.obj
 0001:0002bc60       ?set_include@CollectRuleResponse_Rule@aggregator@@QAEXPBD@Z 1302cc60 f i collector_config.obj
 0001:0002bd10       ?mutable_rule@CollectRuleResponse@aggregator@@QAEPAVCollectRuleResponse_Rule@2@H@Z 1302cd10 f i collector_config.obj
 0001:0002bd50       ?GetCondition@?$GetSetParamImpl@PAVCollectRuleResponse@aggregator@@@aggregator@tls@@UBEPBDIPAI@Z 1302cd50 f i collector_config.obj
 0001:0002bda0       ??0IGetSetParam@aggregator@tls@@QAE@XZ 1302cda0 f i collector_config.obj
 0001:0002bdd0       ?_Nextnode@?$list@IV?$allocator@I@std@@@std@@KAAAPAU_Node@?$_List_nod@IV?$allocator@I@std@@@2@PAU342@@Z 1302cdd0 f i collector_config.obj
 0001:0002bde0       ?_Prevnode@?$list@IV?$allocator@I@std@@@std@@KAAAPAU_Node@?$_List_nod@IV?$allocator@I@std@@@2@PAU342@@Z 1302cde0 f i collector_config.obj
 0001:0002bdf0       ?_Insert@?$list@IV?$allocator@I@std@@@std@@QAEXV?$_Iterator@$00@12@ABI@Z 1302cdf0 f i collector_config.obj
 0001:0002bee0       ??1?$_Iterator@$00@?$list@IV?$allocator@I@std@@@std@@QAE@XZ 1302cee0 f i collector_config.obj
 0001:0002bf10       ??1?$_Const_iterator@$00@?$list@IV?$allocator@I@std@@@std@@QAE@XZ 1302cf10 f i collector_config.obj
 0001:0002bf40       ??1?$_Bidit@IHPBIABI@std@@QAE@XZ 1302cf40 f i collector_config.obj
 0001:0002bf70       ?_Orphan_ptr@?$list@IV?$allocator@I@std@@@std@@IBEXAAV12@PAU_Node@?$_List_nod@IV?$allocator@I@std@@@2@@Z 1302cf70 f i collector_config.obj
 0001:0002c070       ?deallocate@?$allocator@U_Node@?$_List_nod@IV?$allocator@I@std@@@std@@@std@@QAEXPAU_Node@?$_List_nod@IV?$allocator@I@std@@@2@I@Z 1302d070 f i collector_config.obj
 0001:0002c0b0       ?destroy@?$allocator@U_Node@?$_List_nod@IV?$allocator@I@std@@@std@@@std@@QAEXPAU_Node@?$_List_nod@IV?$allocator@I@std@@@2@@Z 1302d0b0 f i collector_config.obj
 0001:0002c0f0       ??0?$_Iterator@$00@?$list@IV?$allocator@I@std@@@std@@QAE@PAU_Node@?$_List_nod@IV?$allocator@I@std@@@2@PBV12@@Z 1302d0f0 f i collector_config.obj
 0001:0002c130       ?SetParsm@?$GetSetParamImpl@PAVConfigResponse@aggregator@@@aggregator@tls@@QAEXPAVConfigResponse@2@PBDI1I1I1I1I1I@Z 1302d130 f i collector_config.obj
 0001:0002c1e0       ?SetParsm@?$GetSetParamImpl@PAUGetCollectorFileResult@aggregator@tls@@@aggregator@tls@@QAEXPAUGetCollectorFileResult@23@PBDI1I1I1I1I1I@Z 1302d1e0 f i collector_config.obj
 0001:0002c290       ?Release@?$AutoRelease@PAUIFileNode@aggregator@tls@@@tls@@QAEXXZ 1302d290 f i collector_config.obj
 0001:0002c2f0       ?SetParsm@?$GetSetParamImpl@PAVCollectRuleResponse@aggregator@@@aggregator@tls@@QAEXPAVCollectRuleResponse@2@PBDI1I1I1I1I1I@Z 1302d2f0 f i collector_config.obj
 0001:0002c3a0       ?_Buynode@?$list@IV?$allocator@I@std@@@std@@IAEPAU_Node@?$_List_nod@IV?$allocator@I@std@@@2@PAU342@0ABI@Z 1302d3a0 f i collector_config.obj
 0001:0002c4e0       ?_Myval@?$list@IV?$allocator@I@std@@@std@@KAAAIPAU_Node@?$_List_nod@IV?$allocator@I@std@@@2@@Z 1302d4e0 f i collector_config.obj
 0001:0002c4f0       ?_Incsize@?$list@IV?$allocator@I@std@@@std@@IAEXI@Z 1302d4f0 f i collector_config.obj
 0001:0002c590       ??0length_error@std@@QAE@ABV?$basic_string@DU?$char_traits@D@std@@V?$allocator@D@2@@1@@Z 1302d590 f i collector_config.obj
 0001:0002c5e0       ??0logic_error@std@@QAE@ABV?$basic_string@DU?$char_traits@D@std@@V?$allocator@D@2@@1@@Z 1302d5e0 f i collector_config.obj
 0001:0002c640       ?what@logic_error@std@@UBEPBDXZ 1302d640 f i collector_config.obj
 0001:0002c670       ?_Doraise@logic_error@std@@MBEXXZ 1302d670 f i collector_config.obj
 0001:0002c6b0       ??_Elogic_error@std@@UAEPAXI@Z 1302d6b0 f i collector_config.obj
 0001:0002c6b0       ??_Glogic_error@std@@UAEPAXI@Z 1302d6b0 f i collector_config.obj
 0001:0002c700       ??1logic_error@std@@UAE@XZ 1302d700 f i collector_config.obj
 0001:0002c750       ??1length_error@std@@UAE@XZ 1302d750 f i collector_config.obj
 0001:0002c790       ?_Doraise@length_error@std@@MBEXXZ 1302d790 f i collector_config.obj
 0001:0002c7d0       ??_Glength_error@std@@UAEPAXI@Z 1302d7d0 f i collector_config.obj
 0001:0002c7d0       ??_Elength_error@std@@UAEPAXI@Z 1302d7d0 f i collector_config.obj
 0001:0002c820       ??0?$basic_string@DU?$char_traits@D@std@@V?$allocator@D@2@@std@@QAE@ABV01@@Z 1302d820 f i collector_config.obj
 0001:0002c890       ?c_str@?$basic_string@DU?$char_traits@D@std@@V?$allocator@D@2@@std@@QBEPBDXZ 1302d890 f i collector_config.obj
 0001:0002c8c0       ??0?$_String_val@DV?$allocator@D@std@@@std@@QAE@ABV01@@Z 1302d8c0 f i collector_config.obj
 0001:0002c920       ?allocate@?$allocator@U_Node@?$_List_nod@IV?$allocator@I@std@@@std@@@std@@QAEPAU_Node@?$_List_nod@IV?$allocator@I@std@@@2@I@Z 1302d920 f i collector_config.obj
 0001:0002c960       ?construct@?$allocator@PAU_Node@?$_List_nod@IV?$allocator@I@std@@@std@@@std@@QAEXPAPAU_Node@?$_List_nod@IV?$allocator@I@std@@@2@ABQAU342@@Z 1302d960 f i collector_config.obj
 0001:0002c9a0       ?destroy@?$allocator@PAU_Node@?$_List_nod@IV?$allocator@I@std@@@std@@@std@@QAEXPAPAU_Node@?$_List_nod@IV?$allocator@I@std@@@2@@Z 1302d9a0 f i collector_config.obj
 0001:0002c9e0       ??0?$_Const_iterator@$00@?$list@IV?$allocator@I@std@@@std@@QAE@PAU_Node@?$_List_nod@IV?$allocator@I@std@@@2@PBV12@@Z 1302d9e0 f i collector_config.obj
 0001:0002ca30       ??0?$_Bidit@IHPBIABI@std@@QAE@XZ 1302da30 f i collector_config.obj
 0001:0002ca60       ?_Mynode@?$_Const_iterator@$00@?$list@IV?$allocator@I@std@@@std@@QBEPAU_Node@?$_List_nod@IV?$allocator@I@std@@@3@XZ 1302da60 f i collector_config.obj
 0001:0002ca80       ?max_size@?$list@IV?$allocator@I@std@@@std@@QBEIXZ 1302da80 f i collector_config.obj
 0001:0002cab0       ?construct@?$allocator@I@std@@QAEXPAIABI@Z 1302dab0 f i collector_config.obj
 0001:0002caf0       ?max_size@?$allocator@I@std@@QBEIXZ 1302daf0 f i collector_config.obj
 0001:0002cb50       ?Mutable@?$RepeatedPtrField@VCollectorFileResponse_File@aggregator@@@protobuf@google@@QAEPAVCollectorFileResponse_File@aggregator@@H@Z 1302db50 f i collector_config.obj
 0001:0002cb90       ?Mutable@?$RepeatedPtrField@VCollectRuleResponse_Rule@aggregator@@@protobuf@google@@QAEPAVCollectRuleResponse_Rule@aggregator@@H@Z 1302db90 f i collector_config.obj
 0001:0002cbd0       ?Mutable@?$RepeatedPtrField@VConfigResponse_Time@aggregator@@@protobuf@google@@QAEPAVConfigResponse_Time@aggregator@@H@Z 1302dbd0 f i collector_config.obj
 0001:0002cc10       ??$_Destroy@U_Node@?$_List_nod@IV?$allocator@I@std@@@std@@@std@@YAXPAU_Node@?$_List_nod@IV?$allocator@I@std@@@0@@Z 1302dc10 f i collector_config.obj
 0001:0002cc20       ??$_Allocate@U_Node@?$_List_nod@IV?$allocator@I@std@@@std@@@std@@YAPAU_Node@?$_List_nod@IV?$allocator@I@std@@@0@IPAU120@@Z 1302dc20 f i collector_config.obj
 0001:0002cca0       ??$_Construct@PAU_Node@?$_List_nod@IV?$allocator@I@std@@@std@@PAU123@@std@@YAXPAPAU_Node@?$_List_nod@IV?$allocator@I@std@@@0@ABQAU120@@Z 1302dca0 f i collector_config.obj
 0001:0002cd20       ??2@YAPAXIPAX@Z            1302dd20 f i collector_config.obj
 0001:0002cd30       ??$_Destroy@PAU_Node@?$_List_nod@IV?$allocator@I@std@@@std@@@std@@YAXPAPAU_Node@?$_List_nod@IV?$allocator@I@std@@@0@@Z 1302dd30 f i collector_config.obj
 0001:0002cd40       ??$_Construct@II@std@@YAXPAIABI@Z 1302dd40 f i collector_config.obj
 0001:0002cdc0       ??$Mutable@VTypeHandler@?$RepeatedPtrField@VCollectorFileResponse_File@aggregator@@@protobuf@google@@@RepeatedPtrFieldBase@internal@protobuf@google@@IAEPAVCollectorFileResponse_File@aggregator@@H@Z 1302ddc0 f i collector_config.obj
 0001:0002ce90       ??$Mutable@VTypeHandler@?$RepeatedPtrField@VCollectRuleResponse_Rule@aggregator@@@protobuf@google@@@RepeatedPtrFieldBase@internal@protobuf@google@@IAEPAVCollectRuleResponse_Rule@aggregator@@H@Z 1302de90 f i collector_config.obj
 0001:0002cf60       ??$Mutable@VTypeHandler@?$RepeatedPtrField@VConfigResponse_Time@aggregator@@@protobuf@google@@@RepeatedPtrFieldBase@internal@protobuf@google@@IAEPAVConfigResponse_Time@aggregator@@H@Z 1302df60 f i collector_config.obj
 0001:0002d030       ?packetProc@AggregatorImpl@aggregator@tls@@AAE?AW4rc_e@@IIPBE@Z 1302e030 f   packet_proc.obj
 0001:0002d730       ?GetName@CollectClient@AggregatorImpl@aggregator@tls@@QBEPBDXZ 1302e730 f i packet_proc.obj
 0001:0002d750       ?GetSessionID@CollectClient@AggregatorImpl@aggregator@tls@@QAE_KXZ 1302e750 f i packet_proc.obj
 0001:0002d780       ?UpdateKeepAlive@CollectClient@AggregatorImpl@aggregator@tls@@QAEXXZ 1302e780 f i packet_proc.obj
 0001:0002d7b0       ?GetInstructResponse@RequestAndResponse@aggregator@tls@@QAEPAVInstructResponse@2@XZ 1302e7b0 f i packet_proc.obj
 0001:0002d7e0       ?ReSetResponse@RequestAndResponse@aggregator@tls@@QAEXXZ 1302e7e0 f i packet_proc.obj
 0001:0002d840       ?SetSize@MemoryNodeStd@base@tls@@QAEXI@Z 1302e840 f i packet_proc.obj
 0001:0002d870       ?SerializeResponse@RequestAndResponse@aggregator@tls@@QAE?AW4rc_e@@IPBD@Z 1302e870 f i packet_proc.obj
 0001:0002dab0       ?set_error_message@AggregatorResponse@aggregator@@QAEXPBD@Z 1302eab0 f i packet_proc.obj
 0001:0002db60       ?SetResponse@RequestAndResponse@aggregator@tls@@QAEXXZ 1302eb60 f i packet_proc.obj
 0001:0002db90       ?hasResponse@RequestAndResponse@aggregator@tls@@QBEIXZ 1302eb90 f i packet_proc.obj
 0001:0002dbb0       ?GetCollectorRequest@RequestAndResponse@aggregator@tls@@QAEAAVCollectorRequest@2@XZ 1302ebb0 f i packet_proc.obj
 0001:0002dbd0       ?GetClient@RequestAndResponse@aggregator@tls@@QAEPAVCollectClient@AggregatorImpl@23@XZ 1302ebd0 f i packet_proc.obj
 0001:0002dc00       ?didCollectNow@RequestAndResponse@aggregator@tls@@QAEIXZ 1302ec00 f i packet_proc.obj
 0001:0002dc70       ?didCollectNow@CollectClient@AggregatorImpl@aggregator@tls@@QAEIXZ 1302ec70 f i packet_proc.obj
 0001:0002dcb0       ?packetProcLogon@AggregatorImpl@aggregator@tls@@AAE?AW4rc_e@@PAVRequestAndResponse@23@@Z 1302ecb0 f   packet_proc.obj
 0001:0002de80       ?GetLogonResponse@RequestAndResponse@aggregator@tls@@QAEPAVLogonResponse@2@XZ 1302ee80 f i packet_proc.obj
 0001:0002deb0       ?GetLogonRequest@RequestAndResponse@aggregator@tls@@QAEABVLogonRequest@2@XZ 1302eeb0 f i packet_proc.obj
 0001:0002dee0       ?SetClient@RequestAndResponse@aggregator@tls@@QAEXPAVCollectClient@AggregatorImpl@23@@Z 1302eee0 f i packet_proc.obj
 0001:0002df10       ?packetProcLogout@AggregatorImpl@aggregator@tls@@AAE?AW4rc_e@@PAVRequestAndResponse@23@@Z 1302ef10 f   packet_proc.obj
 0001:0002e050       ?GetLogoutRequest@RequestAndResponse@aggregator@tls@@QAEABVLogoutRequest@2@XZ 1302f050 f i packet_proc.obj
 0001:0002e080       ?packetProcKeepAlive@AggregatorImpl@aggregator@tls@@AAE?AW4rc_e@@PAVRequestAndResponse@23@@Z 1302f080 f   packet_proc.obj
 0001:0002e400       ?GetRecvFileData@CollectClient@AggregatorImpl@aggregator@tls@@QAE_KXZ 1302f400 f i packet_proc.obj
 0001:0002e430       ?SetKeepAlive@CollectClient@AggregatorImpl@aggregator@tls@@QAEX_K@Z 1302f430 f i packet_proc.obj
 0001:0002e480       ??4?$_Const_iterator@$00@?$list@IV?$allocator@I@std@@@std@@QAEAAV012@ABV012@@Z 1302f480 f i packet_proc.obj
 0001:0002e4d0       ??4?$_Bidit@IHPBIABI@std@@QAEAAU01@ABU01@@Z 1302f4d0 f i packet_proc.obj
 0001:0002e510       ?GetKeepAliveResponse@RequestAndResponse@aggregator@tls@@QAEPAVKeepAliveResponse@2@XZ 1302f510 f i packet_proc.obj
 0001:0002e540       ?GetFileDataResponse@RequestAndResponse@aggregator@tls@@QAEPAVFileDataResponse@2@XZ 1302f540 f i packet_proc.obj
 0001:0002e570       ?GetKeepAliveRequest@RequestAndResponse@aggregator@tls@@QAEABVKeepAliveRequest@2@XZ 1302f570 f i packet_proc.obj
 0001:0002e5a0       ?packetProcLog@AggregatorImpl@aggregator@tls@@AAE?AW4rc_e@@PAVRequestAndResponse@23@@Z 1302f5a0 f   packet_proc.obj
 0001:0002e710       ?GetLogRequest@RequestAndResponse@aggregator@tls@@QAEABVLogRequest@2@XZ 1302f710 f i packet_proc.obj
 0001:0002e740       ?packetProcConfig@AggregatorImpl@aggregator@tls@@AAE?AW4rc_e@@PAVRequestAndResponse@23@@Z 1302f740 f   packet_proc.obj
 0001:0002e810       ?GetConfigResponse@CollectorConfig@aggregator@tls@@QBEPBVConfigResponse@2@XZ 1302f810 f i packet_proc.obj
 0001:0002e830       ?GetCollectorConfig@CollectClient@AggregatorImpl@aggregator@tls@@QAEAAVCollectorConfig@34@XZ 1302f830 f i packet_proc.obj
 0001:0002e850       ?GetConfigResponse@RequestAndResponse@aggregator@tls@@QAEPAVConfigResponse@2@XZ 1302f850 f i packet_proc.obj
 0001:0002e880       ?packetProcCheckSum@AggregatorImpl@aggregator@tls@@AAE?AW4rc_e@@PAVRequestAndResponse@23@@Z 1302f880 f   packet_proc.obj
 0001:0002e8a0       ?packetProcCollectorFile@AggregatorImpl@aggregator@tls@@AAE?AW4rc_e@@PAVRequestAndResponse@23@@Z 1302f8a0 f   packet_proc.obj
 0001:0002e9a0       ?GetCollectorFileResponse@CollectorConfig@aggregator@tls@@QBEPBVCollectorFileResponse@2@XZ 1302f9a0 f i packet_proc.obj
 0001:0002e9c0       ?GetCollectorFileResponse@RequestAndResponse@aggregator@tls@@QAEPAVCollectorFileResponse@2@XZ 1302f9c0 f i packet_proc.obj
 0001:0002e9f0       ?packetProcCollectRule@AggregatorImpl@aggregator@tls@@AAE?AW4rc_e@@PAVRequestAndResponse@23@@Z 1302f9f0 f   packet_proc.obj
 0001:0002eaf0       ?GetCollectRuleResponse@CollectorConfig@aggregator@tls@@QBEPBVCollectRuleResponse@2@XZ 1302faf0 f i packet_proc.obj
 0001:0002eb10       ?GetCollectRuleResponse@RequestAndResponse@aggregator@tls@@QAEPAVCollectRuleResponse@2@XZ 1302fb10 f i packet_proc.obj
 0001:0002eb40       ?packetProcCollectNow@AggregatorImpl@aggregator@tls@@AAE?AW4rc_e@@PAVRequestAndResponse@23@@Z 1302fb40 f   packet_proc.obj
 0001:0002eb60       ?packetProcFile@AggregatorImpl@aggregator@tls@@AAE?AW4rc_e@@PAVRequestAndResponse@23@@Z 1302fb60 f   packet_proc.obj
 0001:0002eda0       ?GetFileResponse@RequestAndResponse@aggregator@tls@@QAEPAVFileResponse@2@XZ 1302fda0 f i packet_proc.obj
 0001:0002edd0       ?GetFileRequest@RequestAndResponse@aggregator@tls@@QAEABVFileRequest@2@XZ 1302fdd0 f i packet_proc.obj
 0001:0002ee00       ?packetProcFileData@AggregatorImpl@aggregator@tls@@AAE?AW4rc_e@@PAVRequestAndResponse@23@@Z 1302fe00 f   packet_proc.obj
 0001:0002f070       ?SetRecvFileData@CollectClient@AggregatorImpl@aggregator@tls@@QAEX_K0@Z 13030070 f i packet_proc.obj
 0001:0002f0d0       ?GetFileDataRequest@RequestAndResponse@aggregator@tls@@QAEABVFileDataRequest@2@XZ 130300d0 f i packet_proc.obj
 0001:0002f100       ?GetCoderDefalte@RequestAndResponse@aggregator@tls@@QAEPAVICoder@coder@3@XZ 13030100 f i packet_proc.obj
 0001:0002f130       ?removeRequestData@AggregatorImpl@aggregator@tls@@AAEXI@Z 13030130 f   packet_proc.obj
 0001:0002f2a0       ??0AutoLock@base@tls@@QAE@AAVLock@12@@Z 130302a0 f i packet_proc.obj
 0001:0002f2e0       ??1AutoLock@base@tls@@QAE@XZ 130302e0 f i packet_proc.obj
 0001:0002f320       ?AssertAcquired@Lock@base@tls@@QBEXXZ 13030320 f i packet_proc.obj
 0001:0002f340       ??1?$_Iterator@$00@?$list@U?$pair@$$CBIPAVRequestAndResponse@aggregator@tls@@@std@@V?$allocator@U?$pair@$$CBIPAVRequestAndResponse@aggregator@tls@@@std@@@2@@std@@QAE@XZ 13030340 f i packet_proc.obj
 0001:0002f370       ??1?$_Const_iterator@$00@?$list@U?$pair@$$CBIPAVRequestAndResponse@aggregator@tls@@@std@@V?$allocator@U?$pair@$$CBIPAVRequestAndResponse@aggregator@tls@@@std@@@2@@std@@QAE@XZ 13030370 f i packet_proc.obj
 0001:0002f3a0       ??1?$_Bidit@U?$pair@$$CBIPAVRequestAndResponse@aggregator@tls@@@std@@HPBU12@ABU12@@std@@QAE@XZ 130303a0 f i packet_proc.obj
 0001:0002f3d0       ?getRequestData@AggregatorImpl@aggregator@tls@@AAEPAVRequestAndResponse@23@I@Z 130303d0 f   packet_proc.obj
 0001:0002f580       ?SetConnID@RequestAndResponse@aggregator@tls@@QAEXI@Z 13030580 f i packet_proc.obj
 0001:0002f5b0       ?createRequestData@AggregatorImpl@aggregator@tls@@AAEPAVRequestAndResponse@23@I@Z 130305b0 f   packet_proc.obj
 0001:0002f680       ?get_nolock@AggregatorImpl@aggregator@tls@@AAEPAVRequestAndResponse@23@XZ 13030680 f   packet_proc.obj
 0001:0002f750       ??0RequestAndResponse@aggregator@tls@@QAE@PAVAggregatorImpl@12@I@Z 13030750 f i packet_proc.obj
 0001:0002f810       ?CreateInstance@MemoryNodeStd@base@tls@@SAPAV123@I@Z 13030810 f i packet_proc.obj
 0001:0002f880       ??0MemoryNodeStd@base@tls@@AAE@I@Z 13030880 f i packet_proc.obj
 0001:0002f8f0       ??0atomic_count@base@tls@@QAE@J@Z 130308f0 f i packet_proc.obj
 0001:0002f920       ?Release@MemoryNodeStd@base@tls@@UAEXXZ 13030920 f i packet_proc.obj
 0001:0002f9f0       ??Batomic_count@base@tls@@QBEJXZ 130309f0 f i packet_proc.obj
 0001:0002fa10       ?AddRef@MemoryNodeStd@base@tls@@UAEXXZ 13030a10 f i packet_proc.obj
 0001:0002fa40       ?data@MemoryNodeStd@base@tls@@UBEPAEXZ 13030a40 f i packet_proc.obj
 0001:0002fa60       ?len@MemoryNodeStd@base@tls@@UBEIXZ 13030a60 f i packet_proc.obj
 0001:0002fa80       ??_GMemoryNodeStd@base@tls@@AAEPAXI@Z 13030a80 f i packet_proc.obj
 0001:0002fad0       ??1MemoryNodeStd@base@tls@@AAE@XZ 13030ad0 f i packet_proc.obj
 0001:0002fb00       ??0IMemoryNode@tls@@QAE@XZ 13030b00 f i packet_proc.obj
 0001:0002fb30       ?release_nolock@AggregatorImpl@aggregator@tls@@AAEXPAVRequestAndResponse@23@@Z 13030b30 f   packet_proc.obj
 0001:0002fb70       ?get@AggregatorImpl@aggregator@tls@@AAE?AW4rc_e@@PAPAVRequestAndResponse@23@I@Z 13030b70 f   packet_proc.obj
 0001:0002fd00       ?release@AggregatorImpl@aggregator@tls@@AAEXPAVRequestAndResponse@23@@Z 13030d00 f   packet_proc.obj
 0001:0002fda0       ?initRequestData@AggregatorImpl@aggregator@tls@@AAE?AW4rc_e@@XZ 13030da0 f   packet_proc.obj
 0001:0002fdc0       ?clearRequestData@AggregatorImpl@aggregator@tls@@AAEXXZ 13030dc0 f   packet_proc.obj
 0001:0002ff90       ??1?$_Iterator@$00@?$list@PAVRequestAndResponse@aggregator@tls@@V?$allocator@PAVRequestAndResponse@aggregator@tls@@@std@@@std@@QAE@XZ 13030f90 f i packet_proc.obj
 0001:0002ffc0       ??4?$_Iterator@$00@?$list@PAVRequestAndResponse@aggregator@tls@@V?$allocator@PAVRequestAndResponse@aggregator@tls@@@std@@@std@@QAEAAV012@ABV012@@Z 13030fc0 f i packet_proc.obj
 0001:00030000       ??_GRequestAndResponse@aggregator@tls@@QAEPAXI@Z 13031000 f i packet_proc.obj
 0001:00030050       ??1RequestAndResponse@aggregator@tls@@QAE@XZ 13031050 f i packet_proc.obj
 0001:000300c0       ??1?$_Const_iterator@$00@?$list@PAVRequestAndResponse@aggregator@tls@@V?$allocator@PAVRequestAndResponse@aggregator@tls@@@std@@@std@@QAE@XZ 130310c0 f i packet_proc.obj
 0001:000300f0       ??4?$_Const_iterator@$00@?$list@PAVRequestAndResponse@aggregator@tls@@V?$allocator@PAVRequestAndResponse@aggregator@tls@@@std@@@std@@QAEAAV012@ABV012@@Z 130310f0 f i packet_proc.obj
 0001:00030140       ??1?$_Bidit@PAVRequestAndResponse@aggregator@tls@@HPBQAV123@ABQAV123@@std@@QAE@XZ 13031140 f i packet_proc.obj
 0001:00030170       ??4?$_Bidit@PAVRequestAndResponse@aggregator@tls@@HPBQAV123@ABQAV123@@std@@QAEAAU01@ABU01@@Z 13031170 f i packet_proc.obj
 0001:000301b0       ?getResponsePacketData@AggregatorImpl@aggregator@tls@@AAEPAUIMemoryNode@3@I@Z 130311b0 f   packet_proc.obj
 0001:00030210       ?GetResponseData@RequestAndResponse@aggregator@tls@@QAEPAUIMemoryNode@3@XZ 13031210 f i packet_proc.obj
 0001:00030280       ?length@?$basic_string@DU?$char_traits@D@std@@V?$allocator@D@2@@std@@QBEIXZ 13031280 f i packet_proc.obj
 0001:000302a0       ??C?$AutoRelease@PAUIHostContext@aggregator@tls@@@tls@@QAEPAUIHostContext@aggregator@1@XZ 130312a0 f i packet_proc.obj
 0001:000302c0       ?begin@?$list@IV?$allocator@I@std@@@std@@QAE?AV?$_Iterator@$00@12@XZ 130312c0 f i packet_proc.obj
 0001:00030310       ??A?$hash_map@IPAVRequestAndResponse@aggregator@tls@@V?$hash_compare@IU?$less@I@std@@@stdext@@V?$allocator@U?$pair@$$CBIPAVRequestAndResponse@aggregator@tls@@@std@@@std@@@stdext@@QAEAAPAVRequestAndResponse@aggregator@tls@@ABI@Z 13031310 f i packet_proc.obj
 0001:00030430       ?end@?$_Hash@V?$_Hmap_traits@IPAVRequestAndResponse@aggregator@tls@@V?$hash_compare@IU?$less@I@std@@@stdext@@V?$allocator@U?$pair@$$CBIPAVRequestAndResponse@aggregator@tls@@@std@@@std@@$0A@@stdext@@@stdext@@QAE?AV?$_Iterator@$00@?$list@U?$pair@$$CBIPAVRequestAndResponse@aggregator@tls@@@std@@V?$allocator@U?$pair@$$CBIPAVRequestAndResponse@aggregator@tls@@@std@@@2@@std@@XZ 13031430 f i packet_proc.obj
 0001:00030470       ?erase@?$_Hash@V?$_Hmap_traits@IPAVRequestAndResponse@aggregator@tls@@V?$hash_compare@IU?$less@I@std@@@stdext@@V?$allocator@U?$pair@$$CBIPAVRequestAndResponse@aggregator@tls@@@std@@@std@@$0A@@stdext@@@stdext@@QAEIABI@Z 13031470 f i packet_proc.obj
 0001:000305a0       ?find@?$_Hash@V?$_Hmap_traits@IPAVRequestAndResponse@aggregator@tls@@V?$hash_compare@IU?$less@I@std@@@stdext@@V?$allocator@U?$pair@$$CBIPAVRequestAndResponse@aggregator@tls@@@std@@@std@@$0A@@stdext@@@stdext@@QAE?AV?$_Iterator@$00@?$list@U?$pair@$$CBIPAVRequestAndResponse@aggregator@tls@@@std@@V?$allocator@U?$pair@$$CBIPAVRequestAndResponse@aggregator@tls@@@std@@@2@@std@@ABI@Z 130315a0 f i packet_proc.obj
 0001:000305e0       ?begin@?$list@PAVRequestAndResponse@aggregator@tls@@V?$allocator@PAVRequestAndResponse@aggregator@tls@@@std@@@std@@QAE?AV?$_Iterator@$00@12@XZ 130315e0 f i packet_proc.obj
 0001:00030630       ?end@?$list@PAVRequestAndResponse@aggregator@tls@@V?$allocator@PAVRequestAndResponse@aggregator@tls@@@std@@@std@@QAE?AV?$_Iterator@$00@12@XZ 13031630 f i packet_proc.obj
 0001:00030680       ?size@?$list@PAVRequestAndResponse@aggregator@tls@@V?$allocator@PAVRequestAndResponse@aggregator@tls@@@std@@@std@@QBEIXZ 13031680 f i packet_proc.obj
 0001:000306a0       ?front@?$list@PAVRequestAndResponse@aggregator@tls@@V?$allocator@PAVRequestAndResponse@aggregator@tls@@@std@@@std@@QAEAAPAVRequestAndResponse@aggregator@tls@@XZ 130316a0 f i packet_proc.obj
 0001:00030700       ?pop_front@?$list@PAVRequestAndResponse@aggregator@tls@@V?$allocator@PAVRequestAndResponse@aggregator@tls@@@std@@@std@@QAEXXZ 13031700 f i packet_proc.obj
 0001:00030760       ?push_back@?$list@PAVRequestAndResponse@aggregator@tls@@V?$allocator@PAVRequestAndResponse@aggregator@tls@@@std@@@std@@QAEXABQAVRequestAndResponse@aggregator@tls@@@Z 13031760 f i packet_proc.obj
 0001:000307b0       ?clear@?$list@PAVRequestAndResponse@aggregator@tls@@V?$allocator@PAVRequestAndResponse@aggregator@tls@@@std@@@std@@QAEXXZ 130317b0 f i packet_proc.obj
 0001:000308b0       ??0?$_Const_iterator@$00@?$list@IV?$allocator@I@std@@@std@@QAE@XZ 130318b0 f i packet_proc.obj
 0001:000308f0       ??D?$_Const_iterator@$00@?$list@IV?$allocator@I@std@@@std@@QBEABIXZ 130318f0 f i packet_proc.obj
 0001:000309c0       ??E?$_Const_iterator@$00@?$list@IV?$allocator@I@std@@@std@@QAEAAV012@XZ 130319c0 f i packet_proc.obj
 0001:00030aa0       ??9?$_Const_iterator@$00@?$list@IV?$allocator@I@std@@@std@@QBE_NABV012@@Z 13031aa0 f i packet_proc.obj
 0001:00030af0       ??C?$_Iterator@$00@?$list@U?$pair@$$CBIPAVRequestAndResponse@aggregator@tls@@@std@@V?$allocator@U?$pair@$$CBIPAVRequestAndResponse@aggregator@tls@@@std@@@2@@std@@QBEPAU?$pair@$$CBIPAVRequestAndResponse@aggregator@tls@@@2@XZ 13031af0 f i packet_proc.obj
 0001:00030b20       ??8?$_Const_iterator@$00@?$list@U?$pair@$$CBIPAVRequestAndResponse@aggregator@tls@@@std@@V?$allocator@U?$pair@$$CBIPAVRequestAndResponse@aggregator@tls@@@std@@@2@@std@@QBE_NABV012@@Z 13031b20 f i packet_proc.obj
 0001:00030b70       ??9?$_Const_iterator@$00@?$list@U?$pair@$$CBIPAVRequestAndResponse@aggregator@tls@@@std@@V?$allocator@U?$pair@$$CBIPAVRequestAndResponse@aggregator@tls@@@std@@@2@@std@@QBE_NABV012@@Z 13031b70 f i packet_proc.obj
 0001:00030bc0       ??0?$_Iterator@$00@?$list@PAVRequestAndResponse@aggregator@tls@@V?$allocator@PAVRequestAndResponse@aggregator@tls@@@std@@@std@@QAE@XZ 13031bc0 f i packet_proc.obj
 0001:00030bf0       ??D?$_Iterator@$00@?$list@PAVRequestAndResponse@aggregator@tls@@V?$allocator@PAVRequestAndResponse@aggregator@tls@@@std@@@std@@QBEAAPAVRequestAndResponse@aggregator@tls@@XZ 13031bf0 f i packet_proc.obj
 0001:00030c20       ??E?$_Iterator@$00@?$list@PAVRequestAndResponse@aggregator@tls@@V?$allocator@PAVRequestAndResponse@aggregator@tls@@@std@@@std@@QAEAAV012@XZ 13031c20 f i packet_proc.obj
 0001:00030c50       ??9?$_Const_iterator@$00@?$list@PAVRequestAndResponse@aggregator@tls@@V?$allocator@PAVRequestAndResponse@aggregator@tls@@@std@@@std@@QBE_NABV012@@Z 13031c50 f i packet_proc.obj
 0001:00030ca0       ??1?$pair@V?$_Iterator@$00@?$list@U?$pair@$$CBIPAVRequestAndResponse@aggregator@tls@@@std@@V?$allocator@U?$pair@$$CBIPAVRequestAndResponse@aggregator@tls@@@std@@@2@@std@@_N@std@@QAE@XZ 13031ca0 f i packet_proc.obj
 0001:00030cd0       ??4?$_Iterator@$00@?$list@U?$pair@$$CBIPAVRequestAndResponse@aggregator@tls@@@std@@V?$allocator@U?$pair@$$CBIPAVRequestAndResponse@aggregator@tls@@@std@@@2@@std@@QAEAAV012@ABV012@@Z 13031cd0 f i packet_proc.obj
 0001:00030d10       ??1?$pair@V?$_Iterator@$00@?$list@U?$pair@$$CBIPAVRequestAndResponse@aggregator@tls@@@std@@V?$allocator@U?$pair@$$CBIPAVRequestAndResponse@aggregator@tls@@@std@@@2@@std@@V123@@std@@QAE@XZ 13031d10 f i packet_proc.obj
 0001:00030d50       ??0?$_Iterator@$00@?$list@U?$pair@$$CBIPAVRequestAndResponse@aggregator@tls@@@std@@V?$allocator@U?$pair@$$CBIPAVRequestAndResponse@aggregator@tls@@@std@@@2@@std@@QAE@ABV012@@Z 13031d50 f i packet_proc.obj
 0001:00030d90       ??4?$_Const_iterator@$00@?$list@U?$pair@$$CBIPAVRequestAndResponse@aggregator@tls@@@std@@V?$allocator@U?$pair@$$CBIPAVRequestAndResponse@aggregator@tls@@@std@@@2@@std@@QAEAAV012@ABV012@@Z 13031d90 f i packet_proc.obj
 0001:00030de0       ??0?$_Const_iterator@$00@?$list@U?$pair@$$CBIPAVRequestAndResponse@aggregator@tls@@@std@@V?$allocator@U?$pair@$$CBIPAVRequestAndResponse@aggregator@tls@@@std@@@2@@std@@QAE@ABV012@@Z 13031de0 f i packet_proc.obj
 0001:00030e30       ??4?$_Bidit@U?$pair@$$CBIPAVRequestAndResponse@aggregator@tls@@@std@@HPBU12@ABU12@@std@@QAEAAU01@ABU01@@Z 13031e30 f i packet_proc.obj
 0001:00030e70       ??0?$_Bidit@U?$pair@$$CBIPAVRequestAndResponse@aggregator@tls@@@std@@HPBU12@ABU12@@std@@QAE@ABU01@@Z 13031e70 f i packet_proc.obj
 0001:00030eb0       ?insert@?$_Hash@V?$_Hmap_traits@IPAVRequestAndResponse@aggregator@tls@@V?$hash_compare@IU?$less@I@std@@@stdext@@V?$allocator@U?$pair@$$CBIPAVRequestAndResponse@aggregator@tls@@@std@@@std@@$0A@@stdext@@@stdext@@QAE?AU?$pair@V?$_Iterator@$00@?$list@U?$pair@$$CBIPAVRequestAndResponse@aggregator@tls@@@std@@V?$allocator@U?$pair@$$CBIPAVRequestAndResponse@aggregator@tls@@@std@@@2@@std@@_N@std@@ABU?$pair@$$CBIPAVRequestAndResponse@aggregator@tls@@@4@@Z 13031eb0 f i packet_proc.obj
 0001:00031610       ?erase@?$_Hash@V?$_Hmap_traits@IPAVRequestAndResponse@aggregator@tls@@V?$hash_compare@IU?$less@I@std@@@stdext@@V?$allocator@U?$pair@$$CBIPAVRequestAndResponse@aggregator@tls@@@std@@@std@@$0A@@stdext@@@stdext@@QAE?AV?$_Iterator@$00@?$list@U?$pair@$$CBIPAVRequestAndResponse@aggregator@tls@@@std@@V?$allocator@U?$pair@$$CBIPAVRequestAndResponse@aggregator@tls@@@std@@@2@@std@@V345@0@Z 13032610 f i packet_proc.obj
 0001:000317f0       ?lower_bound@?$_Hash@V?$_Hmap_traits@IPAVRequestAndResponse@aggregator@tls@@V?$hash_compare@IU?$less@I@std@@@stdext@@V?$allocator@U?$pair@$$CBIPAVRequestAndResponse@aggregator@tls@@@std@@@std@@$0A@@stdext@@@stdext@@QAE?AV?$_Iterator@$00@?$list@U?$pair@$$CBIPAVRequestAndResponse@aggregator@tls@@@std@@V?$allocator@U?$pair@$$CBIPAVRequestAndResponse@aggregator@tls@@@std@@@2@@std@@ABI@Z 130327f0 f i packet_proc.obj
 0001:000319f0       ?equal_range@?$_Hash@V?$_Hmap_traits@IPAVRequestAndResponse@aggregator@tls@@V?$hash_compare@IU?$less@I@std@@@stdext@@V?$allocator@U?$pair@$$CBIPAVRequestAndResponse@aggregator@tls@@@std@@@std@@$0A@@stdext@@@stdext@@QAE?AU?$pair@V?$_Iterator@$00@?$list@U?$pair@$$CBIPAVRequestAndResponse@aggregator@tls@@@std@@V?$allocator@U?$pair@$$CBIPAVRequestAndResponse@aggregator@tls@@@std@@@2@@std@@V123@@std@@ABI@Z 130329f0 f i packet_proc.obj
 0001:00031c80       ?end@?$list@U?$pair@$$CBIPAVRequestAndResponse@aggregator@tls@@@std@@V?$allocator@U?$pair@$$CBIPAVRequestAndResponse@aggregator@tls@@@std@@@2@@std@@QAE?AV?$_Iterator@$00@12@XZ 13032c80 f i packet_proc.obj
 0001:00031cd0       ?_Nextnode@?$list@PAVRequestAndResponse@aggregator@tls@@V?$allocator@PAVRequestAndResponse@aggregator@tls@@@std@@@std@@KAAAPAU_Node@?$_List_nod@PAVRequestAndResponse@aggregator@tls@@V?$allocator@PAVRequestAndResponse@aggregator@tls@@@std@@@2@PAU342@@Z 13032cd0 f i packet_proc.obj
 0001:00031ce0       ?_Prevnode@?$list@PAVRequestAndResponse@aggregator@tls@@V?$allocator@PAVRequestAndResponse@aggregator@tls@@@std@@@std@@KAAAPAU_Node@?$_List_nod@PAVRequestAndResponse@aggregator@tls@@V?$allocator@PAVRequestAndResponse@aggregator@tls@@@std@@@2@PAU342@@Z 13032ce0 f i packet_proc.obj
 0001:00031cf0       ?_Insert@?$list@PAVRequestAndResponse@aggregator@tls@@V?$allocator@PAVRequestAndResponse@aggregator@tls@@@std@@@std@@QAEXV?$_Iterator@$00@12@ABQAVRequestAndResponse@aggregator@tls@@@Z 13032cf0 f i packet_proc.obj
 0001:00031de0       ?erase@?$list@PAVRequestAndResponse@aggregator@tls@@V?$allocator@PAVRequestAndResponse@aggregator@tls@@@std@@@std@@QAE?AV?$_Iterator@$00@12@V312@@Z 13032de0 f i packet_proc.obj
 0001:00031f60       ?_Orphan_ptr@?$list@PAVRequestAndResponse@aggregator@tls@@V?$allocator@PAVRequestAndResponse@aggregator@tls@@@std@@@std@@IBEXAAV12@PAU_Node@?$_List_nod@PAVRequestAndResponse@aggregator@tls@@V?$allocator@PAVRequestAndResponse@aggregator@tls@@@std@@@2@@Z 13032f60 f i packet_proc.obj
 0001:00032060       ?deallocate@?$allocator@U_Node@?$_List_nod@PAVRequestAndResponse@aggregator@tls@@V?$allocator@PAVRequestAndResponse@aggregator@tls@@@std@@@std@@@std@@QAEXPAU_Node@?$_List_nod@PAVRequestAndResponse@aggregator@tls@@V?$allocator@PAVRequestAndResponse@aggregator@tls@@@std@@@2@I@Z 13033060 f i packet_proc.obj
 0001:000320a0       ?destroy@?$allocator@U_Node@?$_List_nod@PAVRequestAndResponse@aggregator@tls@@V?$allocator@PAVRequestAndResponse@aggregator@tls@@@std@@@std@@@std@@QAEXPAU_Node@?$_List_nod@PAVRequestAndResponse@aggregator@tls@@V?$allocator@PAVRequestAndResponse@aggregator@tls@@@std@@@2@@Z 130330a0 f i packet_proc.obj
 0001:000320e0       ??8?$_Const_iterator@$00@?$list@IV?$allocator@I@std@@@std@@QBE_NABV012@@Z 130330e0 f i packet_proc.obj
 0001:00032130       ??D?$_Iterator@$00@?$list@U?$pair@$$CBIPAVRequestAndResponse@aggregator@tls@@@std@@V?$allocator@U?$pair@$$CBIPAVRequestAndResponse@aggregator@tls@@@std@@@2@@std@@QBEAAU?$pair@$$CBIPAVRequestAndResponse@aggregator@tls@@@2@XZ 13033130 f i packet_proc.obj
 0001:00032160       ?_Compat@?$_Const_iterator@$00@?$list@U?$pair@$$CBIPAVRequestAndResponse@aggregator@tls@@@std@@V?$allocator@U?$pair@$$CBIPAVRequestAndResponse@aggregator@tls@@@std@@@2@@std@@QBEXABV123@@Z 13033160 f i packet_proc.obj
 0001:00032220       ??0?$pair@$$CBIPAVRequestAndResponse@aggregator@tls@@@std@@QAE@ABIABQAVRequestAndResponse@aggregator@tls@@@Z 13033220 f i packet_proc.obj
 0001:00032260       ??0?$_Iterator@$00@?$list@PAVRequestAndResponse@aggregator@tls@@V?$allocator@PAVRequestAndResponse@aggregator@tls@@@std@@@std@@QAE@PAU_Node@?$_List_nod@PAVRequestAndResponse@aggregator@tls@@V?$allocator@PAVRequestAndResponse@aggregator@tls@@@std@@@2@PBV12@@Z 13033260 f i packet_proc.obj
 0001:000322a0       ??0?$_Const_iterator@$00@?$list@PAVRequestAndResponse@aggregator@tls@@V?$allocator@PAVRequestAndResponse@aggregator@tls@@@std@@@std@@QAE@XZ 130332a0 f i packet_proc.obj
 0001:000322e0       ??D?$_Const_iterator@$00@?$list@PAVRequestAndResponse@aggregator@tls@@V?$allocator@PAVRequestAndResponse@aggregator@tls@@@std@@@std@@QBEABQAVRequestAndResponse@aggregator@tls@@XZ 130332e0 f i packet_proc.obj
 0001:000323b0       ??E?$_Const_iterator@$00@?$list@PAVRequestAndResponse@aggregator@tls@@V?$allocator@PAVRequestAndResponse@aggregator@tls@@@std@@@std@@QAEAAV012@XZ 130333b0 f i packet_proc.obj
 0001:00032490       ??8?$_Const_iterator@$00@?$list@PAVRequestAndResponse@aggregator@tls@@V?$allocator@PAVRequestAndResponse@aggregator@tls@@@std@@@std@@QBE_NABV012@@Z 13033490 f i packet_proc.obj
 0001:000324e0       ??0?$_Iterator@$00@?$list@PAVRequestAndResponse@aggregator@tls@@V?$allocator@PAVRequestAndResponse@aggregator@tls@@@std@@@std@@QAE@ABV012@@Z 130334e0 f i packet_proc.obj
 0001:00032520       ??0?$_Bidit@PAVRequestAndResponse@aggregator@tls@@HPBQAV123@ABQAV123@@std@@QAE@XZ 13033520 f i packet_proc.obj
 0001:00032550       ??0?$_Const_iterator@$00@?$list@PAVRequestAndResponse@aggregator@tls@@V?$allocator@PAVRequestAndResponse@aggregator@tls@@@std@@@std@@QAE@ABV012@@Z 13033550 f i packet_proc.obj
 0001:000325a0       ??0?$_Bidit@PAVRequestAndResponse@aggregator@tls@@HPBQAV123@ABQAV123@@std@@QAE@ABU01@@Z 130335a0 f i packet_proc.obj
 0001:000325e0       ?_Get_iter_from_vec@?$_Hash@V?$_Hmap_traits@IPAVRequestAndResponse@aggregator@tls@@V?$hash_compare@IU?$less@I@std@@@stdext@@V?$allocator@U?$pair@$$CBIPAVRequestAndResponse@aggregator@tls@@@std@@@std@@$0A@@stdext@@@stdext@@QBE?AV?$_Iterator@$00@?$list@U?$pair@$$CBIPAVRequestAndResponse@aggregator@tls@@@std@@V?$allocator@U?$pair@$$CBIPAVRequestAndResponse@aggregator@tls@@@std@@@2@@std@@ABV345@@Z 130335e0 f i packet_proc.obj
 0001:00032620       ?begin@?$_Hash@V?$_Hmap_traits@IPAVRequestAndResponse@aggregator@tls@@V?$hash_compare@IU?$less@I@std@@@stdext@@V?$allocator@U?$pair@$$CBIPAVRequestAndResponse@aggregator@tls@@@std@@@std@@$0A@@stdext@@@stdext@@QAE?AV?$_Iterator@$00@?$list@U?$pair@$$CBIPAVRequestAndResponse@aggregator@tls@@@std@@V?$allocator@U?$pair@$$CBIPAVRequestAndResponse@aggregator@tls@@@std@@@2@@std@@XZ 13033620 f i packet_proc.obj
 0001:00032660       ?size@?$_Hash@V?$_Hmap_traits@IPAVRequestAndResponse@aggregator@tls@@V?$hash_compare@IU?$less@I@std@@@stdext@@V?$allocator@U?$pair@$$CBIPAVRequestAndResponse@aggregator@tls@@@std@@@std@@$0A@@stdext@@@stdext@@QBEIXZ 13033660 f i packet_proc.obj
 0001:00032690       ?erase@?$_Hash@V?$_Hmap_traits@IPAVRequestAndResponse@aggregator@tls@@V?$hash_compare@IU?$less@I@std@@@stdext@@V?$allocator@U?$pair@$$CBIPAVRequestAndResponse@aggregator@tls@@@std@@@std@@$0A@@stdext@@@stdext@@QAE?AV?$_Iterator@$00@?$list@U?$pair@$$CBIPAVRequestAndResponse@aggregator@tls@@@std@@V?$allocator@U?$pair@$$CBIPAVRequestAndResponse@aggregator@tls@@@std@@@2@@std@@V345@@Z 13033690 f i packet_proc.obj
 0001:00032780       ?clear@?$_Hash@V?$_Hmap_traits@IPAVRequestAndResponse@aggregator@tls@@V?$hash_compare@IU?$less@I@std@@@stdext@@V?$allocator@U?$pair@$$CBIPAVRequestAndResponse@aggregator@tls@@@std@@@std@@$0A@@stdext@@@stdext@@QAEXXZ 13033780 f i packet_proc.obj
 0001:00032810       ?_Hashval@?$_Hash@V?$_Hmap_traits@IPAVRequestAndResponse@aggregator@tls@@V?$hash_compare@IU?$less@I@std@@@stdext@@V?$allocator@U?$pair@$$CBIPAVRequestAndResponse@aggregator@tls@@@std@@@std@@$0A@@stdext@@@stdext@@IBEIABI@Z 13033810 f i packet_proc.obj
 0001:00032890       ?_Kfn@?$_Hmap_traits@IPAVRequestAndResponse@aggregator@tls@@V?$hash_compare@IU?$less@I@std@@@stdext@@V?$allocator@U?$pair@$$CBIPAVRequestAndResponse@aggregator@tls@@@std@@@std@@$0A@@stdext@@SAABIABU?$pair@$$CBIPAVRequestAndResponse@aggregator@tls@@@std@@@Z 13033890 f i packet_proc.obj
 0001:000328a0       ??R?$hash_compare@IU?$less@I@std@@@stdext@@QBEIABI@Z 130338a0 f i packet_proc.obj
 0001:00032980       ??R?$hash_compare@IU?$less@I@std@@@stdext@@QBE_NABI0@Z 13033980 f i packet_proc.obj
 0001:000329c0       ?insert@?$list@U?$pair@$$CBIPAVRequestAndResponse@aggregator@tls@@@std@@V?$allocator@U?$pair@$$CBIPAVRequestAndResponse@aggregator@tls@@@std@@@2@@std@@QAE?AV?$_Iterator@$00@12@V312@ABU?$pair@$$CBIPAVRequestAndResponse@aggregator@tls@@@2@@Z 130339c0 f i packet_proc.obj
 0001:00032a40       ?_Splice@?$list@U?$pair@$$CBIPAVRequestAndResponse@aggregator@tls@@@std@@V?$allocator@U?$pair@$$CBIPAVRequestAndResponse@aggregator@tls@@@std@@@2@@std@@QAEXV?$_Iterator@$00@12@AAV12@00I_N@Z 13033a40 f i packet_proc.obj
 0001:00032d80       ?resize@?$vector@V?$_Iterator@$00@?$list@U?$pair@$$CBIPAVRequestAndResponse@aggregator@tls@@@std@@V?$allocator@U?$pair@$$CBIPAVRequestAndResponse@aggregator@tls@@@std@@@2@@std@@V?$allocator@V?$_Iterator@$00@?$list@U?$pair@$$CBIPAVRequestAndResponse@aggregator@tls@@@std@@V?$allocator@U?$pair@$$CBIPAVRequestAndResponse@aggregator@tls@@@std@@@2@@std@@@3@@std@@QAEXIV?$_Iterator@$00@?$list@U?$pair@$$CBIPAVRequestAndResponse@aggregator@tls@@@std@@V?$allocator@U?$pair@$$CBIPAVRequestAndResponse@aggregator@tls@@@std@@@2@@2@@Z 13033d80 f i packet_proc.obj
 0001:00032e70       ?size@?$vector@V?$_Iterator@$00@?$list@U?$pair@$$CBIPAVRequestAndResponse@aggregator@tls@@@std@@V?$allocator@U?$pair@$$CBIPAVRequestAndResponse@aggregator@tls@@@std@@@2@@std@@V?$allocator@V?$_Iterator@$00@?$list@U?$pair@$$CBIPAVRequestAndResponse@aggregator@tls@@@std@@V?$allocator@U?$pair@$$CBIPAVRequestAndResponse@aggregator@tls@@@std@@@2@@std@@@3@@std@@QBEIXZ 13033e70 f i packet_proc.obj
 0001:00032ed0       ??A?$vector@V?$_Iterator@$00@?$list@U?$pair@$$CBIPAVRequestAndResponse@aggregator@tls@@@std@@V?$allocator@U?$pair@$$CBIPAVRequestAndResponse@aggregator@tls@@@std@@@2@@std@@V?$allocator@V?$_Iterator@$00@?$list@U?$pair@$$CBIPAVRequestAndResponse@aggregator@tls@@@std@@V?$allocator@U?$pair@$$CBIPAVRequestAndResponse@aggregator@tls@@@std@@@2@@std@@@3@@std@@QAEAAV?$_Iterator@$00@?$list@U?$pair@$$CBIPAVRequestAndResponse@aggregator@tls@@@std@@V?$allocator@U?$pair@$$CBIPAVRequestAndResponse@aggregator@tls@@@std@@@2@@1@I@Z 13033ed0 f i packet_proc.obj
 0001:00032ff0       ?_Myval@?$list@PAVRequestAndResponse@aggregator@tls@@V?$allocator@PAVRequestAndResponse@aggregator@tls@@@std@@@std@@KAAAPAVRequestAndResponse@aggregator@tls@@PAU_Node@?$_List_nod@PAVRequestAndResponse@aggregator@tls@@V?$allocator@PAVRequestAndResponse@aggregator@tls@@@std@@@2@@Z 13033ff0 f i packet_proc.obj
 0001:00033000       ?_Buynode@?$list@PAVRequestAndResponse@aggregator@tls@@V?$allocator@PAVRequestAndResponse@aggregator@tls@@@std@@@std@@IAEPAU_Node@?$_List_nod@PAVRequestAndResponse@aggregator@tls@@V?$allocator@PAVRequestAndResponse@aggregator@tls@@@std@@@2@PAU342@0ABQAVRequestAndResponse@aggregator@tls@@@Z 13034000 f i packet_proc.obj
 0001:00033140       ?_Incsize@?$list@PAVRequestAndResponse@aggregator@tls@@V?$allocator@PAVRequestAndResponse@aggregator@tls@@@std@@@std@@IAEXI@Z 13034140 f i packet_proc.obj
 0001:000331e0       ?_Compat@?$_Const_iterator@$00@?$list@IV?$allocator@I@std@@@std@@QBEXABV123@@Z 130341e0 f i packet_proc.obj
 0001:000332a0       ??0?$_Iterator@$00@?$list@U?$pair@$$CBIPAVRequestAndResponse@aggregator@tls@@@std@@V?$allocator@U?$pair@$$CBIPAVRequestAndResponse@aggregator@tls@@@std@@@2@@std@@QAE@XZ 130342a0 f i packet_proc.obj
 0001:000332d0       ??0?$_Iterator@$00@?$list@U?$pair@$$CBIPAVRequestAndResponse@aggregator@tls@@@std@@V?$allocator@U?$pair@$$CBIPAVRequestAndResponse@aggregator@tls@@@std@@@2@@std@@QAE@PAU_Node@?$_List_nod@U?$pair@$$CBIPAVRequestAndResponse@aggregator@tls@@@std@@V?$allocator@U?$pair@$$CBIPAVRequestAndResponse@aggregator@tls@@@std@@@2@@2@PBV12@@Z 130342d0 f i packet_proc.obj
 0001:00033310       ??E?$_Iterator@$00@?$list@U?$pair@$$CBIPAVRequestAndResponse@aggregator@tls@@@std@@V?$allocator@U?$pair@$$CBIPAVRequestAndResponse@aggregator@tls@@@std@@@2@@std@@QAEAAV012@XZ 13034310 f i packet_proc.obj
 0001:00033340       ??E?$_Iterator@$00@?$list@U?$pair@$$CBIPAVRequestAndResponse@aggregator@tls@@@std@@V?$allocator@U?$pair@$$CBIPAVRequestAndResponse@aggregator@tls@@@std@@@2@@std@@QAE?AV012@H@Z 13034340 f i packet_proc.obj
 0001:000333f0       ??F?$_Iterator@$00@?$list@U?$pair@$$CBIPAVRequestAndResponse@aggregator@tls@@@std@@V?$allocator@U?$pair@$$CBIPAVRequestAndResponse@aggregator@tls@@@std@@@2@@std@@QAEAAV012@XZ 130343f0 f i packet_proc.obj
 0001:00033420       ??D?$_Const_iterator@$00@?$list@U?$pair@$$CBIPAVRequestAndResponse@aggregator@tls@@@std@@V?$allocator@U?$pair@$$CBIPAVRequestAndResponse@aggregator@tls@@@std@@@2@@std@@QBEABU?$pair@$$CBIPAVRequestAndResponse@aggregator@tls@@@2@XZ 13034420 f i packet_proc.obj
 0001:000334f0       ??E?$_Iterator@$00@?$list@PAVRequestAndResponse@aggregator@tls@@V?$allocator@PAVRequestAndResponse@aggregator@tls@@@std@@@std@@QAE?AV012@H@Z 130344f0 f i packet_proc.obj
 0001:000335a0       ??0?$_Const_iterator@$00@?$list@PAVRequestAndResponse@aggregator@tls@@V?$allocator@PAVRequestAndResponse@aggregator@tls@@@std@@@std@@QAE@PAU_Node@?$_List_nod@PAVRequestAndResponse@aggregator@tls@@V?$allocator@PAVRequestAndResponse@aggregator@tls@@@std@@@2@PBV12@@Z 130345a0 f i packet_proc.obj
 0001:000335f0       ?_Mynode@?$_Const_iterator@$00@?$list@PAVRequestAndResponse@aggregator@tls@@V?$allocator@PAVRequestAndResponse@aggregator@tls@@@std@@@std@@QBEPAU_Node@?$_List_nod@PAVRequestAndResponse@aggregator@tls@@V?$allocator@PAVRequestAndResponse@aggregator@tls@@@std@@@3@XZ 130345f0 f i packet_proc.obj
 0001:00033610       ?_Compat@?$_Const_iterator@$00@?$list@PAVRequestAndResponse@aggregator@tls@@V?$allocator@PAVRequestAndResponse@aggregator@tls@@@std@@@std@@QBEXABV123@@Z 13034610 f i packet_proc.obj
 0001:000336d0       ??0?$pair@V?$_Iterator@$00@?$list@U?$pair@$$CBIPAVRequestAndResponse@aggregator@tls@@@std@@V?$allocator@U?$pair@$$CBIPAVRequestAndResponse@aggregator@tls@@@std@@@2@@std@@_N@std@@QAE@ABV?$_Iterator@$00@?$list@U?$pair@$$CBIPAVRequestAndResponse@aggregator@tls@@@std@@V?$allocator@U?$pair@$$CBIPAVRequestAndResponse@aggregator@tls@@@std@@@2@@1@AB_N@Z 130346d0 f i packet_proc.obj
 0001:00033720       ??0?$pair@V?$_Iterator@$00@?$list@U?$pair@$$CBIPAVRequestAndResponse@aggregator@tls@@@std@@V?$allocator@U?$pair@$$CBIPAVRequestAndResponse@aggregator@tls@@@std@@@2@@std@@V123@@std@@QAE@ABV?$_Iterator@$00@?$list@U?$pair@$$CBIPAVRequestAndResponse@aggregator@tls@@@std@@V?$allocator@U?$pair@$$CBIPAVRequestAndResponse@aggregator@tls@@@std@@@2@@1@0@Z 13034720 f i packet_proc.obj
 0001:00033770       ??1?$_Vector_iterator@V?$_Iterator@$00@?$list@U?$pair@$$CBIPAVRequestAndResponse@aggregator@tls@@@std@@V?$allocator@U?$pair@$$CBIPAVRequestAndResponse@aggregator@tls@@@std@@@2@@std@@V?$allocator@V?$_Iterator@$00@?$list@U?$pair@$$CBIPAVRequestAndResponse@aggregator@tls@@@std@@V?$allocator@U?$pair@$$CBIPAVRequestAndResponse@aggregator@tls@@@std@@@2@@std@@@3@@std@@QAE@XZ 13034770 f i packet_proc.obj
 0001:000337a0       ??1?$_Vector_const_iterator@V?$_Iterator@$00@?$list@U?$pair@$$CBIPAVRequestAndResponse@aggregator@tls@@@std@@V?$allocator@U?$pair@$$CBIPAVRequestAndResponse@aggregator@tls@@@std@@@2@@std@@V?$allocator@V?$_Iterator@$00@?$list@U?$pair@$$CBIPAVRequestAndResponse@aggregator@tls@@@std@@V?$allocator@U?$pair@$$CBIPAVRequestAndResponse@aggregator@tls@@@std@@@2@@std@@@3@@std@@QAE@XZ 130347a0 f i packet_proc.obj
 0001:000337d0       ??1?$_Ranit@V?$_Iterator@$00@?$list@U?$pair@$$CBIPAVRequestAndResponse@aggregator@tls@@@std@@V?$allocator@U?$pair@$$CBIPAVRequestAndResponse@aggregator@tls@@@std@@@2@@std@@HPBV123@ABV123@@std@@QAE@XZ 130347d0 f i packet_proc.obj
 0001:00033800       ??R?$less@I@std@@QBE_NABI0@Z 13034800 f i packet_proc.obj
 0001:00033830       ?_Nextnode@?$list@U?$pair@$$CBIPAVRequestAndResponse@aggregator@tls@@@std@@V?$allocator@U?$pair@$$CBIPAVRequestAndResponse@aggregator@tls@@@std@@@2@@std@@KAAAPAU_Node@?$_List_nod@U?$pair@$$CBIPAVRequestAndResponse@aggregator@tls@@@std@@V?$allocator@U?$pair@$$CBIPAVRequestAndResponse@aggregator@tls@@@std@@@2@@2@PAU342@@Z 13034830 f i packet_proc.obj
 0001:00033840       ?_Prevnode@?$list@U?$pair@$$CBIPAVRequestAndResponse@aggregator@tls@@@std@@V?$allocator@U?$pair@$$CBIPAVRequestAndResponse@aggregator@tls@@@std@@@2@@std@@KAAAPAU_Node@?$_List_nod@U?$pair@$$CBIPAVRequestAndResponse@aggregator@tls@@@std@@V?$allocator@U?$pair@$$CBIPAVRequestAndResponse@aggregator@tls@@@std@@@2@@2@PAU342@@Z 13034840 f i packet_proc.obj
 0001:00033850       ?_Myval@?$list@U?$pair@$$CBIPAVRequestAndResponse@aggregator@tls@@@std@@V?$allocator@U?$pair@$$CBIPAVRequestAndResponse@aggregator@tls@@@std@@@2@@std@@KAAAU?$pair@$$CBIPAVRequestAndResponse@aggregator@tls@@@2@PAU_Node@?$_List_nod@U?$pair@$$CBIPAVRequestAndResponse@aggregator@tls@@@std@@V?$allocator@U?$pair@$$CBIPAVRequestAndResponse@aggregator@tls@@@std@@@2@@2@@Z 13034850 f i packet_proc.obj
 0001:00033860       ?begin@?$list@U?$pair@$$CBIPAVRequestAndResponse@aggregator@tls@@@std@@V?$allocator@U?$pair@$$CBIPAVRequestAndResponse@aggregator@tls@@@std@@@2@@std@@QAE?AV?$_Iterator@$00@12@XZ 13034860 f i packet_proc.obj
 0001:000338b0       ?size@?$list@U?$pair@$$CBIPAVRequestAndResponse@aggregator@tls@@@std@@V?$allocator@U?$pair@$$CBIPAVRequestAndResponse@aggregator@tls@@@std@@@2@@std@@QBEIXZ 130348b0 f i packet_proc.obj
 0001:000338d0       ?_Insert@?$list@U?$pair@$$CBIPAVRequestAndResponse@aggregator@tls@@@std@@V?$allocator@U?$pair@$$CBIPAVRequestAndResponse@aggregator@tls@@@std@@@2@@std@@QAEXV?$_Iterator@$00@12@ABU?$pair@$$CBIPAVRequestAndResponse@aggregator@tls@@@2@@Z 130348d0 f i packet_proc.obj
 0001:000339c0       ?erase@?$list@U?$pair@$$CBIPAVRequestAndResponse@aggregator@tls@@@std@@V?$allocator@U?$pair@$$CBIPAVRequestAndResponse@aggregator@tls@@@std@@@2@@std@@QAE?AV?$_Iterator@$00@12@V312@@Z 130349c0 f i packet_proc.obj
 0001:00033b40       ?erase@?$list@U?$pair@$$CBIPAVRequestAndResponse@aggregator@tls@@@std@@V?$allocator@U?$pair@$$CBIPAVRequestAndResponse@aggregator@tls@@@std@@@2@@std@@QAE?AV?$_Iterator@$00@12@V312@0@Z 13034b40 f i packet_proc.obj
 0001:00033cf0       ?clear@?$list@U?$pair@$$CBIPAVRequestAndResponse@aggregator@tls@@@std@@V?$allocator@U?$pair@$$CBIPAVRequestAndResponse@aggregator@tls@@@std@@@2@@std@@QAEXXZ 13034cf0 f i packet_proc.obj
 0001:00033df0       ?_Incsize@?$list@U?$pair@$$CBIPAVRequestAndResponse@aggregator@tls@@@std@@V?$allocator@U?$pair@$$CBIPAVRequestAndResponse@aggregator@tls@@@std@@@2@@std@@IAEXI@Z 13034df0 f i packet_proc.obj
 0001:00033e90       ?_Orphan_ptr@?$list@U?$pair@$$CBIPAVRequestAndResponse@aggregator@tls@@@std@@V?$allocator@U?$pair@$$CBIPAVRequestAndResponse@aggregator@tls@@@std@@@2@@std@@IBEXAAV12@PAU_Node@?$_List_nod@U?$pair@$$CBIPAVRequestAndResponse@aggregator@tls@@@std@@V?$allocator@U?$pair@$$CBIPAVRequestAndResponse@aggregator@tls@@@std@@@2@@2@@Z 13034e90 f i packet_proc.obj
 0001:00033f90       ?begin@?$vector@V?$_Iterator@$00@?$list@U?$pair@$$CBIPAVRequestAndResponse@aggregator@tls@@@std@@V?$allocator@U?$pair@$$CBIPAVRequestAndResponse@aggregator@tls@@@std@@@2@@std@@V?$allocator@V?$_Iterator@$00@?$list@U?$pair@$$CBIPAVRequestAndResponse@aggregator@tls@@@std@@V?$allocator@U?$pair@$$CBIPAVRequestAndResponse@aggregator@tls@@@std@@@2@@std@@@3@@std@@QAE?AV?$_Vector_iterator@V?$_Iterator@$00@?$list@U?$pair@$$CBIPAVRequestAndResponse@aggregator@tls@@@std@@V?$allocator@U?$pair@$$CBIPAVRequestAndResponse@aggregator@tls@@@std@@@2@@std@@V?$allocator@V?$_Iterator@$00@?$list@U?$pair@$$CBIPAVRequestAndResponse@aggregator@tls@@@std@@V?$allocator@U?$pair@$$CBIPAVRequestAndResponse@aggregator@tls@@@std@@@2@@std@@@3@@2@XZ 13034f90 f i packet_proc.obj
 0001:00033fe0       ?end@?$vector@V?$_Iterator@$00@?$list@U?$pair@$$CBIPAVRequestAndResponse@aggregator@tls@@@std@@V?$allocator@U?$pair@$$CBIPAVRequestAndResponse@aggregator@tls@@@std@@@2@@std@@V?$allocator@V?$_Iterator@$00@?$list@U?$pair@$$CBIPAVRequestAndResponse@aggregator@tls@@@std@@V?$allocator@U?$pair@$$CBIPAVRequestAndResponse@aggregator@tls@@@std@@@2@@std@@@3@@std@@QAE?AV?$_Vector_iterator@V?$_Iterator@$00@?$list@U?$pair@$$CBIPAVRequestAndResponse@aggregator@tls@@@std@@V?$allocator@U?$pair@$$CBIPAVRequestAndResponse@aggregator@tls@@@std@@@2@@std@@V?$allocator@V?$_Iterator@$00@?$list@U?$pair@$$CBIPAVRequestAndResponse@aggregator@tls@@@std@@V?$allocator@U?$pair@$$CBIPAVRequestAndResponse@aggregator@tls@@@std@@@2@@std@@@3@@2@XZ 13034fe0 f i packet_proc.obj
 0001:00034030       ?assign@?$vector@V?$_Iterator@$00@?$list@U?$pair@$$CBIPAVRequestAndResponse@aggregator@tls@@@std@@V?$allocator@U?$pair@$$CBIPAVRequestAndResponse@aggregator@tls@@@std@@@2@@std@@V?$allocator@V?$_Iterator@$00@?$list@U?$pair@$$CBIPAVRequestAndResponse@aggregator@tls@@@std@@V?$allocator@U?$pair@$$CBIPAVRequestAndResponse@aggregator@tls@@@std@@@2@@std@@@3@@std@@QAEXIABV?$_Iterator@$00@?$list@U?$pair@$$CBIPAVRequestAndResponse@aggregator@tls@@@std@@V?$allocator@U?$pair@$$CBIPAVRequestAndResponse@aggregator@tls@@@std@@@2@@2@@Z 13035030 f i packet_proc.obj
 0001:00034070       ?erase@?$vector@V?$_Iterator@$00@?$list@U?$pair@$$CBIPAVRequestAndResponse@aggregator@tls@@@std@@V?$allocator@U?$pair@$$CBIPAVRequestAndResponse@aggregator@tls@@@std@@@2@@std@@V?$allocator@V?$_Iterator@$00@?$list@U?$pair@$$CBIPAVRequestAndResponse@aggregator@tls@@@std@@V?$allocator@U?$pair@$$CBIPAVRequestAndResponse@aggregator@tls@@@std@@@2@@std@@@3@@std@@QAE?AV?$_Vector_iterator@V?$_Iterator@$00@?$list@U?$pair@$$CBIPAVRequestAndResponse@aggregator@tls@@@std@@V?$allocator@U?$pair@$$CBIPAVRequestAndResponse@aggregator@tls@@@std@@@2@@std@@V?$allocator@V?$_Iterator@$00@?$list@U?$pair@$$CBIPAVRequestAndResponse@aggregator@tls@@@std@@V?$allocator@U?$pair@$$CBIPAVRequestAndResponse@aggregator@tls@@@std@@@2@@std@@@3@@2@V32@0@Z 13035070 f i packet_proc.obj
 0001:000341a0       ?_Insert_n@?$vector@V?$_Iterator@$00@?$list@U?$pair@$$CBIPAVRequestAndResponse@aggregator@tls@@@std@@V?$allocator@U?$pair@$$CBIPAVRequestAndResponse@aggregator@tls@@@std@@@2@@std@@V?$allocator@V?$_Iterator@$00@?$list@U?$pair@$$CBIPAVRequestAndResponse@aggregator@tls@@@std@@V?$allocator@U?$pair@$$CBIPAVRequestAndResponse@aggregator@tls@@@std@@@2@@std@@@3@@std@@IAEXV?$_Vector_iterator@V?$_Iterator@$00@?$list@U?$pair@$$CBIPAVRequestAndResponse@aggregator@tls@@@std@@V?$allocator@U?$pair@$$CBIPAVRequestAndResponse@aggregator@tls@@@std@@@2@@std@@V?$allocator@V?$_Iterator@$00@?$list@U?$pair@$$CBIPAVRequestAndResponse@aggregator@tls@@@std@@V?$allocator@U?$pair@$$CBIPAVRequestAndResponse@aggregator@tls@@@std@@@2@@std@@@3@@2@IABV?$_Iterator@$00@?$list@U?$pair@$$CBIPAVRequestAndResponse@aggregator@tls@@@std@@V?$allocator@U?$pair@$$CBIPAVRequestAndResponse@aggregator@tls@@@std@@@2@@2@@Z 130351a0 f i packet_proc.obj
 0001:00034620       ?max_size@?$list@PAVRequestAndResponse@aggregator@tls@@V?$allocator@PAVRequestAndResponse@aggregator@tls@@@std@@@std@@QBEIXZ 13035620 f i packet_proc.obj
 0001:00034650       ?construct@?$allocator@PAVRequestAndResponse@aggregator@tls@@@std@@QAEXPAPAVRequestAndResponse@aggregator@tls@@ABQAV345@@Z 13035650 f i packet_proc.obj
 0001:00034690       ?allocate@?$allocator@U_Node@?$_List_nod@PAVRequestAndResponse@aggregator@tls@@V?$allocator@PAVRequestAndResponse@aggregator@tls@@@std@@@std@@@std@@QAEPAU_Node@?$_List_nod@PAVRequestAndResponse@aggregator@tls@@V?$allocator@PAVRequestAndResponse@aggregator@tls@@@std@@@2@I@Z 13035690 f i packet_proc.obj
 0001:000346d0       ?construct@?$allocator@PAU_Node@?$_List_nod@PAVRequestAndResponse@aggregator@tls@@V?$allocator@PAVRequestAndResponse@aggregator@tls@@@std@@@std@@@std@@QAEXPAPAU_Node@?$_List_nod@PAVRequestAndResponse@aggregator@tls@@V?$allocator@PAVRequestAndResponse@aggregator@tls@@@std@@@2@ABQAU342@@Z 130356d0 f i packet_proc.obj
 0001:00034710       ?destroy@?$allocator@PAU_Node@?$_List_nod@PAVRequestAndResponse@aggregator@tls@@V?$allocator@PAVRequestAndResponse@aggregator@tls@@@std@@@std@@@std@@QAEXPAPAU_Node@?$_List_nod@PAVRequestAndResponse@aggregator@tls@@V?$allocator@PAVRequestAndResponse@aggregator@tls@@@std@@@2@@Z 13035710 f i packet_proc.obj
 0001:00034750       ??0?$_Const_iterator@$00@?$list@U?$pair@$$CBIPAVRequestAndResponse@aggregator@tls@@@std@@V?$allocator@U?$pair@$$CBIPAVRequestAndResponse@aggregator@tls@@@std@@@2@@std@@QAE@XZ 13035750 f i packet_proc.obj
 0001:00034790       ??0?$_Const_iterator@$00@?$list@U?$pair@$$CBIPAVRequestAndResponse@aggregator@tls@@@std@@V?$allocator@U?$pair@$$CBIPAVRequestAndResponse@aggregator@tls@@@std@@@2@@std@@QAE@PAU_Node@?$_List_nod@U?$pair@$$CBIPAVRequestAndResponse@aggregator@tls@@@std@@V?$allocator@U?$pair@$$CBIPAVRequestAndResponse@aggregator@tls@@@std@@@2@@2@PBV12@@Z 13035790 f i packet_proc.obj
 0001:000347e0       ??E?$_Const_iterator@$00@?$list@U?$pair@$$CBIPAVRequestAndResponse@aggregator@tls@@@std@@V?$allocator@U?$pair@$$CBIPAVRequestAndResponse@aggregator@tls@@@std@@@2@@std@@QAEAAV012@XZ 130357e0 f i packet_proc.obj
 0001:000348c0       ??F?$_Const_iterator@$00@?$list@U?$pair@$$CBIPAVRequestAndResponse@aggregator@tls@@@std@@V?$allocator@U?$pair@$$CBIPAVRequestAndResponse@aggregator@tls@@@std@@@2@@std@@QAEAAV012@XZ 130358c0 f i packet_proc.obj
 0001:000349a0       ?_Mynode@?$_Const_iterator@$00@?$list@U?$pair@$$CBIPAVRequestAndResponse@aggregator@tls@@@std@@V?$allocator@U?$pair@$$CBIPAVRequestAndResponse@aggregator@tls@@@std@@@2@@std@@QBEPAU_Node@?$_List_nod@U?$pair@$$CBIPAVRequestAndResponse@aggregator@tls@@@std@@V?$allocator@U?$pair@$$CBIPAVRequestAndResponse@aggregator@tls@@@std@@@2@@3@XZ 130359a0 f i packet_proc.obj
 0001:000349c0       ??H?$_Vector_iterator@V?$_Iterator@$00@?$list@U?$pair@$$CBIPAVRequestAndResponse@aggregator@tls@@@std@@V?$allocator@U?$pair@$$CBIPAVRequestAndResponse@aggregator@tls@@@std@@@2@@std@@V?$allocator@V?$_Iterator@$00@?$list@U?$pair@$$CBIPAVRequestAndResponse@aggregator@tls@@@std@@V?$allocator@U?$pair@$$CBIPAVRequestAndResponse@aggregator@tls@@@std@@@2@@std@@@3@@std@@QBE?AV01@H@Z 130359c0 f i packet_proc.obj
 0001:00034a70       ??0?$_Bidit@U?$pair@$$CBIPAVRequestAndResponse@aggregator@tls@@@std@@HPBU12@ABU12@@std@@QAE@XZ 13035a70 f i packet_proc.obj
 0001:00034aa0       ??0?$_Vector_iterator@V?$_Iterator@$00@?$list@U?$pair@$$CBIPAVRequestAndResponse@aggregator@tls@@@std@@V?$allocator@U?$pair@$$CBIPAVRequestAndResponse@aggregator@tls@@@std@@@2@@std@@V?$allocator@V?$_Iterator@$00@?$list@U?$pair@$$CBIPAVRequestAndResponse@aggregator@tls@@@std@@V?$allocator@U?$pair@$$CBIPAVRequestAndResponse@aggregator@tls@@@std@@@2@@std@@@3@@std@@QAE@ABV01@@Z 13035aa0 f i packet_proc.obj
 0001:00034ae0       ??0?$_Vector_const_iterator@V?$_Iterator@$00@?$list@U?$pair@$$CBIPAVRequestAndResponse@aggregator@tls@@@std@@V?$allocator@U?$pair@$$CBIPAVRequestAndResponse@aggregator@tls@@@std@@@2@@std@@V?$allocator@V?$_Iterator@$00@?$list@U?$pair@$$CBIPAVRequestAndResponse@aggregator@tls@@@std@@V?$allocator@U?$pair@$$CBIPAVRequestAndResponse@aggregator@tls@@@std@@@2@@std@@@3@@std@@QAE@ABV01@@Z 13035ae0 f i packet_proc.obj
 0001:00034b30       ??0?$_Ranit@V?$_Iterator@$00@?$list@U?$pair@$$CBIPAVRequestAndResponse@aggregator@tls@@@std@@V?$allocator@U?$pair@$$CBIPAVRequestAndResponse@aggregator@tls@@@std@@@2@@std@@HPBV123@ABV123@@std@@QAE@ABU01@@Z 13035b30 f i packet_proc.obj
 0001:00034b70       ?max_size@?$list@U?$pair@$$CBIPAVRequestAndResponse@aggregator@tls@@@std@@V?$allocator@U?$pair@$$CBIPAVRequestAndResponse@aggregator@tls@@@std@@@2@@std@@QBEIXZ 13035b70 f i packet_proc.obj
 0001:00034ba0       ?_Buynode@?$list@U?$pair@$$CBIPAVRequestAndResponse@aggregator@tls@@@std@@V?$allocator@U?$pair@$$CBIPAVRequestAndResponse@aggregator@tls@@@std@@@2@@std@@IAEPAU_Node@?$_List_nod@U?$pair@$$CBIPAVRequestAndResponse@aggregator@tls@@@std@@V?$allocator@U?$pair@$$CBIPAVRequestAndResponse@aggregator@tls@@@std@@@2@@2@PAU342@0ABU?$pair@$$CBIPAVRequestAndResponse@aggregator@tls@@@2@@Z 13035ba0 f i packet_proc.obj
 0001:00034ce0       ?deallocate@?$allocator@U_Node@?$_List_nod@U?$pair@$$CBIPAVRequestAndResponse@aggregator@tls@@@std@@V?$allocator@U?$pair@$$CBIPAVRequestAndResponse@aggregator@tls@@@std@@@2@@std@@@std@@QAEXPAU_Node@?$_List_nod@U?$pair@$$CBIPAVRequestAndResponse@aggregator@tls@@@std@@V?$allocator@U?$pair@$$CBIPAVRequestAndResponse@aggregator@tls@@@std@@@2@@2@I@Z 13035ce0 f i packet_proc.obj
 0001:00034d20       ?destroy@?$allocator@U_Node@?$_List_nod@U?$pair@$$CBIPAVRequestAndResponse@aggregator@tls@@@std@@V?$allocator@U?$pair@$$CBIPAVRequestAndResponse@aggregator@tls@@@std@@@2@@std@@@std@@QAEXPAU_Node@?$_List_nod@U?$pair@$$CBIPAVRequestAndResponse@aggregator@tls@@@std@@V?$allocator@U?$pair@$$CBIPAVRequestAndResponse@aggregator@tls@@@std@@@2@@2@@Z 13035d20 f i packet_proc.obj
 0001:00034d60       ?capacity@?$vector@V?$_Iterator@$00@?$list@U?$pair@$$CBIPAVRequestAndResponse@aggregator@tls@@@std@@V?$allocator@U?$pair@$$CBIPAVRequestAndResponse@aggregator@tls@@@std@@@2@@std@@V?$allocator@V?$_Iterator@$00@?$list@U?$pair@$$CBIPAVRequestAndResponse@aggregator@tls@@@std@@V?$allocator@U?$pair@$$CBIPAVRequestAndResponse@aggregator@tls@@@std@@@2@@std@@@3@@std@@QBEIXZ 13035d60 f i packet_proc.obj
 0001:00034dc0       ?max_size@?$vector@V?$_Iterator@$00@?$list@U?$pair@$$CBIPAVRequestAndResponse@aggregator@tls@@@std@@V?$allocator@U?$pair@$$CBIPAVRequestAndResponse@aggregator@tls@@@std@@@2@@std@@V?$allocator@V?$_Iterator@$00@?$list@U?$pair@$$CBIPAVRequestAndResponse@aggregator@tls@@@std@@V?$allocator@U?$pair@$$CBIPAVRequestAndResponse@aggregator@tls@@@std@@@2@@std@@@3@@std@@QBEIXZ 13035dc0 f i packet_proc.obj
 0001:00034df0       ?_Assign_n@?$vector@V?$_Iterator@$00@?$list@U?$pair@$$CBIPAVRequestAndResponse@aggregator@tls@@@std@@V?$allocator@U?$pair@$$CBIPAVRequestAndResponse@aggregator@tls@@@std@@@2@@std@@V?$allocator@V?$_Iterator@$00@?$list@U?$pair@$$CBIPAVRequestAndResponse@aggregator@tls@@@std@@V?$allocator@U?$pair@$$CBIPAVRequestAndResponse@aggregator@tls@@@std@@@2@@std@@@3@@std@@IAEXIABV?$_Iterator@$00@?$list@U?$pair@$$CBIPAVRequestAndResponse@aggregator@tls@@@std@@V?$allocator@U?$pair@$$CBIPAVRequestAndResponse@aggregator@tls@@@std@@@2@@2@@Z 13035df0 f i packet_proc.obj
 0001:00034ee0       ?_Destroy@?$vector@V?$_Iterator@$00@?$list@U?$pair@$$CBIPAVRequestAndResponse@aggregator@tls@@@std@@V?$allocator@U?$pair@$$CBIPAVRequestAndResponse@aggregator@tls@@@std@@@2@@std@@V?$allocator@V?$_Iterator@$00@?$list@U?$pair@$$CBIPAVRequestAndResponse@aggregator@tls@@@std@@V?$allocator@U?$pair@$$CBIPAVRequestAndResponse@aggregator@tls@@@std@@@2@@std@@@3@@std@@IAEXPAV?$_Iterator@$00@?$list@U?$pair@$$CBIPAVRequestAndResponse@aggregator@tls@@@std@@V?$allocator@U?$pair@$$CBIPAVRequestAndResponse@aggregator@tls@@@std@@@2@@2@0@Z 13035ee0 f i packet_proc.obj
 0001:00034f30       ?_Ufill@?$vector@V?$_Iterator@$00@?$list@U?$pair@$$CBIPAVRequestAndResponse@aggregator@tls@@@std@@V?$allocator@U?$pair@$$CBIPAVRequestAndResponse@aggregator@tls@@@std@@@2@@std@@V?$allocator@V?$_Iterator@$00@?$list@U?$pair@$$CBIPAVRequestAndResponse@aggregator@tls@@@std@@V?$allocator@U?$pair@$$CBIPAVRequestAndResponse@aggregator@tls@@@std@@@2@@std@@@3@@std@@IAEPAV?$_Iterator@$00@?$list@U?$pair@$$CBIPAVRequestAndResponse@aggregator@tls@@@std@@V?$allocator@U?$pair@$$CBIPAVRequestAndResponse@aggregator@tls@@@std@@@2@@2@PAV342@IABV342@@Z 13035f30 f i packet_proc.obj
 0001:00034f90       ?_Xlen@?$vector@V?$_Iterator@$00@?$list@U?$pair@$$CBIPAVRequestAndResponse@aggregator@tls@@@std@@V?$allocator@U?$pair@$$CBIPAVRequestAndResponse@aggregator@tls@@@std@@@2@@std@@V?$allocator@V?$_Iterator@$00@?$list@U?$pair@$$CBIPAVRequestAndResponse@aggregator@tls@@@std@@V?$allocator@U?$pair@$$CBIPAVRequestAndResponse@aggregator@tls@@@std@@@2@@std@@@3@@std@@KAXXZ 13035f90 f i packet_proc.obj
 0001:00035000       ?_Orphan_range@?$vector@V?$_Iterator@$00@?$list@U?$pair@$$CBIPAVRequestAndResponse@aggregator@tls@@@std@@V?$allocator@U?$pair@$$CBIPAVRequestAndResponse@aggregator@tls@@@std@@@2@@std@@V?$allocator@V?$_Iterator@$00@?$list@U?$pair@$$CBIPAVRequestAndResponse@aggregator@tls@@@std@@V?$allocator@U?$pair@$$CBIPAVRequestAndResponse@aggregator@tls@@@std@@@2@@std@@@3@@std@@IBEXPAV?$_Iterator@$00@?$list@U?$pair@$$CBIPAVRequestAndResponse@aggregator@tls@@@std@@V?$allocator@U?$pair@$$CBIPAVRequestAndResponse@aggregator@tls@@@std@@@2@@2@0@Z 13036000 f i packet_proc.obj
 0001:000350f0       ?deallocate@?$allocator@V?$_Iterator@$00@?$list@U?$pair@$$CBIPAVRequestAndResponse@aggregator@tls@@@std@@V?$allocator@U?$pair@$$CBIPAVRequestAndResponse@aggregator@tls@@@std@@@2@@std@@@std@@QAEXPAV?$_Iterator@$00@?$list@U?$pair@$$CBIPAVRequestAndResponse@aggregator@tls@@@std@@V?$allocator@U?$pair@$$CBIPAVRequestAndResponse@aggregator@tls@@@std@@@2@@2@I@Z 130360f0 f i packet_proc.obj
 0001:00035130       ?allocate@?$allocator@V?$_Iterator@$00@?$list@U?$pair@$$CBIPAVRequestAndResponse@aggregator@tls@@@std@@V?$allocator@U?$pair@$$CBIPAVRequestAndResponse@aggregator@tls@@@std@@@2@@std@@@std@@QAEPAV?$_Iterator@$00@?$list@U?$pair@$$CBIPAVRequestAndResponse@aggregator@tls@@@std@@V?$allocator@U?$pair@$$CBIPAVRequestAndResponse@aggregator@tls@@@std@@@2@@2@I@Z 13036130 f i packet_proc.obj
 0001:00035170       ?max_size@?$allocator@PAVRequestAndResponse@aggregator@tls@@@std@@QBEIXZ 13036170 f i packet_proc.obj
 0001:000351d0       ??0?$_Vector_iterator@V?$_Iterator@$00@?$list@U?$pair@$$CBIPAVRequestAndResponse@aggregator@tls@@@std@@V?$allocator@U?$pair@$$CBIPAVRequestAndResponse@aggregator@tls@@@std@@@2@@std@@V?$allocator@V?$_Iterator@$00@?$list@U?$pair@$$CBIPAVRequestAndResponse@aggregator@tls@@@std@@V?$allocator@U?$pair@$$CBIPAVRequestAndResponse@aggregator@tls@@@std@@@2@@std@@@3@@std@@QAE@PAV?$_Iterator@$00@?$list@U?$pair@$$CBIPAVRequestAndResponse@aggregator@tls@@@std@@V?$allocator@U?$pair@$$CBIPAVRequestAndResponse@aggregator@tls@@@std@@@2@@1@PBV_Container_base@1@@Z 130361d0 f i packet_proc.obj
 0001:00035210       ??Y?$_Vector_iterator@V?$_Iterator@$00@?$list@U?$pair@$$CBIPAVRequestAndResponse@aggregator@tls@@@std@@V?$allocator@U?$pair@$$CBIPAVRequestAndResponse@aggregator@tls@@@std@@@2@@std@@V?$allocator@V?$_Iterator@$00@?$list@U?$pair@$$CBIPAVRequestAndResponse@aggregator@tls@@@std@@V?$allocator@U?$pair@$$CBIPAVRequestAndResponse@aggregator@tls@@@std@@@2@@std@@@3@@std@@QAEAAV01@H@Z 13036210 f i packet_proc.obj
 0001:00035250       ??9?$_Vector_const_iterator@V?$_Iterator@$00@?$list@U?$pair@$$CBIPAVRequestAndResponse@aggregator@tls@@@std@@V?$allocator@U?$pair@$$CBIPAVRequestAndResponse@aggregator@tls@@@std@@@2@@std@@V?$allocator@V?$_Iterator@$00@?$list@U?$pair@$$CBIPAVRequestAndResponse@aggregator@tls@@@std@@V?$allocator@U?$pair@$$CBIPAVRequestAndResponse@aggregator@tls@@@std@@@2@@std@@@3@@std@@QBE_NABV01@@Z 13036250 f i packet_proc.obj
 0001:000352a0       ??M?$_Vector_const_iterator@V?$_Iterator@$00@?$list@U?$pair@$$CBIPAVRequestAndResponse@aggregator@tls@@@std@@V?$allocator@U?$pair@$$CBIPAVRequestAndResponse@aggregator@tls@@@std@@@2@@std@@V?$allocator@V?$_Iterator@$00@?$list@U?$pair@$$CBIPAVRequestAndResponse@aggregator@tls@@@std@@V?$allocator@U?$pair@$$CBIPAVRequestAndResponse@aggregator@tls@@@std@@@2@@std@@@3@@std@@QBE_NABV01@@Z 130362a0 f i packet_proc.obj
 0001:000352f0       ?construct@?$allocator@U?$pair@$$CBIPAVRequestAndResponse@aggregator@tls@@@std@@@std@@QAEXPAU?$pair@$$CBIPAVRequestAndResponse@aggregator@tls@@@2@ABU32@@Z 130362f0 f i packet_proc.obj
 0001:00035330       ?max_size@?$allocator@U?$pair@$$CBIPAVRequestAndResponse@aggregator@tls@@@std@@@std@@QBEIXZ 13036330 f i packet_proc.obj
 0001:00035390       ?allocate@?$allocator@U_Node@?$_List_nod@U?$pair@$$CBIPAVRequestAndResponse@aggregator@tls@@@std@@V?$allocator@U?$pair@$$CBIPAVRequestAndResponse@aggregator@tls@@@std@@@2@@std@@@std@@QAEPAU_Node@?$_List_nod@U?$pair@$$CBIPAVRequestAndResponse@aggregator@tls@@@std@@V?$allocator@U?$pair@$$CBIPAVRequestAndResponse@aggregator@tls@@@std@@@2@@2@I@Z 13036390 f i packet_proc.obj
 0001:000353d0       ?construct@?$allocator@PAU_Node@?$_List_nod@U?$pair@$$CBIPAVRequestAndResponse@aggregator@tls@@@std@@V?$allocator@U?$pair@$$CBIPAVRequestAndResponse@aggregator@tls@@@std@@@2@@std@@@std@@QAEXPAPAU_Node@?$_List_nod@U?$pair@$$CBIPAVRequestAndResponse@aggregator@tls@@@std@@V?$allocator@U?$pair@$$CBIPAVRequestAndResponse@aggregator@tls@@@std@@@2@@2@ABQAU342@@Z 130363d0 f i packet_proc.obj
 0001:00035410       ?destroy@?$allocator@PAU_Node@?$_List_nod@U?$pair@$$CBIPAVRequestAndResponse@aggregator@tls@@@std@@V?$allocator@U?$pair@$$CBIPAVRequestAndResponse@aggregator@tls@@@std@@@2@@std@@@std@@QAEXPAPAU_Node@?$_List_nod@U?$pair@$$CBIPAVRequestAndResponse@aggregator@tls@@@std@@V?$allocator@U?$pair@$$CBIPAVRequestAndResponse@aggregator@tls@@@std@@@2@@2@@Z 13036410 f i packet_proc.obj
 0001:00035450       ?insert@?$vector@V?$_Iterator@$00@?$list@U?$pair@$$CBIPAVRequestAndResponse@aggregator@tls@@@std@@V?$allocator@U?$pair@$$CBIPAVRequestAndResponse@aggregator@tls@@@std@@@2@@std@@V?$allocator@V?$_Iterator@$00@?$list@U?$pair@$$CBIPAVRequestAndResponse@aggregator@tls@@@std@@V?$allocator@U?$pair@$$CBIPAVRequestAndResponse@aggregator@tls@@@std@@@2@@std@@@3@@std@@QAEXV?$_Vector_iterator@V?$_Iterator@$00@?$list@U?$pair@$$CBIPAVRequestAndResponse@aggregator@tls@@@std@@V?$allocator@U?$pair@$$CBIPAVRequestAndResponse@aggregator@tls@@@std@@@2@@std@@V?$allocator@V?$_Iterator@$00@?$list@U?$pair@$$CBIPAVRequestAndResponse@aggregator@tls@@@std@@V?$allocator@U?$pair@$$CBIPAVRequestAndResponse@aggregator@tls@@@std@@@2@@std@@@3@@2@IABV?$_Iterator@$00@?$list@U?$pair@$$CBIPAVRequestAndResponse@aggregator@tls@@@std@@V?$allocator@U?$pair@$$CBIPAVRequestAndResponse@aggregator@tls@@@std@@@2@@2@@Z 13036450 f i packet_proc.obj
 0001:000354b0       ?max_size@?$allocator@V?$_Iterator@$00@?$list@U?$pair@$$CBIPAVRequestAndResponse@aggregator@tls@@@std@@V?$allocator@U?$pair@$$CBIPAVRequestAndResponse@aggregator@tls@@@std@@@2@@std@@@std@@QBEIXZ 130364b0 f i packet_proc.obj
 0001:00035510       ??0?$_Vector_const_iterator@V?$_Iterator@$00@?$list@U?$pair@$$CBIPAVRequestAndResponse@aggregator@tls@@@std@@V?$allocator@U?$pair@$$CBIPAVRequestAndResponse@aggregator@tls@@@std@@@2@@std@@V?$allocator@V?$_Iterator@$00@?$list@U?$pair@$$CBIPAVRequestAndResponse@aggregator@tls@@@std@@V?$allocator@U?$pair@$$CBIPAVRequestAndResponse@aggregator@tls@@@std@@@2@@std@@@3@@std@@QAE@PAV?$_Iterator@$00@?$list@U?$pair@$$CBIPAVRequestAndResponse@aggregator@tls@@@std@@V?$allocator@U?$pair@$$CBIPAVRequestAndResponse@aggregator@tls@@@std@@@2@@1@PBV_Container_base@1@@Z 13036510 f i packet_proc.obj
 0001:000355d0       ??Y?$_Vector_const_iterator@V?$_Iterator@$00@?$list@U?$pair@$$CBIPAVRequestAndResponse@aggregator@tls@@@std@@V?$allocator@U?$pair@$$CBIPAVRequestAndResponse@aggregator@tls@@@std@@@2@@std@@V?$allocator@V?$_Iterator@$00@?$list@U?$pair@$$CBIPAVRequestAndResponse@aggregator@tls@@@std@@V?$allocator@U?$pair@$$CBIPAVRequestAndResponse@aggregator@tls@@@std@@@2@@std@@@3@@std@@QAEAAV01@H@Z 130365d0 f i packet_proc.obj
 0001:00035700       ??8?$_Vector_const_iterator@V?$_Iterator@$00@?$list@U?$pair@$$CBIPAVRequestAndResponse@aggregator@tls@@@std@@V?$allocator@U?$pair@$$CBIPAVRequestAndResponse@aggregator@tls@@@std@@@2@@std@@V?$allocator@V?$_Iterator@$00@?$list@U?$pair@$$CBIPAVRequestAndResponse@aggregator@tls@@@std@@V?$allocator@U?$pair@$$CBIPAVRequestAndResponse@aggregator@tls@@@std@@@2@@std@@@3@@std@@QBE_NABV01@@Z 13036700 f i packet_proc.obj
 0001:00035750       ?_Compat@?$_Vector_const_iterator@V?$_Iterator@$00@?$list@U?$pair@$$CBIPAVRequestAndResponse@aggregator@tls@@@std@@V?$allocator@U?$pair@$$CBIPAVRequestAndResponse@aggregator@tls@@@std@@@2@@std@@V?$allocator@V?$_Iterator@$00@?$list@U?$pair@$$CBIPAVRequestAndResponse@aggregator@tls@@@std@@V?$allocator@U?$pair@$$CBIPAVRequestAndResponse@aggregator@tls@@@std@@@2@@std@@@3@@std@@QBEXABV12@@Z 13036750 f i packet_proc.obj
 0001:00035800       ??0?$_Ranit@V?$_Iterator@$00@?$list@U?$pair@$$CBIPAVRequestAndResponse@aggregator@tls@@@std@@V?$allocator@U?$pair@$$CBIPAVRequestAndResponse@aggregator@tls@@@std@@@2@@std@@HPBV123@ABV123@@std@@QAE@XZ 13036800 f i packet_proc.obj
 0001:00035830       ??$_Distance@V?$_Iterator@$00@?$list@U?$pair@$$CBIPAVRequestAndResponse@aggregator@tls@@@std@@V?$allocator@U?$pair@$$CBIPAVRequestAndResponse@aggregator@tls@@@std@@@2@@std@@I@std@@YAXV?$_Iterator@$00@?$list@U?$pair@$$CBIPAVRequestAndResponse@aggregator@tls@@@std@@V?$allocator@U?$pair@$$CBIPAVRequestAndResponse@aggregator@tls@@@std@@@2@@0@0AAI@Z 13036830 f i packet_proc.obj
 0001:000358d0       ??$_Debug_range@V?$_Iterator@$00@?$list@U?$pair@$$CBIPAVRequestAndResponse@aggregator@tls@@@std@@V?$allocator@U?$pair@$$CBIPAVRequestAndResponse@aggregator@tls@@@std@@@2@@std@@@std@@YAXV?$_Iterator@$00@?$list@U?$pair@$$CBIPAVRequestAndResponse@aggregator@tls@@@std@@V?$allocator@U?$pair@$$CBIPAVRequestAndResponse@aggregator@tls@@@std@@@2@@0@0PB_WI@Z 130368d0 f i packet_proc.obj
 0001:00035970       ??$_Destroy@U_Node@?$_List_nod@PAVRequestAndResponse@aggregator@tls@@V?$allocator@PAVRequestAndResponse@aggregator@tls@@@std@@@std@@@std@@YAXPAU_Node@?$_List_nod@PAVRequestAndResponse@aggregator@tls@@V?$allocator@PAVRequestAndResponse@aggregator@tls@@@std@@@0@@Z 13036970 f i packet_proc.obj
 0001:00035980       ??$hash_value@I@stdext@@YAIABI@Z 13036980 f i packet_proc.obj
 0001:000359a0       ??$?8U?$pair@$$CBIPAVRequestAndResponse@aggregator@tls@@@std@@U01@@std@@YA_NABV?$allocator@U?$pair@$$CBIPAVRequestAndResponse@aggregator@tls@@@std@@@0@0@Z 130369a0 f i packet_proc.obj
 0001:000359b0       ??$insert@V?$_Iterator@$00@?$list@U?$pair@$$CBIPAVRequestAndResponse@aggregator@tls@@@std@@V?$allocator@U?$pair@$$CBIPAVRequestAndResponse@aggregator@tls@@@std@@@2@@std@@@?$list@U?$pair@$$CBIPAVRequestAndResponse@aggregator@tls@@@std@@V?$allocator@U?$pair@$$CBIPAVRequestAndResponse@aggregator@tls@@@std@@@2@@std@@QAEXV?$_Iterator@$00@01@00@Z 130369b0 f i packet_proc.obj
 0001:00035a60       ??$unchecked_copy@PAV?$_Iterator@$00@?$list@U?$pair@$$CBIPAVRequestAndResponse@aggregator@tls@@@std@@V?$allocator@U?$pair@$$CBIPAVRequestAndResponse@aggregator@tls@@@std@@@2@@std@@PAV123@@stdext@@YAPAV?$_Iterator@$00@?$list@U?$pair@$$CBIPAVRequestAndResponse@aggregator@tls@@@std@@V?$allocator@U?$pair@$$CBIPAVRequestAndResponse@aggregator@tls@@@std@@@2@@std@@PAV123@00@Z 13036a60 f i packet_proc.obj
 0001:00035b00       ??$_Umove@PAV?$_Iterator@$00@?$list@U?$pair@$$CBIPAVRequestAndResponse@aggregator@tls@@@std@@V?$allocator@U?$pair@$$CBIPAVRequestAndResponse@aggregator@tls@@@std@@@2@@std@@@?$vector@V?$_Iterator@$00@?$list@U?$pair@$$CBIPAVRequestAndResponse@aggregator@tls@@@std@@V?$allocator@U?$pair@$$CBIPAVRequestAndResponse@aggregator@tls@@@std@@@2@@std@@V?$allocator@V?$_Iterator@$00@?$list@U?$pair@$$CBIPAVRequestAndResponse@aggregator@tls@@@std@@V?$allocator@U?$pair@$$CBIPAVRequestAndResponse@aggregator@tls@@@std@@@2@@std@@@3@@std@@IAEPAV?$_Iterator@$00@?$list@U?$pair@$$CBIPAVRequestAndResponse@aggregator@tls@@@std@@V?$allocator@U?$pair@$$CBIPAVRequestAndResponse@aggregator@tls@@@std@@@2@@1@PAV231@00@Z 13036b00 f i packet_proc.obj
 0001:00035b50       ??$fill@PAV?$_Iterator@$00@?$list@U?$pair@$$CBIPAVRequestAndResponse@aggregator@tls@@@std@@V?$allocator@U?$pair@$$CBIPAVRequestAndResponse@aggregator@tls@@@std@@@2@@std@@V123@@std@@YAXPAV?$_Iterator@$00@?$list@U?$pair@$$CBIPAVRequestAndResponse@aggregator@tls@@@std@@V?$allocator@U?$pair@$$CBIPAVRequestAndResponse@aggregator@tls@@@std@@@2@@0@0ABV120@@Z 13036b50 f i packet_proc.obj
 0001:00035b90       ??$_Unchecked_move_backward@PAV?$_Iterator@$00@?$list@U?$pair@$$CBIPAVRequestAndResponse@aggregator@tls@@@std@@V?$allocator@U?$pair@$$CBIPAVRequestAndResponse@aggregator@tls@@@std@@@2@@std@@PAV123@@stdext@@YAPAV?$_Iterator@$00@?$list@U?$pair@$$CBIPAVRequestAndResponse@aggregator@tls@@@std@@V?$allocator@U?$pair@$$CBIPAVRequestAndResponse@aggregator@tls@@@std@@@2@@std@@PAV123@00@Z 13036b90 f i packet_proc.obj
 0001:00035c20       ??$_Construct@PAVRequestAndResponse@aggregator@tls@@PAV123@@std@@YAXPAPAVRequestAndResponse@aggregator@tls@@ABQAV123@@Z 13036c20 f i packet_proc.obj
 0001:00035ca0       ??$_Allocate@U_Node@?$_List_nod@PAVRequestAndResponse@aggregator@tls@@V?$allocator@PAVRequestAndResponse@aggregator@tls@@@std@@@std@@@std@@YAPAU_Node@?$_List_nod@PAVRequestAndResponse@aggregator@tls@@V?$allocator@PAVRequestAndResponse@aggregator@tls@@@std@@@0@IPAU120@@Z 13036ca0 f i packet_proc.obj
 0001:00035d20       ??$_Construct@PAU_Node@?$_List_nod@PAVRequestAndResponse@aggregator@tls@@V?$allocator@PAVRequestAndResponse@aggregator@tls@@@std@@@std@@PAU123@@std@@YAXPAPAU_Node@?$_List_nod@PAVRequestAndResponse@aggregator@tls@@V?$allocator@PAVRequestAndResponse@aggregator@tls@@@std@@@0@ABQAU120@@Z 13036d20 f i packet_proc.obj
 0001:00035da0       ??$_Destroy@PAU_Node@?$_List_nod@PAVRequestAndResponse@aggregator@tls@@V?$allocator@PAVRequestAndResponse@aggregator@tls@@@std@@@std@@@std@@YAXPAPAU_Node@?$_List_nod@PAVRequestAndResponse@aggregator@tls@@V?$allocator@PAVRequestAndResponse@aggregator@tls@@@std@@@0@@Z 13036da0 f i packet_proc.obj
 0001:00035db0       ??$_Destroy@U_Node@?$_List_nod@U?$pair@$$CBIPAVRequestAndResponse@aggregator@tls@@@std@@V?$allocator@U?$pair@$$CBIPAVRequestAndResponse@aggregator@tls@@@std@@@2@@std@@@std@@YAXPAU_Node@?$_List_nod@U?$pair@$$CBIPAVRequestAndResponse@aggregator@tls@@@std@@V?$allocator@U?$pair@$$CBIPAVRequestAndResponse@aggregator@tls@@@std@@@2@@0@@Z 13036db0 f i packet_proc.obj
 0001:00035dc0       ??$_Destroy_range@V?$_Iterator@$00@?$list@U?$pair@$$CBIPAVRequestAndResponse@aggregator@tls@@@std@@V?$allocator@U?$pair@$$CBIPAVRequestAndResponse@aggregator@tls@@@std@@@2@@std@@V?$allocator@V?$_Iterator@$00@?$list@U?$pair@$$CBIPAVRequestAndResponse@aggregator@tls@@@std@@V?$allocator@U?$pair@$$CBIPAVRequestAndResponse@aggregator@tls@@@std@@@2@@std@@@3@@std@@YAXPAV?$_Iterator@$00@?$list@U?$pair@$$CBIPAVRequestAndResponse@aggregator@tls@@@std@@V?$allocator@U?$pair@$$CBIPAVRequestAndResponse@aggregator@tls@@@std@@@2@@0@0AAV?$allocator@V?$_Iterator@$00@?$list@U?$pair@$$CBIPAVRequestAndResponse@aggregator@tls@@@std@@V?$allocator@U?$pair@$$CBIPAVRequestAndResponse@aggregator@tls@@@std@@@2@@std@@@0@@Z 13036dc0 f i packet_proc.obj
 0001:00035e20       ??$unchecked_uninitialized_fill_n@PAV?$_Iterator@$00@?$list@U?$pair@$$CBIPAVRequestAndResponse@aggregator@tls@@@std@@V?$allocator@U?$pair@$$CBIPAVRequestAndResponse@aggregator@tls@@@std@@@2@@std@@IV123@V?$allocator@V?$_Iterator@$00@?$list@U?$pair@$$CBIPAVRequestAndResponse@aggregator@tls@@@std@@V?$allocator@U?$pair@$$CBIPAVRequestAndResponse@aggregator@tls@@@std@@@2@@std@@@3@@stdext@@YAXPAV?$_Iterator@$00@?$list@U?$pair@$$CBIPAVRequestAndResponse@aggregator@tls@@@std@@V?$allocator@U?$pair@$$CBIPAVRequestAndResponse@aggregator@tls@@@std@@@2@@std@@IABV123@AAV?$allocator@V?$_Iterator@$00@?$list@U?$pair@$$CBIPAVRequestAndResponse@aggregator@tls@@@std@@V?$allocator@U?$pair@$$CBIPAVRequestAndResponse@aggregator@tls@@@std@@@2@@std@@@3@@Z 13036e20 f i packet_proc.obj
 0001:00035e90       ??$_Allocate@V?$_Iterator@$00@?$list@U?$pair@$$CBIPAVRequestAndResponse@aggregator@tls@@@std@@V?$allocator@U?$pair@$$CBIPAVRequestAndResponse@aggregator@tls@@@std@@@2@@std@@@std@@YAPAV?$_Iterator@$00@?$list@U?$pair@$$CBIPAVRequestAndResponse@aggregator@tls@@@std@@V?$allocator@U?$pair@$$CBIPAVRequestAndResponse@aggregator@tls@@@std@@@2@@0@IPAV120@@Z 13036e90 f i packet_proc.obj
 0001:00035f10       ??$_Construct@U?$pair@$$CBIPAVRequestAndResponse@aggregator@tls@@@std@@U12@@std@@YAXPAU?$pair@$$CBIPAVRequestAndResponse@aggregator@tls@@@0@ABU10@@Z 13036f10 f i packet_proc.obj
 0001:00035f90       ??$_Allocate@U_Node@?$_List_nod@U?$pair@$$CBIPAVRequestAndResponse@aggregator@tls@@@std@@V?$allocator@U?$pair@$$CBIPAVRequestAndResponse@aggregator@tls@@@std@@@2@@std@@@std@@YAPAU_Node@?$_List_nod@U?$pair@$$CBIPAVRequestAndResponse@aggregator@tls@@@std@@V?$allocator@U?$pair@$$CBIPAVRequestAndResponse@aggregator@tls@@@std@@@2@@0@IPAU120@@Z 13036f90 f i packet_proc.obj
 0001:00036010       ??$_Construct@PAU_Node@?$_List_nod@U?$pair@$$CBIPAVRequestAndResponse@aggregator@tls@@@std@@V?$allocator@U?$pair@$$CBIPAVRequestAndResponse@aggregator@tls@@@std@@@2@@std@@PAU123@@std@@YAXPAPAU_Node@?$_List_nod@U?$pair@$$CBIPAVRequestAndResponse@aggregator@tls@@@std@@V?$allocator@U?$pair@$$CBIPAVRequestAndResponse@aggregator@tls@@@std@@@2@@0@ABQAU120@@Z 13037010 f i packet_proc.obj
 0001:00036090       ??$_Destroy@PAU_Node@?$_List_nod@U?$pair@$$CBIPAVRequestAndResponse@aggregator@tls@@@std@@V?$allocator@U?$pair@$$CBIPAVRequestAndResponse@aggregator@tls@@@std@@@2@@std@@@std@@YAXPAPAU_Node@?$_List_nod@U?$pair@$$CBIPAVRequestAndResponse@aggregator@tls@@@std@@V?$allocator@U?$pair@$$CBIPAVRequestAndResponse@aggregator@tls@@@std@@@2@@0@@Z 13037090 f i packet_proc.obj
 0001:000360a0       ??$_Iter_cat@V?$_Iterator@$00@?$list@U?$pair@$$CBIPAVRequestAndResponse@aggregator@tls@@@std@@V?$allocator@U?$pair@$$CBIPAVRequestAndResponse@aggregator@tls@@@std@@@2@@std@@@std@@YA?AUbidirectional_iterator_tag@0@ABV?$_Iterator@$00@?$list@U?$pair@$$CBIPAVRequestAndResponse@aggregator@tls@@@std@@V?$allocator@U?$pair@$$CBIPAVRequestAndResponse@aggregator@tls@@@std@@@2@@0@@Z 130370a0 f i packet_proc.obj
 0001:00036100       ??$_Distance2@V?$_Iterator@$00@?$list@U?$pair@$$CBIPAVRequestAndResponse@aggregator@tls@@@std@@V?$allocator@U?$pair@$$CBIPAVRequestAndResponse@aggregator@tls@@@std@@@2@@std@@I@std@@YAXV?$_Iterator@$00@?$list@U?$pair@$$CBIPAVRequestAndResponse@aggregator@tls@@@std@@V?$allocator@U?$pair@$$CBIPAVRequestAndResponse@aggregator@tls@@@std@@@2@@0@0AAIUbidirectional_iterator_tag@0@@Z 13037100 f i packet_proc.obj
 0001:00036160       ??$_Debug_range2@V?$_Iterator@$00@?$list@U?$pair@$$CBIPAVRequestAndResponse@aggregator@tls@@@std@@V?$allocator@U?$pair@$$CBIPAVRequestAndResponse@aggregator@tls@@@std@@@2@@std@@@std@@YAXV?$_Iterator@$00@?$list@U?$pair@$$CBIPAVRequestAndResponse@aggregator@tls@@@std@@V?$allocator@U?$pair@$$CBIPAVRequestAndResponse@aggregator@tls@@@std@@@2@@0@0PB_WIUinput_iterator_tag@0@@Z 13037160 f i packet_proc.obj
 0001:00036190       ??$_Insert@V?$_Iterator@$00@?$list@U?$pair@$$CBIPAVRequestAndResponse@aggregator@tls@@@std@@V?$allocator@U?$pair@$$CBIPAVRequestAndResponse@aggregator@tls@@@std@@@2@@std@@@?$list@U?$pair@$$CBIPAVRequestAndResponse@aggregator@tls@@@std@@V?$allocator@U?$pair@$$CBIPAVRequestAndResponse@aggregator@tls@@@std@@@2@@std@@QAEXV?$_Iterator@$00@01@00Uforward_iterator_tag@1@@Z 13037190 f i packet_proc.obj
 0001:00036380       ??$_Checked_base@PAV?$_Iterator@$00@?$list@U?$pair@$$CBIPAVRequestAndResponse@aggregator@tls@@@std@@V?$allocator@U?$pair@$$CBIPAVRequestAndResponse@aggregator@tls@@@std@@@2@@std@@@std@@YAPAV?$_Iterator@$00@?$list@U?$pair@$$CBIPAVRequestAndResponse@aggregator@tls@@@std@@V?$allocator@U?$pair@$$CBIPAVRequestAndResponse@aggregator@tls@@@std@@@2@@0@AAPAV120@@Z 13037380 f i packet_proc.obj
 0001:00036410       ??$_Iter_random@PAV?$_Iterator@$00@?$list@U?$pair@$$CBIPAVRequestAndResponse@aggregator@tls@@@std@@V?$allocator@U?$pair@$$CBIPAVRequestAndResponse@aggregator@tls@@@std@@@2@@std@@PAV123@@std@@YA?AUrandom_access_iterator_tag@0@ABQAV?$_Iterator@$00@?$list@U?$pair@$$CBIPAVRequestAndResponse@aggregator@tls@@@std@@V?$allocator@U?$pair@$$CBIPAVRequestAndResponse@aggregator@tls@@@std@@@2@@0@0@Z 13037410 f i packet_proc.obj
 0001:00036470       ??$_Ptr_cat@PAV?$_Iterator@$00@?$list@U?$pair@$$CBIPAVRequestAndResponse@aggregator@tls@@@std@@V?$allocator@U?$pair@$$CBIPAVRequestAndResponse@aggregator@tls@@@std@@@2@@std@@PAV123@@std@@YA?AU_Nonscalar_ptr_iterator_tag@0@AAPAV?$_Iterator@$00@?$list@U?$pair@$$CBIPAVRequestAndResponse@aggregator@tls@@@std@@V?$allocator@U?$pair@$$CBIPAVRequestAndResponse@aggregator@tls@@@std@@@2@@0@0@Z 13037470 f i packet_proc.obj
 0001:000364d0       ??$_Copy_opt@PAV?$_Iterator@$00@?$list@U?$pair@$$CBIPAVRequestAndResponse@aggregator@tls@@@std@@V?$allocator@U?$pair@$$CBIPAVRequestAndResponse@aggregator@tls@@@std@@@2@@std@@PAV123@@std@@YAPAV?$_Iterator@$00@?$list@U?$pair@$$CBIPAVRequestAndResponse@aggregator@tls@@@std@@V?$allocator@U?$pair@$$CBIPAVRequestAndResponse@aggregator@tls@@@std@@@2@@0@PAV120@00Urandom_access_iterator_tag@0@U_Nonscalar_ptr_iterator_tag@0@U_Range_checked_iterator_tag@0@@Z 130374d0 f i packet_proc.obj
 0001:00036560       ??$_Unchecked_uninitialized_move@PAV?$_Iterator@$00@?$list@U?$pair@$$CBIPAVRequestAndResponse@aggregator@tls@@@std@@V?$allocator@U?$pair@$$CBIPAVRequestAndResponse@aggregator@tls@@@std@@@2@@std@@PAV123@V?$allocator@V?$_Iterator@$00@?$list@U?$pair@$$CBIPAVRequestAndResponse@aggregator@tls@@@std@@V?$allocator@U?$pair@$$CBIPAVRequestAndResponse@aggregator@tls@@@std@@@2@@std@@@3@@stdext@@YAPAV?$_Iterator@$00@?$list@U?$pair@$$CBIPAVRequestAndResponse@aggregator@tls@@@std@@V?$allocator@U?$pair@$$CBIPAVRequestAndResponse@aggregator@tls@@@std@@@2@@std@@PAV123@00AAV?$allocator@V?$_Iterator@$00@?$list@U?$pair@$$CBIPAVRequestAndResponse@aggregator@tls@@@std@@V?$allocator@U?$pair@$$CBIPAVRequestAndResponse@aggregator@tls@@@std@@@2@@std@@@3@@Z 13037560 f i packet_proc.obj
 0001:000365e0       ??$_Fill@PAV?$_Iterator@$00@?$list@U?$pair@$$CBIPAVRequestAndResponse@aggregator@tls@@@std@@V?$allocator@U?$pair@$$CBIPAVRequestAndResponse@aggregator@tls@@@std@@@2@@std@@V123@@std@@YAXPAV?$_Iterator@$00@?$list@U?$pair@$$CBIPAVRequestAndResponse@aggregator@tls@@@std@@V?$allocator@U?$pair@$$CBIPAVRequestAndResponse@aggregator@tls@@@std@@@2@@0@0ABV120@@Z 130375e0 f i packet_proc.obj
 0001:00036640       ??$_Move_cat@PAV?$_Iterator@$00@?$list@U?$pair@$$CBIPAVRequestAndResponse@aggregator@tls@@@std@@V?$allocator@U?$pair@$$CBIPAVRequestAndResponse@aggregator@tls@@@std@@@2@@std@@@std@@YA?AU_Undefined_move_tag@0@ABQAV?$_Iterator@$00@?$list@U?$pair@$$CBIPAVRequestAndResponse@aggregator@tls@@@std@@V?$allocator@U?$pair@$$CBIPAVRequestAndResponse@aggregator@tls@@@std@@@2@@0@@Z 13037640 f i packet_proc.obj
 0001:000366a0       ??$_Move_backward_opt@PAV?$_Iterator@$00@?$list@U?$pair@$$CBIPAVRequestAndResponse@aggregator@tls@@@std@@V?$allocator@U?$pair@$$CBIPAVRequestAndResponse@aggregator@tls@@@std@@@2@@std@@PAV123@Urandom_access_iterator_tag@3@U_Undefined_move_tag@3@@std@@YAPAV?$_Iterator@$00@?$list@U?$pair@$$CBIPAVRequestAndResponse@aggregator@tls@@@std@@V?$allocator@U?$pair@$$CBIPAVRequestAndResponse@aggregator@tls@@@std@@@2@@0@PAV120@00Urandom_access_iterator_tag@0@U_Undefined_move_tag@0@U_Range_checked_iterator_tag@0@@Z 130376a0 f i packet_proc.obj
 0001:00036710       ??$_Destroy_range@V?$_Iterator@$00@?$list@U?$pair@$$CBIPAVRequestAndResponse@aggregator@tls@@@std@@V?$allocator@U?$pair@$$CBIPAVRequestAndResponse@aggregator@tls@@@std@@@2@@std@@V?$allocator@V?$_Iterator@$00@?$list@U?$pair@$$CBIPAVRequestAndResponse@aggregator@tls@@@std@@V?$allocator@U?$pair@$$CBIPAVRequestAndResponse@aggregator@tls@@@std@@@2@@std@@@3@@std@@YAXPAV?$_Iterator@$00@?$list@U?$pair@$$CBIPAVRequestAndResponse@aggregator@tls@@@std@@V?$allocator@U?$pair@$$CBIPAVRequestAndResponse@aggregator@tls@@@std@@@2@@0@0AAV?$allocator@V?$_Iterator@$00@?$list@U?$pair@$$CBIPAVRequestAndResponse@aggregator@tls@@@std@@V?$allocator@U?$pair@$$CBIPAVRequestAndResponse@aggregator@tls@@@std@@@2@@std@@@0@U_Nonscalar_ptr_iterator_tag@0@@Z 13037710 f i packet_proc.obj
 0001:00036750       ??$_Uninit_fill_n@PAV?$_Iterator@$00@?$list@U?$pair@$$CBIPAVRequestAndResponse@aggregator@tls@@@std@@V?$allocator@U?$pair@$$CBIPAVRequestAndResponse@aggregator@tls@@@std@@@2@@std@@IV123@V?$allocator@V?$_Iterator@$00@?$list@U?$pair@$$CBIPAVRequestAndResponse@aggregator@tls@@@std@@V?$allocator@U?$pair@$$CBIPAVRequestAndResponse@aggregator@tls@@@std@@@2@@std@@@3@@std@@YAXPAV?$_Iterator@$00@?$list@U?$pair@$$CBIPAVRequestAndResponse@aggregator@tls@@@std@@V?$allocator@U?$pair@$$CBIPAVRequestAndResponse@aggregator@tls@@@std@@@2@@0@IABV120@AAV?$allocator@V?$_Iterator@$00@?$list@U?$pair@$$CBIPAVRequestAndResponse@aggregator@tls@@@std@@V?$allocator@U?$pair@$$CBIPAVRequestAndResponse@aggregator@tls@@@std@@@2@@std@@@0@U_Nonscalar_ptr_iterator_tag@0@U_Range_checked_iterator_tag@0@@Z 13037750 f i packet_proc.obj
 0001:000367e0       ?construct@?$allocator@V?$_Iterator@$00@?$list@U?$pair@$$CBIPAVRequestAndResponse@aggregator@tls@@@std@@V?$allocator@U?$pair@$$CBIPAVRequestAndResponse@aggregator@tls@@@std@@@2@@std@@@std@@QAEXPAV?$_Iterator@$00@?$list@U?$pair@$$CBIPAVRequestAndResponse@aggregator@tls@@@std@@V?$allocator@U?$pair@$$CBIPAVRequestAndResponse@aggregator@tls@@@std@@@2@@2@ABV342@@Z 130377e0 f i packet_proc.obj
 0001:00036820       ?destroy@?$allocator@V?$_Iterator@$00@?$list@U?$pair@$$CBIPAVRequestAndResponse@aggregator@tls@@@std@@V?$allocator@U?$pair@$$CBIPAVRequestAndResponse@aggregator@tls@@@std@@@2@@std@@@std@@QAEXPAV?$_Iterator@$00@?$list@U?$pair@$$CBIPAVRequestAndResponse@aggregator@tls@@@std@@V?$allocator@U?$pair@$$CBIPAVRequestAndResponse@aggregator@tls@@@std@@@2@@2@@Z 13037820 f i packet_proc.obj
 0001:00036860       ??$_Debug_get_cont@V?$_Iterator@$00@?$list@U?$pair@$$CBIPAVRequestAndResponse@aggregator@tls@@@std@@V?$allocator@U?$pair@$$CBIPAVRequestAndResponse@aggregator@tls@@@std@@@2@@std@@@std@@YAPBV_Container_base@0@ABV?$_Iterator@$00@?$list@U?$pair@$$CBIPAVRequestAndResponse@aggregator@tls@@@std@@V?$allocator@U?$pair@$$CBIPAVRequestAndResponse@aggregator@tls@@@std@@@2@@0@@Z 13037860 f i packet_proc.obj
 0001:00036870       ??$_Checked_base@PAV?$_Iterator@$00@?$list@U?$pair@$$CBIPAVRequestAndResponse@aggregator@tls@@@std@@V?$allocator@U?$pair@$$CBIPAVRequestAndResponse@aggregator@tls@@@std@@@2@@std@@@std@@YAPAV?$_Iterator@$00@?$list@U?$pair@$$CBIPAVRequestAndResponse@aggregator@tls@@@std@@V?$allocator@U?$pair@$$CBIPAVRequestAndResponse@aggregator@tls@@@std@@@2@@0@AAPAV120@U_Unchanged_checked_iterator_base_type_tag@0@@Z 13037870 f i packet_proc.obj
 0001:00036880       ??$_Copy_opt@PAV?$_Iterator@$00@?$list@U?$pair@$$CBIPAVRequestAndResponse@aggregator@tls@@@std@@V?$allocator@U?$pair@$$CBIPAVRequestAndResponse@aggregator@tls@@@std@@@2@@std@@PAV123@Uforward_iterator_tag@3@@std@@YAPAV?$_Iterator@$00@?$list@U?$pair@$$CBIPAVRequestAndResponse@aggregator@tls@@@std@@V?$allocator@U?$pair@$$CBIPAVRequestAndResponse@aggregator@tls@@@std@@@2@@0@PAV120@00Uforward_iterator_tag@0@U_Nonscalar_ptr_iterator_tag@0@U_Range_checked_iterator_tag@0@@Z 13037880 f i packet_proc.obj
 0001:000368f0       ??$_Uninit_move@PAV?$_Iterator@$00@?$list@U?$pair@$$CBIPAVRequestAndResponse@aggregator@tls@@@std@@V?$allocator@U?$pair@$$CBIPAVRequestAndResponse@aggregator@tls@@@std@@@2@@std@@PAV123@V?$allocator@V?$_Iterator@$00@?$list@U?$pair@$$CBIPAVRequestAndResponse@aggregator@tls@@@std@@V?$allocator@U?$pair@$$CBIPAVRequestAndResponse@aggregator@tls@@@std@@@2@@std@@@3@U_Undefined_move_tag@3@@std@@YAPAV?$_Iterator@$00@?$list@U?$pair@$$CBIPAVRequestAndResponse@aggregator@tls@@@std@@V?$allocator@U?$pair@$$CBIPAVRequestAndResponse@aggregator@tls@@@std@@@2@@0@PAV120@00AAV?$allocator@V?$_Iterator@$00@?$list@U?$pair@$$CBIPAVRequestAndResponse@aggregator@tls@@@std@@V?$allocator@U?$pair@$$CBIPAVRequestAndResponse@aggregator@tls@@@std@@@2@@std@@@0@U_Undefined_move_tag@0@U_Range_checked_iterator_tag@0@@Z 130378f0 f i packet_proc.obj
 0001:00036920       ??$_Debug_range@PAV?$_Iterator@$00@?$list@U?$pair@$$CBIPAVRequestAndResponse@aggregator@tls@@@std@@V?$allocator@U?$pair@$$CBIPAVRequestAndResponse@aggregator@tls@@@std@@@2@@std@@@std@@YAXPAV?$_Iterator@$00@?$list@U?$pair@$$CBIPAVRequestAndResponse@aggregator@tls@@@std@@V?$allocator@U?$pair@$$CBIPAVRequestAndResponse@aggregator@tls@@@std@@@2@@0@0PB_WI@Z 13037920 f i packet_proc.obj
 0001:00036980       ??$_Copy_backward_opt@PAV?$_Iterator@$00@?$list@U?$pair@$$CBIPAVRequestAndResponse@aggregator@tls@@@std@@V?$allocator@U?$pair@$$CBIPAVRequestAndResponse@aggregator@tls@@@std@@@2@@std@@PAV123@@std@@YAPAV?$_Iterator@$00@?$list@U?$pair@$$CBIPAVRequestAndResponse@aggregator@tls@@@std@@V?$allocator@U?$pair@$$CBIPAVRequestAndResponse@aggregator@tls@@@std@@@2@@0@PAV120@00Urandom_access_iterator_tag@0@U_Nonscalar_ptr_iterator_tag@0@U_Range_checked_iterator_tag@0@@Z 13037980 f i packet_proc.obj
 0001:00036a10       ??$_Construct@V?$_Iterator@$00@?$list@U?$pair@$$CBIPAVRequestAndResponse@aggregator@tls@@@std@@V?$allocator@U?$pair@$$CBIPAVRequestAndResponse@aggregator@tls@@@std@@@2@@std@@V123@@std@@YAXPAV?$_Iterator@$00@?$list@U?$pair@$$CBIPAVRequestAndResponse@aggregator@tls@@@std@@V?$allocator@U?$pair@$$CBIPAVRequestAndResponse@aggregator@tls@@@std@@@2@@0@ABV120@@Z 13037a10 f i packet_proc.obj
 0001:00036a90       ??$_Destroy@V?$_Iterator@$00@?$list@U?$pair@$$CBIPAVRequestAndResponse@aggregator@tls@@@std@@V?$allocator@U?$pair@$$CBIPAVRequestAndResponse@aggregator@tls@@@std@@@2@@std@@@std@@YAXPAV?$_Iterator@$00@?$list@U?$pair@$$CBIPAVRequestAndResponse@aggregator@tls@@@std@@V?$allocator@U?$pair@$$CBIPAVRequestAndResponse@aggregator@tls@@@std@@@2@@0@@Z 13037a90 f i packet_proc.obj
 0001:00036ab0       ??_G?$_Iterator@$00@?$list@U?$pair@$$CBIPAVRequestAndResponse@aggregator@tls@@@std@@V?$allocator@U?$pair@$$CBIPAVRequestAndResponse@aggregator@tls@@@std@@@2@@std@@QAEPAXI@Z 13037ab0 f i packet_proc.obj
 0001:00036b00       ??$unchecked_uninitialized_copy@PAV?$_Iterator@$00@?$list@U?$pair@$$CBIPAVRequestAndResponse@aggregator@tls@@@std@@V?$allocator@U?$pair@$$CBIPAVRequestAndResponse@aggregator@tls@@@std@@@2@@std@@PAV123@V?$allocator@V?$_Iterator@$00@?$list@U?$pair@$$CBIPAVRequestAndResponse@aggregator@tls@@@std@@V?$allocator@U?$pair@$$CBIPAVRequestAndResponse@aggregator@tls@@@std@@@2@@std@@@3@@stdext@@YAPAV?$_Iterator@$00@?$list@U?$pair@$$CBIPAVRequestAndResponse@aggregator@tls@@@std@@V?$allocator@U?$pair@$$CBIPAVRequestAndResponse@aggregator@tls@@@std@@@2@@std@@PAV123@00AAV?$allocator@V?$_Iterator@$00@?$list@U?$pair@$$CBIPAVRequestAndResponse@aggregator@tls@@@std@@V?$allocator@U?$pair@$$CBIPAVRequestAndResponse@aggregator@tls@@@std@@@2@@std@@@3@@Z 13037b00 f i packet_proc.obj
 0001:00036b80       ??$_Iter_cat@PAV?$_Iterator@$00@?$list@U?$pair@$$CBIPAVRequestAndResponse@aggregator@tls@@@std@@V?$allocator@U?$pair@$$CBIPAVRequestAndResponse@aggregator@tls@@@std@@@2@@std@@@std@@YA?AUrandom_access_iterator_tag@0@ABQAV?$_Iterator@$00@?$list@U?$pair@$$CBIPAVRequestAndResponse@aggregator@tls@@@std@@V?$allocator@U?$pair@$$CBIPAVRequestAndResponse@aggregator@tls@@@std@@@2@@0@@Z 13037b80 f i packet_proc.obj
 0001:00036be0       ??$_Debug_range2@PAV?$_Iterator@$00@?$list@U?$pair@$$CBIPAVRequestAndResponse@aggregator@tls@@@std@@V?$allocator@U?$pair@$$CBIPAVRequestAndResponse@aggregator@tls@@@std@@@2@@std@@@std@@YAXPAV?$_Iterator@$00@?$list@U?$pair@$$CBIPAVRequestAndResponse@aggregator@tls@@@std@@V?$allocator@U?$pair@$$CBIPAVRequestAndResponse@aggregator@tls@@@std@@@2@@0@0PB_WIUrandom_access_iterator_tag@0@@Z 13037be0 f i packet_proc.obj
 0001:00036c50       ??$_Copy_backward_opt@PAV?$_Iterator@$00@?$list@U?$pair@$$CBIPAVRequestAndResponse@aggregator@tls@@@std@@V?$allocator@U?$pair@$$CBIPAVRequestAndResponse@aggregator@tls@@@std@@@2@@std@@PAV123@Uforward_iterator_tag@3@@std@@YAPAV?$_Iterator@$00@?$list@U?$pair@$$CBIPAVRequestAndResponse@aggregator@tls@@@std@@V?$allocator@U?$pair@$$CBIPAVRequestAndResponse@aggregator@tls@@@std@@@2@@0@PAV120@00Uforward_iterator_tag@0@U_Nonscalar_ptr_iterator_tag@0@U_Range_checked_iterator_tag@0@@Z 13037c50 f i packet_proc.obj
 0001:00036cc0       ??$_Uninit_copy@PAV?$_Iterator@$00@?$list@U?$pair@$$CBIPAVRequestAndResponse@aggregator@tls@@@std@@V?$allocator@U?$pair@$$CBIPAVRequestAndResponse@aggregator@tls@@@std@@@2@@std@@PAV123@V?$allocator@V?$_Iterator@$00@?$list@U?$pair@$$CBIPAVRequestAndResponse@aggregator@tls@@@std@@V?$allocator@U?$pair@$$CBIPAVRequestAndResponse@aggregator@tls@@@std@@@2@@std@@@3@@std@@YAPAV?$_Iterator@$00@?$list@U?$pair@$$CBIPAVRequestAndResponse@aggregator@tls@@@std@@V?$allocator@U?$pair@$$CBIPAVRequestAndResponse@aggregator@tls@@@std@@@2@@0@PAV120@00AAV?$allocator@V?$_Iterator@$00@?$list@U?$pair@$$CBIPAVRequestAndResponse@aggregator@tls@@@std@@V?$allocator@U?$pair@$$CBIPAVRequestAndResponse@aggregator@tls@@@std@@@2@@std@@@0@U_Nonscalar_ptr_iterator_tag@0@U_Range_checked_iterator_tag@0@@Z 13037cc0 f i packet_proc.obj
 0001:00036d90       ??$_Debug_pointer@V?$_Iterator@$00@?$list@U?$pair@$$CBIPAVRequestAndResponse@aggregator@tls@@@std@@V?$allocator@U?$pair@$$CBIPAVRequestAndResponse@aggregator@tls@@@std@@@2@@std@@@std@@YAXPAV?$_Iterator@$00@?$list@U?$pair@$$CBIPAVRequestAndResponse@aggregator@tls@@@std@@V?$allocator@U?$pair@$$CBIPAVRequestAndResponse@aggregator@tls@@@std@@@2@@0@PB_WI@Z 13037d90 f i packet_proc.obj
 0001:00036dc0       ??1ForceShutdown@?A0x9ad93d02@aggregator@tls@@QAE@XZ 13037dc0 f i packet_proc.obj
 0001:00036df0       ?tick@micro_time@base@tls@@SA_KXZ 13037df0 f   base_static:time_util.obj
 0001:00036e90       ?set_start@micro_time@base@tls@@SAX_K@Z 13037e90 f   base_static:time_util.obj
 0001:00036f70       ?to_second@micro_time@base@tls@@SA?B_K_K@Z 13037f70 f i base_static:time_util.obj
 0001:00036f90       ?format_with_ymd@micro_time@base@tls@@SAPBDPAD_K@Z 13037f90 f   base_static:time_util.obj
 0001:00037220       ?to_millisecond@micro_time@base@tls@@SA?B_K_K@Z 13038220 f i base_static:time_util.obj
 0001:00037260       ?format@micro_time@base@tls@@SAPBDPAD_K@Z 13038260 f   base_static:time_util.obj
 0001:00037430       ?now@DayTime@base@tls@@SAIXZ 13038430 f   base_static:time_util.obj
 0001:00037470       ?to_localtime@DayTime@base@tls@@SAIIIIIII@Z 13038470 f   base_static:time_util.obj
 0001:00037520       ?get_localtime@DayTime@base@tls@@SAIPAI00000I@Z 13038520 f   base_static:time_util.obj
 0001:00037600       ?to_string@DayTime@base@tls@@SAII@Z 13038600 f   base_static:time_util.obj
 0001:000376a0       ?to_string@DayTime@base@tls@@SAI_K@Z 130386a0 f   base_static:time_util.obj
 0001:00037770       ?to_time@DayTime@base@tls@@SAII@Z 13038770 f   base_static:time_util.obj
 0001:000377e0       ?day_sec@DayTime@base@tls@@SAII@Z 130387e0 f   base_static:time_util.obj
 0001:00037880       ??0Lock@base@tls@@QAE@XZ   13038880 f   base_static:lock.obj
 0001:000378e0       ??1Lock@base@tls@@QAE@XZ   130388e0 f   base_static:lock.obj
 0001:00037940       ?Acquire@Lock@base@tls@@QAEXXZ 13038940 f   base_static:lock.obj
 0001:000379a0       ?Release@Lock@base@tls@@QAEXXZ 130389a0 f   base_static:lock.obj
 0001:00037a00       ?Try@Lock@base@tls@@QAEIXZ 13038a00 f   base_static:lock.obj
 0001:00037a60       ??Eatomic_count@base@tls@@QAEJXZ 13038a60 f   base_static:atomic_count.obj
 0001:00037aa0       ??Fatomic_count@base@tls@@QAEJXZ 13038aa0 f   base_static:atomic_count.obj
 0001:00037ae0       ?VerifyVersion@internal@protobuf@google@@YAXHHPBD@Z 13038ae0 f   protobuf_lite:common.obj
 0001:00037c80       ?VersionString@internal@protobuf@google@@YA?AV?$basic_string@DU?$char_traits@D@std@@V?$allocator@D@2@@std@@H@Z 13038c80 f   protobuf_lite:common.obj
 0001:00037d60       ?DefaultLogHandler@internal@protobuf@google@@YAXW4LogLevel@23@PBDHABV?$basic_string@DU?$char_traits@D@std@@V?$allocator@D@2@@std@@@Z 13038d60 f   protobuf_lite:common.obj
 0001:00037db0       ?NullLogHandler@internal@protobuf@google@@YAXW4LogLevel@23@PBDHABV?$basic_string@DU?$char_traits@D@std@@V?$allocator@D@2@@std@@@Z 13038db0 f   protobuf_lite:common.obj
 0001:00037dc0       ?DeleteLogSilencerCount@internal@protobuf@google@@YAXXZ 13038dc0 f   protobuf_lite:common.obj
 0001:00037e20       ??_GMutex@internal@protobuf@google@@QAEPAXI@Z 13038e20 f i protobuf_lite:common.obj
 0001:00037e60       ?InitLogSilencerCount@internal@protobuf@google@@YAXXZ 13038e60 f   protobuf_lite:common.obj
 0001:00037ec0       ?InitLogSilencerCountOnce@internal@protobuf@google@@YAXXZ 13038ec0 f   protobuf_lite:common.obj
 0001:00037ee0       ??6LogMessage@internal@protobuf@google@@QAEAAV0123@ABV?$basic_string@DU?$char_traits@D@std@@V?$allocator@D@2@@std@@@Z 13038ee0 f   protobuf_lite:common.obj
 0001:00037f10       ??6LogMessage@internal@protobuf@google@@QAEAAV0123@PBD@Z 13038f10 f   protobuf_lite:common.obj
 0001:00037f40       ??6LogMessage@internal@protobuf@google@@QAEAAV0123@D@Z 13038f40 f   protobuf_lite:common.obj
 0001:00037ff0       ??6LogMessage@internal@protobuf@google@@QAEAAV0123@H@Z 13038ff0 f   protobuf_lite:common.obj
 0001:000380a0       ??6LogMessage@internal@protobuf@google@@QAEAAV0123@I@Z 130390a0 f   protobuf_lite:common.obj
 0001:00038150       ??6LogMessage@internal@protobuf@google@@QAEAAV0123@J@Z 13039150 f   protobuf_lite:common.obj
 0001:00038200       ??6LogMessage@internal@protobuf@google@@QAEAAV0123@K@Z 13039200 f   protobuf_lite:common.obj
 0001:000382b0       ??6LogMessage@internal@protobuf@google@@QAEAAV0123@N@Z 130392b0 f   protobuf_lite:common.obj
 0001:00038370       ??0LogMessage@internal@protobuf@google@@QAE@W4LogLevel@23@PBDH@Z 13039370 f   protobuf_lite:common.obj
 0001:000383c0       ??1LogMessage@internal@protobuf@google@@QAE@XZ 130393c0 f   protobuf_lite:common.obj
 0001:000383f0       ?Finish@LogMessage@internal@protobuf@google@@AAEXXZ 130393f0 f   protobuf_lite:common.obj
 0001:000384d0       ??0MutexLock@internal@protobuf@google@@QAE@PAVMutex@123@@Z 130394d0 f i protobuf_lite:common.obj
 0001:00038510       ??1MutexLock@internal@protobuf@google@@QAE@XZ 13039510 f i protobuf_lite:common.obj
 0001:00038540       ??4LogFinisher@internal@protobuf@google@@QAEXAAVLogMessage@123@@Z 13039540 f   protobuf_lite:common.obj
 0001:00038570       ?SetLogHandler@protobuf@google@@YAP6AXW4LogLevel@12@PBDHABV?$basic_string@DU?$char_traits@D@std@@V?$allocator@D@2@@std@@@ZP6AX01H2@Z@Z 13039570 f   protobuf_lite:common.obj
 0001:000385c0       ??0LogSilencer@protobuf@google@@QAE@XZ 130395c0 f   protobuf_lite:common.obj
 0001:00038650       ??1LogSilencer@protobuf@google@@QAE@XZ 13039650 f   protobuf_lite:common.obj
 0001:000386d0       ??1Closure@protobuf@google@@UAE@XZ 130396d0 f   protobuf_lite:common.obj
 0001:000386f0       ??1FunctionClosure0@internal@protobuf@google@@UAE@XZ 130396f0 f   protobuf_lite:common.obj
 0001:00038720       ?DoNothing@protobuf@google@@YAXXZ 13039720 f   protobuf_lite:common.obj
 0001:00038730       ??0Mutex@internal@protobuf@google@@QAE@XZ 13039730 f   protobuf_lite:common.obj
 0001:00038790       ??1Mutex@internal@protobuf@google@@QAE@XZ 13039790 f   protobuf_lite:common.obj
 0001:000387e0       ?Lock@Mutex@internal@protobuf@google@@QAEXXZ 130397e0 f   protobuf_lite:common.obj
 0001:00038830       ?Unlock@Mutex@internal@protobuf@google@@QAEXXZ 13039830 f   protobuf_lite:common.obj
 0001:00038870       ?AssertHeld@Mutex@internal@protobuf@google@@QAEXXZ 13039870 f   protobuf_lite:common.obj
 0001:00038910       ?InitShutdownFunctions@internal@protobuf@google@@YAXXZ 13039910 f   protobuf_lite:common.obj
 0001:000389a0       ?OnShutdown@internal@protobuf@google@@YAXP6AXXZ@Z 130399a0 f   protobuf_lite:common.obj
 0001:00038a20       ?InitShutdownFunctionsOnce@internal@protobuf@google@@YAXXZ 13039a20 f i protobuf_lite:common.obj
 0001:00038a40       ?ShutdownProtobufLibrary@protobuf@google@@YAXXZ 13039a40 f   protobuf_lite:common.obj
 0001:00038b30       ??_G?$vector@P6AXXZV?$allocator@P6AXXZ@std@@@std@@QAEPAXI@Z 13039b30 f i protobuf_lite:common.obj
 0001:00038b70       ??Y?$basic_string@DU?$char_traits@D@std@@V?$allocator@D@2@@std@@QAEAAV01@ABV01@@Z 13039b70 f i protobuf_lite:common.obj
 0001:00038ba0       ??Y?$basic_string@DU?$char_traits@D@std@@V?$allocator@D@2@@std@@QAEAAV01@PBD@Z 13039ba0 f i protobuf_lite:common.obj
 0001:00038bd0       ??0?$vector@P6AXXZV?$allocator@P6AXXZ@std@@@std@@QAE@XZ 13039bd0 f i protobuf_lite:common.obj
 0001:00038c20       ??1?$vector@P6AXXZV?$allocator@P6AXXZ@std@@@std@@QAE@XZ 13039c20 f i protobuf_lite:common.obj
 0001:00038c50       ?size@?$vector@P6AXXZV?$allocator@P6AXXZ@std@@@std@@QBEIXZ 13039c50 f i protobuf_lite:common.obj
 0001:00038ca0       ?at@?$vector@P6AXXZV?$allocator@P6AXXZ@std@@@std@@QAEAAP6AXXZI@Z 13039ca0 f i protobuf_lite:common.obj
 0001:00038d20       ?push_back@?$vector@P6AXXZV?$allocator@P6AXXZ@std@@@std@@QAEXABQ6AXXZ@Z 13039d20 f i protobuf_lite:common.obj
 0001:00038dc0       ??1?$_Vector_val@P6AXXZV?$allocator@P6AXXZ@std@@@std@@QAE@XZ 13039dc0 f i protobuf_lite:common.obj
 0001:00038df0       ??1?$_Vector_iterator@P6AXXZV?$allocator@P6AXXZ@std@@@std@@QAE@XZ 13039df0 f i protobuf_lite:common.obj
 0001:00038e20       ??1?$_Vector_const_iterator@P6AXXZV?$allocator@P6AXXZ@std@@@std@@QAE@XZ 13039e20 f i protobuf_lite:common.obj
 0001:00038e50       ??1?$_Ranit@P6AXXZHPBQ6AXXZABQ6AXXZ@std@@QAE@XZ 13039e50 f i protobuf_lite:common.obj
 0001:00038e80       ?append@?$basic_string@DU?$char_traits@D@std@@V?$allocator@D@2@@std@@QAEAAV12@ABV12@@Z 13039e80 f i protobuf_lite:common.obj
 0001:00038ec0       ?append@?$basic_string@DU?$char_traits@D@std@@V?$allocator@D@2@@std@@QAEAAV12@PBD@Z 13039ec0 f i protobuf_lite:common.obj
 0001:00038f00       ?capacity@?$vector@P6AXXZV?$allocator@P6AXXZ@std@@@std@@QBEIXZ 13039f00 f i protobuf_lite:common.obj
 0001:00038f50       ?begin@?$vector@P6AXXZV?$allocator@P6AXXZ@std@@@std@@QAE?AV?$_Vector_iterator@P6AXXZV?$allocator@P6AXXZ@std@@@2@XZ 13039f50 f i protobuf_lite:common.obj
 0001:00038f90       ?end@?$vector@P6AXXZV?$allocator@P6AXXZ@std@@@std@@QAE?AV?$_Vector_iterator@P6AXXZV?$allocator@P6AXXZ@std@@@2@XZ 13039f90 f i protobuf_lite:common.obj
 0001:00038fd0       ?insert@?$vector@P6AXXZV?$allocator@P6AXXZ@std@@@std@@QAE?AV?$_Vector_iterator@P6AXXZV?$allocator@P6AXXZ@std@@@2@V32@ABQ6AXXZ@Z 13039fd0 f i protobuf_lite:common.obj
 0001:000390a0       ?_Buy@?$vector@P6AXXZV?$allocator@P6AXXZ@std@@@std@@IAE_NI@Z 1303a0a0 f i protobuf_lite:common.obj
 0001:00039140       ?_Tidy@?$vector@P6AXXZV?$allocator@P6AXXZ@std@@@std@@IAEXXZ 1303a140 f i protobuf_lite:common.obj
 0001:000391d0       ?_Ufill@?$vector@P6AXXZV?$allocator@P6AXXZ@std@@@std@@IAEPAP6AXXZPAP6AXXZIABQ6AXXZ@Z 1303a1d0 f i protobuf_lite:common.obj
 0001:00039220       ?_Xran@?$vector@P6AXXZV?$allocator@P6AXXZ@std@@@std@@KAXXZ 1303a220 f i protobuf_lite:common.obj
 0001:00039280       ??0out_of_range@std@@QAE@ABV?$basic_string@DU?$char_traits@D@std@@V?$allocator@D@2@@1@@Z 1303a280 f i protobuf_lite:common.obj
 0001:000392c0       ??1out_of_range@std@@UAE@XZ 1303a2c0 f i protobuf_lite:common.obj
 0001:000392f0       ?_Doraise@out_of_range@std@@MBEXXZ 1303a2f0 f i protobuf_lite:common.obj
 0001:00039320       ??_Eout_of_range@std@@UAEPAXI@Z 1303a320 f i protobuf_lite:common.obj
 0001:00039320       ??_Gout_of_range@std@@UAEPAXI@Z 1303a320 f i protobuf_lite:common.obj
 0001:00039360       ?_Orphan_range@?$vector@P6AXXZV?$allocator@P6AXXZ@std@@@std@@IBEXPAP6AXXZ0@Z 1303a360 f i protobuf_lite:common.obj
 0001:00039420       ??0?$_Vector_val@P6AXXZV?$allocator@P6AXXZ@std@@@std@@IAE@V?$allocator@P6AXXZ@1@@Z 1303a420 f i protobuf_lite:common.obj
 0001:00039460       ??0?$allocator@P6AXXZ@std@@QAE@XZ 1303a460 f i protobuf_lite:common.obj
 0001:00039480       ??D?$_Vector_iterator@P6AXXZV?$allocator@P6AXXZ@std@@@std@@QBEAAP6AXXZXZ 1303a480 f i protobuf_lite:common.obj
 0001:000394b0       ??H?$_Vector_iterator@P6AXXZV?$allocator@P6AXXZ@std@@@std@@QBE?AV01@H@Z 1303a4b0 f i protobuf_lite:common.obj
 0001:00039540       ??0?$_Vector_iterator@P6AXXZV?$allocator@P6AXXZ@std@@@std@@QAE@ABV01@@Z 1303a540 f i protobuf_lite:common.obj
 0001:00039570       ??0?$_Vector_const_iterator@P6AXXZV?$allocator@P6AXXZ@std@@@std@@QAE@ABV01@@Z 1303a570 f i protobuf_lite:common.obj
 0001:000395b0       ??0?$_Ranit@P6AXXZHPBQ6AXXZABQ6AXXZ@std@@QAE@ABU01@@Z 1303a5b0 f i protobuf_lite:common.obj
 0001:000395e0       ?append@?$basic_string@DU?$char_traits@D@std@@V?$allocator@D@2@@std@@QAEAAV12@ABV12@II@Z 1303a5e0 f i protobuf_lite:common.obj
 0001:000396d0       ?append@?$basic_string@DU?$char_traits@D@std@@V?$allocator@D@2@@std@@QAEAAV12@PBDI@Z 1303a6d0 f i protobuf_lite:common.obj
 0001:000397c0       ?max_size@?$vector@P6AXXZV?$allocator@P6AXXZ@std@@@std@@QBEIXZ 1303a7c0 f i protobuf_lite:common.obj
 0001:000397f0       ?_Destroy@?$vector@P6AXXZV?$allocator@P6AXXZ@std@@@std@@IAEXPAP6AXXZ0@Z 1303a7f0 f i protobuf_lite:common.obj
 0001:00039830       ?_Insert_n@?$vector@P6AXXZV?$allocator@P6AXXZ@std@@@std@@IAEXV?$_Vector_iterator@P6AXXZV?$allocator@P6AXXZ@std@@@2@IABQ6AXXZ@Z 1303a830 f i protobuf_lite:common.obj
 0001:00039bc0       ?_Xlen@?$vector@P6AXXZV?$allocator@P6AXXZ@std@@@std@@KAXXZ 1303abc0 f i protobuf_lite:common.obj
 0001:00039c20       ??0?$allocator@P6AXXZ@std@@QAE@ABV01@@Z 1303ac20 f i protobuf_lite:common.obj
 0001:00039c40       ?deallocate@?$allocator@P6AXXZ@std@@QAEXPAP6AXXZI@Z 1303ac40 f i protobuf_lite:common.obj
 0001:00039c70       ?allocate@?$allocator@P6AXXZ@std@@QAEPAP6AXXZI@Z 1303ac70 f i protobuf_lite:common.obj
 0001:00039ca0       ??0?$_Vector_iterator@P6AXXZV?$allocator@P6AXXZ@std@@@std@@QAE@PAP6AXXZPBV_Container_base@1@@Z 1303aca0 f i protobuf_lite:common.obj
 0001:00039ce0       ??Y?$_Vector_iterator@P6AXXZV?$allocator@P6AXXZ@std@@@std@@QAEAAV01@H@Z 1303ace0 f i protobuf_lite:common.obj
 0001:00039d10       ??G?$_Vector_iterator@P6AXXZV?$allocator@P6AXXZ@std@@@std@@QBEHABV?$_Vector_const_iterator@P6AXXZV?$allocator@P6AXXZ@std@@@1@@Z 1303ad10 f i protobuf_lite:common.obj
 0001:00039d40       ??D?$_Vector_const_iterator@P6AXXZV?$allocator@P6AXXZ@std@@@std@@QBEABQ6AXXZXZ 1303ad40 f i protobuf_lite:common.obj
 0001:00039de0       ?max_size@?$allocator@P6AXXZ@std@@QBEIXZ 1303ade0 f i protobuf_lite:common.obj
 0001:00039e30       ??0?$_Vector_const_iterator@P6AXXZV?$allocator@P6AXXZ@std@@@std@@QAE@PAP6AXXZPBV_Container_base@1@@Z 1303ae30 f i protobuf_lite:common.obj
 0001:00039ed0       ??Y?$_Vector_const_iterator@P6AXXZV?$allocator@P6AXXZ@std@@@std@@QAEAAV01@H@Z 1303aed0 f i protobuf_lite:common.obj
 0001:00039fc0       ??G?$_Vector_const_iterator@P6AXXZV?$allocator@P6AXXZ@std@@@std@@QBEHABV01@@Z 1303afc0 f i protobuf_lite:common.obj
 0001:0003a000       ??0?$_Ranit@P6AXXZHPBQ6AXXZABQ6AXXZ@std@@QAE@XZ 1303b000 f i protobuf_lite:common.obj
 0001:0003a030       ?_Compat@?$_Vector_const_iterator@P6AXXZV?$allocator@P6AXXZ@std@@@std@@QBEXABV12@@Z 1303b030 f i protobuf_lite:common.obj
 0001:0003a0c0       ??$unchecked_uninitialized_fill_n@PAP6AXXZIP6AXXZV?$allocator@P6AXXZ@std@@@stdext@@YAXPAP6AXXZIABQ6AXXZAAV?$allocator@P6AXXZ@std@@@Z 1303b0c0 f i protobuf_lite:common.obj
 0001:0003a120       ??$_Destroy_range@P6AXXZV?$allocator@P6AXXZ@std@@@std@@YAXPAP6AXXZ0AAV?$allocator@P6AXXZ@0@@Z 1303b120 f i protobuf_lite:common.obj
 0001:0003a170       ??$_Umove@PAP6AXXZ@?$vector@P6AXXZV?$allocator@P6AXXZ@std@@@std@@IAEPAP6AXXZPAP6AXXZ00@Z 1303b170 f i protobuf_lite:common.obj
 0001:0003a1b0       ??$fill@PAP6AXXZP6AXXZ@std@@YAXPAP6AXXZ0ABQ6AXXZ@Z 1303b1b0 f i protobuf_lite:common.obj
 0001:0003a1f0       ??$_Unchecked_move_backward@PAP6AXXZPAP6AXXZ@stdext@@YAPAP6AXXZPAP6AXXZ00@Z 1303b1f0 f i protobuf_lite:common.obj
 0001:0003a270       ??$_Allocate@P6AXXZ@std@@YAPAP6AXXZIPAP6AXXZ@Z 1303b270 f i protobuf_lite:common.obj
 0001:0003a2e0       ??$_Ptr_cat@PAP6AXXZPAP6AXXZ@std@@YA?AU_Scalar_ptr_iterator_tag@0@AAPAP6AXXZ0@Z 1303b2e0 f i protobuf_lite:common.obj
 0001:0003a330       ??$_Uninit_fill_n@PAP6AXXZIP6AXXZV?$allocator@P6AXXZ@std@@@std@@YAXPAP6AXXZIABQ6AXXZAAV?$allocator@P6AXXZ@0@U_Scalar_ptr_iterator_tag@0@U_Range_checked_iterator_tag@0@@Z 1303b330 f i protobuf_lite:common.obj
 0001:0003a350       ??$_Destroy_range@P6AXXZV?$allocator@P6AXXZ@std@@@std@@YAXPAP6AXXZ0AAV?$allocator@P6AXXZ@0@U_Scalar_ptr_iterator_tag@0@@Z 1303b350 f i protobuf_lite:common.obj
 0001:0003a360       ??$_Unchecked_uninitialized_move@PAP6AXXZPAP6AXXZV?$allocator@P6AXXZ@std@@@stdext@@YAPAP6AXXZPAP6AXXZ00AAV?$allocator@P6AXXZ@std@@@Z 1303b360 f i protobuf_lite:common.obj
 0001:0003a3c0       ??$_Checked_base@PAP6AXXZ@std@@YAPAP6AXXZAAPAP6AXXZ@Z 1303b3c0 f i protobuf_lite:common.obj
 0001:0003a430       ??$_Fill@PAP6AXXZP6AXXZ@std@@YAXPAP6AXXZ0ABQ6AXXZ@Z 1303b430 f i protobuf_lite:common.obj
 0001:0003a480       ??$_Iter_random@PAP6AXXZPAP6AXXZ@std@@YA?AUrandom_access_iterator_tag@0@ABQAP6AXXZ0@Z 1303b480 f i protobuf_lite:common.obj
 0001:0003a4d0       ??$_Move_cat@PAP6AXXZ@std@@YA?AU_Undefined_move_tag@0@ABQAP6AXXZ@Z 1303b4d0 f i protobuf_lite:common.obj
 0001:0003a520       ??$_Move_backward_opt@PAP6AXXZPAP6AXXZUrandom_access_iterator_tag@std@@U_Undefined_move_tag@2@@std@@YAPAP6AXXZPAP6AXXZ00Urandom_access_iterator_tag@0@U_Undefined_move_tag@0@U_Range_checked_iterator_tag@0@@Z 1303b520 f i protobuf_lite:common.obj
 0001:0003a580       ??$unchecked_fill_n@PAP6AXXZIP6AXXZ@stdext@@YAXPAP6AXXZIABQ6AXXZ@Z 1303b580 f i protobuf_lite:common.obj
 0001:0003a5d0       ??$_Uninit_move@PAP6AXXZPAP6AXXZV?$allocator@P6AXXZ@std@@U_Undefined_move_tag@2@@std@@YAPAP6AXXZPAP6AXXZ00AAV?$allocator@P6AXXZ@0@U_Undefined_move_tag@0@U_Range_checked_iterator_tag@0@@Z 1303b5d0 f i protobuf_lite:common.obj
 0001:0003a600       ??$_Checked_base@PAP6AXXZ@std@@YAPAP6AXXZAAPAP6AXXZU_Unchanged_checked_iterator_base_type_tag@0@@Z 1303b600 f i protobuf_lite:common.obj
 0001:0003a610       ??$_Debug_range@PAP6AXXZ@std@@YAXPAP6AXXZ0PB_WI@Z 1303b610 f i protobuf_lite:common.obj
 0001:0003a660       ??$_Copy_backward_opt@PAP6AXXZPAP6AXXZUrandom_access_iterator_tag@std@@@std@@YAPAP6AXXZPAP6AXXZ00Urandom_access_iterator_tag@0@U_Scalar_ptr_iterator_tag@0@U_Range_checked_iterator_tag@0@@Z 1303b660 f i protobuf_lite:common.obj
 0001:0003a700       ??$_Iter_cat@PAP6AXXZ@std@@YA?AUrandom_access_iterator_tag@0@ABQAP6AXXZ@Z 1303b700 f i protobuf_lite:common.obj
 0001:0003a750       ??$_Fill_n@PAP6AXXZIP6AXXZ@std@@YAXPAP6AXXZIABQ6AXXZUrandom_access_iterator_tag@0@U_Range_checked_iterator_tag@0@@Z 1303b750 f i protobuf_lite:common.obj
 0001:0003a7b0       ??$unchecked_uninitialized_copy@PAP6AXXZPAP6AXXZV?$allocator@P6AXXZ@std@@@stdext@@YAPAP6AXXZPAP6AXXZ00AAV?$allocator@P6AXXZ@std@@@Z 1303b7b0 f i protobuf_lite:common.obj
 0001:0003a820       ??$_Debug_range2@PAP6AXXZ@std@@YAXPAP6AXXZ0PB_WIUrandom_access_iterator_tag@0@@Z 1303b820 f i protobuf_lite:common.obj
 0001:0003a880       ??$_Debug_pointer@P6AXXZ@std@@YAXPAP6AXXZPB_WI@Z 1303b880 f i protobuf_lite:common.obj
 0001:0003a8b0       ??$_Fill_n@PAP6AXXZIP6AXXZ@std@@YAXPAP6AXXZIABQ6AXXZU_Range_checked_iterator_tag@0@@Z 1303b8b0 f i protobuf_lite:common.obj
 0001:0003a8e0       ??$_Uninit_copy@PAP6AXXZPAP6AXXZV?$allocator@P6AXXZ@std@@@std@@YAPAP6AXXZPAP6AXXZ00AAV?$allocator@P6AXXZ@0@U_Scalar_ptr_iterator_tag@0@U_Range_checked_iterator_tag@0@@Z 1303b8e0 f i protobuf_lite:common.obj
 0001:0003a970       ?SchedYield@?A0x481d2c8f@protobuf@google@@YAXXZ 1303b970 f   protobuf_lite:once.obj
 0001:0003a990       ?GoogleOnceInitImpl@protobuf@google@@YAXPAHPAVClosure@12@@Z 1303b990 f   protobuf_lite:once.obj
 0001:0003aa20       ?Acquire_CompareAndSwap@internal@protobuf@google@@YAHPCHHH@Z 1303ba20 f i protobuf_lite:once.obj
 0001:0003aa40       ?Release_Store@internal@protobuf@google@@YAXPCHH@Z 1303ba40 f i protobuf_lite:once.obj
 0001:0003aa50       ??1MessageLite@protobuf@google@@UAE@XZ 1303ba50 f   protobuf_lite:message_lite.obj
 0001:0003aa70       ?InitializationErrorString@MessageLite@protobuf@google@@UBE?AV?$basic_string@DU?$char_traits@D@std@@V?$allocator@D@2@@std@@XZ 1303ba70 f   protobuf_lite:message_lite.obj
 0001:0003aaa0       ?ByteSizeConsistencyError@?A0xb0468876@protobuf@google@@YAXHHH@Z 1303baa0 f   protobuf_lite:message_lite.obj
 0001:0003abe0       ?InitializationErrorMessage@?A0xb0468876@protobuf@google@@YA?AV?$basic_string@DU?$char_traits@D@std@@V?$allocator@D@2@@std@@PBDABVMessageLite@23@@Z 1303bbe0 f   protobuf_lite:message_lite.obj
 0001:0003acf0       ?MergeFromCodedStream@MessageLite@protobuf@google@@QAE_NPAVCodedInputStream@io@23@@Z 1303bcf0 f   protobuf_lite:message_lite.obj
 0001:0003ad20       ?InlineMergeFromCodedStream@?A0xb0468876@protobuf@google@@YA_NPAVCodedInputStream@io@23@PAVMessageLite@23@@Z 1303bd20 f i protobuf_lite:message_lite.obj
 0001:0003ade0       ?ParseFromCodedStream@MessageLite@protobuf@google@@QAE_NPAVCodedInputStream@io@23@@Z 1303bde0 f   protobuf_lite:message_lite.obj
 0001:0003ae10       ?InlineParseFromCodedStream@?A0xb0468876@protobuf@google@@YA_NPAVCodedInputStream@io@23@PAVMessageLite@23@@Z 1303be10 f i protobuf_lite:message_lite.obj
 0001:0003ae50       ?ParsePartialFromCodedStream@MessageLite@protobuf@google@@QAE_NPAVCodedInputStream@io@23@@Z 1303be50 f   protobuf_lite:message_lite.obj
 0001:0003ae80       ?InlineParsePartialFromCodedStream@?A0xb0468876@protobuf@google@@YA_NPAVCodedInputStream@io@23@PAVMessageLite@23@@Z 1303be80 f i protobuf_lite:message_lite.obj
 0001:0003aec0       ?ParseFromZeroCopyStream@MessageLite@protobuf@google@@QAE_NPAVZeroCopyInputStream@io@23@@Z 1303bec0 f   protobuf_lite:message_lite.obj
 0001:0003af70       ??0CodedInputStream@io@protobuf@google@@QAE@PAVZeroCopyInputStream@123@@Z 1303bf70 f i protobuf_lite:message_lite.obj
 0001:0003b040       ??1CodedInputStream@io@protobuf@google@@QAE@XZ 1303c040 f i protobuf_lite:message_lite.obj
 0001:0003b070       ?ParsePartialFromZeroCopyStream@MessageLite@protobuf@google@@QAE_NPAVZeroCopyInputStream@io@23@@Z 1303c070 f   protobuf_lite:message_lite.obj
 0001:0003b120       ?ParseFromBoundedZeroCopyStream@MessageLite@protobuf@google@@QAE_NPAVZeroCopyInputStream@io@23@H@Z 1303c120 f   protobuf_lite:message_lite.obj
 0001:0003b1e0       ?ParsePartialFromBoundedZeroCopyStream@MessageLite@protobuf@google@@QAE_NPAVZeroCopyInputStream@io@23@H@Z 1303c1e0 f   protobuf_lite:message_lite.obj
 0001:0003b2a0       ?ParseFromString@MessageLite@protobuf@google@@QAE_NABV?$basic_string@DU?$char_traits@D@std@@V?$allocator@D@2@@std@@@Z 1303c2a0 f   protobuf_lite:message_lite.obj
 0001:0003b2e0       ?InlineParseFromArray@?A0xb0468876@protobuf@google@@YA_NPBXHPAVMessageLite@23@@Z 1303c2e0 f i protobuf_lite:message_lite.obj
 0001:0003b390       ??0CodedInputStream@io@protobuf@google@@QAE@PBEH@Z 1303c390 f i protobuf_lite:message_lite.obj
 0001:0003b440       ?ParsePartialFromString@MessageLite@protobuf@google@@QAE_NABV?$basic_string@DU?$char_traits@D@std@@V?$allocator@D@2@@std@@@Z 1303c440 f   protobuf_lite:message_lite.obj
 0001:0003b480       ?InlineParsePartialFromArray@?A0xb0468876@protobuf@google@@YA_NPBXHPAVMessageLite@23@@Z 1303c480 f i protobuf_lite:message_lite.obj
 0001:0003b530       ?ParseFromArray@MessageLite@protobuf@google@@QAE_NPBXH@Z 1303c530 f   protobuf_lite:message_lite.obj
 0001:0003b570       ?ParsePartialFromArray@MessageLite@protobuf@google@@QAE_NPBXH@Z 1303c570 f   protobuf_lite:message_lite.obj
 0001:0003b5b0       ?SerializeWithCachedSizesToArray@MessageLite@protobuf@google@@UBEPAEPAE@Z 1303c5b0 f   protobuf_lite:message_lite.obj
 0001:0003b6f0       ?HadError@CodedOutputStream@io@protobuf@google@@QBE_NXZ 1303c6f0 f i protobuf_lite:message_lite.obj
 0001:0003b710       ?SerializeToCodedStream@MessageLite@protobuf@google@@QBE_NPAVCodedOutputStream@io@23@@Z 1303c710 f   protobuf_lite:message_lite.obj
 0001:0003b7f0       ?SerializePartialToCodedStream@MessageLite@protobuf@google@@QBE_NPAVCodedOutputStream@io@23@@Z 1303c7f0 f   protobuf_lite:message_lite.obj
 0001:0003b930       ?GetDirectBufferForNBytesAndAdvance@CodedOutputStream@io@protobuf@google@@QAEPAEH@Z 1303c930 f i protobuf_lite:message_lite.obj
 0001:0003b980       ?ByteCount@CodedOutputStream@io@protobuf@google@@QBEHXZ 1303c980 f i protobuf_lite:message_lite.obj
 0001:0003b9a0       ?Advance@CodedOutputStream@io@protobuf@google@@AAEXH@Z 1303c9a0 f i protobuf_lite:message_lite.obj
 0001:0003b9e0       ?SerializeToZeroCopyStream@MessageLite@protobuf@google@@QBE_NPAVZeroCopyOutputStream@io@23@@Z 1303c9e0 f   protobuf_lite:message_lite.obj
 0001:0003ba70       ?SerializePartialToZeroCopyStream@MessageLite@protobuf@google@@QBE_NPAVZeroCopyOutputStream@io@23@@Z 1303ca70 f   protobuf_lite:message_lite.obj
 0001:0003bb00       ?AppendToString@MessageLite@protobuf@google@@QBE_NPAV?$basic_string@DU?$char_traits@D@std@@V?$allocator@D@2@@std@@@Z 1303cb00 f   protobuf_lite:message_lite.obj
 0001:0003bbe0       ?AppendPartialToString@MessageLite@protobuf@google@@QBE_NPAV?$basic_string@DU?$char_traits@D@std@@V?$allocator@D@2@@std@@@Z 1303cbe0 f   protobuf_lite:message_lite.obj
 0001:0003bcb0       ?STLStringResizeUninitialized@protobuf@google@@YAXPAV?$basic_string@DU?$char_traits@D@std@@V?$allocator@D@2@@std@@I@Z 1303ccb0 f i protobuf_lite:message_lite.obj
 0001:0003bcd0       ?string_as_array@protobuf@google@@YAPADPAV?$basic_string@DU?$char_traits@D@std@@V?$allocator@D@2@@std@@@Z 1303ccd0 f i protobuf_lite:message_lite.obj
 0001:0003bd60       ?SerializeToString@MessageLite@protobuf@google@@QBE_NPAV?$basic_string@DU?$char_traits@D@std@@V?$allocator@D@2@@std@@@Z 1303cd60 f   protobuf_lite:message_lite.obj
 0001:0003bda0       ?SerializePartialToString@MessageLite@protobuf@google@@QBE_NPAV?$basic_string@DU?$char_traits@D@std@@V?$allocator@D@2@@std@@@Z 1303cda0 f   protobuf_lite:message_lite.obj
 0001:0003bde0       ?SerializeToArray@MessageLite@protobuf@google@@QBE_NPAXH@Z 1303cde0 f   protobuf_lite:message_lite.obj
 0001:0003bec0       ?SerializePartialToArray@MessageLite@protobuf@google@@QBE_NPAXH@Z 1303cec0 f   protobuf_lite:message_lite.obj
 0001:0003bf70       ?SerializeAsString@MessageLite@protobuf@google@@QBE?AV?$basic_string@DU?$char_traits@D@std@@V?$allocator@D@2@@std@@XZ 1303cf70 f   protobuf_lite:message_lite.obj
 0001:0003c020       ?SerializePartialAsString@MessageLite@protobuf@google@@QBE?AV?$basic_string@DU?$char_traits@D@std@@V?$allocator@D@2@@std@@XZ 1303d020 f   protobuf_lite:message_lite.obj
 0001:0003c0d0       ?data@?$basic_string@DU?$char_traits@D@std@@V?$allocator@D@2@@std@@QBEPBDXZ 1303d0d0 f i protobuf_lite:message_lite.obj
 0001:0003c100       ?resize@?$basic_string@DU?$char_traits@D@std@@V?$allocator@D@2@@std@@QAEXI@Z 1303d100 f i protobuf_lite:message_lite.obj
 0001:0003c130       ?empty@?$basic_string@DU?$char_traits@D@std@@V?$allocator@D@2@@std@@QBE_NXZ 1303d130 f i protobuf_lite:message_lite.obj
 0001:0003c150       ??D?$_String_iterator@DU?$char_traits@D@std@@V?$allocator@D@2@@std@@QBEAADXZ 1303d150 f i protobuf_lite:message_lite.obj
 0001:0003c180       ?resize@?$basic_string@DU?$char_traits@D@std@@V?$allocator@D@2@@std@@QAEXID@Z 1303d180 f i protobuf_lite:message_lite.obj
 0001:0003c1e0       ??D?$_String_const_iterator@DU?$char_traits@D@std@@V?$allocator@D@2@@std@@QBEABDXZ 1303d1e0 f i protobuf_lite:message_lite.obj
 0001:0003c290       ?append@?$basic_string@DU?$char_traits@D@std@@V?$allocator@D@2@@std@@QAEAAV12@ID@Z 1303d290 f i protobuf_lite:message_lite.obj
 0001:0003c320       ?_Chassign@?$basic_string@DU?$char_traits@D@std@@V?$allocator@D@2@@std@@IAEXIID@Z 1303d320 f i protobuf_lite:message_lite.obj
 0001:0003c380       ?assign@?$char_traits@D@std@@SAPADPADID@Z 1303d380 f i protobuf_lite:message_lite.obj
 0001:0003c3b0       ?SkipField@FieldSkipper@internal@protobuf@google@@QAE_NPAVCodedInputStream@io@34@I@Z 1303d3b0 f   protobuf_lite:wire_format_lite.obj
 0001:0003c3f0       ?SkipMessage@FieldSkipper@internal@protobuf@google@@QAE_NPAVCodedInputStream@io@34@@Z 1303d3f0 f   protobuf_lite:wire_format_lite.obj
 0001:0003c420       ?SkipUnknownEnum@FieldSkipper@internal@protobuf@google@@QAEXHH@Z 1303d420 f   protobuf_lite:wire_format_lite.obj
 0001:0003c460       ?SkipField@WireFormatLite@internal@protobuf@google@@SA_NPAVCodedInputStream@io@34@IPAVUnknownFieldSet@34@@Z 1303d460 f   protobuf_lite:wire_format_lite.obj
 0001:0003c6e0       ?ReadLittleEndian32@CodedInputStream@io@protobuf@google@@QAE_NPAI@Z 1303d6e0 f i protobuf_lite:wire_format_lite.obj
 0001:0003c740       ?ReadLittleEndian64@CodedInputStream@io@protobuf@google@@QAE_NPA_K@Z 1303d740 f i protobuf_lite:wire_format_lite.obj
 0001:0003c7a0       ?SkipMessage@WireFormatLite@internal@protobuf@google@@SA_NPAVCodedInputStream@io@34@PAVUnknownFieldSet@34@@Z 1303d7a0 f   protobuf_lite:wire_format_lite.obj
 0001:0003c820       ?SerializeUnknownFields@WireFormatLite@internal@protobuf@google@@SAXABVUnknownFieldSet@34@PAVCodedOutputStream@io@34@@Z 1303d820 f   protobuf_lite:wire_format_lite.obj
 0001:0003c9e0       ?WriteString@CodedOutputStream@io@protobuf@google@@QAEXABV?$basic_string@DU?$char_traits@D@std@@V?$allocator@D@2@@std@@@Z 1303d9e0 f i protobuf_lite:wire_format_lite.obj
 0001:0003ca20       ?field_count@UnknownFieldSet@protobuf@google@@QBEHXZ 1303da20 f i protobuf_lite:wire_format_lite.obj
 0001:0003ca70       ?field@UnknownFieldSet@protobuf@google@@QBEABVUnknownField@23@H@Z 1303da70 f i protobuf_lite:wire_format_lite.obj
 0001:0003caa0       ?number@UnknownField@protobuf@google@@QBEHXZ 1303daa0 f i protobuf_lite:wire_format_lite.obj
 0001:0003cac0       ?type@UnknownField@protobuf@google@@QBE?AW4Type@123@XZ 1303dac0 f i protobuf_lite:wire_format_lite.obj
 0001:0003cae0       ?varint@UnknownField@protobuf@google@@QBE_KXZ 1303dae0 f i protobuf_lite:wire_format_lite.obj
 0001:0003cb70       ?fixed32@UnknownField@protobuf@google@@QBEIXZ 1303db70 f i protobuf_lite:wire_format_lite.obj
 0001:0003cc00       ?fixed64@UnknownField@protobuf@google@@QBE_KXZ 1303dc00 f i protobuf_lite:wire_format_lite.obj
 0001:0003cca0       ?length_delimited@UnknownField@protobuf@google@@QBEABV?$basic_string@DU?$char_traits@D@std@@V?$allocator@D@2@@std@@XZ 1303dca0 f i protobuf_lite:wire_format_lite.obj
 0001:0003cd30       ?group@UnknownField@protobuf@google@@QBEABVUnknownFieldSet@23@XZ 1303dd30 f i protobuf_lite:wire_format_lite.obj
 0001:0003cdc0       ?SerializeUnknownFieldsToArray@WireFormatLite@internal@protobuf@google@@SAPAEABVUnknownFieldSet@34@PAE@Z 1303ddc0 f   protobuf_lite:wire_format_lite.obj
 0001:0003cf40       ?WriteTagToArray@WireFormatLite@internal@protobuf@google@@SAPAEHW4WireType@1234@PAE@Z 1303df40 f i protobuf_lite:wire_format_lite.obj
 0001:0003cf70       ?WriteTagToArray@CodedOutputStream@io@protobuf@google@@SAPAEIPAE@Z 1303df70 f i protobuf_lite:wire_format_lite.obj
 0001:0003cfe0       ?WriteInt64ToArray@WireFormatLite@internal@protobuf@google@@SAPAEH_JPAE@Z 1303dfe0 f i protobuf_lite:wire_format_lite.obj
 0001:0003d020       ?WriteInt64NoTagToArray@WireFormatLite@internal@protobuf@google@@SAPAE_JPAE@Z 1303e020 f i protobuf_lite:wire_format_lite.obj
 0001:0003d040       ?WriteFixed32ToArray@WireFormatLite@internal@protobuf@google@@SAPAEHIPAE@Z 1303e040 f i protobuf_lite:wire_format_lite.obj
 0001:0003d080       ?WriteFixed32NoTagToArray@WireFormatLite@internal@protobuf@google@@SAPAEIPAE@Z 1303e080 f i protobuf_lite:wire_format_lite.obj
 0001:0003d0a0       ?WriteLittleEndian32ToArray@CodedOutputStream@io@protobuf@google@@SAPAEIPAE@Z 1303e0a0 f i protobuf_lite:wire_format_lite.obj
 0001:0003d0d0       ?WriteFixed64ToArray@WireFormatLite@internal@protobuf@google@@SAPAEH_KPAE@Z 1303e0d0 f i protobuf_lite:wire_format_lite.obj
 0001:0003d110       ?WriteFixed64NoTagToArray@WireFormatLite@internal@protobuf@google@@SAPAE_KPAE@Z 1303e110 f i protobuf_lite:wire_format_lite.obj
 0001:0003d130       ?WriteLittleEndian64ToArray@CodedOutputStream@io@protobuf@google@@SAPAE_KPAE@Z 1303e130 f i protobuf_lite:wire_format_lite.obj
 0001:0003d160       ?WriteBytesToArray@WireFormatLite@internal@protobuf@google@@SAPAEHABV?$basic_string@DU?$char_traits@D@std@@V?$allocator@D@2@@std@@PAE@Z 1303e160 f i protobuf_lite:wire_format_lite.obj
 0001:0003d1b0       ?WriteVarint32ToArray@CodedOutputStream@io@protobuf@google@@SAPAEIPAE@Z 1303e1b0 f i protobuf_lite:wire_format_lite.obj
 0001:0003d1f0       ?WriteStringToArray@CodedOutputStream@io@protobuf@google@@SAPAEABV?$basic_string@DU?$char_traits@D@std@@V?$allocator@D@2@@std@@PAE@Z 1303e1f0 f i protobuf_lite:wire_format_lite.obj
 0001:0003d220       ?SerializeUnknownMessageSetItems@WireFormatLite@internal@protobuf@google@@SAXABVUnknownFieldSet@34@PAVCodedOutputStream@io@34@@Z 1303e220 f   protobuf_lite:wire_format_lite.obj
 0001:0003d2f0       ?SerializeUnknownMessageSetItemsToArray@WireFormatLite@internal@protobuf@google@@SAPAEABVUnknownFieldSet@34@PAE@Z 1303e2f0 f   protobuf_lite:wire_format_lite.obj
 0001:0003d400       ?ComputeUnknownFieldsSize@WireFormatLite@internal@protobuf@google@@SAHABVUnknownFieldSet@34@@Z 1303e400 f   protobuf_lite:wire_format_lite.obj
 0001:0003d5f0       ?ComputeUnknownMessageSetItemsSize@WireFormatLite@internal@protobuf@google@@SAHABVUnknownFieldSet@34@@Z 1303e5f0 f   protobuf_lite:wire_format_lite.obj
 0001:0003d6c0       ?ReadPackedEnumNoInline@WireFormatLite@internal@protobuf@google@@SA_NPAVCodedInputStream@io@34@P6A_NH@ZPAV?$RepeatedField@H@34@@Z 1303e6c0 f   protobuf_lite:wire_format_lite.obj
 0001:0003d7c0       ?WriteInt32@WireFormatLite@internal@protobuf@google@@SAXHHPAVCodedOutputStream@io@34@@Z 1303e7c0 f   protobuf_lite:wire_format_lite.obj
 0001:0003d7f0       ?WriteTag@WireFormatLite@internal@protobuf@google@@SAXHW4WireType@1234@PAVCodedOutputStream@io@34@@Z 1303e7f0 f i protobuf_lite:wire_format_lite.obj
 0001:0003d820       ?WriteTag@CodedOutputStream@io@protobuf@google@@QAEXI@Z 1303e820 f i protobuf_lite:wire_format_lite.obj
 0001:0003d850       ?WriteInt32NoTag@WireFormatLite@internal@protobuf@google@@SAXHPAVCodedOutputStream@io@34@@Z 1303e850 f i protobuf_lite:wire_format_lite.obj
 0001:0003d870       ?WriteVarint32SignExtended@CodedOutputStream@io@protobuf@google@@QAEXH@Z 1303e870 f i protobuf_lite:wire_format_lite.obj
 0001:0003d8b0       ?WriteInt64@WireFormatLite@internal@protobuf@google@@SAXH_JPAVCodedOutputStream@io@34@@Z 1303e8b0 f   protobuf_lite:wire_format_lite.obj
 0001:0003d8f0       ?WriteInt64NoTag@WireFormatLite@internal@protobuf@google@@SAX_JPAVCodedOutputStream@io@34@@Z 1303e8f0 f i protobuf_lite:wire_format_lite.obj
 0001:0003d910       ?WriteUInt32@WireFormatLite@internal@protobuf@google@@SAXHIPAVCodedOutputStream@io@34@@Z 1303e910 f   protobuf_lite:wire_format_lite.obj
 0001:0003d940       ?WriteUInt32NoTag@WireFormatLite@internal@protobuf@google@@SAXIPAVCodedOutputStream@io@34@@Z 1303e940 f i protobuf_lite:wire_format_lite.obj
 0001:0003d960       ?WriteUInt64@WireFormatLite@internal@protobuf@google@@SAXH_KPAVCodedOutputStream@io@34@@Z 1303e960 f   protobuf_lite:wire_format_lite.obj
 0001:0003d9a0       ?WriteUInt64NoTag@WireFormatLite@internal@protobuf@google@@SAX_KPAVCodedOutputStream@io@34@@Z 1303e9a0 f i protobuf_lite:wire_format_lite.obj
 0001:0003d9c0       ?WriteSInt32@WireFormatLite@internal@protobuf@google@@SAXHHPAVCodedOutputStream@io@34@@Z 1303e9c0 f   protobuf_lite:wire_format_lite.obj
 0001:0003d9f0       ?WriteSInt32NoTag@WireFormatLite@internal@protobuf@google@@SAXHPAVCodedOutputStream@io@34@@Z 1303e9f0 f i protobuf_lite:wire_format_lite.obj
 0001:0003da20       ?ZigZagEncode32@WireFormatLite@internal@protobuf@google@@SAIH@Z 1303ea20 f i protobuf_lite:wire_format_lite.obj
 0001:0003da40       ?WriteSInt64@WireFormatLite@internal@protobuf@google@@SAXH_JPAVCodedOutputStream@io@34@@Z 1303ea40 f   protobuf_lite:wire_format_lite.obj
 0001:0003da80       ?WriteSInt64NoTag@WireFormatLite@internal@protobuf@google@@SAX_JPAVCodedOutputStream@io@34@@Z 1303ea80 f i protobuf_lite:wire_format_lite.obj
 0001:0003dab0       ?ZigZagEncode64@WireFormatLite@internal@protobuf@google@@SA_K_J@Z 1303eab0 f i protobuf_lite:wire_format_lite.obj
 0001:0003daf0       ?WriteFixed32@WireFormatLite@internal@protobuf@google@@SAXHIPAVCodedOutputStream@io@34@@Z 1303eaf0 f   protobuf_lite:wire_format_lite.obj
 0001:0003db20       ?WriteFixed32NoTag@WireFormatLite@internal@protobuf@google@@SAXIPAVCodedOutputStream@io@34@@Z 1303eb20 f i protobuf_lite:wire_format_lite.obj
 0001:0003db40       ?WriteFixed64@WireFormatLite@internal@protobuf@google@@SAXH_KPAVCodedOutputStream@io@34@@Z 1303eb40 f   protobuf_lite:wire_format_lite.obj
 0001:0003db80       ?WriteFixed64NoTag@WireFormatLite@internal@protobuf@google@@SAX_KPAVCodedOutputStream@io@34@@Z 1303eb80 f i protobuf_lite:wire_format_lite.obj
 0001:0003dba0       ?WriteSFixed32@WireFormatLite@internal@protobuf@google@@SAXHHPAVCodedOutputStream@io@34@@Z 1303eba0 f   protobuf_lite:wire_format_lite.obj
 0001:0003dbd0       ?WriteSFixed32NoTag@WireFormatLite@internal@protobuf@google@@SAXHPAVCodedOutputStream@io@34@@Z 1303ebd0 f i protobuf_lite:wire_format_lite.obj
 0001:0003dbf0       ?WriteSFixed64@WireFormatLite@internal@protobuf@google@@SAXH_JPAVCodedOutputStream@io@34@@Z 1303ebf0 f   protobuf_lite:wire_format_lite.obj
 0001:0003dc30       ?WriteSFixed64NoTag@WireFormatLite@internal@protobuf@google@@SAX_JPAVCodedOutputStream@io@34@@Z 1303ec30 f i protobuf_lite:wire_format_lite.obj
 0001:0003dc50       ?WriteFloat@WireFormatLite@internal@protobuf@google@@SAXHMPAVCodedOutputStream@io@34@@Z 1303ec50 f   protobuf_lite:wire_format_lite.obj
 0001:0003dc90       ?WriteFloatNoTag@WireFormatLite@internal@protobuf@google@@SAXMPAVCodedOutputStream@io@34@@Z 1303ec90 f i protobuf_lite:wire_format_lite.obj
 0001:0003dcc0       ?EncodeFloat@WireFormatLite@internal@protobuf@google@@SAIM@Z 1303ecc0 f i protobuf_lite:wire_format_lite.obj
 0001:0003dd20       ?WriteDouble@WireFormatLite@internal@protobuf@google@@SAXHNPAVCodedOutputStream@io@34@@Z 1303ed20 f   protobuf_lite:wire_format_lite.obj
 0001:0003dd60       ?WriteDoubleNoTag@WireFormatLite@internal@protobuf@google@@SAXNPAVCodedOutputStream@io@34@@Z 1303ed60 f i protobuf_lite:wire_format_lite.obj
 0001:0003dd90       ?EncodeDouble@WireFormatLite@internal@protobuf@google@@SA_KN@Z 1303ed90 f i protobuf_lite:wire_format_lite.obj
 0001:0003dde0       ?WriteBool@WireFormatLite@internal@protobuf@google@@SAXH_NPAVCodedOutputStream@io@34@@Z 1303ede0 f   protobuf_lite:wire_format_lite.obj
 0001:0003de10       ?WriteBoolNoTag@WireFormatLite@internal@protobuf@google@@SAX_NPAVCodedOutputStream@io@34@@Z 1303ee10 f i protobuf_lite:wire_format_lite.obj
 0001:0003de30       ?WriteEnum@WireFormatLite@internal@protobuf@google@@SAXHHPAVCodedOutputStream@io@34@@Z 1303ee30 f   protobuf_lite:wire_format_lite.obj
 0001:0003de60       ?WriteEnumNoTag@WireFormatLite@internal@protobuf@google@@SAXHPAVCodedOutputStream@io@34@@Z 1303ee60 f i protobuf_lite:wire_format_lite.obj
 0001:0003de80       ?WriteString@WireFormatLite@internal@protobuf@google@@SAXHABV?$basic_string@DU?$char_traits@D@std@@V?$allocator@D@2@@std@@PAVCodedOutputStream@io@34@@Z 1303ee80 f   protobuf_lite:wire_format_lite.obj
 0001:0003dec0       ?WriteBytes@WireFormatLite@internal@protobuf@google@@SAXHABV?$basic_string@DU?$char_traits@D@std@@V?$allocator@D@2@@std@@PAVCodedOutputStream@io@34@@Z 1303eec0 f   protobuf_lite:wire_format_lite.obj
 0001:0003df00       ?WriteGroup@WireFormatLite@internal@protobuf@google@@SAXHABVMessageLite@34@PAVCodedOutputStream@io@34@@Z 1303ef00 f   protobuf_lite:wire_format_lite.obj
 0001:0003df50       ?WriteMessage@WireFormatLite@internal@protobuf@google@@SAXHABVMessageLite@34@PAVCodedOutputStream@io@34@@Z 1303ef50 f   protobuf_lite:wire_format_lite.obj
 0001:0003dfc0       ?WriteGroupMaybeToArray@WireFormatLite@internal@protobuf@google@@SAXHABVMessageLite@34@PAVCodedOutputStream@io@34@@Z 1303efc0 f   protobuf_lite:wire_format_lite.obj
 0001:0003e0d0       ?WriteMessageMaybeToArray@WireFormatLite@internal@protobuf@google@@SAXHABVMessageLite@34@PAVCodedOutputStream@io@34@@Z 1303f0d0 f   protobuf_lite:wire_format_lite.obj
 0001:0003e1e0       ?ReadString@WireFormatLite@internal@protobuf@google@@SA_NPAVCodedInputStream@io@34@PAV?$basic_string@DU?$char_traits@D@std@@V?$allocator@D@2@@std@@@Z 1303f1e0 f   protobuf_lite:wire_format_lite.obj
 0001:0003e270       ?InternalReadStringInline@CodedInputStream@io@protobuf@google@@QAE_NPAV?$basic_string@DU?$char_traits@D@std@@V?$allocator@D@2@@std@@H@Z 1303f270 f i protobuf_lite:wire_format_lite.obj
 0001:0003e300       ?ReadBytes@WireFormatLite@internal@protobuf@google@@SA_NPAVCodedInputStream@io@34@PAV?$basic_string@DU?$char_traits@D@std@@V?$allocator@D@2@@std@@@Z 1303f300 f   protobuf_lite:wire_format_lite.obj
 0001:0003e380       ?size@?$vector@VUnknownField@protobuf@google@@V?$allocator@VUnknownField@protobuf@google@@@std@@@std@@QBEIXZ 1303f380 f i protobuf_lite:wire_format_lite.obj
 0001:0003e3d0       ??A?$vector@VUnknownField@protobuf@google@@V?$allocator@VUnknownField@protobuf@google@@@std@@@std@@QAEAAVUnknownField@protobuf@google@@I@Z 1303f3d0 f i protobuf_lite:wire_format_lite.obj
 0001:0003e4c0       ?Add@?$RepeatedField@H@protobuf@google@@QAEXABH@Z 1303f4c0 f i protobuf_lite:wire_format_lite.obj
 0001:0003e520       ?Reserve@?$RepeatedField@H@protobuf@google@@QAEXH@Z 1303f520 f i protobuf_lite:wire_format_lite.obj
 0001:0003e5f0       ?MoveArray@?$RepeatedField@H@protobuf@google@@AAEXQAH0H@Z 1303f5f0 f i protobuf_lite:wire_format_lite.obj
 0001:0003e630       ??$max@H@std@@YAABHABH0@Z  1303f630 f i protobuf_lite:wire_format_lite.obj
 0001:0003e690       ??$_Debug_lt@HH@std@@YA_NABH0PB_WI@Z 1303f690 f i protobuf_lite:wire_format_lite.obj
 0001:0003e6e0       ?BackUpInputToCurrentPosition@CodedInputStream@io@protobuf@google@@AAEXXZ 1303f6e0 f   protobuf_lite:coded_stream.obj
 0001:0003e780       ?PushLimit@CodedInputStream@io@protobuf@google@@QAEHH@Z 1303f780 f   protobuf_lite:coded_stream.obj
 0001:0003e860       ?RecomputeBufferLimits@CodedInputStream@io@protobuf@google@@AAEXXZ 1303f860 f i protobuf_lite:coded_stream.obj
 0001:0003e8f0       ?PopLimit@CodedInputStream@io@protobuf@google@@QAEXH@Z 1303f8f0 f   protobuf_lite:coded_stream.obj
 0001:0003e930       ?BytesUntilLimit@CodedInputStream@io@protobuf@google@@QAEHXZ 1303f930 f   protobuf_lite:coded_stream.obj
 0001:0003e990       ?SetTotalBytesLimit@CodedInputStream@io@protobuf@google@@QAEXHH@Z 1303f990 f   protobuf_lite:coded_stream.obj
 0001:0003ea40       ?PrintTotalBytesLimitError@CodedInputStream@io@protobuf@google@@AAEXXZ 1303fa40 f   protobuf_lite:coded_stream.obj
 0001:0003eac0       ?Skip@CodedInputStream@io@protobuf@google@@QAE_NH@Z 1303fac0 f   protobuf_lite:coded_stream.obj
 0001:0003ebf0       ?GetDirectBufferPointer@CodedInputStream@io@protobuf@google@@QAE_NPAPBXPAH@Z 1303fbf0 f   protobuf_lite:coded_stream.obj
 0001:0003ec50       ?ReadRaw@CodedInputStream@io@protobuf@google@@QAE_NPAXH@Z 1303fc50 f   protobuf_lite:coded_stream.obj
 0001:0003ed00       ?ReadString@CodedInputStream@io@protobuf@google@@QAE_NPAV?$basic_string@DU?$char_traits@D@std@@V?$allocator@D@2@@std@@H@Z 1303fd00 f   protobuf_lite:coded_stream.obj
 0001:0003ed40       ?ReadStringFallback@CodedInputStream@io@protobuf@google@@AAE_NPAV?$basic_string@DU?$char_traits@D@std@@V?$allocator@D@2@@std@@H@Z 1303fd40 f   protobuf_lite:coded_stream.obj
 0001:0003ee00       ?ReadLittleEndian32Fallback@CodedInputStream@io@protobuf@google@@AAE_NPAI@Z 1303fe00 f   protobuf_lite:coded_stream.obj
 0001:0003eeb0       ?ReadLittleEndian32FromArray@CodedInputStream@io@protobuf@google@@SAPBEPBEPAI@Z 1303feb0 f i protobuf_lite:coded_stream.obj
 0001:0003eee0       ?ReadLittleEndian64Fallback@CodedInputStream@io@protobuf@google@@AAE_NPA_K@Z 1303fee0 f   protobuf_lite:coded_stream.obj
 0001:0003efb0       ?ReadLittleEndian64FromArray@CodedInputStream@io@protobuf@google@@SAPBEPBEPA_K@Z 1303ffb0 f i protobuf_lite:coded_stream.obj
 0001:0003efe0       ?ReadVarint32Slow@CodedInputStream@io@protobuf@google@@AAE_NPAI@Z 1303ffe0 f   protobuf_lite:coded_stream.obj
 0001:0003f060       ?ReadVarint32Fallback@CodedInputStream@io@protobuf@google@@AAE_NPAI@Z 13040060 f   protobuf_lite:coded_stream.obj
 0001:0003f0f0       ?ReadVarint32FromArray@?A0x3af9153b@io@protobuf@google@@YAPBEPBEPAI@Z 130400f0 f i protobuf_lite:coded_stream.obj
 0001:0003f260       ?ReadTagSlow@CodedInputStream@io@protobuf@google@@AAEIXZ 13040260 f   protobuf_lite:coded_stream.obj
 0001:0003f330       ?ReadTagFallback@CodedInputStream@io@protobuf@google@@AAEIXZ 13040330 f   protobuf_lite:coded_stream.obj
 0001:0003f420       ?ReadVarint64Slow@CodedInputStream@io@protobuf@google@@AAE_NPA_K@Z 13040420 f   protobuf_lite:coded_stream.obj
 0001:0003f4f0       ?ReadVarint64Fallback@CodedInputStream@io@protobuf@google@@AAE_NPA_K@Z 130404f0 f   protobuf_lite:coded_stream.obj
 0001:0003f7c0       ?Refresh@CodedInputStream@io@protobuf@google@@AAE_NXZ 130407c0 f   protobuf_lite:coded_stream.obj
 0001:0003fa80       ?NextNonEmpty@?A0x3af9153b@io@protobuf@google@@YA_NPAVZeroCopyInputStream@234@PAPBXPAH@Z 13040a80 f i protobuf_lite:coded_stream.obj
 0001:0003fad0       ??0CodedOutputStream@io@protobuf@google@@QAE@PAVZeroCopyOutputStream@123@@Z 13040ad0 f   protobuf_lite:coded_stream.obj
 0001:0003fb30       ??1CodedOutputStream@io@protobuf@google@@QAE@XZ 13040b30 f   protobuf_lite:coded_stream.obj
 0001:0003fb80       ?Skip@CodedOutputStream@io@protobuf@google@@QAE_NH@Z 13040b80 f   protobuf_lite:coded_stream.obj
 0001:0003fbf0       ?GetDirectBufferPointer@CodedOutputStream@io@protobuf@google@@QAE_NPAPAXPAH@Z 13040bf0 f   protobuf_lite:coded_stream.obj
 0001:0003fc50       ?WriteRaw@CodedOutputStream@io@protobuf@google@@QAEXPBXH@Z 13040c50 f   protobuf_lite:coded_stream.obj
 0001:0003fcf0       ?WriteRawToArray@CodedOutputStream@io@protobuf@google@@SAPAEPBXHPAE@Z 13040cf0 f   protobuf_lite:coded_stream.obj
 0001:0003fd20       ?WriteLittleEndian32@CodedOutputStream@io@protobuf@google@@QAEXI@Z 13040d20 f   protobuf_lite:coded_stream.obj
 0001:0003fde0       ?WriteLittleEndian64@CodedOutputStream@io@protobuf@google@@QAEX_K@Z 13040de0 f   protobuf_lite:coded_stream.obj
 0001:0003fec0       ?WriteVarint32@CodedOutputStream@io@protobuf@google@@QAEXI@Z 13040ec0 f   protobuf_lite:coded_stream.obj
 0001:0003ffd0       ?WriteVarint32FallbackToArrayInline@CodedOutputStream@io@protobuf@google@@CAPAEIPAE@Z 13040fd0 f i protobuf_lite:coded_stream.obj
 0001:000400c0       ?WriteVarint32FallbackToArray@CodedOutputStream@io@protobuf@google@@CAPAEIPAE@Z 130410c0 f   protobuf_lite:coded_stream.obj
 0001:000400e0       ?WriteVarint64@CodedOutputStream@io@protobuf@google@@QAEX_K@Z 130410e0 f   protobuf_lite:coded_stream.obj
 0001:00040200       ?WriteVarint64ToArrayInline@CodedOutputStream@io@protobuf@google@@CAPAE_KPAE@Z 13041200 f i protobuf_lite:coded_stream.obj
 0001:00040420       ?WriteVarint64ToArray@CodedOutputStream@io@protobuf@google@@SAPAE_KPAE@Z 13041420 f   protobuf_lite:coded_stream.obj
 0001:00040440       ?Refresh@CodedOutputStream@io@protobuf@google@@AAE_NXZ 13041440 f   protobuf_lite:coded_stream.obj
 0001:00040510       ?VarintSize32Fallback@CodedOutputStream@io@protobuf@google@@CAHI@Z 13041510 f   protobuf_lite:coded_stream.obj
 0001:00040570       ?VarintSize64@CodedOutputStream@io@protobuf@google@@SAH_K@Z 13041570 f   protobuf_lite:coded_stream.obj
 0001:00040670       ??$min@H@std@@YAABHABH0@Z  13041670 f i protobuf_lite:coded_stream.obj
 0001:000406d0       ?Infinity@internal@protobuf@google@@YANXZ 130416d0 f   protobuf_lite:generated_message_util.obj
 0001:000406f0       ?infinity@?$numeric_limits@N@std@@SANXZ 130416f0 f i protobuf_lite:generated_message_util.obj
 0001:00040700       ?NaN@internal@protobuf@google@@YANXZ 13041700 f   protobuf_lite:generated_message_util.obj
 0001:00040720       ?quiet_NaN@?$numeric_limits@N@std@@SANXZ 13041720 f i protobuf_lite:generated_message_util.obj
 0001:00040730       ?Reserve@RepeatedPtrFieldBase@internal@protobuf@google@@IAEXH@Z 13041730 f   protobuf_lite:repeated_field.obj
 0001:00040800       ?Swap@RepeatedPtrFieldBase@internal@protobuf@google@@IAEXPAV1234@@Z 13041800 f   protobuf_lite:repeated_field.obj
 0001:00040950       ?New@StringTypeHandlerBase@internal@protobuf@google@@SAPAV?$basic_string@DU?$char_traits@D@std@@V?$allocator@D@2@@std@@XZ 13041950 f   protobuf_lite:repeated_field.obj
 0001:000409a0       ?Delete@StringTypeHandlerBase@internal@protobuf@google@@SAXPAV?$basic_string@DU?$char_traits@D@std@@V?$allocator@D@2@@std@@@Z 130419a0 f   protobuf_lite:repeated_field.obj
 0001:00040a00       ??0ArrayInputStream@io@protobuf@google@@QAE@PBXHH@Z 13041a00 f   protobuf_lite:zero_copy_stream_impl_lite.obj
 0001:00040a80       ??0ZeroCopyInputStream@io@protobuf@google@@QAE@XZ 13041a80 f i protobuf_lite:zero_copy_stream_impl_lite.obj
 0001:00040aa0       ??_GZeroCopyInputStream@io@protobuf@google@@UAEPAXI@Z 13041aa0 f i protobuf_lite:zero_copy_stream_impl_lite.obj
 0001:00040aa0       ??_EZeroCopyInputStream@io@protobuf@google@@UAEPAXI@Z 13041aa0 f i protobuf_lite:zero_copy_stream_impl_lite.obj
 0001:00040ae0       ??_EArrayInputStream@io@protobuf@google@@UAEPAXI@Z 13041ae0 f i protobuf_lite:zero_copy_stream_impl_lite.obj
 0001:00040ae0       ??_GArrayInputStream@io@protobuf@google@@UAEPAXI@Z 13041ae0 f i protobuf_lite:zero_copy_stream_impl_lite.obj
 0001:00040b20       ??1ArrayInputStream@io@protobuf@google@@UAE@XZ 13041b20 f   protobuf_lite:zero_copy_stream_impl_lite.obj
 0001:00040b50       ?Next@ArrayInputStream@io@protobuf@google@@UAE_NPAPBXPAH@Z 13041b50 f   protobuf_lite:zero_copy_stream_impl_lite.obj
 0001:00040bf0       ?BackUp@ArrayInputStream@io@protobuf@google@@UAEXH@Z 13041bf0 f   protobuf_lite:zero_copy_stream_impl_lite.obj
 0001:00040d60       ?Skip@ArrayInputStream@io@protobuf@google@@UAE_NH@Z 13041d60 f   protobuf_lite:zero_copy_stream_impl_lite.obj
 0001:00040e20       ?ByteCount@ArrayInputStream@io@protobuf@google@@UBE_JXZ 13041e20 f   protobuf_lite:zero_copy_stream_impl_lite.obj
 0001:00040e40       ??0ArrayOutputStream@io@protobuf@google@@QAE@PAXHH@Z 13041e40 f   protobuf_lite:zero_copy_stream_impl_lite.obj
 0001:00040ec0       ??0ZeroCopyOutputStream@io@protobuf@google@@QAE@XZ 13041ec0 f i protobuf_lite:zero_copy_stream_impl_lite.obj
 0001:00040ee0       ??_EZeroCopyOutputStream@io@protobuf@google@@UAEPAXI@Z 13041ee0 f i protobuf_lite:zero_copy_stream_impl_lite.obj
 0001:00040ee0       ??_GZeroCopyOutputStream@io@protobuf@google@@UAEPAXI@Z 13041ee0 f i protobuf_lite:zero_copy_stream_impl_lite.obj
 0001:00040f20       ??_GArrayOutputStream@io@protobuf@google@@UAEPAXI@Z 13041f20 f i protobuf_lite:zero_copy_stream_impl_lite.obj
 0001:00040f20       ??_EArrayOutputStream@io@protobuf@google@@UAEPAXI@Z 13041f20 f i protobuf_lite:zero_copy_stream_impl_lite.obj
 0001:00040f60       ??1ArrayOutputStream@io@protobuf@google@@UAE@XZ 13041f60 f   protobuf_lite:zero_copy_stream_impl_lite.obj
 0001:00040f90       ?Next@ArrayOutputStream@io@protobuf@google@@UAE_NPAPAXPAH@Z 13041f90 f   protobuf_lite:zero_copy_stream_impl_lite.obj
 0001:00041030       ?BackUp@ArrayOutputStream@io@protobuf@google@@UAEXH@Z 13042030 f   protobuf_lite:zero_copy_stream_impl_lite.obj
 0001:000411b0       ?ByteCount@ArrayOutputStream@io@protobuf@google@@UBE_JXZ 130421b0 f   protobuf_lite:zero_copy_stream_impl_lite.obj
 0001:000411d0       ??0StringOutputStream@io@protobuf@google@@QAE@PAV?$basic_string@DU?$char_traits@D@std@@V?$allocator@D@2@@std@@@Z 130421d0 f   protobuf_lite:zero_copy_stream_impl_lite.obj
 0001:00041210       ??_GStringOutputStream@io@protobuf@google@@UAEPAXI@Z 13042210 f i protobuf_lite:zero_copy_stream_impl_lite.obj
 0001:00041210       ??_EStringOutputStream@io@protobuf@google@@UAEPAXI@Z 13042210 f i protobuf_lite:zero_copy_stream_impl_lite.obj
 0001:00041250       ??1StringOutputStream@io@protobuf@google@@UAE@XZ 13042250 f   protobuf_lite:zero_copy_stream_impl_lite.obj
 0001:00041280       ?Next@StringOutputStream@io@protobuf@google@@UAE_NPAPAXPAH@Z 13042280 f   protobuf_lite:zero_copy_stream_impl_lite.obj
 0001:00041350       ?BackUp@StringOutputStream@io@protobuf@google@@UAEXH@Z 13042350 f   protobuf_lite:zero_copy_stream_impl_lite.obj
 0001:00041450       ?ByteCount@StringOutputStream@io@protobuf@google@@UBE_JXZ 13042450 f   protobuf_lite:zero_copy_stream_impl_lite.obj
 0001:00041480       ??1CopyingInputStream@io@protobuf@google@@UAE@XZ 13042480 f   protobuf_lite:zero_copy_stream_impl_lite.obj
 0001:000414a0       ??_GCopyingInputStream@io@protobuf@google@@UAEPAXI@Z 130424a0 f i protobuf_lite:zero_copy_stream_impl_lite.obj
 0001:000414a0       ??_ECopyingInputStream@io@protobuf@google@@UAEPAXI@Z 130424a0 f i protobuf_lite:zero_copy_stream_impl_lite.obj
 0001:000414e0       ?Skip@CopyingInputStream@io@protobuf@google@@UAEHH@Z 130424e0 f   protobuf_lite:zero_copy_stream_impl_lite.obj
 0001:00041610       ??0CopyingInputStreamAdaptor@io@protobuf@google@@QAE@PAVCopyingInputStream@123@H@Z 13042610 f   protobuf_lite:zero_copy_stream_impl_lite.obj
 0001:000416c0       ??_GCopyingInputStreamAdaptor@io@protobuf@google@@UAEPAXI@Z 130426c0 f i protobuf_lite:zero_copy_stream_impl_lite.obj
 0001:000416c0       ??_ECopyingInputStreamAdaptor@io@protobuf@google@@UAEPAXI@Z 130426c0 f i protobuf_lite:zero_copy_stream_impl_lite.obj
 0001:00041700       ??1CopyingInputStreamAdaptor@io@protobuf@google@@UAE@XZ 13042700 f   protobuf_lite:zero_copy_stream_impl_lite.obj
 0001:00041790       ?Next@CopyingInputStreamAdaptor@io@protobuf@google@@UAE_NPAPBXPAH@Z 13042790 f   protobuf_lite:zero_copy_stream_impl_lite.obj
 0001:000418a0       ?BackUp@CopyingInputStreamAdaptor@io@protobuf@google@@UAEXH@Z 130428a0 f   protobuf_lite:zero_copy_stream_impl_lite.obj
 0001:00041a30       ?Skip@CopyingInputStreamAdaptor@io@protobuf@google@@UAE_NH@Z 13042a30 f   protobuf_lite:zero_copy_stream_impl_lite.obj
 0001:00041b40       ?ByteCount@CopyingInputStreamAdaptor@io@protobuf@google@@UBE_JXZ 13042b40 f   protobuf_lite:zero_copy_stream_impl_lite.obj
 0001:00041b70       ?AllocateBufferIfNeeded@CopyingInputStreamAdaptor@io@protobuf@google@@AAEXXZ 13042b70 f   protobuf_lite:zero_copy_stream_impl_lite.obj
 0001:00041bd0       ?FreeBuffer@CopyingInputStreamAdaptor@io@protobuf@google@@AAEXXZ 13042bd0 f   protobuf_lite:zero_copy_stream_impl_lite.obj
 0001:00041c70       ??1CopyingOutputStream@io@protobuf@google@@UAE@XZ 13042c70 f   protobuf_lite:zero_copy_stream_impl_lite.obj
 0001:00041c90       ??_GCopyingOutputStream@io@protobuf@google@@UAEPAXI@Z 13042c90 f i protobuf_lite:zero_copy_stream_impl_lite.obj
 0001:00041c90       ??_ECopyingOutputStream@io@protobuf@google@@UAEPAXI@Z 13042c90 f i protobuf_lite:zero_copy_stream_impl_lite.obj
 0001:00041cd0       ??0CopyingOutputStreamAdaptor@io@protobuf@google@@QAE@PAVCopyingOutputStream@123@H@Z 13042cd0 f   protobuf_lite:zero_copy_stream_impl_lite.obj
 0001:00041d70       ??_GCopyingOutputStreamAdaptor@io@protobuf@google@@UAEPAXI@Z 13042d70 f i protobuf_lite:zero_copy_stream_impl_lite.obj
 0001:00041d70       ??_ECopyingOutputStreamAdaptor@io@protobuf@google@@UAEPAXI@Z 13042d70 f i protobuf_lite:zero_copy_stream_impl_lite.obj
 0001:00041db0       ??1CopyingOutputStreamAdaptor@io@protobuf@google@@UAE@XZ 13042db0 f   protobuf_lite:zero_copy_stream_impl_lite.obj
 0001:00041e50       ?Flush@CopyingOutputStreamAdaptor@io@protobuf@google@@QAE_NXZ 13042e50 f   protobuf_lite:zero_copy_stream_impl_lite.obj
 0001:00041e80       ?Next@CopyingOutputStreamAdaptor@io@protobuf@google@@UAE_NPAPAXPAH@Z 13042e80 f   protobuf_lite:zero_copy_stream_impl_lite.obj
 0001:00041f00       ?BackUp@CopyingOutputStreamAdaptor@io@protobuf@google@@UAEXH@Z 13042f00 f   protobuf_lite:zero_copy_stream_impl_lite.obj
 0001:00042080       ?ByteCount@CopyingOutputStreamAdaptor@io@protobuf@google@@UBE_JXZ 13043080 f   protobuf_lite:zero_copy_stream_impl_lite.obj
 0001:000420b0       ?WriteBuffer@CopyingOutputStreamAdaptor@io@protobuf@google@@AAE_NXZ 130430b0 f   protobuf_lite:zero_copy_stream_impl_lite.obj
 0001:00042160       ?AllocateBufferIfNeeded@CopyingOutputStreamAdaptor@io@protobuf@google@@AAEXXZ 13043160 f   protobuf_lite:zero_copy_stream_impl_lite.obj
 0001:000421c0       ?FreeBuffer@CopyingOutputStreamAdaptor@io@protobuf@google@@AAEXXZ 130431c0 f   protobuf_lite:zero_copy_stream_impl_lite.obj
 0001:00042200       ?capacity@?$basic_string@DU?$char_traits@D@std@@V?$allocator@D@2@@std@@QBEIXZ 13043200 f i protobuf_lite:zero_copy_stream_impl_lite.obj
 0001:00042220       ??0?$scoped_array@E@internal@protobuf@google@@QAE@PAE@Z 13043220 f i protobuf_lite:zero_copy_stream_impl_lite.obj
 0001:00042240       ??1?$scoped_array@E@internal@protobuf@google@@QAE@XZ 13043240 f i protobuf_lite:zero_copy_stream_impl_lite.obj
 0001:00042280       ?reset@?$scoped_array@E@internal@protobuf@google@@QAEXPAE@Z 13043280 f i protobuf_lite:zero_copy_stream_impl_lite.obj
 0001:000422d0       ?get@?$scoped_array@E@internal@protobuf@google@@QBEPAEXZ 130432d0 f i protobuf_lite:zero_copy_stream_impl_lite.obj
 0001:000422f0       ??8?$scoped_array@E@internal@protobuf@google@@QBE_NPAE@Z 130432f0 f i protobuf_lite:zero_copy_stream_impl_lite.obj
 0001:00042320       ??$implicit_cast@HI@internal@protobuf@google@@YAHABI@Z 13043320 f i protobuf_lite:zero_copy_stream_impl_lite.obj
 0001:00042330       ?NoBarrier_CompareAndSwap@internal@protobuf@google@@YAHPCHHH@Z 13043330 f   protobuf_lite:atomicops_internals_x86_msvc.obj
 0001:00042370       ?NoBarrier_AtomicExchange@internal@protobuf@google@@YAHPCHH@Z 13043370 f   protobuf_lite:atomicops_internals_x86_msvc.obj
 0001:000423b0       ?Barrier_AtomicIncrement@internal@protobuf@google@@YAHPCHH@Z 130433b0 f   protobuf_lite:atomicops_internals_x86_msvc.obj
 0001:000423e0       ?StringSpaceUsedExcludingSelf@internal@protobuf@google@@YAHABV?$basic_string@DU?$char_traits@D@std@@V?$allocator@D@2@@std@@@Z 130433e0 f   protobuf_lite:unknown_field_set.obj
 0001:00042440       ??0UnknownFieldSet@protobuf@google@@QAE@XZ 13043440 f   protobuf_lite:unknown_field_set.obj
 0001:00042460       ??1UnknownFieldSet@protobuf@google@@QAE@XZ 13043460 f   protobuf_lite:unknown_field_set.obj
 0001:000424c0       ?Clear@UnknownFieldSet@protobuf@google@@QAEXXZ 130434c0 f i protobuf_lite:unknown_field_set.obj
 0001:000424f0       ??_G?$vector@VUnknownField@protobuf@google@@V?$allocator@VUnknownField@protobuf@google@@@std@@@std@@QAEPAXI@Z 130434f0 f i protobuf_lite:unknown_field_set.obj
 0001:00042530       ?ClearFallback@UnknownFieldSet@protobuf@google@@AAEXXZ 13043530 f   protobuf_lite:unknown_field_set.obj
 0001:000425f0       ?MergeFrom@UnknownFieldSet@protobuf@google@@QAEXABV123@@Z 130435f0 f   protobuf_lite:unknown_field_set.obj
 0001:00042650       ?SpaceUsedExcludingSelf@UnknownFieldSet@protobuf@google@@QBEHXZ 13043650 f   protobuf_lite:unknown_field_set.obj
 0001:00042720       ?SpaceUsed@UnknownFieldSet@protobuf@google@@QBEHXZ 13043720 f   protobuf_lite:unknown_field_set.obj
 0001:00042750       ?AddVarint@UnknownFieldSet@protobuf@google@@QAEXH_K@Z 13043750 f   protobuf_lite:unknown_field_set.obj
 0001:00042830       ?AddFixed32@UnknownFieldSet@protobuf@google@@QAEXHI@Z 13043830 f   protobuf_lite:unknown_field_set.obj
 0001:00042910       ?AddFixed64@UnknownFieldSet@protobuf@google@@QAEXH_K@Z 13043910 f   protobuf_lite:unknown_field_set.obj
 0001:000429f0       ?AddLengthDelimited@UnknownFieldSet@protobuf@google@@QAEPAV?$basic_string@DU?$char_traits@D@std@@V?$allocator@D@2@@std@@H@Z 130439f0 f   protobuf_lite:unknown_field_set.obj
 0001:00042af0       ?AddGroup@UnknownFieldSet@protobuf@google@@QAEPAV123@H@Z 13043af0 f   protobuf_lite:unknown_field_set.obj
 0001:00042bf0       ?AddField@UnknownFieldSet@protobuf@google@@QAEXABVUnknownField@23@@Z 13043bf0 f   protobuf_lite:unknown_field_set.obj
 0001:00042c80       ?MergeFromCodedStream@UnknownFieldSet@protobuf@google@@QAE_NPAVCodedInputStream@io@23@@Z 13043c80 f   protobuf_lite:unknown_field_set.obj
 0001:00042d40       ?ParseFromCodedStream@UnknownFieldSet@protobuf@google@@QAE_NPAVCodedInputStream@io@23@@Z 13043d40 f   protobuf_lite:unknown_field_set.obj
 0001:00042d80       ?ParseFromZeroCopyStream@UnknownFieldSet@protobuf@google@@QAE_NPAVZeroCopyInputStream@io@23@@Z 13043d80 f   protobuf_lite:unknown_field_set.obj
 0001:00042e30       ?ParseFromArray@UnknownFieldSet@protobuf@google@@QAE_NPBXH@Z 13043e30 f   protobuf_lite:unknown_field_set.obj
 0001:00042ec0       ?Delete@UnknownField@protobuf@google@@AAEXXZ 13043ec0 f   protobuf_lite:unknown_field_set.obj
 0001:00042f70       ??_GUnknownFieldSet@protobuf@google@@QAEPAXI@Z 13043f70 f i protobuf_lite:unknown_field_set.obj
 0001:00042fb0       ?DeepCopy@UnknownField@protobuf@google@@AAEXXZ 13043fb0 f   protobuf_lite:unknown_field_set.obj
 0001:00043080       ??0?$vector@VUnknownField@protobuf@google@@V?$allocator@VUnknownField@protobuf@google@@@std@@@std@@QAE@XZ 13044080 f i protobuf_lite:unknown_field_set.obj
 0001:000430d0       ??1?$vector@VUnknownField@protobuf@google@@V?$allocator@VUnknownField@protobuf@google@@@std@@@std@@QAE@XZ 130440d0 f i protobuf_lite:unknown_field_set.obj
 0001:00043100       ?back@?$vector@VUnknownField@protobuf@google@@V?$allocator@VUnknownField@protobuf@google@@@std@@@std@@QAEAAVUnknownField@protobuf@google@@XZ 13044100 f i protobuf_lite:unknown_field_set.obj
 0001:00043170       ?push_back@?$vector@VUnknownField@protobuf@google@@V?$allocator@VUnknownField@protobuf@google@@@std@@@std@@QAEXABVUnknownField@protobuf@google@@@Z 13044170 f i protobuf_lite:unknown_field_set.obj
 0001:00043210       ?clear@?$vector@VUnknownField@protobuf@google@@V?$allocator@VUnknownField@protobuf@google@@@std@@@std@@QAEXXZ 13044210 f i protobuf_lite:unknown_field_set.obj
 0001:00043270       ??1?$_Vector_val@VUnknownField@protobuf@google@@V?$allocator@VUnknownField@protobuf@google@@@std@@@std@@QAE@XZ 13044270 f i protobuf_lite:unknown_field_set.obj
 0001:000432a0       ??1?$_Vector_iterator@VUnknownField@protobuf@google@@V?$allocator@VUnknownField@protobuf@google@@@std@@@std@@QAE@XZ 130442a0 f i protobuf_lite:unknown_field_set.obj
 0001:000432d0       ??1?$_Vector_const_iterator@VUnknownField@protobuf@google@@V?$allocator@VUnknownField@protobuf@google@@@std@@@std@@QAE@XZ 130442d0 f i protobuf_lite:unknown_field_set.obj
 0001:00043300       ??1?$_Ranit@VUnknownField@protobuf@google@@HPBV123@ABV123@@std@@QAE@XZ 13044300 f i protobuf_lite:unknown_field_set.obj
 0001:00043330       ?capacity@?$vector@VUnknownField@protobuf@google@@V?$allocator@VUnknownField@protobuf@google@@@std@@@std@@QBEIXZ 13044330 f i protobuf_lite:unknown_field_set.obj
 0001:00043380       ?begin@?$vector@VUnknownField@protobuf@google@@V?$allocator@VUnknownField@protobuf@google@@@std@@@std@@QAE?AV?$_Vector_iterator@VUnknownField@protobuf@google@@V?$allocator@VUnknownField@protobuf@google@@@std@@@2@XZ 13044380 f i protobuf_lite:unknown_field_set.obj
 0001:000433c0       ?end@?$vector@VUnknownField@protobuf@google@@V?$allocator@VUnknownField@protobuf@google@@@std@@@std@@QAE?AV?$_Vector_iterator@VUnknownField@protobuf@google@@V?$allocator@VUnknownField@protobuf@google@@@std@@@2@XZ 130443c0 f i protobuf_lite:unknown_field_set.obj
 0001:00043400       ?insert@?$vector@VUnknownField@protobuf@google@@V?$allocator@VUnknownField@protobuf@google@@@std@@@std@@QAE?AV?$_Vector_iterator@VUnknownField@protobuf@google@@V?$allocator@VUnknownField@protobuf@google@@@std@@@2@V32@ABVUnknownField@protobuf@google@@@Z 13044400 f i protobuf_lite:unknown_field_set.obj
 0001:000434d0       ?erase@?$vector@VUnknownField@protobuf@google@@V?$allocator@VUnknownField@protobuf@google@@@std@@@std@@QAE?AV?$_Vector_iterator@VUnknownField@protobuf@google@@V?$allocator@VUnknownField@protobuf@google@@@std@@@2@V32@0@Z 130444d0 f i protobuf_lite:unknown_field_set.obj
 0001:000435d0       ?_Buy@?$vector@VUnknownField@protobuf@google@@V?$allocator@VUnknownField@protobuf@google@@@std@@@std@@IAE_NI@Z 130445d0 f i protobuf_lite:unknown_field_set.obj
 0001:00043670       ?_Tidy@?$vector@VUnknownField@protobuf@google@@V?$allocator@VUnknownField@protobuf@google@@@std@@@std@@IAEXXZ 13044670 f i protobuf_lite:unknown_field_set.obj
 0001:00043700       ?_Ufill@?$vector@VUnknownField@protobuf@google@@V?$allocator@VUnknownField@protobuf@google@@@std@@@std@@IAEPAVUnknownField@protobuf@google@@PAV345@IABV345@@Z 13044700 f i protobuf_lite:unknown_field_set.obj
 0001:00043750       ?_Orphan_range@?$vector@VUnknownField@protobuf@google@@V?$allocator@VUnknownField@protobuf@google@@@std@@@std@@IBEXPAVUnknownField@protobuf@google@@0@Z 13044750 f i protobuf_lite:unknown_field_set.obj
 0001:00043810       ??0?$_Vector_val@VUnknownField@protobuf@google@@V?$allocator@VUnknownField@protobuf@google@@@std@@@std@@IAE@V?$allocator@VUnknownField@protobuf@google@@@1@@Z 13044810 f i protobuf_lite:unknown_field_set.obj
 0001:00043850       ??0?$allocator@VUnknownField@protobuf@google@@@std@@QAE@XZ 13044850 f i protobuf_lite:unknown_field_set.obj
 0001:00043870       ??D?$_Vector_iterator@VUnknownField@protobuf@google@@V?$allocator@VUnknownField@protobuf@google@@@std@@@std@@QBEAAVUnknownField@protobuf@google@@XZ 13044870 f i protobuf_lite:unknown_field_set.obj
 0001:000438a0       ??G?$_Vector_iterator@VUnknownField@protobuf@google@@V?$allocator@VUnknownField@protobuf@google@@@std@@@std@@QBE?AV01@H@Z 130448a0 f i protobuf_lite:unknown_field_set.obj
 0001:00043930       ??0?$_Vector_iterator@VUnknownField@protobuf@google@@V?$allocator@VUnknownField@protobuf@google@@@std@@@std@@QAE@ABV01@@Z 13044930 f i protobuf_lite:unknown_field_set.obj
 0001:00043960       ??0?$_Vector_const_iterator@VUnknownField@protobuf@google@@V?$allocator@VUnknownField@protobuf@google@@@std@@@std@@QAE@ABV01@@Z 13044960 f i protobuf_lite:unknown_field_set.obj
 0001:000439a0       ??0?$_Ranit@VUnknownField@protobuf@google@@HPBV123@ABV123@@std@@QAE@ABU01@@Z 130449a0 f i protobuf_lite:unknown_field_set.obj
 0001:000439d0       ?max_size@?$vector@VUnknownField@protobuf@google@@V?$allocator@VUnknownField@protobuf@google@@@std@@@std@@QBEIXZ 130449d0 f i protobuf_lite:unknown_field_set.obj
 0001:00043a00       ?_Destroy@?$vector@VUnknownField@protobuf@google@@V?$allocator@VUnknownField@protobuf@google@@@std@@@std@@IAEXPAVUnknownField@protobuf@google@@0@Z 13044a00 f i protobuf_lite:unknown_field_set.obj
 0001:00043a40       ?_Insert_n@?$vector@VUnknownField@protobuf@google@@V?$allocator@VUnknownField@protobuf@google@@@std@@@std@@IAEXV?$_Vector_iterator@VUnknownField@protobuf@google@@V?$allocator@VUnknownField@protobuf@google@@@std@@@2@IABVUnknownField@protobuf@google@@@Z 13044a40 f i protobuf_lite:unknown_field_set.obj
 0001:00043dd0       ?_Xlen@?$vector@VUnknownField@protobuf@google@@V?$allocator@VUnknownField@protobuf@google@@@std@@@std@@KAXXZ 13044dd0 f i protobuf_lite:unknown_field_set.obj
 0001:00043e30       ??0?$allocator@VUnknownField@protobuf@google@@@std@@QAE@ABV01@@Z 13044e30 f i protobuf_lite:unknown_field_set.obj
 0001:00043e50       ?deallocate@?$allocator@VUnknownField@protobuf@google@@@std@@QAEXPAVUnknownField@protobuf@google@@I@Z 13044e50 f i protobuf_lite:unknown_field_set.obj
 0001:00043e80       ?allocate@?$allocator@VUnknownField@protobuf@google@@@std@@QAEPAVUnknownField@protobuf@google@@I@Z 13044e80 f i protobuf_lite:unknown_field_set.obj
 0001:00043eb0       ??0?$_Vector_iterator@VUnknownField@protobuf@google@@V?$allocator@VUnknownField@protobuf@google@@@std@@@std@@QAE@PAVUnknownField@protobuf@google@@PBV_Container_base@1@@Z 13044eb0 f i protobuf_lite:unknown_field_set.obj
 0001:00043ef0       ??H?$_Vector_iterator@VUnknownField@protobuf@google@@V?$allocator@VUnknownField@protobuf@google@@@std@@@std@@QBE?AV01@H@Z 13044ef0 f i protobuf_lite:unknown_field_set.obj
 0001:00043f80       ??Z?$_Vector_iterator@VUnknownField@protobuf@google@@V?$allocator@VUnknownField@protobuf@google@@@std@@@std@@QAEAAV01@H@Z 13044f80 f i protobuf_lite:unknown_field_set.obj
 0001:00043fb0       ??G?$_Vector_iterator@VUnknownField@protobuf@google@@V?$allocator@VUnknownField@protobuf@google@@@std@@@std@@QBEHABV?$_Vector_const_iterator@VUnknownField@protobuf@google@@V?$allocator@VUnknownField@protobuf@google@@@std@@@1@@Z 13044fb0 f i protobuf_lite:unknown_field_set.obj
 0001:00043fe0       ??D?$_Vector_const_iterator@VUnknownField@protobuf@google@@V?$allocator@VUnknownField@protobuf@google@@@std@@@std@@QBEABVUnknownField@protobuf@google@@XZ 13044fe0 f i protobuf_lite:unknown_field_set.obj
 0001:00044080       ??9?$_Vector_const_iterator@VUnknownField@protobuf@google@@V?$allocator@VUnknownField@protobuf@google@@@std@@@std@@QBE_NABV01@@Z 13045080 f i protobuf_lite:unknown_field_set.obj
 0001:000440c0       ??M?$_Vector_const_iterator@VUnknownField@protobuf@google@@V?$allocator@VUnknownField@protobuf@google@@@std@@@std@@QBE_NABV01@@Z 130450c0 f i protobuf_lite:unknown_field_set.obj
 0001:00044100       ?max_size@?$allocator@VUnknownField@protobuf@google@@@std@@QBEIXZ 13045100 f i protobuf_lite:unknown_field_set.obj
 0001:00044150       ??Y?$_Vector_iterator@VUnknownField@protobuf@google@@V?$allocator@VUnknownField@protobuf@google@@@std@@@std@@QAEAAV01@H@Z 13045150 f i protobuf_lite:unknown_field_set.obj
 0001:00044180       ??0?$_Vector_const_iterator@VUnknownField@protobuf@google@@V?$allocator@VUnknownField@protobuf@google@@@std@@@std@@QAE@PAVUnknownField@protobuf@google@@PBV_Container_base@1@@Z 13045180 f i protobuf_lite:unknown_field_set.obj
 0001:00044220       ??G?$_Vector_const_iterator@VUnknownField@protobuf@google@@V?$allocator@VUnknownField@protobuf@google@@@std@@@std@@QBEHABV01@@Z 13045220 f i protobuf_lite:unknown_field_set.obj
 0001:00044260       ??8?$_Vector_const_iterator@VUnknownField@protobuf@google@@V?$allocator@VUnknownField@protobuf@google@@@std@@@std@@QBE_NABV01@@Z 13045260 f i protobuf_lite:unknown_field_set.obj
 0001:000442a0       ?_Compat@?$_Vector_const_iterator@VUnknownField@protobuf@google@@V?$allocator@VUnknownField@protobuf@google@@@std@@@std@@QBEXABV12@@Z 130452a0 f i protobuf_lite:unknown_field_set.obj
 0001:00044330       ??0?$_Ranit@VUnknownField@protobuf@google@@HPBV123@ABV123@@std@@QAE@XZ 13045330 f i protobuf_lite:unknown_field_set.obj
 0001:00044360       ??Y?$_Vector_const_iterator@VUnknownField@protobuf@google@@V?$allocator@VUnknownField@protobuf@google@@@std@@@std@@QAEAAV01@H@Z 13045360 f i protobuf_lite:unknown_field_set.obj
 0001:00044450       ??$unchecked_copy@PAVUnknownField@protobuf@google@@PAV123@@stdext@@YAPAVUnknownField@protobuf@google@@PAV123@00@Z 13045450 f i protobuf_lite:unknown_field_set.obj
 0001:000444d0       ??$unchecked_uninitialized_fill_n@PAVUnknownField@protobuf@google@@IV123@V?$allocator@VUnknownField@protobuf@google@@@std@@@stdext@@YAXPAVUnknownField@protobuf@google@@IABV123@AAV?$allocator@VUnknownField@protobuf@google@@@std@@@Z 130454d0 f i protobuf_lite:unknown_field_set.obj
 0001:00044530       ??$_Destroy_range@VUnknownField@protobuf@google@@V?$allocator@VUnknownField@protobuf@google@@@std@@@std@@YAXPAVUnknownField@protobuf@google@@0AAV?$allocator@VUnknownField@protobuf@google@@@0@@Z 13045530 f i protobuf_lite:unknown_field_set.obj
 0001:00044580       ??$_Umove@PAVUnknownField@protobuf@google@@@?$vector@VUnknownField@protobuf@google@@V?$allocator@VUnknownField@protobuf@google@@@std@@@std@@IAEPAVUnknownField@protobuf@google@@PAV234@00@Z 13045580 f i protobuf_lite:unknown_field_set.obj
 0001:000445c0       ??$fill@PAVUnknownField@protobuf@google@@V123@@std@@YAXPAVUnknownField@protobuf@google@@0ABV123@@Z 130455c0 f i protobuf_lite:unknown_field_set.obj
 0001:00044600       ??$_Unchecked_move_backward@PAVUnknownField@protobuf@google@@PAV123@@stdext@@YAPAVUnknownField@protobuf@google@@PAV123@00@Z 13045600 f i protobuf_lite:unknown_field_set.obj
 0001:00044680       ??$_Allocate@VUnknownField@protobuf@google@@@std@@YAPAVUnknownField@protobuf@google@@IPAV123@@Z 13045680 f i protobuf_lite:unknown_field_set.obj
 0001:000446f0       ??$_Checked_base@PAVUnknownField@protobuf@google@@@std@@YAPAVUnknownField@protobuf@google@@AAPAV123@@Z 130456f0 f i protobuf_lite:unknown_field_set.obj
 0001:00044760       ??$_Iter_random@PAVUnknownField@protobuf@google@@PAV123@@std@@YA?AUrandom_access_iterator_tag@0@ABQAVUnknownField@protobuf@google@@0@Z 13045760 f i protobuf_lite:unknown_field_set.obj
 0001:000447b0       ??$_Ptr_cat@PAVUnknownField@protobuf@google@@PAV123@@std@@YA?AU_Nonscalar_ptr_iterator_tag@0@AAPAVUnknownField@protobuf@google@@0@Z 130457b0 f i protobuf_lite:unknown_field_set.obj
 0001:00044800       ??$_Copy_opt@PAVUnknownField@protobuf@google@@PAV123@@std@@YAPAVUnknownField@protobuf@google@@PAV123@00Urandom_access_iterator_tag@0@U_Nonscalar_ptr_iterator_tag@0@U_Range_checked_iterator_tag@0@@Z 13045800 f i protobuf_lite:unknown_field_set.obj
 0001:00044870       ??$_Uninit_fill_n@PAVUnknownField@protobuf@google@@IV123@V?$allocator@VUnknownField@protobuf@google@@@std@@@std@@YAXPAVUnknownField@protobuf@google@@IABV123@AAV?$allocator@VUnknownField@protobuf@google@@@0@U_Nonscalar_ptr_iterator_tag@0@U_Range_checked_iterator_tag@0@@Z 13045870 f i protobuf_lite:unknown_field_set.obj
 0001:000448e0       ??$_Destroy_range@VUnknownField@protobuf@google@@V?$allocator@VUnknownField@protobuf@google@@@std@@@std@@YAXPAVUnknownField@protobuf@google@@0AAV?$allocator@VUnknownField@protobuf@google@@@0@U_Nonscalar_ptr_iterator_tag@0@@Z 130458e0 f i protobuf_lite:unknown_field_set.obj
 0001:00044910       ??$_Unchecked_uninitialized_move@PAVUnknownField@protobuf@google@@PAV123@V?$allocator@VUnknownField@protobuf@google@@@std@@@stdext@@YAPAVUnknownField@protobuf@google@@PAV123@00AAV?$allocator@VUnknownField@protobuf@google@@@std@@@Z 13045910 f i protobuf_lite:unknown_field_set.obj
 0001:00044970       ??$_Fill@PAVUnknownField@protobuf@google@@V123@@std@@YAXPAVUnknownField@protobuf@google@@0ABV123@@Z 13045970 f i protobuf_lite:unknown_field_set.obj
 0001:000449d0       ??$_Move_cat@PAVUnknownField@protobuf@google@@@std@@YA?AU_Undefined_move_tag@0@ABQAVUnknownField@protobuf@google@@@Z 130459d0 f i protobuf_lite:unknown_field_set.obj
 0001:00044a20       ??$_Move_backward_opt@PAVUnknownField@protobuf@google@@PAV123@Urandom_access_iterator_tag@std@@U_Undefined_move_tag@5@@std@@YAPAVUnknownField@protobuf@google@@PAV123@00Urandom_access_iterator_tag@0@U_Undefined_move_tag@0@U_Range_checked_iterator_tag@0@@Z 13045a20 f i protobuf_lite:unknown_field_set.obj
 0001:00044a80       ?construct@?$allocator@VUnknownField@protobuf@google@@@std@@QAEXPAVUnknownField@protobuf@google@@ABV345@@Z 13045a80 f i protobuf_lite:unknown_field_set.obj
 0001:00044ab0       ?destroy@?$allocator@VUnknownField@protobuf@google@@@std@@QAEXPAVUnknownField@protobuf@google@@@Z 13045ab0 f i protobuf_lite:unknown_field_set.obj
 0001:00044ae0       ??$_Checked_base@PAVUnknownField@protobuf@google@@@std@@YAPAVUnknownField@protobuf@google@@AAPAV123@U_Unchanged_checked_iterator_base_type_tag@0@@Z 13045ae0 f i protobuf_lite:unknown_field_set.obj
 0001:00044af0       ??$_Copy_opt@PAVUnknownField@protobuf@google@@PAV123@Uforward_iterator_tag@std@@@std@@YAPAVUnknownField@protobuf@google@@PAV123@00Uforward_iterator_tag@0@U_Nonscalar_ptr_iterator_tag@0@U_Range_checked_iterator_tag@0@@Z 13045af0 f i protobuf_lite:unknown_field_set.obj
 0001:00044b60       ??$_Uninit_move@PAVUnknownField@protobuf@google@@PAV123@V?$allocator@VUnknownField@protobuf@google@@@std@@U_Undefined_move_tag@5@@std@@YAPAVUnknownField@protobuf@google@@PAV123@00AAV?$allocator@VUnknownField@protobuf@google@@@0@U_Undefined_move_tag@0@U_Range_checked_iterator_tag@0@@Z 13045b60 f i protobuf_lite:unknown_field_set.obj
 0001:00044b90       ??$_Debug_range@PAVUnknownField@protobuf@google@@@std@@YAXPAVUnknownField@protobuf@google@@0PB_WI@Z 13045b90 f i protobuf_lite:unknown_field_set.obj
 0001:00044be0       ??$_Copy_backward_opt@PAVUnknownField@protobuf@google@@PAV123@@std@@YAPAVUnknownField@protobuf@google@@PAV123@00Urandom_access_iterator_tag@0@U_Nonscalar_ptr_iterator_tag@0@U_Range_checked_iterator_tag@0@@Z 13045be0 f i protobuf_lite:unknown_field_set.obj
 0001:00044c50       ??$_Construct@VUnknownField@protobuf@google@@V123@@std@@YAXPAVUnknownField@protobuf@google@@ABV123@@Z 13045c50 f i protobuf_lite:unknown_field_set.obj
 0001:00044cd0       ??$_Destroy@VUnknownField@protobuf@google@@@std@@YAXPAVUnknownField@protobuf@google@@@Z 13045cd0 f i protobuf_lite:unknown_field_set.obj
 0001:00044ce0       ??$unchecked_uninitialized_copy@PAVUnknownField@protobuf@google@@PAV123@V?$allocator@VUnknownField@protobuf@google@@@std@@@stdext@@YAPAVUnknownField@protobuf@google@@PAV123@00AAV?$allocator@VUnknownField@protobuf@google@@@std@@@Z 13045ce0 f i protobuf_lite:unknown_field_set.obj
 0001:00044d50       ??$_Iter_cat@PAVUnknownField@protobuf@google@@@std@@YA?AUrandom_access_iterator_tag@0@ABQAVUnknownField@protobuf@google@@@Z 13045d50 f i protobuf_lite:unknown_field_set.obj
 0001:00044da0       ??$_Debug_range2@PAVUnknownField@protobuf@google@@@std@@YAXPAVUnknownField@protobuf@google@@0PB_WIUrandom_access_iterator_tag@0@@Z 13045da0 f i protobuf_lite:unknown_field_set.obj
 0001:00044e00       ??$_Copy_backward_opt@PAVUnknownField@protobuf@google@@PAV123@Uforward_iterator_tag@std@@@std@@YAPAVUnknownField@protobuf@google@@PAV123@00Uforward_iterator_tag@0@U_Nonscalar_ptr_iterator_tag@0@U_Range_checked_iterator_tag@0@@Z 13045e00 f i protobuf_lite:unknown_field_set.obj
 0001:00044e70       ??$_Uninit_copy@PAVUnknownField@protobuf@google@@PAV123@V?$allocator@VUnknownField@protobuf@google@@@std@@@std@@YAPAVUnknownField@protobuf@google@@PAV123@00AAV?$allocator@VUnknownField@protobuf@google@@@0@U_Nonscalar_ptr_iterator_tag@0@U_Range_checked_iterator_tag@0@@Z 13045e70 f i protobuf_lite:unknown_field_set.obj
 0001:00044f10       ??$_Debug_pointer@VUnknownField@protobuf@google@@@std@@YAXPAVUnknownField@protobuf@google@@PB_WI@Z 13045f10 f i protobuf_lite:unknown_field_set.obj
 0001:00044f40       ??1ZeroCopyInputStream@io@protobuf@google@@UAE@XZ 13045f40 f   protobuf_lite:zero_copy_stream.obj
 0001:00044f60       ??1ZeroCopyOutputStream@io@protobuf@google@@UAE@XZ 13045f60 f   protobuf_lite:zero_copy_stream.obj
 0001:00044f80       ?RegisterFunc@AggregatorImpl@aggregator@tls@@UAE?AW4rc_e@@PAUIObject@3@PBD@Z 13045f80 f   aggregator_static:aggregator_impl.obj
 0001:00045040       ?UnRegisterFunc@AggregatorImpl@aggregator@tls@@UAE?AW4rc_e@@PAUIObject@3@PBD@Z 13046040 f   aggregator_static:aggregator_impl.obj
 0001:00045070       ?GetFileIterator@AggregatorImpl@aggregator@tls@@UAEPAUIFileIterator@23@PBDI@Z 13046070 f   aggregator_static:aggregator_impl.obj
 0001:000451a0       ?time@micro_time@base@tls@@SA?B_KXZ 130461a0 f i aggregator_static:aggregator_impl.obj
 0001:000451c0       ?ToIFileIterator@FileIteratorImpl@aggregator@tls@@QAEPAUIFileIterator@23@XZ 130461c0 f i aggregator_static:aggregator_impl.obj
 0001:000451e0       ?GetDBConnection@AggregatorImpl@aggregator@tls@@UAEPAXPBDI@Z 130461e0 f   aggregator_static:aggregator_impl.obj
 0001:00045470       ?ToIConnection@DBConnImpl@aggregator@tls@@QAEPAUIConnection@database@3@XZ 13046470 f i aggregator_static:aggregator_impl.obj
 0001:00045490       ??1?$_Iterator@$00@?$list@U?$pair@QBDPAV?$PoolThreadSafe@VDBConnImpl@aggregator@tls@@PBUst_db_conn_str@@@base@tls@@@std@@V?$allocator@U?$pair@QBDPAV?$PoolThreadSafe@VDBConnImpl@aggregator@tls@@PBUst_db_conn_str@@@base@tls@@@std@@@2@@std@@QAE@XZ 13046490 f i aggregator_static:aggregator_impl.obj
 0001:000454c0       ??1?$_Const_iterator@$00@?$list@U?$pair@QBDPAV?$PoolThreadSafe@VDBConnImpl@aggregator@tls@@PBUst_db_conn_str@@@base@tls@@@std@@V?$allocator@U?$pair@QBDPAV?$PoolThreadSafe@VDBConnImpl@aggregator@tls@@PBUst_db_conn_str@@@base@tls@@@std@@@2@@std@@QAE@XZ 130464c0 f i aggregator_static:aggregator_impl.obj
 0001:000454f0       ??1?$_Bidit@U?$pair@QBDPAV?$PoolThreadSafe@VDBConnImpl@aggregator@tls@@PBUst_db_conn_str@@@base@tls@@@std@@HPBU12@ABU12@@std@@QAE@XZ 130464f0 f i aggregator_static:aggregator_impl.obj
 0001:00045520       ??4?$_Iterator@$00@?$list@U?$pair@QBDPAV?$PoolThreadSafe@VDBConnImpl@aggregator@tls@@PBUst_db_conn_str@@@base@tls@@@std@@V?$allocator@U?$pair@QBDPAV?$PoolThreadSafe@VDBConnImpl@aggregator@tls@@PBUst_db_conn_str@@@base@tls@@@std@@@2@@std@@QAEAAV012@ABV012@@Z 13046520 f i aggregator_static:aggregator_impl.obj
 0001:00045550       ??4?$_Const_iterator@$00@?$list@U?$pair@QBDPAV?$PoolThreadSafe@VDBConnImpl@aggregator@tls@@PBUst_db_conn_str@@@base@tls@@@std@@V?$allocator@U?$pair@QBDPAV?$PoolThreadSafe@VDBConnImpl@aggregator@tls@@PBUst_db_conn_str@@@base@tls@@@std@@@2@@std@@QAEAAV012@ABV012@@Z 13046550 f i aggregator_static:aggregator_impl.obj
 0001:00045590       ??4?$_Bidit@U?$pair@QBDPAV?$PoolThreadSafe@VDBConnImpl@aggregator@tls@@PBUst_db_conn_str@@@base@tls@@@std@@HPBU12@ABU12@@std@@QAEAAU01@ABU01@@Z 13046590 f i aggregator_static:aggregator_impl.obj
 0001:000455c0       ?GetLogWriter@AggregatorImpl@aggregator@tls@@UAEPAUILogWriter@3@I@Z 130465c0 f   aggregator_static:aggregator_impl.obj
 0001:000455e0       ?GetSystemFullPath@AggregatorImpl@aggregator@tls@@UAEPBDXZ 130465e0 f   aggregator_static:aggregator_impl.obj
 0001:00045600       ?AddFile@AggregatorImpl@aggregator@tls@@UAE?AW4rc_e@@ABIPBD11_K@Z 13046600 f   aggregator_static:aggregator_impl.obj
 0001:00045830       ?AddFile@AggregatorImpl@aggregator@tls@@UAE?AW4rc_e@@ABIPBD111_K_JI1@Z 13046830 f   aggregator_static:aggregator_impl.obj
 0001:00045960       ?SetData@AggregatorImpl@aggregator@tls@@UAE?AW4rc_e@@ABIPAUIMemoryNode@3@_J2@Z 13046960 f   aggregator_static:aggregator_impl.obj
 0001:00045b70       ??4atomic_count@base@tls@@QAEXJ@Z 13046b70 f i aggregator_static:aggregator_impl.obj
 0001:00045b90       ??1?$_Iterator@$00@?$list@U?$pair@$$CBIVatomic_count@base@tls@@@std@@V?$allocator@U?$pair@$$CBIVatomic_count@base@tls@@@std@@@2@@std@@QAE@XZ 13046b90 f i aggregator_static:aggregator_impl.obj
 0001:00045bc0       ??1?$_Const_iterator@$00@?$list@U?$pair@$$CBIVatomic_count@base@tls@@@std@@V?$allocator@U?$pair@$$CBIVatomic_count@base@tls@@@std@@@2@@std@@QAE@XZ 13046bc0 f i aggregator_static:aggregator_impl.obj
 0001:00045bf0       ??1?$_Bidit@U?$pair@$$CBIVatomic_count@base@tls@@@std@@HPBU12@ABU12@@std@@QAE@XZ 13046bf0 f i aggregator_static:aggregator_impl.obj
 0001:00045c20       ?clearMapFileUpdate@AggregatorImpl@aggregator@tls@@AAEXXZ 13046c20 f   aggregator_static:aggregator_impl.obj
 0001:00045c60       ?updateMapFileUpdate@AggregatorImpl@aggregator@tls@@AAEXXZ 13046c60 f   aggregator_static:aggregator_impl.obj
 0001:00045f10       ??4?$_Iterator@$00@?$list@U?$pair@$$CBIVatomic_count@base@tls@@@std@@V?$allocator@U?$pair@$$CBIVatomic_count@base@tls@@@std@@@2@@std@@QAEAAV012@ABV012@@Z 13046f10 f i aggregator_static:aggregator_impl.obj
 0001:00045f40       ??4?$_Const_iterator@$00@?$list@U?$pair@$$CBIVatomic_count@base@tls@@@std@@V?$allocator@U?$pair@$$CBIVatomic_count@base@tls@@@std@@@2@@std@@QAEAAV012@ABV012@@Z 13046f40 f i aggregator_static:aggregator_impl.obj
 0001:00045f80       ??4?$_Bidit@U?$pair@$$CBIVatomic_count@base@tls@@@std@@HPBU12@ABU12@@std@@QAEAAU01@ABU01@@Z 13046f80 f i aggregator_static:aggregator_impl.obj
 0001:00045fb0       ?reportMapFileUpdate@AggregatorImpl@aggregator@tls@@AAEXI@Z 13046fb0 f   aggregator_static:aggregator_impl.obj
 0001:00045ff0       ?GetIdleTime@TimeControl@base@tls@@QAEII@Z 13046ff0 f i aggregator_static:aggregator_impl.obj
 0001:00046050       ?GetName@AggregatorImpl@aggregator@tls@@UBE?BW4rc_e@@PADPAI@Z 13047050 f   aggregator_static:aggregator_impl.obj
 0001:000460b0       ?GetStatus@AggregatorImpl@aggregator@tls@@UBE?BW4rc_e@@XZ 130470b0 f   aggregator_static:aggregator_impl.obj
 0001:000460d0       ?GetResourceSize@AggregatorImpl@aggregator@tls@@UBE?BW4rc_e@@PA_K0@Z 130470d0 f   aggregator_static:aggregator_impl.obj
 0001:00046120       ?GetLastErr@AggregatorImpl@aggregator@tls@@UBE?BW4rc_e@@PAIPAD0@Z 13047120 f   aggregator_static:aggregator_impl.obj
 0001:00046190       ?GetInfo@AggregatorImpl@aggregator@tls@@UBE?BW4rc_e@@PADPAI@Z 13047190 f   aggregator_static:aggregator_impl.obj
 0001:000462f0       ?getDBConnPoolSize@AggregatorImpl@aggregator@tls@@ABEXPAI0@Z 130472f0 f i aggregator_static:aggregator_impl.obj
 0001:00046450       ?GetLastAliveTime@AggregatorImpl@aggregator@tls@@UBE?BW4rc_e@@PAI@Z 13047450 f   aggregator_static:aggregator_impl.obj
 0001:00046490       ?expatStart@AggregatorImpl@aggregator@tls@@CAXPAXPBDPAPBD@Z 13047490 f   aggregator_static:aggregator_impl.obj
 0001:00046c80       ?SetTimeOut@TimeControl@base@tls@@QAEXI@Z 13047c80 f i aggregator_static:aggregator_impl.obj
 0001:00046ca0       ?GetTimeOut@TimeControl@base@tls@@QBEIXZ 13047ca0 f i aggregator_static:aggregator_impl.obj
 0001:00046cc0       ?SetAggregator@AggregatorImpl@aggregator@tls@@QAEXPBD@Z 13047cc0 f i aggregator_static:aggregator_impl.obj
 0001:00046d00       ??_GDynamicLibrary@base@tls@@QAEPAXI@Z 13047d00 f i aggregator_static:aggregator_impl.obj
 0001:00046d40       ?expatEnd@AggregatorImpl@aggregator@tls@@CAXPAXPBD@Z 13047d40 f   aggregator_static:aggregator_impl.obj
 0001:00046d50       ?defaultConfig@AggregatorImpl@aggregator@tls@@AAEXXZ 13047d50 f   aggregator_static:aggregator_impl.obj
 0001:00046d80       ?readXmlConfig@AggregatorImpl@aggregator@tls@@AAE?AW4rc_e@@XZ 13047d80 f   aggregator_static:aggregator_impl.obj
 0001:00047170       ?readSettingConfig@AggregatorImpl@aggregator@tls@@AAE?AW4rc_e@@XZ 13048170 f   aggregator_static:aggregator_impl.obj
 0001:00047250       ??0ReadSettingReulst@aggregator@tls@@QAE@PAVAggregatorImpl@12@@Z 13048250 f i aggregator_static:aggregator_impl.obj
 0001:00047290       ?checkSystem@AggregatorImpl@aggregator@tls@@AAE?AW4rc_e@@XZ 13048290 f   aggregator_static:aggregator_impl.obj
 0001:00047370       ?readSettingCollector@AggregatorImpl@aggregator@tls@@AAE?AW4rc_e@@XZ 13048370 f   aggregator_static:aggregator_impl.obj
 0001:00047480       ??0ReadSettingCollectorReulst@aggregator@tls@@QAE@PAVAggregatorImpl@12@@Z 13048480 f i aggregator_static:aggregator_impl.obj
 0001:00047510       ?Init@AggregatorImpl@aggregator@tls@@UAE?AW4rc_e@@PAUIHostContext@23@@Z 13048510 f   aggregator_static:aggregator_impl.obj
 0001:000476f0       ?DeInit@AggregatorImpl@aggregator@tls@@UAEXXZ 130486f0 f   aggregator_static:aggregator_impl.obj
 0001:00047710       ?ThreadMain@AggregatorImpl@aggregator@tls@@EAEXPAX@Z 13048710 f   aggregator_static:aggregator_impl.obj
 0001:00047830       ??0AutoInitDBThd@database@tls@@QAE@XZ 13048830 f i aggregator_static:aggregator_impl.obj
 0001:00047860       ??1AutoInitDBThd@database@tls@@QAE@XZ 13048860 f i aggregator_static:aggregator_impl.obj
 0001:00047890       ?Start@AggregatorImpl@aggregator@tls@@UAE?AW4rc_e@@XZ 13048890 f   aggregator_static:aggregator_impl.obj
 0001:00047dc0       ?LibraryName@DynamicLibrary@base@tls@@QBEPBDXZ 13048dc0 f i aggregator_static:aggregator_impl.obj
 0001:00047de0       ?Set@st_thread_param@AggregatorImpl@aggregator@tls@@QAEXW4thread_type_e_@1234@PAUIModule@34@I@Z 13048de0 f i aggregator_static:aggregator_impl.obj
 0001:00047e10       ?Set@st_thread_param@AggregatorImpl@aggregator@tls@@QAEXW4thread_type_e_@1234@PAUIParser@34@@Z 13048e10 f i aggregator_static:aggregator_impl.obj
 0001:00047e40       ??1?$_Iterator@$00@?$list@Umodule_t@AggregatorImpl@aggregator@tls@@V?$allocator@Umodule_t@AggregatorImpl@aggregator@tls@@@std@@@std@@QAE@XZ 13048e40 f i aggregator_static:aggregator_impl.obj
 0001:00047e70       ??4?$_Iterator@$00@?$list@Umodule_t@AggregatorImpl@aggregator@tls@@V?$allocator@Umodule_t@AggregatorImpl@aggregator@tls@@@std@@@std@@QAEAAV012@ABV012@@Z 13048e70 f i aggregator_static:aggregator_impl.obj
 0001:00047ea0       ??1?$_Iterator@$00@?$list@PAUIObject@tls@@V?$allocator@PAUIObject@tls@@@std@@@std@@QAE@XZ 13048ea0 f i aggregator_static:aggregator_impl.obj
 0001:00047ed0       ??4?$_Iterator@$00@?$list@PAUIObject@tls@@V?$allocator@PAUIObject@tls@@@std@@@std@@QAEAAV012@ABV012@@Z 13048ed0 f i aggregator_static:aggregator_impl.obj
 0001:00047f00       ??1?$_Const_iterator@$00@?$list@Umodule_t@AggregatorImpl@aggregator@tls@@V?$allocator@Umodule_t@AggregatorImpl@aggregator@tls@@@std@@@std@@QAE@XZ 13048f00 f i aggregator_static:aggregator_impl.obj
 0001:00047f30       ??4?$_Const_iterator@$00@?$list@Umodule_t@AggregatorImpl@aggregator@tls@@V?$allocator@Umodule_t@AggregatorImpl@aggregator@tls@@@std@@@std@@QAEAAV012@ABV012@@Z 13048f30 f i aggregator_static:aggregator_impl.obj
 0001:00047f70       ??1?$_Const_iterator@$00@?$list@PAUIObject@tls@@V?$allocator@PAUIObject@tls@@@std@@@std@@QAE@XZ 13048f70 f i aggregator_static:aggregator_impl.obj
 0001:00047fa0       ??4?$_Const_iterator@$00@?$list@PAUIObject@tls@@V?$allocator@PAUIObject@tls@@@std@@@std@@QAEAAV012@ABV012@@Z 13048fa0 f i aggregator_static:aggregator_impl.obj
 0001:00047fe0       ??1?$_Bidit@Umodule_t@AggregatorImpl@aggregator@tls@@HPBU1234@ABU1234@@std@@QAE@XZ 13048fe0 f i aggregator_static:aggregator_impl.obj
 0001:00048010       ??4?$_Bidit@Umodule_t@AggregatorImpl@aggregator@tls@@HPBU1234@ABU1234@@std@@QAEAAU01@ABU01@@Z 13049010 f i aggregator_static:aggregator_impl.obj
 0001:00048040       ??1?$_Bidit@PAUIObject@tls@@HPBQAU12@ABQAU12@@std@@QAE@XZ 13049040 f i aggregator_static:aggregator_impl.obj
 0001:00048070       ??4?$_Bidit@PAUIObject@tls@@HPBQAU12@ABQAU12@@std@@QAEAAU01@ABU01@@Z 13049070 f i aggregator_static:aggregator_impl.obj
 0001:000480a0       ?notifyFileIterator@AggregatorImpl@aggregator@tls@@AAEXXZ 130490a0 f   aggregator_static:aggregator_impl.obj
 0001:000481b0       ?Notify@FileContainerImpl@AggregatorImpl@aggregator@tls@@QAEXXZ 130491b0 f i aggregator_static:aggregator_impl.obj
 0001:000482d0       ??1?$_Iterator@$00@?$list@U?$pair@QAUIFileIterator@aggregator@tls@@PAU123@@std@@V?$allocator@U?$pair@QAUIFileIterator@aggregator@tls@@PAU123@@std@@@2@@std@@QAE@XZ 130492d0 f i aggregator_static:aggregator_impl.obj
 0001:00048300       ??4?$_Iterator@$00@?$list@U?$pair@QAUIFileIterator@aggregator@tls@@PAU123@@std@@V?$allocator@U?$pair@QAUIFileIterator@aggregator@tls@@PAU123@@std@@@2@@std@@QAEAAV012@ABV012@@Z 13049300 f i aggregator_static:aggregator_impl.obj
 0001:00048330       ??1?$_Const_iterator@$00@?$list@U?$pair@QAUIFileIterator@aggregator@tls@@PAU123@@std@@V?$allocator@U?$pair@QAUIFileIterator@aggregator@tls@@PAU123@@std@@@2@@std@@QAE@XZ 13049330 f i aggregator_static:aggregator_impl.obj
 0001:00048360       ??4?$_Const_iterator@$00@?$list@U?$pair@QAUIFileIterator@aggregator@tls@@PAU123@@std@@V?$allocator@U?$pair@QAUIFileIterator@aggregator@tls@@PAU123@@std@@@2@@std@@QAEAAV012@ABV012@@Z 13049360 f i aggregator_static:aggregator_impl.obj
 0001:000483a0       ??1?$_Bidit@U?$pair@QAUIFileIterator@aggregator@tls@@PAU123@@std@@HPBU12@ABU12@@std@@QAE@XZ 130493a0 f i aggregator_static:aggregator_impl.obj
 0001:000483d0       ??4?$_Bidit@U?$pair@QAUIFileIterator@aggregator@tls@@PAU123@@std@@HPBU12@ABU12@@std@@QAEAAU01@ABU01@@Z 130493d0 f i aggregator_static:aggregator_impl.obj
 0001:00048400       ??1?$_Iterator@$00@?$list@U?$pair@QBDPAVFileContainerImpl@AggregatorImpl@aggregator@tls@@@std@@V?$allocator@U?$pair@QBDPAVFileContainerImpl@AggregatorImpl@aggregator@tls@@@std@@@2@@std@@QAE@XZ 13049400 f i aggregator_static:aggregator_impl.obj
 0001:00048430       ??4?$_Iterator@$00@?$list@U?$pair@QBDPAVFileContainerImpl@AggregatorImpl@aggregator@tls@@@std@@V?$allocator@U?$pair@QBDPAVFileContainerImpl@AggregatorImpl@aggregator@tls@@@std@@@2@@std@@QAEAAV012@ABV012@@Z 13049430 f i aggregator_static:aggregator_impl.obj
 0001:00048460       ??1?$_Const_iterator@$00@?$list@U?$pair@QBDPAVFileContainerImpl@AggregatorImpl@aggregator@tls@@@std@@V?$allocator@U?$pair@QBDPAVFileContainerImpl@AggregatorImpl@aggregator@tls@@@std@@@2@@std@@QAE@XZ 13049460 f i aggregator_static:aggregator_impl.obj
 0001:00048490       ??4?$_Const_iterator@$00@?$list@U?$pair@QBDPAVFileContainerImpl@AggregatorImpl@aggregator@tls@@@std@@V?$allocator@U?$pair@QBDPAVFileContainerImpl@AggregatorImpl@aggregator@tls@@@std@@@2@@std@@QAEAAV012@ABV012@@Z 13049490 f i aggregator_static:aggregator_impl.obj
 0001:000484d0       ??1?$_Bidit@U?$pair@QBDPAVFileContainerImpl@AggregatorImpl@aggregator@tls@@@std@@HPBU12@ABU12@@std@@QAE@XZ 130494d0 f i aggregator_static:aggregator_impl.obj
 0001:00048500       ??4?$_Bidit@U?$pair@QBDPAVFileContainerImpl@AggregatorImpl@aggregator@tls@@@std@@HPBU12@ABU12@@std@@QAEAAU01@ABU01@@Z 13049500 f i aggregator_static:aggregator_impl.obj
 0001:00048530       ?Stop@AggregatorImpl@aggregator@tls@@UAEXXZ 13049530 f   aggregator_static:aggregator_impl.obj
 0001:00048720       ?NetProc@AggregatorImpl@aggregator@tls@@UAE?AW4rc_e@@PAUINetHandler@23@PBEI@Z 13049720 f   aggregator_static:aggregator_impl.obj
 0001:00048930       ?GetTick@AggregatorImpl@aggregator@tls@@UAEIXZ 13049930 f   aggregator_static:aggregator_impl.obj
 0001:00048a40       ?GetLongTick@AggregatorImpl@aggregator@tls@@UAEIXZ 13049a40 f   aggregator_static:aggregator_impl.obj
 0001:00048a60       ?TickProc@AggregatorImpl@aggregator@tls@@UAE?AW4rc_e@@XZ 13049a60 f   aggregator_static:aggregator_impl.obj
 0001:00048b40       ?LongTickProc@AggregatorImpl@aggregator@tls@@UAE?AW4rc_e@@XZ 13049b40 f   aggregator_static:aggregator_impl.obj
 0001:00048cc0       ??0AggregatorImpl@aggregator@tls@@QAE@XZ 13049cc0 f   aggregator_static:aggregator_impl.obj
 0001:00048fd0       ??0TimeControl@base@tls@@QAE@I@Z 13049fd0 f i aggregator_static:aggregator_impl.obj
 0001:00049010       ??0atomic_count@base@tls@@QAE@XZ 1304a010 f i aggregator_static:aggregator_impl.obj
 0001:00049030       ?GetFileContainer@AggregatorImpl@aggregator@tls@@UAEPAUIFileContainer@23@PBD@Z 1304a030 f i aggregator_static:aggregator_impl.obj
 0001:00049060       ?Release@AggregatorImpl@aggregator@tls@@UAEXXZ 1304a060 f i aggregator_static:aggregator_impl.obj
 0001:000490f0       ?SetCollectorLoaclPath@AggregatorImpl@aggregator@tls@@QAEXPBD@Z 1304a0f0 f i aggregator_static:aggregator_impl.obj
 0001:00049180       ??_GAggregatorImpl@aggregator@tls@@QAEPAXI@Z 1304a180 f i aggregator_static:aggregator_impl.obj
 0001:000491c0       ??0IAggregator@aggregator@tls@@QAE@XZ 1304a1c0 f i aggregator_static:aggregator_impl.obj
 0001:000491f0       ??0IResource@tls@@QAE@XZ   1304a1f0 f i aggregator_static:aggregator_impl.obj
 0001:00049210       ??0IAggregatorBase@aggregator@tls@@QAE@XZ 1304a210 f i aggregator_static:aggregator_impl.obj
 0001:00049230       ??1AggregatorImpl@aggregator@tls@@QAE@XZ 1304a230 f   aggregator_static:aggregator_impl.obj
 0001:00049420       ??1?$hash_map@PBDPAVCollectClient@AggregatorImpl@aggregator@tls@@Uchar_t_hash@base@4@V?$allocator@U?$pair@QBDPAVCollectClient@AggregatorImpl@aggregator@tls@@@std@@@std@@@stdext@@QAE@XZ 1304a420 f i aggregator_static:aggregator_impl.obj
 0001:00049450       ??1?$PoolNoThreadSafe@VCollectClient@AggregatorImpl@aggregator@tls@@PBD@base@tls@@UAE@XZ 1304a450 f i aggregator_static:aggregator_impl.obj
 0001:00049480       ??1?$hash_map@IPAVRequestAndResponse@aggregator@tls@@V?$hash_compare@IU?$less@I@std@@@stdext@@V?$allocator@U?$pair@$$CBIPAVRequestAndResponse@aggregator@tls@@@std@@@std@@@stdext@@QAE@XZ 1304a480 f i aggregator_static:aggregator_impl.obj
 0001:000494b0       ??1?$hash_map@IVatomic_count@base@tls@@V?$hash_compare@IU?$less@I@std@@@stdext@@V?$allocator@U?$pair@$$CBIVatomic_count@base@tls@@@std@@@std@@@stdext@@QAE@XZ 1304a4b0 f i aggregator_static:aggregator_impl.obj
 0001:000494e0       ??1?$hash_map@PBDPAV?$PoolThreadSafe@VDBConnImpl@aggregator@tls@@PBUst_db_conn_str@@@base@tls@@Uchar_t_hash@23@V?$allocator@U?$pair@QBDPAV?$PoolThreadSafe@VDBConnImpl@aggregator@tls@@PBUst_db_conn_str@@@base@tls@@@std@@@std@@@stdext@@QAE@XZ 1304a4e0 f i aggregator_static:aggregator_impl.obj
 0001:00049510       ??1?$hash_map@IPAVLogTypeIdx@AggregatorImpl@aggregator@tls@@V?$hash_compare@IU?$less@I@std@@@stdext@@V?$allocator@U?$pair@$$CBIPAVLogTypeIdx@AggregatorImpl@aggregator@tls@@@std@@@std@@@stdext@@QAE@XZ 1304a510 f i aggregator_static:aggregator_impl.obj
 0001:00049540       ??1?$hash_map@PBDPAVFileContainerImpl@AggregatorImpl@aggregator@tls@@Uchar_t_hash@base@4@V?$allocator@U?$pair@QBDPAVFileContainerImpl@AggregatorImpl@aggregator@tls@@@std@@@std@@@stdext@@QAE@XZ 1304a540 f i aggregator_static:aggregator_impl.obj
 0001:00049570       ??1?$PoolThreadSafe@VFileIteratorImpl@aggregator@tls@@UFileIteratorParam_t@23@@base@tls@@UAE@XZ 1304a570 f i aggregator_static:aggregator_impl.obj
 0001:000495a0       ?SetSetting@AggregatorImpl@aggregator@tls@@UAE?AW4rc_e@@PBDPBUIGetSetParam@23@@Z 1304a5a0 f   aggregator_static:aggregator_impl.obj
 0001:00049710       ?GetSetting@AggregatorImpl@aggregator@tls@@UAE?AW4rc_e@@PAUIGetSetParam@23@PBD@Z 1304a710 f   aggregator_static:aggregator_impl.obj
 0001:000498a0       ?addLogTypes@AggregatorImpl@aggregator@tls@@AAEXXZ 1304a8a0 f   aggregator_static:aggregator_impl.obj
 0001:000499f0       ?setLogTypeFile@AggregatorImpl@aggregator@tls@@AAE?AW4rc_e@@ABI@Z 1304a9f0 f   aggregator_static:aggregator_impl.obj
 0001:00049e00       ??0LogTypeIdx@AggregatorImpl@aggregator@tls@@QAE@I@Z 1304ae00 f i aggregator_static:aggregator_impl.obj
 0001:00049e80       ??1?$_Iterator@$00@?$list@U?$pair@$$CBIPAVLogTypeIdx@AggregatorImpl@aggregator@tls@@@std@@V?$allocator@U?$pair@$$CBIPAVLogTypeIdx@AggregatorImpl@aggregator@tls@@@std@@@2@@std@@QAE@XZ 1304ae80 f i aggregator_static:aggregator_impl.obj
 0001:00049eb0       ??1?$_Const_iterator@$00@?$list@U?$pair@$$CBIPAVLogTypeIdx@AggregatorImpl@aggregator@tls@@@std@@V?$allocator@U?$pair@$$CBIPAVLogTypeIdx@AggregatorImpl@aggregator@tls@@@std@@@2@@std@@QAE@XZ 1304aeb0 f i aggregator_static:aggregator_impl.obj
 0001:00049ee0       ??1?$_Bidit@U?$pair@$$CBIPAVLogTypeIdx@AggregatorImpl@aggregator@tls@@@std@@HPBU12@ABU12@@std@@QAE@XZ 1304aee0 f i aggregator_static:aggregator_impl.obj
 0001:00049f10       ?notifyFileIterator@AggregatorImpl@aggregator@tls@@AAE?AW4rc_e@@ABI@Z 1304af10 f   aggregator_static:aggregator_impl.obj
 0001:00049f30       ?initModule@AggregatorImpl@aggregator@tls@@AAE?AW4rc_e@@XZ 1304af30 f   aggregator_static:aggregator_impl.obj
 0001:0004a0c0       ?AddRef@AggregatorImpl@aggregator@tls@@QAEXXZ 1304b0c0 f i aggregator_static:aggregator_impl.obj
 0001:0004a0f0       ?clearModule@AggregatorImpl@aggregator@tls@@AAEXXZ 1304b0f0 f   aggregator_static:aggregator_impl.obj
 0001:0004a580       ?initFileSystem@AggregatorImpl@aggregator@tls@@AAE?AW4rc_e@@XZ 1304b580 f   aggregator_static:aggregator_impl.obj
 0001:0004a600       ?clearFileSystem@AggregatorImpl@aggregator@tls@@AAEXXZ 1304b600 f   aggregator_static:aggregator_impl.obj
 0001:0004a630       ?SetFileSystemCacheSize@AggregatorImpl@aggregator@tls@@QAEXI@Z 1304b630 f   aggregator_static:aggregator_impl.obj
 0001:0004a660       ?initFileIterator@AggregatorImpl@aggregator@tls@@AAE?AW4rc_e@@XZ 1304b660 f   aggregator_static:aggregator_impl.obj
 0001:0004a700       ?clearFileIterator@AggregatorImpl@aggregator@tls@@AAEXXZ 1304b700 f   aggregator_static:aggregator_impl.obj
 0001:0004a730       ?initLogType@AggregatorImpl@aggregator@tls@@AAE?AW4rc_e@@XZ 1304b730 f   aggregator_static:aggregator_impl.obj
 0001:0004a760       ?clearLogType@AggregatorImpl@aggregator@tls@@AAEXXZ 1304b760 f   aggregator_static:aggregator_impl.obj
 0001:0004a9b0       ??_GFileContainerImpl@AggregatorImpl@aggregator@tls@@QAEPAXI@Z 1304b9b0 f i aggregator_static:aggregator_impl.obj
 0001:0004a9f0       ??1FileContainerImpl@AggregatorImpl@aggregator@tls@@QAE@XZ 1304b9f0 f i aggregator_static:aggregator_impl.obj
 0001:0004aa70       ?Release@FileContainerImpl@AggregatorImpl@aggregator@tls@@UAEXXZ 1304ba70 f i aggregator_static:aggregator_impl.obj
 0001:0004aac0       ?AttachFileIterator@FileContainerImpl@AggregatorImpl@aggregator@tls@@UAE?AW4rc_e@@PAUIFileIterator@34@@Z 1304bac0 f i aggregator_static:aggregator_impl.obj
 0001:0004ab60       ?DetachFileIterator@FileContainerImpl@AggregatorImpl@aggregator@tls@@UAE?AW4rc_e@@PAUIFileIterator@34@@Z 1304bb60 f i aggregator_static:aggregator_impl.obj
 0001:0004ac00       ?CopyContainer@FileContainerImpl@AggregatorImpl@aggregator@tls@@UAE?AW4rc_e@@PAI0@Z 1304bc00 f i aggregator_static:aggregator_impl.obj
 0001:0004ad80       ??1?$hash_map@PAUIFileIterator@aggregator@tls@@PAU123@V?$hash_compare@PAUIFileIterator@aggregator@tls@@U?$less@PAUIFileIterator@aggregator@tls@@@std@@@stdext@@V?$allocator@U?$pair@QAUIFileIterator@aggregator@tls@@PAU123@@std@@@std@@@stdext@@QAE@XZ 1304bd80 f i aggregator_static:aggregator_impl.obj
 0001:0004adb0       ??4?$_Iterator@$00@?$list@U?$pair@$$CBIPAVLogTypeIdx@AggregatorImpl@aggregator@tls@@@std@@V?$allocator@U?$pair@$$CBIPAVLogTypeIdx@AggregatorImpl@aggregator@tls@@@std@@@2@@std@@QAEAAV012@ABV012@@Z 1304bdb0 f i aggregator_static:aggregator_impl.obj
 0001:0004ade0       ??_GLogTypeIdx@AggregatorImpl@aggregator@tls@@QAEPAXI@Z 1304bde0 f i aggregator_static:aggregator_impl.obj
 0001:0004ae20       ??1LogTypeIdx@AggregatorImpl@aggregator@tls@@QAE@XZ 1304be20 f i aggregator_static:aggregator_impl.obj
 0001:0004ae50       ??4?$_Const_iterator@$00@?$list@U?$pair@$$CBIPAVLogTypeIdx@AggregatorImpl@aggregator@tls@@@std@@V?$allocator@U?$pair@$$CBIPAVLogTypeIdx@AggregatorImpl@aggregator@tls@@@std@@@2@@std@@QAEAAV012@ABV012@@Z 1304be50 f i aggregator_static:aggregator_impl.obj
 0001:0004ae90       ??4?$_Bidit@U?$pair@$$CBIPAVLogTypeIdx@AggregatorImpl@aggregator@tls@@@std@@HPBU12@ABU12@@std@@QAEAAU01@ABU01@@Z 1304be90 f i aggregator_static:aggregator_impl.obj
 0001:0004aec0       ?getFileContainer@AggregatorImpl@aggregator@tls@@AAEPAVFileContainerImpl@123@PBD@Z 1304bec0 f   aggregator_static:aggregator_impl.obj
 0001:0004afe0       ?AddRef@FileContainerImpl@AggregatorImpl@aggregator@tls@@QAEXXZ 1304bfe0 f i aggregator_static:aggregator_impl.obj
 0001:0004b030       ?addLogType@AggregatorImpl@aggregator@tls@@AAE?AW4rc_e@@PBD@Z 1304c030 f   aggregator_static:aggregator_impl.obj
 0001:0004b110       ??0FileContainerImpl@AggregatorImpl@aggregator@tls@@QAE@XZ 1304c110 f i aggregator_static:aggregator_impl.obj
 0001:0004b170       ??0IFileContainer@aggregator@tls@@QAE@XZ 1304c170 f i aggregator_static:aggregator_impl.obj
 0001:0004b190       ?addLogTypeFile@AggregatorImpl@aggregator@tls@@AAE?AW4rc_e@@PBDABI@Z 1304c190 f   aggregator_static:aggregator_impl.obj
 0001:0004b2d0       ?AddFile@FileContainerImpl@AggregatorImpl@aggregator@tls@@QAEXABI@Z 1304c2d0 f i aggregator_static:aggregator_impl.obj
 0001:0004b360       ?initDatabase@AggregatorImpl@aggregator@tls@@AAE?AW4rc_e@@XZ 1304c360 f   aggregator_static:aggregator_impl.obj
 0001:0004b380       ?clearDatabase@AggregatorImpl@aggregator@tls@@AAEXXZ 1304c380 f   aggregator_static:aggregator_impl.obj
 0001:0004b4f0       ?tickProc_Database@AggregatorImpl@aggregator@tls@@AAEXI@Z 1304c4f0 f   aggregator_static:aggregator_impl.obj
 0001:0004b670       ?KeepAlive@DBConnImpl@aggregator@tls@@QAE?AW4rc_e@@I@Z 1304c670 f i aggregator_static:aggregator_impl.obj
 0001:0004b710       ?initLog@AggregatorImpl@aggregator@tls@@AAE?AW4rc_e@@XZ 1304c710 f   aggregator_static:aggregator_impl.obj
 0001:0004b730       ?clearLog@AggregatorImpl@aggregator@tls@@AAEXXZ 1304c730 f   aggregator_static:aggregator_impl.obj
 0001:0004b760       ?logDB@AggregatorImpl@aggregator@tls@@AAE?AW4rc_e@@W4log_lv_e@ILogWriter@3@PBDPBEI2I@Z 1304c760 f   aggregator_static:aggregator_impl.obj
 0001:0004b830       ?makeFileID@AggregatorImpl@aggregator@tls@@AAE?AW4rc_e@@AAIPBD11_K@Z 1304c830 f   aggregator_static:aggregator_impl.obj
 0001:0004b8c0       ?updateFileData@AggregatorImpl@aggregator@tls@@AAE?AW4rc_e@@PAVICoder@coder@3@ABI_JW4EncodeType_E_@123@IIPBE@Z 1304c8c0 f   aggregator_static:aggregator_impl.obj
 0001:0004bf80       ?getFileNode@AggregatorImpl@aggregator@tls@@AAEPAUIFileNode@23@ABI@Z 1304cf80 f   aggregator_static:aggregator_impl.obj
 0001:0004bff0       ?addClient@AggregatorImpl@aggregator@tls@@AAEPAVCollectClient@123@PBD@Z 1304cff0 f   aggregator_static:aggregator_impl.obj
 0001:0004c170       ?SetName@CollectClient@AggregatorImpl@aggregator@tls@@QAEXPBD@Z 1304d170 f i aggregator_static:aggregator_impl.obj
 0001:0004c1f0       ?UpdateSessionID@CollectClient@AggregatorImpl@aggregator@tls@@QAEXXZ 1304d1f0 f i aggregator_static:aggregator_impl.obj
 0001:0004c230       ?SetLogon@CollectClient@AggregatorImpl@aggregator@tls@@QAEXI@Z 1304d230 f i aggregator_static:aggregator_impl.obj
 0001:0004c270       ??1?$_Iterator@$00@?$list@U?$pair@QBDPAVCollectClient@AggregatorImpl@aggregator@tls@@@std@@V?$allocator@U?$pair@QBDPAVCollectClient@AggregatorImpl@aggregator@tls@@@std@@@2@@std@@QAE@XZ 1304d270 f i aggregator_static:aggregator_impl.obj
 0001:0004c2a0       ??1?$_Const_iterator@$00@?$list@U?$pair@QBDPAVCollectClient@AggregatorImpl@aggregator@tls@@@std@@V?$allocator@U?$pair@QBDPAVCollectClient@AggregatorImpl@aggregator@tls@@@std@@@2@@std@@QAE@XZ 1304d2a0 f i aggregator_static:aggregator_impl.obj
 0001:0004c2d0       ??1?$_Bidit@U?$pair@QBDPAVCollectClient@AggregatorImpl@aggregator@tls@@@std@@HPBU12@ABU12@@std@@QAE@XZ 1304d2d0 f i aggregator_static:aggregator_impl.obj
 0001:0004c300       ?findClient@AggregatorImpl@aggregator@tls@@AAEPAVCollectClient@123@PBD@Z 1304d300 f   aggregator_static:aggregator_impl.obj
 0001:0004c410       ?removeClient@AggregatorImpl@aggregator@tls@@AAE?AW4rc_e@@PBD@Z 1304d410 f   aggregator_static:aggregator_impl.obj
 0001:0004c570       ??0?$_Iterator@$00@?$list@U?$pair@QBDPAVCollectClient@AggregatorImpl@aggregator@tls@@@std@@V?$allocator@U?$pair@QBDPAVCollectClient@AggregatorImpl@aggregator@tls@@@std@@@2@@std@@QAE@ABV012@@Z 1304d570 f i aggregator_static:aggregator_impl.obj
 0001:0004c5a0       ??0?$_Const_iterator@$00@?$list@U?$pair@QBDPAVCollectClient@AggregatorImpl@aggregator@tls@@@std@@V?$allocator@U?$pair@QBDPAVCollectClient@AggregatorImpl@aggregator@tls@@@std@@@2@@std@@QAE@ABV012@@Z 1304d5a0 f i aggregator_static:aggregator_impl.obj
 0001:0004c5e0       ??0?$_Bidit@U?$pair@QBDPAVCollectClient@AggregatorImpl@aggregator@tls@@@std@@HPBU12@ABU12@@std@@QAE@ABU01@@Z 1304d5e0 f i aggregator_static:aggregator_impl.obj
 0001:0004c610       ?initClient@AggregatorImpl@aggregator@tls@@AAE?AW4rc_e@@XZ 1304d610 f   aggregator_static:aggregator_impl.obj
 0001:0004c640       ?clearClient@AggregatorImpl@aggregator@tls@@AAEXXZ 1304d640 f   aggregator_static:aggregator_impl.obj
 0001:0004c780       ??4?$_Iterator@$00@?$list@U?$pair@QBDPAVCollectClient@AggregatorImpl@aggregator@tls@@@std@@V?$allocator@U?$pair@QBDPAVCollectClient@AggregatorImpl@aggregator@tls@@@std@@@2@@std@@QAEAAV012@ABV012@@Z 1304d780 f i aggregator_static:aggregator_impl.obj
 0001:0004c7b0       ??4?$_Const_iterator@$00@?$list@U?$pair@QBDPAVCollectClient@AggregatorImpl@aggregator@tls@@@std@@V?$allocator@U?$pair@QBDPAVCollectClient@AggregatorImpl@aggregator@tls@@@std@@@2@@std@@QAEAAV012@ABV012@@Z 1304d7b0 f i aggregator_static:aggregator_impl.obj
 0001:0004c7f0       ??4?$_Bidit@U?$pair@QBDPAVCollectClient@AggregatorImpl@aggregator@tls@@@std@@HPBU12@ABU12@@std@@QAEAAU01@ABU01@@Z 1304d7f0 f i aggregator_static:aggregator_impl.obj
 0001:0004c820       ?tickProc_Client@AggregatorImpl@aggregator@tls@@AAEXXZ 1304d820 f   aggregator_static:aggregator_impl.obj
 0001:0004c9c0       ?GetKeepAlive@CollectClient@AggregatorImpl@aggregator@tls@@QAEIXZ 1304d9c0 f i aggregator_static:aggregator_impl.obj
 0001:0004c9e0       ?reportCount@AggregatorImpl@aggregator@tls@@AAEXI@Z 1304d9e0 f   aggregator_static:aggregator_impl.obj
 0001:0004ca60       ?reportResourceStatus@AggregatorImpl@aggregator@tls@@AAE?AW4rc_e@@PBUIResource@3@@Z 1304da60 f   aggregator_static:aggregator_impl.obj
 0001:0004ce20       ?reportResourceStatus@AggregatorImpl@aggregator@tls@@AAEXI@Z 1304de20 f   aggregator_static:aggregator_impl.obj
 0001:0004d1e0       ?reportClientStatus@AggregatorImpl@aggregator@tls@@AAEXI@Z 1304e1e0 f   aggregator_static:aggregator_impl.obj
 0001:0004d580       ?GetRecvFileDataReal@CollectClient@AggregatorImpl@aggregator@tls@@QAE_KXZ 1304e580 f i aggregator_static:aggregator_impl.obj
 0001:0004d5a0       ?GetRecvFileDataReport@CollectClient@AggregatorImpl@aggregator@tls@@QAE_KXZ 1304e5a0 f i aggregator_static:aggregator_impl.obj
 0001:0004d5c0       ?GetLogonTime@CollectClient@AggregatorImpl@aggregator@tls@@QAEIXZ 1304e5c0 f i aggregator_static:aggregator_impl.obj
 0001:0004d5e0       ?reportRPC@AggregatorImpl@aggregator@tls@@AAEXI@Z 1304e5e0 f   aggregator_static:aggregator_impl.obj
 0001:0004d800       ??0RPCInvokeParam@aggregator@tls@@QAE@PAVAggregatorImpl@12@@Z 1304e800 f i aggregator_static:aggregator_impl.obj
 0001:0004d850       ??1?$_Iterator@$00@?$list@URPCInvokeNode@AggregatorImpl@aggregator@tls@@V?$allocator@URPCInvokeNode@AggregatorImpl@aggregator@tls@@@std@@@std@@QAE@XZ 1304e850 f i aggregator_static:aggregator_impl.obj
 0001:0004d880       ??4?$_Iterator@$00@?$list@URPCInvokeNode@AggregatorImpl@aggregator@tls@@V?$allocator@URPCInvokeNode@AggregatorImpl@aggregator@tls@@@std@@@std@@QAEAAV012@ABV012@@Z 1304e880 f i aggregator_static:aggregator_impl.obj
 0001:0004d8b0       ??1?$_Const_iterator@$00@?$list@URPCInvokeNode@AggregatorImpl@aggregator@tls@@V?$allocator@URPCInvokeNode@AggregatorImpl@aggregator@tls@@@std@@@std@@QAE@XZ 1304e8b0 f i aggregator_static:aggregator_impl.obj
 0001:0004d8e0       ??4?$_Const_iterator@$00@?$list@URPCInvokeNode@AggregatorImpl@aggregator@tls@@V?$allocator@URPCInvokeNode@AggregatorImpl@aggregator@tls@@@std@@@std@@QAEAAV012@ABV012@@Z 1304e8e0 f i aggregator_static:aggregator_impl.obj
 0001:0004d920       ??1?$_Bidit@URPCInvokeNode@AggregatorImpl@aggregator@tls@@HPBU1234@ABU1234@@std@@QAE@XZ 1304e920 f i aggregator_static:aggregator_impl.obj
 0001:0004d950       ??4?$_Bidit@URPCInvokeNode@AggregatorImpl@aggregator@tls@@HPBU1234@ABU1234@@std@@QAEAAU01@ABU01@@Z 1304e950 f i aggregator_static:aggregator_impl.obj
 0001:0004d980       ?AddRPCInvoke@AggregatorImpl@aggregator@tls@@QAE?AW4rc_e@@IPBD00PBEI@Z 1304e980 f   aggregator_static:aggregator_impl.obj
 0001:0004dac0       ?reportRPC@AggregatorImpl@aggregator@tls@@AAE?AW4rc_e@@IW44@PBDPBEI@Z 1304eac0 f   aggregator_static:aggregator_impl.obj
 0001:0004dc30       ?rpcCollectNow@AggregatorImpl@aggregator@tls@@AAE?AW4rc_e@@XZ 1304ec30 f   aggregator_static:aggregator_impl.obj
 0001:0004dd80       ?SetCollectNow@CollectClient@AggregatorImpl@aggregator@tls@@QAEXXZ 1304ed80 f i aggregator_static:aggregator_impl.obj
 0001:0004dda0       ?checkPoint@AggregatorImpl@aggregator@tls@@AAEXI@Z 1304eda0 f   aggregator_static:aggregator_impl.obj
 0001:0004df70       ?initEncodeSystem@AggregatorImpl@aggregator@tls@@AAE?AW4rc_e@@XZ 1304ef70 f   aggregator_static:aggregator_impl.obj
 0001:0004df90       ?clearEncodeSystem@AggregatorImpl@aggregator@tls@@AAEXXZ 1304ef90 f   aggregator_static:aggregator_impl.obj
 0001:0004dfb0       ?checkLogon@AggregatorImpl@aggregator@tls@@AAEPAVCollectClient@123@AAW4rc_e@@PBDI@Z 1304efb0 f   aggregator_static:aggregator_impl.obj
 0001:0004e050       ?CreateInstance@IAggregator@aggregator@tls@@SAPAU123@XZ 1304f050 f   aggregator_static:aggregator_impl.obj
 0001:0004e0a0       _Aggregator_CreateInstance 1304f0a0 f   aggregator_static:aggregator_impl.obj
 0001:0004e0c0       ??0?$basic_string@DU?$char_traits@D@std@@V?$allocator@D@2@@std@@QAE@ABV01@II@Z 1304f0c0 f i aggregator_static:aggregator_impl.obj
 0001:0004e130       ?find_last_of@?$basic_string@DU?$char_traits@D@std@@V?$allocator@D@2@@std@@QBEIPBDI@Z 1304f130 f i aggregator_static:aggregator_impl.obj
 0001:0004e170       ??0?$PoolThreadSafe@VDBConnImpl@aggregator@tls@@PBUst_db_conn_str@@@base@tls@@QAE@II@Z 1304f170 f i aggregator_static:aggregator_impl.obj
 0001:0004e1c0       ?get_no_create@?$PoolThreadSafe@VDBConnImpl@aggregator@tls@@PBUst_db_conn_str@@@base@tls@@QAEPAVDBConnImpl@aggregator@3@XZ 1304f1c0 f i aggregator_static:aggregator_impl.obj
 0001:0004e250       ?get@?$PoolThreadSafe@VDBConnImpl@aggregator@tls@@PBUst_db_conn_str@@@base@tls@@QAEPAVDBConnImpl@aggregator@3@XZ 1304f250 f i aggregator_static:aggregator_impl.obj
 0001:0004e2e0       ?total_size@?$Pool@VDBConnImpl@aggregator@tls@@PBUst_db_conn_str@@U?$PoolDefaultAllocator@VDBConnImpl@aggregator@tls@@PBUst_db_conn_str@@@base@3@U?$PoolDefaultDeletor@VDBConnImpl@aggregator@tls@@@63@@base@tls@@QBEIXZ 1304f2e0 f i aggregator_static:aggregator_impl.obj
 0001:0004e310       ?free_size@?$Pool@VDBConnImpl@aggregator@tls@@PBUst_db_conn_str@@U?$PoolDefaultAllocator@VDBConnImpl@aggregator@tls@@PBUst_db_conn_str@@@base@3@U?$PoolDefaultDeletor@VDBConnImpl@aggregator@tls@@@63@@base@tls@@QBEIXZ 1304f310 f i aggregator_static:aggregator_impl.obj
 0001:0004e340       ?init@?$Pool@VDBConnImpl@aggregator@tls@@PBUst_db_conn_str@@U?$PoolDefaultAllocator@VDBConnImpl@aggregator@tls@@PBUst_db_conn_str@@@base@3@U?$PoolDefaultDeletor@VDBConnImpl@aggregator@tls@@@63@@base@tls@@QAEXPBUst_db_conn_str@@I@Z 1304f340 f i aggregator_static:aggregator_impl.obj
 0001:0004e380       ??0?$AutoRelease@PAUIHostContext@aggregator@tls@@@tls@@QAE@PAUIHostContext@aggregator@1@@Z 1304f380 f i aggregator_static:aggregator_impl.obj
 0001:0004e3a0       ??1?$AutoRelease@PAUIHostContext@aggregator@tls@@@tls@@QAE@XZ 1304f3a0 f i aggregator_static:aggregator_impl.obj
 0001:0004e3d0       ??B?$AutoRelease@PAUIHostContext@aggregator@tls@@@tls@@QAEPAUIHostContext@aggregator@1@XZ 1304f3d0 f i aggregator_static:aggregator_impl.obj
 0001:0004e3f0       ?Set@?$AutoRelease@PAUIHostContext@aggregator@tls@@@tls@@QAEXPAUIHostContext@aggregator@2@@Z 1304f3f0 f i aggregator_static:aggregator_impl.obj
 0001:0004e420       ??0?$list@IV?$allocator@I@std@@@std@@QAE@XZ 1304f420 f i aggregator_static:aggregator_impl.obj
 0001:0004e470       ??1?$list@IV?$allocator@I@std@@@std@@QAE@XZ 1304f470 f i aggregator_static:aggregator_impl.obj
 0001:0004e4a0       ?size@?$list@IV?$allocator@I@std@@@std@@QBEIXZ 1304f4a0 f i aggregator_static:aggregator_impl.obj
 0001:0004e4c0       ??0?$hash_map@PBDPAVCollectClient@AggregatorImpl@aggregator@tls@@Uchar_t_hash@base@4@V?$allocator@U?$pair@QBDPAVCollectClient@AggregatorImpl@aggregator@tls@@@std@@@std@@@stdext@@QAE@XZ 1304f4c0 f i aggregator_static:aggregator_impl.obj
 0001:0004e510       ??A?$hash_map@PBDPAVCollectClient@AggregatorImpl@aggregator@tls@@Uchar_t_hash@base@4@V?$allocator@U?$pair@QBDPAVCollectClient@AggregatorImpl@aggregator@tls@@@std@@@std@@@stdext@@QAEAAPAVCollectClient@AggregatorImpl@aggregator@tls@@ABQBD@Z 1304f510 f i aggregator_static:aggregator_impl.obj
 0001:0004e5f0       ??1?$_Hash@V?$_Hmap_traits@PBDPAVCollectClient@AggregatorImpl@aggregator@tls@@Uchar_t_hash@base@4@V?$allocator@U?$pair@QBDPAVCollectClient@AggregatorImpl@aggregator@tls@@@std@@@std@@$0A@@stdext@@@stdext@@QAE@XZ 1304f5f0 f i aggregator_static:aggregator_impl.obj
 0001:0004e630       ?begin@?$_Hash@V?$_Hmap_traits@PBDPAVCollectClient@AggregatorImpl@aggregator@tls@@Uchar_t_hash@base@4@V?$allocator@U?$pair@QBDPAVCollectClient@AggregatorImpl@aggregator@tls@@@std@@@std@@$0A@@stdext@@@stdext@@QAE?AV?$_Iterator@$00@?$list@U?$pair@QBDPAVCollectClient@AggregatorImpl@aggregator@tls@@@std@@V?$allocator@U?$pair@QBDPAVCollectClient@AggregatorImpl@aggregator@tls@@@std@@@2@@std@@XZ 1304f630 f i aggregator_static:aggregator_impl.obj
 0001:0004e660       ?end@?$_Hash@V?$_Hmap_traits@PBDPAVCollectClient@AggregatorImpl@aggregator@tls@@Uchar_t_hash@base@4@V?$allocator@U?$pair@QBDPAVCollectClient@AggregatorImpl@aggregator@tls@@@std@@@std@@$0A@@stdext@@@stdext@@QAE?AV?$_Iterator@$00@?$list@U?$pair@QBDPAVCollectClient@AggregatorImpl@aggregator@tls@@@std@@V?$allocator@U?$pair@QBDPAVCollectClient@AggregatorImpl@aggregator@tls@@@std@@@2@@std@@XZ 1304f660 f i aggregator_static:aggregator_impl.obj
 0001:0004e690       ?size@?$_Hash@V?$_Hmap_traits@PBDPAVCollectClient@AggregatorImpl@aggregator@tls@@Uchar_t_hash@base@4@V?$allocator@U?$pair@QBDPAVCollectClient@AggregatorImpl@aggregator@tls@@@std@@@std@@$0A@@stdext@@@stdext@@QBEIXZ 1304f690 f i aggregator_static:aggregator_impl.obj
 0001:0004e6c0       ?erase@?$_Hash@V?$_Hmap_traits@PBDPAVCollectClient@AggregatorImpl@aggregator@tls@@Uchar_t_hash@base@4@V?$allocator@U?$pair@QBDPAVCollectClient@AggregatorImpl@aggregator@tls@@@std@@@std@@$0A@@stdext@@@stdext@@QAE?AV?$_Iterator@$00@?$list@U?$pair@QBDPAVCollectClient@AggregatorImpl@aggregator@tls@@@std@@V?$allocator@U?$pair@QBDPAVCollectClient@AggregatorImpl@aggregator@tls@@@std@@@2@@std@@V345@@Z 1304f6c0 f i aggregator_static:aggregator_impl.obj
 0001:0004e780       ?clear@?$_Hash@V?$_Hmap_traits@PBDPAVCollectClient@AggregatorImpl@aggregator@tls@@Uchar_t_hash@base@4@V?$allocator@U?$pair@QBDPAVCollectClient@AggregatorImpl@aggregator@tls@@@std@@@std@@$0A@@stdext@@@stdext@@QAEXXZ 1304f780 f i aggregator_static:aggregator_impl.obj
 0001:0004e7f0       ?find@?$_Hash@V?$_Hmap_traits@PBDPAVCollectClient@AggregatorImpl@aggregator@tls@@Uchar_t_hash@base@4@V?$allocator@U?$pair@QBDPAVCollectClient@AggregatorImpl@aggregator@tls@@@std@@@std@@$0A@@stdext@@@stdext@@QAE?AV?$_Iterator@$00@?$list@U?$pair@QBDPAVCollectClient@AggregatorImpl@aggregator@tls@@@std@@V?$allocator@U?$pair@QBDPAVCollectClient@AggregatorImpl@aggregator@tls@@@std@@@2@@std@@ABQBD@Z 1304f7f0 f i aggregator_static:aggregator_impl.obj
 0001:0004e830       ??0?$PoolNoThreadSafe@VCollectClient@AggregatorImpl@aggregator@tls@@PBD@base@tls@@QAE@II@Z 1304f830 f i aggregator_static:aggregator_impl.obj
 0001:0004e870       ??1?$Pool@VCollectClient@AggregatorImpl@aggregator@tls@@PBDU?$PoolDefaultAllocator@VCollectClient@AggregatorImpl@aggregator@tls@@PBD@base@4@U?$PoolDefaultDeletor@VCollectClient@AggregatorImpl@aggregator@tls@@@64@@base@tls@@UAE@XZ 1304f870 f i aggregator_static:aggregator_impl.obj
 0001:0004e8c0       ?total_size@?$Pool@VCollectClient@AggregatorImpl@aggregator@tls@@PBDU?$PoolDefaultAllocator@VCollectClient@AggregatorImpl@aggregator@tls@@PBD@base@4@U?$PoolDefaultDeletor@VCollectClient@AggregatorImpl@aggregator@tls@@@64@@base@tls@@QBEIXZ 1304f8c0 f i aggregator_static:aggregator_impl.obj
 0001:0004e8f0       ?init@?$Pool@VCollectClient@AggregatorImpl@aggregator@tls@@PBDU?$PoolDefaultAllocator@VCollectClient@AggregatorImpl@aggregator@tls@@PBD@base@4@U?$PoolDefaultDeletor@VCollectClient@AggregatorImpl@aggregator@tls@@@64@@base@tls@@QAEXPBDI@Z 1304f8f0 f i aggregator_static:aggregator_impl.obj
 0001:0004e930       ?get@?$Pool@VCollectClient@AggregatorImpl@aggregator@tls@@PBDU?$PoolDefaultAllocator@VCollectClient@AggregatorImpl@aggregator@tls@@PBD@base@4@U?$PoolDefaultDeletor@VCollectClient@AggregatorImpl@aggregator@tls@@@64@@base@tls@@QAEPAVCollectClient@AggregatorImpl@aggregator@3@XZ 1304f930 f i aggregator_static:aggregator_impl.obj
 0001:0004e9f0       ?release@?$Pool@VCollectClient@AggregatorImpl@aggregator@tls@@PBDU?$PoolDefaultAllocator@VCollectClient@AggregatorImpl@aggregator@tls@@PBD@base@4@U?$PoolDefaultDeletor@VCollectClient@AggregatorImpl@aggregator@tls@@@64@@base@tls@@QAEXPAVCollectClient@AggregatorImpl@aggregator@3@@Z 1304f9f0 f i aggregator_static:aggregator_impl.obj
 0001:0004eb60       ??0?$hash_map@IPAVRequestAndResponse@aggregator@tls@@V?$hash_compare@IU?$less@I@std@@@stdext@@V?$allocator@U?$pair@$$CBIPAVRequestAndResponse@aggregator@tls@@@std@@@std@@@stdext@@QAE@XZ 1304fb60 f i aggregator_static:aggregator_impl.obj
 0001:0004ebb0       ??1?$_Hash@V?$_Hmap_traits@IPAVRequestAndResponse@aggregator@tls@@V?$hash_compare@IU?$less@I@std@@@stdext@@V?$allocator@U?$pair@$$CBIPAVRequestAndResponse@aggregator@tls@@@std@@@std@@$0A@@stdext@@@stdext@@QAE@XZ 1304fbb0 f i aggregator_static:aggregator_impl.obj
 0001:0004ebf0       ??0?$list@PAVRequestAndResponse@aggregator@tls@@V?$allocator@PAVRequestAndResponse@aggregator@tls@@@std@@@std@@QAE@XZ 1304fbf0 f i aggregator_static:aggregator_impl.obj
 0001:0004ec40       ??1?$list@PAVRequestAndResponse@aggregator@tls@@V?$allocator@PAVRequestAndResponse@aggregator@tls@@@std@@@std@@QAE@XZ 1304fc40 f i aggregator_static:aggregator_impl.obj
 0001:0004ec70       ??0?$hash_map@IVatomic_count@base@tls@@V?$hash_compare@IU?$less@I@std@@@stdext@@V?$allocator@U?$pair@$$CBIVatomic_count@base@tls@@@std@@@std@@@stdext@@QAE@XZ 1304fc70 f i aggregator_static:aggregator_impl.obj
 0001:0004ecc0       ??A?$hash_map@IVatomic_count@base@tls@@V?$hash_compare@IU?$less@I@std@@@stdext@@V?$allocator@U?$pair@$$CBIVatomic_count@base@tls@@@std@@@std@@@stdext@@QAEAAVatomic_count@base@tls@@ABI@Z 1304fcc0 f i aggregator_static:aggregator_impl.obj
 0001:0004eda0       ??1?$_Hash@V?$_Hmap_traits@IVatomic_count@base@tls@@V?$hash_compare@IU?$less@I@std@@@stdext@@V?$allocator@U?$pair@$$CBIVatomic_count@base@tls@@@std@@@std@@$0A@@stdext@@@stdext@@QAE@XZ 1304fda0 f i aggregator_static:aggregator_impl.obj
 0001:0004ede0       ?begin@?$_Hash@V?$_Hmap_traits@IVatomic_count@base@tls@@V?$hash_compare@IU?$less@I@std@@@stdext@@V?$allocator@U?$pair@$$CBIVatomic_count@base@tls@@@std@@@std@@$0A@@stdext@@@stdext@@QAE?AV?$_Iterator@$00@?$list@U?$pair@$$CBIVatomic_count@base@tls@@@std@@V?$allocator@U?$pair@$$CBIVatomic_count@base@tls@@@std@@@2@@std@@XZ 1304fde0 f i aggregator_static:aggregator_impl.obj
 0001:0004ee10       ?end@?$_Hash@V?$_Hmap_traits@IVatomic_count@base@tls@@V?$hash_compare@IU?$less@I@std@@@stdext@@V?$allocator@U?$pair@$$CBIVatomic_count@base@tls@@@std@@@std@@$0A@@stdext@@@stdext@@QAE?AV?$_Iterator@$00@?$list@U?$pair@$$CBIVatomic_count@base@tls@@@std@@V?$allocator@U?$pair@$$CBIVatomic_count@base@tls@@@std@@@2@@std@@XZ 1304fe10 f i aggregator_static:aggregator_impl.obj
 0001:0004ee40       ?clear@?$_Hash@V?$_Hmap_traits@IVatomic_count@base@tls@@V?$hash_compare@IU?$less@I@std@@@stdext@@V?$allocator@U?$pair@$$CBIVatomic_count@base@tls@@@std@@@std@@$0A@@stdext@@@stdext@@QAEXXZ 1304fe40 f i aggregator_static:aggregator_impl.obj
 0001:0004eeb0       ?find@?$_Hash@V?$_Hmap_traits@IVatomic_count@base@tls@@V?$hash_compare@IU?$less@I@std@@@stdext@@V?$allocator@U?$pair@$$CBIVatomic_count@base@tls@@@std@@@std@@$0A@@stdext@@@stdext@@QAE?AV?$_Iterator@$00@?$list@U?$pair@$$CBIVatomic_count@base@tls@@@std@@V?$allocator@U?$pair@$$CBIVatomic_count@base@tls@@@std@@@2@@std@@ABI@Z 1304feb0 f i aggregator_static:aggregator_impl.obj
 0001:0004eef0       ??0?$list@Umodule_t@AggregatorImpl@aggregator@tls@@V?$allocator@Umodule_t@AggregatorImpl@aggregator@tls@@@std@@@std@@QAE@XZ 1304fef0 f i aggregator_static:aggregator_impl.obj
 0001:0004ef40       ??1?$list@Umodule_t@AggregatorImpl@aggregator@tls@@V?$allocator@Umodule_t@AggregatorImpl@aggregator@tls@@@std@@@std@@QAE@XZ 1304ff40 f i aggregator_static:aggregator_impl.obj
 0001:0004ef70       ?begin@?$list@Umodule_t@AggregatorImpl@aggregator@tls@@V?$allocator@Umodule_t@AggregatorImpl@aggregator@tls@@@std@@@std@@QAE?AV?$_Iterator@$00@12@XZ 1304ff70 f i aggregator_static:aggregator_impl.obj
 0001:0004efb0       ?end@?$list@Umodule_t@AggregatorImpl@aggregator@tls@@V?$allocator@Umodule_t@AggregatorImpl@aggregator@tls@@@std@@@std@@QAE?AV?$_Iterator@$00@12@XZ 1304ffb0 f i aggregator_static:aggregator_impl.obj
 0001:0004eff0       ?size@?$list@Umodule_t@AggregatorImpl@aggregator@tls@@V?$allocator@Umodule_t@AggregatorImpl@aggregator@tls@@@std@@@std@@QBEIXZ 1304fff0 f i aggregator_static:aggregator_impl.obj
 0001:0004f010       ?push_back@?$list@Umodule_t@AggregatorImpl@aggregator@tls@@V?$allocator@Umodule_t@AggregatorImpl@aggregator@tls@@@std@@@std@@QAEXABUmodule_t@AggregatorImpl@aggregator@tls@@@Z 13050010 f i aggregator_static:aggregator_impl.obj
 0001:0004f050       ?clear@?$list@Umodule_t@AggregatorImpl@aggregator@tls@@V?$allocator@Umodule_t@AggregatorImpl@aggregator@tls@@@std@@@std@@QAEXXZ 13050050 f i aggregator_static:aggregator_impl.obj
 0001:0004f120       ??0?$list@PAUIObject@tls@@V?$allocator@PAUIObject@tls@@@std@@@std@@QAE@XZ 13050120 f i aggregator_static:aggregator_impl.obj
 0001:0004f170       ??1?$list@PAUIObject@tls@@V?$allocator@PAUIObject@tls@@@std@@@std@@QAE@XZ 13050170 f i aggregator_static:aggregator_impl.obj
 0001:0004f1a0       ?begin@?$list@PAUIObject@tls@@V?$allocator@PAUIObject@tls@@@std@@@std@@QAE?AV?$_Iterator@$00@12@XZ 130501a0 f i aggregator_static:aggregator_impl.obj
 0001:0004f1e0       ?end@?$list@PAUIObject@tls@@V?$allocator@PAUIObject@tls@@@std@@@std@@QAE?AV?$_Iterator@$00@12@XZ 130501e0 f i aggregator_static:aggregator_impl.obj
 0001:0004f220       ?size@?$list@PAUIObject@tls@@V?$allocator@PAUIObject@tls@@@std@@@std@@QBEIXZ 13050220 f i aggregator_static:aggregator_impl.obj
 0001:0004f240       ?push_back@?$list@PAUIObject@tls@@V?$allocator@PAUIObject@tls@@@std@@@std@@QAEXABQAUIObject@tls@@@Z 13050240 f i aggregator_static:aggregator_impl.obj
 0001:0004f280       ?clear@?$list@PAUIObject@tls@@V?$allocator@PAUIObject@tls@@@std@@@std@@QAEXXZ 13050280 f i aggregator_static:aggregator_impl.obj
 0001:0004f350       ??0?$list@Ust_thread_param@AggregatorImpl@aggregator@tls@@V?$allocator@Ust_thread_param@AggregatorImpl@aggregator@tls@@@std@@@std@@QAE@XZ 13050350 f i aggregator_static:aggregator_impl.obj
 0001:0004f3a0       ??1?$list@Ust_thread_param@AggregatorImpl@aggregator@tls@@V?$allocator@Ust_thread_param@AggregatorImpl@aggregator@tls@@@std@@@std@@QAE@XZ 130503a0 f i aggregator_static:aggregator_impl.obj
 0001:0004f3d0       ?back@?$list@Ust_thread_param@AggregatorImpl@aggregator@tls@@V?$allocator@Ust_thread_param@AggregatorImpl@aggregator@tls@@@std@@@std@@QAEAAUst_thread_param@AggregatorImpl@aggregator@tls@@XZ 130503d0 f i aggregator_static:aggregator_impl.obj
 0001:0004f430       ?push_back@?$list@Ust_thread_param@AggregatorImpl@aggregator@tls@@V?$allocator@Ust_thread_param@AggregatorImpl@aggregator@tls@@@std@@@std@@QAEXABUst_thread_param@AggregatorImpl@aggregator@tls@@@Z 13050430 f i aggregator_static:aggregator_impl.obj
 0001:0004f470       ?clear@?$list@Ust_thread_param@AggregatorImpl@aggregator@tls@@V?$allocator@Ust_thread_param@AggregatorImpl@aggregator@tls@@@std@@@std@@QAEXXZ 13050470 f i aggregator_static:aggregator_impl.obj
 0001:0004f540       ??0?$ThreadGroup@VAggregatorImpl@aggregator@tls@@@base@tls@@QAE@XZ 13050540 f i aggregator_static:aggregator_impl.obj
 0001:0004f580       ??1?$ThreadGroup@VAggregatorImpl@aggregator@tls@@@base@tls@@QAE@XZ 13050580 f i aggregator_static:aggregator_impl.obj
 0001:0004f5c0       ?create_thread@?$ThreadGroup@VAggregatorImpl@aggregator@tls@@@base@tls@@QAEPAVThread@23@PAVAggregatorImpl@aggregator@3@PAX@Z 130505c0 f i aggregator_static:aggregator_impl.obj
 0001:0004f720       ?Name@Thread@base@tls@@QBEPBDXZ 13050720 f i aggregator_static:aggregator_impl.obj
 0001:0004f740       ?join_all@?$ThreadGroup@VAggregatorImpl@aggregator@tls@@@base@tls@@QAEXXZ 13050740 f i aggregator_static:aggregator_impl.obj
 0001:0004f880       ?isRunning@Thread@base@tls@@QBEIXZ 13050880 f i aggregator_static:aggregator_impl.obj
 0001:0004f8a0       ??0?$hash_map@PBDPAV?$PoolThreadSafe@VDBConnImpl@aggregator@tls@@PBUst_db_conn_str@@@base@tls@@Uchar_t_hash@23@V?$allocator@U?$pair@QBDPAV?$PoolThreadSafe@VDBConnImpl@aggregator@tls@@PBUst_db_conn_str@@@base@tls@@@std@@@std@@@stdext@@QAE@XZ 130508a0 f i aggregator_static:aggregator_impl.obj
 0001:0004f8f0       ??A?$hash_map@PBDPAV?$PoolThreadSafe@VDBConnImpl@aggregator@tls@@PBUst_db_conn_str@@@base@tls@@Uchar_t_hash@23@V?$allocator@U?$pair@QBDPAV?$PoolThreadSafe@VDBConnImpl@aggregator@tls@@PBUst_db_conn_str@@@base@tls@@@std@@@std@@@stdext@@QAEAAPAV?$PoolThreadSafe@VDBConnImpl@aggregator@tls@@PBUst_db_conn_str@@@base@tls@@ABQBD@Z 130508f0 f i aggregator_static:aggregator_impl.obj
 0001:0004f9d0       ??1?$_Hash@V?$_Hmap_traits@PBDPAV?$PoolThreadSafe@VDBConnImpl@aggregator@tls@@PBUst_db_conn_str@@@base@tls@@Uchar_t_hash@23@V?$allocator@U?$pair@QBDPAV?$PoolThreadSafe@VDBConnImpl@aggregator@tls@@PBUst_db_conn_str@@@base@tls@@@std@@@std@@$0A@@stdext@@@stdext@@QAE@XZ 130509d0 f i aggregator_static:aggregator_impl.obj
 0001:0004fa10       ?begin@?$_Hash@V?$_Hmap_traits@PBDPAV?$PoolThreadSafe@VDBConnImpl@aggregator@tls@@PBUst_db_conn_str@@@base@tls@@Uchar_t_hash@23@V?$allocator@U?$pair@QBDPAV?$PoolThreadSafe@VDBConnImpl@aggregator@tls@@PBUst_db_conn_str@@@base@tls@@@std@@@std@@$0A@@stdext@@@stdext@@QAE?AV?$_Iterator@$00@?$list@U?$pair@QBDPAV?$PoolThreadSafe@VDBConnImpl@aggregator@tls@@PBUst_db_conn_str@@@base@tls@@@std@@V?$allocator@U?$pair@QBDPAV?$PoolThreadSafe@VDBConnImpl@aggregator@tls@@PBUst_db_conn_str@@@base@tls@@@std@@@2@@std@@XZ 13050a10 f i aggregator_static:aggregator_impl.obj
 0001:0004fa40       ?begin@?$_Hash@V?$_Hmap_traits@PBDPAV?$PoolThreadSafe@VDBConnImpl@aggregator@tls@@PBUst_db_conn_str@@@base@tls@@Uchar_t_hash@23@V?$allocator@U?$pair@QBDPAV?$PoolThreadSafe@VDBConnImpl@aggregator@tls@@PBUst_db_conn_str@@@base@tls@@@std@@@std@@$0A@@stdext@@@stdext@@QBE?AV?$_Const_iterator@$00@?$list@U?$pair@QBDPAV?$PoolThreadSafe@VDBConnImpl@aggregator@tls@@PBUst_db_conn_str@@@base@tls@@@std@@V?$allocator@U?$pair@QBDPAV?$PoolThreadSafe@VDBConnImpl@aggregator@tls@@PBUst_db_conn_str@@@base@tls@@@std@@@2@@std@@XZ 13050a40 f i aggregator_static:aggregator_impl.obj
 0001:0004fa70       ?end@?$_Hash@V?$_Hmap_traits@PBDPAV?$PoolThreadSafe@VDBConnImpl@aggregator@tls@@PBUst_db_conn_str@@@base@tls@@Uchar_t_hash@23@V?$allocator@U?$pair@QBDPAV?$PoolThreadSafe@VDBConnImpl@aggregator@tls@@PBUst_db_conn_str@@@base@tls@@@std@@@std@@$0A@@stdext@@@stdext@@QAE?AV?$_Iterator@$00@?$list@U?$pair@QBDPAV?$PoolThreadSafe@VDBConnImpl@aggregator@tls@@PBUst_db_conn_str@@@base@tls@@@std@@V?$allocator@U?$pair@QBDPAV?$PoolThreadSafe@VDBConnImpl@aggregator@tls@@PBUst_db_conn_str@@@base@tls@@@std@@@2@@std@@XZ 13050a70 f i aggregator_static:aggregator_impl.obj
 0001:0004faa0       ?end@?$_Hash@V?$_Hmap_traits@PBDPAV?$PoolThreadSafe@VDBConnImpl@aggregator@tls@@PBUst_db_conn_str@@@base@tls@@Uchar_t_hash@23@V?$allocator@U?$pair@QBDPAV?$PoolThreadSafe@VDBConnImpl@aggregator@tls@@PBUst_db_conn_str@@@base@tls@@@std@@@std@@$0A@@stdext@@@stdext@@QBE?AV?$_Const_iterator@$00@?$list@U?$pair@QBDPAV?$PoolThreadSafe@VDBConnImpl@aggregator@tls@@PBUst_db_conn_str@@@base@tls@@@std@@V?$allocator@U?$pair@QBDPAV?$PoolThreadSafe@VDBConnImpl@aggregator@tls@@PBUst_db_conn_str@@@base@tls@@@std@@@2@@std@@XZ 13050aa0 f i aggregator_static:aggregator_impl.obj
 0001:0004fad0       ?clear@?$_Hash@V?$_Hmap_traits@PBDPAV?$PoolThreadSafe@VDBConnImpl@aggregator@tls@@PBUst_db_conn_str@@@base@tls@@Uchar_t_hash@23@V?$allocator@U?$pair@QBDPAV?$PoolThreadSafe@VDBConnImpl@aggregator@tls@@PBUst_db_conn_str@@@base@tls@@@std@@@std@@$0A@@stdext@@@stdext@@QAEXXZ 13050ad0 f i aggregator_static:aggregator_impl.obj
 0001:0004fb40       ?find@?$_Hash@V?$_Hmap_traits@PBDPAV?$PoolThreadSafe@VDBConnImpl@aggregator@tls@@PBUst_db_conn_str@@@base@tls@@Uchar_t_hash@23@V?$allocator@U?$pair@QBDPAV?$PoolThreadSafe@VDBConnImpl@aggregator@tls@@PBUst_db_conn_str@@@base@tls@@@std@@@std@@$0A@@stdext@@@stdext@@QAE?AV?$_Iterator@$00@?$list@U?$pair@QBDPAV?$PoolThreadSafe@VDBConnImpl@aggregator@tls@@PBUst_db_conn_str@@@base@tls@@@std@@V?$allocator@U?$pair@QBDPAV?$PoolThreadSafe@VDBConnImpl@aggregator@tls@@PBUst_db_conn_str@@@base@tls@@@std@@@2@@std@@ABQBD@Z 13050b40 f i aggregator_static:aggregator_impl.obj
 0001:0004fb80       ??0?$list@Ust_db_conn_str@@V?$allocator@Ust_db_conn_str@@@std@@@std@@QAE@XZ 13050b80 f i aggregator_static:aggregator_impl.obj
 0001:0004fbd0       ??1?$list@Ust_db_conn_str@@V?$allocator@Ust_db_conn_str@@@std@@@std@@QAE@XZ 13050bd0 f i aggregator_static:aggregator_impl.obj
 0001:0004fc00       ?back@?$list@Ust_db_conn_str@@V?$allocator@Ust_db_conn_str@@@std@@@std@@QAEAAUst_db_conn_str@@XZ 13050c00 f i aggregator_static:aggregator_impl.obj
 0001:0004fc60       ?push_back@?$list@Ust_db_conn_str@@V?$allocator@Ust_db_conn_str@@@std@@@std@@QAEXABUst_db_conn_str@@@Z 13050c60 f i aggregator_static:aggregator_impl.obj
 0001:0004fca0       ?Release@?$AutoRelease@PAUIFileSystem@aggregator@tls@@@tls@@QAEXXZ 13050ca0 f i aggregator_static:aggregator_impl.obj
 0001:0004fcf0       ??0?$AutoRelease@PAUIFileSystem@aggregator@tls@@@tls@@QAE@PAUIFileSystem@aggregator@1@@Z 13050cf0 f i aggregator_static:aggregator_impl.obj
 0001:0004fd10       ??1?$AutoRelease@PAUIFileSystem@aggregator@tls@@@tls@@QAE@XZ 13050d10 f i aggregator_static:aggregator_impl.obj
 0001:0004fd40       ??C?$AutoRelease@PAUIFileSystem@aggregator@tls@@@tls@@QAEPAUIFileSystem@aggregator@1@XZ 13050d40 f i aggregator_static:aggregator_impl.obj
 0001:0004fd60       ??B?$AutoRelease@PAUIFileSystem@aggregator@tls@@@tls@@QAEPAUIFileSystem@aggregator@1@XZ 13050d60 f i aggregator_static:aggregator_impl.obj
 0001:0004fd80       ?Set@?$AutoRelease@PAUIFileSystem@aggregator@tls@@@tls@@QAEXPAUIFileSystem@aggregator@2@@Z 13050d80 f i aggregator_static:aggregator_impl.obj
 0001:0004fdb0       ??0?$vector@PBDV?$allocator@PBD@std@@@std@@QAE@I@Z 13050db0 f i aggregator_static:aggregator_impl.obj
 0001:0004fe10       ??1?$vector@PBDV?$allocator@PBD@std@@@std@@QAE@XZ 13050e10 f i aggregator_static:aggregator_impl.obj
 0001:0004fe40       ?size@?$vector@PBDV?$allocator@PBD@std@@@std@@QBEIXZ 13050e40 f i aggregator_static:aggregator_impl.obj
 0001:0004fe90       ??A?$vector@PBDV?$allocator@PBD@std@@@std@@QAEAAPBDI@Z 13050e90 f i aggregator_static:aggregator_impl.obj
 0001:0004ff80       ?clear@?$vector@PBDV?$allocator@PBD@std@@@std@@QAEXXZ 13050f80 f i aggregator_static:aggregator_impl.obj
 0001:0004ffe0       ??0?$hash_map@IPAVLogTypeIdx@AggregatorImpl@aggregator@tls@@V?$hash_compare@IU?$less@I@std@@@stdext@@V?$allocator@U?$pair@$$CBIPAVLogTypeIdx@AggregatorImpl@aggregator@tls@@@std@@@std@@@stdext@@QAE@XZ 13050fe0 f i aggregator_static:aggregator_impl.obj
 0001:00050030       ??A?$hash_map@IPAVLogTypeIdx@AggregatorImpl@aggregator@tls@@V?$hash_compare@IU?$less@I@std@@@stdext@@V?$allocator@U?$pair@$$CBIPAVLogTypeIdx@AggregatorImpl@aggregator@tls@@@std@@@std@@@stdext@@QAEAAPAVLogTypeIdx@AggregatorImpl@aggregator@tls@@ABI@Z 13051030 f i aggregator_static:aggregator_impl.obj
 0001:00050110       ??1?$_Hash@V?$_Hmap_traits@IPAVLogTypeIdx@AggregatorImpl@aggregator@tls@@V?$hash_compare@IU?$less@I@std@@@stdext@@V?$allocator@U?$pair@$$CBIPAVLogTypeIdx@AggregatorImpl@aggregator@tls@@@std@@@std@@$0A@@stdext@@@stdext@@QAE@XZ 13051110 f i aggregator_static:aggregator_impl.obj
 0001:00050150       ?begin@?$_Hash@V?$_Hmap_traits@IPAVLogTypeIdx@AggregatorImpl@aggregator@tls@@V?$hash_compare@IU?$less@I@std@@@stdext@@V?$allocator@U?$pair@$$CBIPAVLogTypeIdx@AggregatorImpl@aggregator@tls@@@std@@@std@@$0A@@stdext@@@stdext@@QAE?AV?$_Iterator@$00@?$list@U?$pair@$$CBIPAVLogTypeIdx@AggregatorImpl@aggregator@tls@@@std@@V?$allocator@U?$pair@$$CBIPAVLogTypeIdx@AggregatorImpl@aggregator@tls@@@std@@@2@@std@@XZ 13051150 f i aggregator_static:aggregator_impl.obj
 0001:00050180       ?end@?$_Hash@V?$_Hmap_traits@IPAVLogTypeIdx@AggregatorImpl@aggregator@tls@@V?$hash_compare@IU?$less@I@std@@@stdext@@V?$allocator@U?$pair@$$CBIPAVLogTypeIdx@AggregatorImpl@aggregator@tls@@@std@@@std@@$0A@@stdext@@@stdext@@QAE?AV?$_Iterator@$00@?$list@U?$pair@$$CBIPAVLogTypeIdx@AggregatorImpl@aggregator@tls@@@std@@V?$allocator@U?$pair@$$CBIPAVLogTypeIdx@AggregatorImpl@aggregator@tls@@@std@@@2@@std@@XZ 13051180 f i aggregator_static:aggregator_impl.obj
 0001:000501b0       ?clear@?$_Hash@V?$_Hmap_traits@IPAVLogTypeIdx@AggregatorImpl@aggregator@tls@@V?$hash_compare@IU?$less@I@std@@@stdext@@V?$allocator@U?$pair@$$CBIPAVLogTypeIdx@AggregatorImpl@aggregator@tls@@@std@@@std@@$0A@@stdext@@@stdext@@QAEXXZ 130511b0 f i aggregator_static:aggregator_impl.obj
 0001:00050220       ?find@?$_Hash@V?$_Hmap_traits@IPAVLogTypeIdx@AggregatorImpl@aggregator@tls@@V?$hash_compare@IU?$less@I@std@@@stdext@@V?$allocator@U?$pair@$$CBIPAVLogTypeIdx@AggregatorImpl@aggregator@tls@@@std@@@std@@$0A@@stdext@@@stdext@@QAE?AV?$_Iterator@$00@?$list@U?$pair@$$CBIPAVLogTypeIdx@AggregatorImpl@aggregator@tls@@@std@@V?$allocator@U?$pair@$$CBIPAVLogTypeIdx@AggregatorImpl@aggregator@tls@@@std@@@2@@std@@ABI@Z 13051220 f i aggregator_static:aggregator_impl.obj
 0001:00050260       ??0?$hash_map@PAUIFileIterator@aggregator@tls@@PAU123@V?$hash_compare@PAUIFileIterator@aggregator@tls@@U?$less@PAUIFileIterator@aggregator@tls@@@std@@@stdext@@V?$allocator@U?$pair@QAUIFileIterator@aggregator@tls@@PAU123@@std@@@std@@@stdext@@QAE@XZ 13051260 f i aggregator_static:aggregator_impl.obj
 0001:000502b0       ??A?$hash_map@PAUIFileIterator@aggregator@tls@@PAU123@V?$hash_compare@PAUIFileIterator@aggregator@tls@@U?$less@PAUIFileIterator@aggregator@tls@@@std@@@stdext@@V?$allocator@U?$pair@QAUIFileIterator@aggregator@tls@@PAU123@@std@@@std@@@stdext@@QAEAAPAUIFileIterator@aggregator@tls@@ABQAU234@@Z 130512b0 f i aggregator_static:aggregator_impl.obj
 0001:00050390       ??1?$_Hash@V?$_Hmap_traits@PAUIFileIterator@aggregator@tls@@PAU123@V?$hash_compare@PAUIFileIterator@aggregator@tls@@U?$less@PAUIFileIterator@aggregator@tls@@@std@@@stdext@@V?$allocator@U?$pair@QAUIFileIterator@aggregator@tls@@PAU123@@std@@@std@@$0A@@stdext@@@stdext@@QAE@XZ 13051390 f i aggregator_static:aggregator_impl.obj
 0001:000503d0       ?begin@?$_Hash@V?$_Hmap_traits@PAUIFileIterator@aggregator@tls@@PAU123@V?$hash_compare@PAUIFileIterator@aggregator@tls@@U?$less@PAUIFileIterator@aggregator@tls@@@std@@@stdext@@V?$allocator@U?$pair@QAUIFileIterator@aggregator@tls@@PAU123@@std@@@std@@$0A@@stdext@@@stdext@@QAE?AV?$_Iterator@$00@?$list@U?$pair@QAUIFileIterator@aggregator@tls@@PAU123@@std@@V?$allocator@U?$pair@QAUIFileIterator@aggregator@tls@@PAU123@@std@@@2@@std@@XZ 130513d0 f i aggregator_static:aggregator_impl.obj
 0001:00050400       ?end@?$_Hash@V?$_Hmap_traits@PAUIFileIterator@aggregator@tls@@PAU123@V?$hash_compare@PAUIFileIterator@aggregator@tls@@U?$less@PAUIFileIterator@aggregator@tls@@@std@@@stdext@@V?$allocator@U?$pair@QAUIFileIterator@aggregator@tls@@PAU123@@std@@@std@@$0A@@stdext@@@stdext@@QAE?AV?$_Iterator@$00@?$list@U?$pair@QAUIFileIterator@aggregator@tls@@PAU123@@std@@V?$allocator@U?$pair@QAUIFileIterator@aggregator@tls@@PAU123@@std@@@2@@std@@XZ 13051400 f i aggregator_static:aggregator_impl.obj
 0001:00050430       ?erase@?$_Hash@V?$_Hmap_traits@PAUIFileIterator@aggregator@tls@@PAU123@V?$hash_compare@PAUIFileIterator@aggregator@tls@@U?$less@PAUIFileIterator@aggregator@tls@@@std@@@stdext@@V?$allocator@U?$pair@QAUIFileIterator@aggregator@tls@@PAU123@@std@@@std@@$0A@@stdext@@@stdext@@QAEIABQAUIFileIterator@aggregator@tls@@@Z 13051430 f i aggregator_static:aggregator_impl.obj
 0001:00050520       ?find@?$_Hash@V?$_Hmap_traits@PAUIFileIterator@aggregator@tls@@PAU123@V?$hash_compare@PAUIFileIterator@aggregator@tls@@U?$less@PAUIFileIterator@aggregator@tls@@@std@@@stdext@@V?$allocator@U?$pair@QAUIFileIterator@aggregator@tls@@PAU123@@std@@@std@@$0A@@stdext@@@stdext@@QAE?AV?$_Iterator@$00@?$list@U?$pair@QAUIFileIterator@aggregator@tls@@PAU123@@std@@V?$allocator@U?$pair@QAUIFileIterator@aggregator@tls@@PAU123@@std@@@2@@std@@ABQAUIFileIterator@aggregator@tls@@@Z 13051520 f i aggregator_static:aggregator_impl.obj
 0001:00050560       ??0?$hash_map@PBDPAVFileContainerImpl@AggregatorImpl@aggregator@tls@@Uchar_t_hash@base@4@V?$allocator@U?$pair@QBDPAVFileContainerImpl@AggregatorImpl@aggregator@tls@@@std@@@std@@@stdext@@QAE@XZ 13051560 f i aggregator_static:aggregator_impl.obj
 0001:000505b0       ??A?$hash_map@PBDPAVFileContainerImpl@AggregatorImpl@aggregator@tls@@Uchar_t_hash@base@4@V?$allocator@U?$pair@QBDPAVFileContainerImpl@AggregatorImpl@aggregator@tls@@@std@@@std@@@stdext@@QAEAAPAVFileContainerImpl@AggregatorImpl@aggregator@tls@@ABQBD@Z 130515b0 f i aggregator_static:aggregator_impl.obj
 0001:00050690       ??1?$_Hash@V?$_Hmap_traits@PBDPAVFileContainerImpl@AggregatorImpl@aggregator@tls@@Uchar_t_hash@base@4@V?$allocator@U?$pair@QBDPAVFileContainerImpl@AggregatorImpl@aggregator@tls@@@std@@@std@@$0A@@stdext@@@stdext@@QAE@XZ 13051690 f i aggregator_static:aggregator_impl.obj
 0001:000506d0       ?begin@?$_Hash@V?$_Hmap_traits@PBDPAVFileContainerImpl@AggregatorImpl@aggregator@tls@@Uchar_t_hash@base@4@V?$allocator@U?$pair@QBDPAVFileContainerImpl@AggregatorImpl@aggregator@tls@@@std@@@std@@$0A@@stdext@@@stdext@@QAE?AV?$_Iterator@$00@?$list@U?$pair@QBDPAVFileContainerImpl@AggregatorImpl@aggregator@tls@@@std@@V?$allocator@U?$pair@QBDPAVFileContainerImpl@AggregatorImpl@aggregator@tls@@@std@@@2@@std@@XZ 130516d0 f i aggregator_static:aggregator_impl.obj
 0001:00050700       ?end@?$_Hash@V?$_Hmap_traits@PBDPAVFileContainerImpl@AggregatorImpl@aggregator@tls@@Uchar_t_hash@base@4@V?$allocator@U?$pair@QBDPAVFileContainerImpl@AggregatorImpl@aggregator@tls@@@std@@@std@@$0A@@stdext@@@stdext@@QAE?AV?$_Iterator@$00@?$list@U?$pair@QBDPAVFileContainerImpl@AggregatorImpl@aggregator@tls@@@std@@V?$allocator@U?$pair@QBDPAVFileContainerImpl@AggregatorImpl@aggregator@tls@@@std@@@2@@std@@XZ 13051700 f i aggregator_static:aggregator_impl.obj
 0001:00050730       ?clear@?$_Hash@V?$_Hmap_traits@PBDPAVFileContainerImpl@AggregatorImpl@aggregator@tls@@Uchar_t_hash@base@4@V?$allocator@U?$pair@QBDPAVFileContainerImpl@AggregatorImpl@aggregator@tls@@@std@@@std@@$0A@@stdext@@@stdext@@QAEXXZ 13051730 f i aggregator_static:aggregator_impl.obj
 0001:000507a0       ?find@?$_Hash@V?$_Hmap_traits@PBDPAVFileContainerImpl@AggregatorImpl@aggregator@tls@@Uchar_t_hash@base@4@V?$allocator@U?$pair@QBDPAVFileContainerImpl@AggregatorImpl@aggregator@tls@@@std@@@std@@$0A@@stdext@@@stdext@@QAE?AV?$_Iterator@$00@?$list@U?$pair@QBDPAVFileContainerImpl@AggregatorImpl@aggregator@tls@@@std@@V?$allocator@U?$pair@QBDPAVFileContainerImpl@AggregatorImpl@aggregator@tls@@@std@@@2@@std@@ABQBD@Z 130517a0 f i aggregator_static:aggregator_impl.obj
 0001:000507e0       ??0?$PoolThreadSafe@VFileIteratorImpl@aggregator@tls@@UFileIteratorParam_t@23@@base@tls@@QAE@II@Z 130517e0 f i aggregator_static:aggregator_impl.obj
 0001:00050830       ?get@?$PoolThreadSafe@VFileIteratorImpl@aggregator@tls@@UFileIteratorParam_t@23@@base@tls@@QAEPAVFileIteratorImpl@aggregator@3@XZ 13051830 f i aggregator_static:aggregator_impl.obj
 0001:000508c0       ??1?$Pool@VFileIteratorImpl@aggregator@tls@@UFileIteratorParam_t@23@U?$PoolDefaultAllocator@VFileIteratorImpl@aggregator@tls@@UFileIteratorParam_t@23@@base@3@U?$PoolDefaultDeletor@VFileIteratorImpl@aggregator@tls@@@63@@base@tls@@UAE@XZ 130518c0 f i aggregator_static:aggregator_impl.obj
 0001:00050910       ?init@?$Pool@VFileIteratorImpl@aggregator@tls@@UFileIteratorParam_t@23@U?$PoolDefaultAllocator@VFileIteratorImpl@aggregator@tls@@UFileIteratorParam_t@23@@base@3@U?$PoolDefaultDeletor@VFileIteratorImpl@aggregator@tls@@@63@@base@tls@@QAEXUFileIteratorParam_t@aggregator@3@I@Z 13051910 f i aggregator_static:aggregator_impl.obj
 0001:00050950       ?clear@?$Pool@VFileIteratorImpl@aggregator@tls@@UFileIteratorParam_t@23@U?$PoolDefaultAllocator@VFileIteratorImpl@aggregator@tls@@UFileIteratorParam_t@23@@base@3@U?$PoolDefaultDeletor@VFileIteratorImpl@aggregator@tls@@@63@@base@tls@@QAEXXZ 13051950 f i aggregator_static:aggregator_impl.obj
 0001:00050a90       ??0?$list@URPCInvokeNode@AggregatorImpl@aggregator@tls@@V?$allocator@URPCInvokeNode@AggregatorImpl@aggregator@tls@@@std@@@std@@QAE@XZ 13051a90 f i aggregator_static:aggregator_impl.obj
 0001:00050ae0       ??1?$list@URPCInvokeNode@AggregatorImpl@aggregator@tls@@V?$allocator@URPCInvokeNode@AggregatorImpl@aggregator@tls@@@std@@@std@@QAE@XZ 13051ae0 f i aggregator_static:aggregator_impl.obj
 0001:00050b10       ?begin@?$list@URPCInvokeNode@AggregatorImpl@aggregator@tls@@V?$allocator@URPCInvokeNode@AggregatorImpl@aggregator@tls@@@std@@@std@@QAE?AV?$_Iterator@$00@12@XZ 13051b10 f i aggregator_static:aggregator_impl.obj
 0001:00050b50       ?end@?$list@URPCInvokeNode@AggregatorImpl@aggregator@tls@@V?$allocator@URPCInvokeNode@AggregatorImpl@aggregator@tls@@@std@@@std@@QAE?AV?$_Iterator@$00@12@XZ 13051b50 f i aggregator_static:aggregator_impl.obj
 0001:00050b90       ?back@?$list@URPCInvokeNode@AggregatorImpl@aggregator@tls@@V?$allocator@URPCInvokeNode@AggregatorImpl@aggregator@tls@@@std@@@std@@QAEAAURPCInvokeNode@AggregatorImpl@aggregator@tls@@XZ 13051b90 f i aggregator_static:aggregator_impl.obj
 0001:00050bf0       ?push_back@?$list@URPCInvokeNode@AggregatorImpl@aggregator@tls@@V?$allocator@URPCInvokeNode@AggregatorImpl@aggregator@tls@@@std@@@std@@QAEXABURPCInvokeNode@AggregatorImpl@aggregator@tls@@@Z 13051bf0 f i aggregator_static:aggregator_impl.obj
 0001:00050c30       ?clear@?$list@URPCInvokeNode@AggregatorImpl@aggregator@tls@@V?$allocator@URPCInvokeNode@AggregatorImpl@aggregator@tls@@@std@@@std@@QAEXXZ 13051c30 f i aggregator_static:aggregator_impl.obj
 0001:00050d00       ??0?$_Const_iterator@$00@?$list@U?$pair@QBDPAV?$PoolThreadSafe@VDBConnImpl@aggregator@tls@@PBUst_db_conn_str@@@base@tls@@@std@@V?$allocator@U?$pair@QBDPAV?$PoolThreadSafe@VDBConnImpl@aggregator@tls@@PBUst_db_conn_str@@@base@tls@@@std@@@2@@std@@QAE@XZ 13051d00 f i aggregator_static:aggregator_impl.obj
 0001:00050d40       ??C?$_Const_iterator@$00@?$list@U?$pair@QBDPAV?$PoolThreadSafe@VDBConnImpl@aggregator@tls@@PBUst_db_conn_str@@@base@tls@@@std@@V?$allocator@U?$pair@QBDPAV?$PoolThreadSafe@VDBConnImpl@aggregator@tls@@PBUst_db_conn_str@@@base@tls@@@std@@@2@@std@@QBEPBU?$pair@QBDPAV?$PoolThreadSafe@VDBConnImpl@aggregator@tls@@PBUst_db_conn_str@@@base@tls@@@2@XZ 13051d40 f i aggregator_static:aggregator_impl.obj
 0001:00050d70       ??E?$_Const_iterator@$00@?$list@U?$pair@QBDPAV?$PoolThreadSafe@VDBConnImpl@aggregator@tls@@PBUst_db_conn_str@@@base@tls@@@std@@V?$allocator@U?$pair@QBDPAV?$PoolThreadSafe@VDBConnImpl@aggregator@tls@@PBUst_db_conn_str@@@base@tls@@@std@@@2@@std@@QAEAAV012@XZ 13051d70 f i aggregator_static:aggregator_impl.obj
 0001:00050e30       ??8?$_Const_iterator@$00@?$list@U?$pair@QBDPAV?$PoolThreadSafe@VDBConnImpl@aggregator@tls@@PBUst_db_conn_str@@@base@tls@@@std@@V?$allocator@U?$pair@QBDPAV?$PoolThreadSafe@VDBConnImpl@aggregator@tls@@PBUst_db_conn_str@@@base@tls@@@std@@@2@@std@@QBE_NABV012@@Z 13051e30 f i aggregator_static:aggregator_impl.obj
 0001:00050e70       ??9?$_Const_iterator@$00@?$list@U?$pair@QBDPAV?$PoolThreadSafe@VDBConnImpl@aggregator@tls@@PBUst_db_conn_str@@@base@tls@@@std@@V?$allocator@U?$pair@QBDPAV?$PoolThreadSafe@VDBConnImpl@aggregator@tls@@PBUst_db_conn_str@@@base@tls@@@std@@@2@@std@@QBE_NABV012@@Z 13051e70 f i aggregator_static:aggregator_impl.obj
 0001:00050eb0       ??0?$_Iterator@$00@?$list@U?$pair@QAUIFileIterator@aggregator@tls@@PAU123@@std@@V?$allocator@U?$pair@QAUIFileIterator@aggregator@tls@@PAU123@@std@@@2@@std@@QAE@XZ 13051eb0 f i aggregator_static:aggregator_impl.obj
 0001:00050ee0       ??C?$_Iterator@$00@?$list@U?$pair@QAUIFileIterator@aggregator@tls@@PAU123@@std@@V?$allocator@U?$pair@QAUIFileIterator@aggregator@tls@@PAU123@@std@@@2@@std@@QBEPAU?$pair@QAUIFileIterator@aggregator@tls@@PAU123@@2@XZ 13051ee0 f i aggregator_static:aggregator_impl.obj
 0001:00050f10       ??E?$_Iterator@$00@?$list@U?$pair@QAUIFileIterator@aggregator@tls@@PAU123@@std@@V?$allocator@U?$pair@QAUIFileIterator@aggregator@tls@@PAU123@@std@@@2@@std@@QAEAAV012@XZ 13051f10 f i aggregator_static:aggregator_impl.obj
 0001:00050f40       ??8?$_Const_iterator@$00@?$list@U?$pair@QAUIFileIterator@aggregator@tls@@PAU123@@std@@V?$allocator@U?$pair@QAUIFileIterator@aggregator@tls@@PAU123@@std@@@2@@std@@QBE_NABV012@@Z 13051f40 f i aggregator_static:aggregator_impl.obj
 0001:00050f80       ??9?$_Const_iterator@$00@?$list@U?$pair@QAUIFileIterator@aggregator@tls@@PAU123@@std@@V?$allocator@U?$pair@QAUIFileIterator@aggregator@tls@@PAU123@@std@@@2@@std@@QBE_NABV012@@Z 13051f80 f i aggregator_static:aggregator_impl.obj
 0001:00050fc0       ??0?$AutoRelease@PAU_iobuf@@@tls@@QAE@PAU_iobuf@@@Z 13051fc0 f i aggregator_static:aggregator_impl.obj
 0001:00050fe0       ??1?$AutoRelease@PAU_iobuf@@@tls@@QAE@XZ 13051fe0 f i aggregator_static:aggregator_impl.obj
 0001:00051010       ?Release@?$AutoRelease@PAU_iobuf@@@tls@@QAEXXZ 13052010 f i aggregator_static:aggregator_impl.obj
 0001:00051050       ??B?$AutoRelease@PAU_iobuf@@@tls@@QAEPAU_iobuf@@XZ 13052050 f i aggregator_static:aggregator_impl.obj
 0001:00051070       ??0?$AutoRelease@PAE@tls@@QAE@PAE@Z 13052070 f i aggregator_static:aggregator_impl.obj
 0001:00051090       ??1?$AutoRelease@PAE@tls@@QAE@XZ 13052090 f i aggregator_static:aggregator_impl.obj
 0001:000510c0       ?Release@?$AutoRelease@PAE@tls@@QAEXXZ 130520c0 f i aggregator_static:aggregator_impl.obj
 0001:00051100       ??B?$AutoRelease@PAE@tls@@QAEPAEXZ 13052100 f i aggregator_static:aggregator_impl.obj
 0001:00051120       ??0?$AutoRelease@PAUXML_ParserStruct@@@tls@@QAE@PAUXML_ParserStruct@@@Z 13052120 f i aggregator_static:aggregator_impl.obj
 0001:00051140       ??1?$AutoRelease@PAUXML_ParserStruct@@@tls@@QAE@XZ 13052140 f i aggregator_static:aggregator_impl.obj
 0001:00051170       ?Release@?$AutoRelease@PAUXML_ParserStruct@@@tls@@QAEXXZ 13052170 f i aggregator_static:aggregator_impl.obj
 0001:000511b0       ??B?$AutoRelease@PAUXML_ParserStruct@@@tls@@QAEPAUXML_ParserStruct@@XZ 130521b0 f i aggregator_static:aggregator_impl.obj
 0001:000511d0       ??0?$_Iterator@$00@?$list@U?$pair@QBDPAV?$PoolThreadSafe@VDBConnImpl@aggregator@tls@@PBUst_db_conn_str@@@base@tls@@@std@@V?$allocator@U?$pair@QBDPAV?$PoolThreadSafe@VDBConnImpl@aggregator@tls@@PBUst_db_conn_str@@@base@tls@@@std@@@2@@std@@QAE@XZ 130521d0 f i aggregator_static:aggregator_impl.obj
 0001:00051200       ??C?$_Iterator@$00@?$list@U?$pair@QBDPAV?$PoolThreadSafe@VDBConnImpl@aggregator@tls@@PBUst_db_conn_str@@@base@tls@@@std@@V?$allocator@U?$pair@QBDPAV?$PoolThreadSafe@VDBConnImpl@aggregator@tls@@PBUst_db_conn_str@@@base@tls@@@std@@@2@@std@@QBEPAU?$pair@QBDPAV?$PoolThreadSafe@VDBConnImpl@aggregator@tls@@PBUst_db_conn_str@@@base@tls@@@2@XZ 13052200 f i aggregator_static:aggregator_impl.obj
 0001:00051230       ??E?$_Iterator@$00@?$list@U?$pair@QBDPAV?$PoolThreadSafe@VDBConnImpl@aggregator@tls@@PBUst_db_conn_str@@@base@tls@@@std@@V?$allocator@U?$pair@QBDPAV?$PoolThreadSafe@VDBConnImpl@aggregator@tls@@PBUst_db_conn_str@@@base@tls@@@std@@@2@@std@@QAEAAV012@XZ 13052230 f i aggregator_static:aggregator_impl.obj
 0001:00051260       ??0?$GetSetParamImpl@PAI@aggregator@tls@@QAE@PAIPBDI1I1I1I1I1I@Z 13052260 f i aggregator_static:aggregator_impl.obj
 0001:000512d0       ?SetResult@?$GetSetParamImpl@PAI@aggregator@tls@@UAEXIIPBDI@Z 130522d0 f i aggregator_static:aggregator_impl.obj
 0001:00051340       ?GetCondition@?$GetSetParamImpl@PAI@aggregator@tls@@UBEPBDIPAI@Z 13052340 f i aggregator_static:aggregator_impl.obj
 0001:00051380       ??0?$_Iterator@$00@?$list@U?$pair@$$CBIVatomic_count@base@tls@@@std@@V?$allocator@U?$pair@$$CBIVatomic_count@base@tls@@@std@@@2@@std@@QAE@XZ 13052380 f i aggregator_static:aggregator_impl.obj
 0001:000513b0       ??C?$_Iterator@$00@?$list@U?$pair@$$CBIVatomic_count@base@tls@@@std@@V?$allocator@U?$pair@$$CBIVatomic_count@base@tls@@@std@@@2@@std@@QBEPAU?$pair@$$CBIVatomic_count@base@tls@@@2@XZ 130523b0 f i aggregator_static:aggregator_impl.obj
 0001:000513e0       ??E?$_Iterator@$00@?$list@U?$pair@$$CBIVatomic_count@base@tls@@@std@@V?$allocator@U?$pair@$$CBIVatomic_count@base@tls@@@std@@@2@@std@@QAEAAV012@XZ 130523e0 f i aggregator_static:aggregator_impl.obj
 0001:00051410       ??8?$_Const_iterator@$00@?$list@U?$pair@$$CBIVatomic_count@base@tls@@@std@@V?$allocator@U?$pair@$$CBIVatomic_count@base@tls@@@std@@@2@@std@@QBE_NABV012@@Z 13052410 f i aggregator_static:aggregator_impl.obj
 0001:00051450       ??9?$_Const_iterator@$00@?$list@U?$pair@$$CBIVatomic_count@base@tls@@@std@@V?$allocator@U?$pair@$$CBIVatomic_count@base@tls@@@std@@@2@@std@@QBE_NABV012@@Z 13052450 f i aggregator_static:aggregator_impl.obj
 0001:00051490       ??0?$GetSetParamImpl@PAUReadSettingReulst@aggregator@tls@@@aggregator@tls@@QAE@PAUReadSettingReulst@12@PBDI1I1I1I1I1I@Z 13052490 f i aggregator_static:aggregator_impl.obj
 0001:00051500       ?SetResult@?$GetSetParamImpl@PAUReadSettingReulst@aggregator@tls@@@aggregator@tls@@UAEXIIPBDI@Z 13052500 f i aggregator_static:aggregator_impl.obj
 0001:00051860       ?SetStepTimeResourceStatus@AggregatorImpl@aggregator@tls@@QAEXI@Z 13052860 f i aggregator_static:aggregator_impl.obj
 0001:000518a0       ?SetStepTimeClientStatus@AggregatorImpl@aggregator@tls@@QAEXI@Z 130528a0 f i aggregator_static:aggregator_impl.obj
 0001:000518e0       ?SetStepTimeRPCInvoke@AggregatorImpl@aggregator@tls@@QAEXI@Z 130528e0 f i aggregator_static:aggregator_impl.obj
 0001:00051920       ?SetStepTimeUpdateFile@AggregatorImpl@aggregator@tls@@QAEXI@Z 13052920 f i aggregator_static:aggregator_impl.obj
 0001:00051960       ?SetStepTimeCheckPoint@AggregatorImpl@aggregator@tls@@QAEXI@Z 13052960 f i aggregator_static:aggregator_impl.obj
 0001:000519a0       ?SetWakeupParserTime@AggregatorImpl@aggregator@tls@@QAEXI@Z 130529a0 f i aggregator_static:aggregator_impl.obj
 0001:000519c0       ?SetLongTickTime@AggregatorImpl@aggregator@tls@@QAEXI@Z 130529c0 f i aggregator_static:aggregator_impl.obj
 0001:000519e0       ?GetCondition@?$GetSetParamImpl@PAUReadSettingReulst@aggregator@tls@@@aggregator@tls@@UBEPBDIPAI@Z 130529e0 f i aggregator_static:aggregator_impl.obj
 0001:00051a20       ??0?$GetSetParamImpl@PAD@aggregator@tls@@QAE@PADPBDI1I1I1I1I1I@Z 13052a20 f i aggregator_static:aggregator_impl.obj
 0001:00051a90       ?SetResult@?$GetSetParamImpl@PAD@aggregator@tls@@UAEXIIPBDI@Z 13052a90 f i aggregator_static:aggregator_impl.obj
 0001:00051b10       ?GetCondition@?$GetSetParamImpl@PAD@aggregator@tls@@UBEPBDIPAI@Z 13052b10 f i aggregator_static:aggregator_impl.obj
 0001:00051b50       ??0?$GetSetParamImpl@PAUReadSettingCollectorReulst@aggregator@tls@@@aggregator@tls@@QAE@PAUReadSettingCollectorReulst@12@PBDI1I1I1I1I1I@Z 13052b50 f i aggregator_static:aggregator_impl.obj
 0001:00051bc0       ?SetResult@?$GetSetParamImpl@PAUReadSettingCollectorReulst@aggregator@tls@@@aggregator@tls@@UAEXIIPBDI@Z 13052bc0 f i aggregator_static:aggregator_impl.obj
 0001:00051e70       ?GetCondition@?$GetSetParamImpl@PAUReadSettingCollectorReulst@aggregator@tls@@@aggregator@tls@@UBEPBDIPAI@Z 13052e70 f i aggregator_static:aggregator_impl.obj
 0001:00051eb0       ??0?$_Iterator@$00@?$list@Umodule_t@AggregatorImpl@aggregator@tls@@V?$allocator@Umodule_t@AggregatorImpl@aggregator@tls@@@std@@@std@@QAE@XZ 13052eb0 f i aggregator_static:aggregator_impl.obj
 0001:00051ee0       ??D?$_Iterator@$00@?$list@Umodule_t@AggregatorImpl@aggregator@tls@@V?$allocator@Umodule_t@AggregatorImpl@aggregator@tls@@@std@@@std@@QBEAAUmodule_t@AggregatorImpl@aggregator@tls@@XZ 13052ee0 f i aggregator_static:aggregator_impl.obj
 0001:00051f10       ??E?$_Iterator@$00@?$list@Umodule_t@AggregatorImpl@aggregator@tls@@V?$allocator@Umodule_t@AggregatorImpl@aggregator@tls@@@std@@@std@@QAEAAV012@XZ 13052f10 f i aggregator_static:aggregator_impl.obj
 0001:00051f40       ??9?$_Const_iterator@$00@?$list@Umodule_t@AggregatorImpl@aggregator@tls@@V?$allocator@Umodule_t@AggregatorImpl@aggregator@tls@@@std@@@std@@QBE_NABV012@@Z 13052f40 f i aggregator_static:aggregator_impl.obj
 0001:00051f80       ??0?$_Iterator@$00@?$list@PAUIObject@tls@@V?$allocator@PAUIObject@tls@@@std@@@std@@QAE@XZ 13052f80 f i aggregator_static:aggregator_impl.obj
 0001:00051fb0       ??D?$_Iterator@$00@?$list@PAUIObject@tls@@V?$allocator@PAUIObject@tls@@@std@@@std@@QBEAAPAUIObject@tls@@XZ 13052fb0 f i aggregator_static:aggregator_impl.obj
 0001:00051fe0       ??E?$_Iterator@$00@?$list@PAUIObject@tls@@V?$allocator@PAUIObject@tls@@@std@@@std@@QAEAAV012@XZ 13052fe0 f i aggregator_static:aggregator_impl.obj
 0001:00052010       ??0?$_Const_iterator@$00@?$list@PAUIObject@tls@@V?$allocator@PAUIObject@tls@@@std@@@std@@QAE@XZ 13053010 f i aggregator_static:aggregator_impl.obj
 0001:00052050       ??D?$_Const_iterator@$00@?$list@PAUIObject@tls@@V?$allocator@PAUIObject@tls@@@std@@@std@@QBEABQAUIObject@tls@@XZ 13053050 f i aggregator_static:aggregator_impl.obj
 0001:00052100       ??E?$_Const_iterator@$00@?$list@PAUIObject@tls@@V?$allocator@PAUIObject@tls@@@std@@@std@@QAEAAV012@XZ 13053100 f i aggregator_static:aggregator_impl.obj
 0001:000521c0       ??9?$_Const_iterator@$00@?$list@PAUIObject@tls@@V?$allocator@PAUIObject@tls@@@std@@@std@@QBE_NABV012@@Z 130531c0 f i aggregator_static:aggregator_impl.obj
 0001:00052200       ??0?$_Iterator@$00@?$list@U?$pair@QBDPAVFileContainerImpl@AggregatorImpl@aggregator@tls@@@std@@V?$allocator@U?$pair@QBDPAVFileContainerImpl@AggregatorImpl@aggregator@tls@@@std@@@2@@std@@QAE@XZ 13053200 f i aggregator_static:aggregator_impl.obj
 0001:00052230       ??C?$_Iterator@$00@?$list@U?$pair@QBDPAVFileContainerImpl@AggregatorImpl@aggregator@tls@@@std@@V?$allocator@U?$pair@QBDPAVFileContainerImpl@AggregatorImpl@aggregator@tls@@@std@@@2@@std@@QBEPAU?$pair@QBDPAVFileContainerImpl@AggregatorImpl@aggregator@tls@@@2@XZ 13053230 f i aggregator_static:aggregator_impl.obj
 0001:00052260       ??E?$_Iterator@$00@?$list@U?$pair@QBDPAVFileContainerImpl@AggregatorImpl@aggregator@tls@@@std@@V?$allocator@U?$pair@QBDPAVFileContainerImpl@AggregatorImpl@aggregator@tls@@@std@@@2@@std@@QAEAAV012@XZ 13053260 f i aggregator_static:aggregator_impl.obj
 0001:00052290       ??8?$_Const_iterator@$00@?$list@U?$pair@QBDPAVFileContainerImpl@AggregatorImpl@aggregator@tls@@@std@@V?$allocator@U?$pair@QBDPAVFileContainerImpl@AggregatorImpl@aggregator@tls@@@std@@@2@@std@@QBE_NABV012@@Z 13053290 f i aggregator_static:aggregator_impl.obj
 0001:000522d0       ??9?$_Const_iterator@$00@?$list@U?$pair@QBDPAVFileContainerImpl@AggregatorImpl@aggregator@tls@@@std@@V?$allocator@U?$pair@QBDPAVFileContainerImpl@AggregatorImpl@aggregator@tls@@@std@@@2@@std@@QBE_NABV012@@Z 130532d0 f i aggregator_static:aggregator_impl.obj
 0001:00052310       ??0?$AutoRelease@PAUIMemoryNode@tls@@@tls@@QAE@PAUIMemoryNode@1@@Z 13053310 f i aggregator_static:aggregator_impl.obj
 0001:00052330       ??1?$AutoRelease@PAUIMemoryNode@tls@@@tls@@QAE@XZ 13053330 f i aggregator_static:aggregator_impl.obj
 0001:00052360       ??C?$AutoRelease@PAUIMemoryNode@tls@@@tls@@QAEPAUIMemoryNode@1@XZ 13053360 f i aggregator_static:aggregator_impl.obj
 0001:00052380       ??B?$AutoRelease@PAUIMemoryNode@tls@@@tls@@QAEPAUIMemoryNode@1@XZ 13053380 f i aggregator_static:aggregator_impl.obj
 0001:000523a0       ??0?$_Iterator@$00@?$list@U?$pair@$$CBIPAVLogTypeIdx@AggregatorImpl@aggregator@tls@@@std@@V?$allocator@U?$pair@$$CBIPAVLogTypeIdx@AggregatorImpl@aggregator@tls@@@std@@@2@@std@@QAE@XZ 130533a0 f i aggregator_static:aggregator_impl.obj
 0001:000523d0       ??C?$_Iterator@$00@?$list@U?$pair@$$CBIPAVLogTypeIdx@AggregatorImpl@aggregator@tls@@@std@@V?$allocator@U?$pair@$$CBIPAVLogTypeIdx@AggregatorImpl@aggregator@tls@@@std@@@2@@std@@QBEPAU?$pair@$$CBIPAVLogTypeIdx@AggregatorImpl@aggregator@tls@@@2@XZ 130533d0 f i aggregator_static:aggregator_impl.obj
 0001:00052400       ??E?$_Iterator@$00@?$list@U?$pair@$$CBIPAVLogTypeIdx@AggregatorImpl@aggregator@tls@@@std@@V?$allocator@U?$pair@$$CBIPAVLogTypeIdx@AggregatorImpl@aggregator@tls@@@std@@@2@@std@@QAEAAV012@XZ 13053400 f i aggregator_static:aggregator_impl.obj
 0001:00052430       ??8?$_Const_iterator@$00@?$list@U?$pair@$$CBIPAVLogTypeIdx@AggregatorImpl@aggregator@tls@@@std@@V?$allocator@U?$pair@$$CBIPAVLogTypeIdx@AggregatorImpl@aggregator@tls@@@std@@@2@@std@@QBE_NABV012@@Z 13053430 f i aggregator_static:aggregator_impl.obj
 0001:00052470       ??9?$_Const_iterator@$00@?$list@U?$pair@$$CBIPAVLogTypeIdx@AggregatorImpl@aggregator@tls@@@std@@V?$allocator@U?$pair@$$CBIPAVLogTypeIdx@AggregatorImpl@aggregator@tls@@@std@@@2@@std@@QBE_NABV012@@Z 13053470 f i aggregator_static:aggregator_impl.obj
 0001:000524b0       ??0?$AutoRelease@PAVDBConnImpl@aggregator@tls@@@tls@@QAE@PAVDBConnImpl@aggregator@1@@Z 130534b0 f i aggregator_static:aggregator_impl.obj
 0001:000524d0       ??1?$AutoRelease@PAVDBConnImpl@aggregator@tls@@@tls@@QAE@XZ 130534d0 f i aggregator_static:aggregator_impl.obj
 0001:00052500       ??C?$AutoRelease@PAVDBConnImpl@aggregator@tls@@@tls@@QAEPAVDBConnImpl@aggregator@1@XZ 13053500 f i aggregator_static:aggregator_impl.obj
 0001:00052520       ??B?$AutoRelease@PAVDBConnImpl@aggregator@tls@@@tls@@QAEPAVDBConnImpl@aggregator@1@XZ 13053520 f i aggregator_static:aggregator_impl.obj
 0001:00052540       ?Set@?$AutoRelease@PAVDBConnImpl@aggregator@tls@@@tls@@QAEXPAVDBConnImpl@aggregator@2@@Z 13053540 f i aggregator_static:aggregator_impl.obj
 0001:00052570       ??0?$GetSetParamImpl@PAUNullClass@tls@@@aggregator@tls@@QAE@PAUNullClass@2@PBDI1I1I1I1I1I@Z 13053570 f i aggregator_static:aggregator_impl.obj
 0001:000525e0       ?GetCondition@?$GetSetParamImpl@PAUNullClass@tls@@@aggregator@tls@@UBEPBDIPAI@Z 130535e0 f i aggregator_static:aggregator_impl.obj
 0001:00052620       ?SetResult@?$GetSetParamImpl@PAUNullClass@tls@@@aggregator@tls@@UAEXIIPBDI@Z 13053620 f i aggregator_static:aggregator_impl.obj
 0001:00052640       ??0?$_Iterator@$00@?$list@U?$pair@QBDPAVCollectClient@AggregatorImpl@aggregator@tls@@@std@@V?$allocator@U?$pair@QBDPAVCollectClient@AggregatorImpl@aggregator@tls@@@std@@@2@@std@@QAE@XZ 13053640 f i aggregator_static:aggregator_impl.obj
 0001:00052670       ??C?$_Iterator@$00@?$list@U?$pair@QBDPAVCollectClient@AggregatorImpl@aggregator@tls@@@std@@V?$allocator@U?$pair@QBDPAVCollectClient@AggregatorImpl@aggregator@tls@@@std@@@2@@std@@QBEPAU?$pair@QBDPAVCollectClient@AggregatorImpl@aggregator@tls@@@2@XZ 13053670 f i aggregator_static:aggregator_impl.obj
 0001:000526a0       ??E?$_Iterator@$00@?$list@U?$pair@QBDPAVCollectClient@AggregatorImpl@aggregator@tls@@@std@@V?$allocator@U?$pair@QBDPAVCollectClient@AggregatorImpl@aggregator@tls@@@std@@@2@@std@@QAEAAV012@XZ 130536a0 f i aggregator_static:aggregator_impl.obj
 0001:000526d0       ??8?$_Const_iterator@$00@?$list@U?$pair@QBDPAVCollectClient@AggregatorImpl@aggregator@tls@@@std@@V?$allocator@U?$pair@QBDPAVCollectClient@AggregatorImpl@aggregator@tls@@@std@@@2@@std@@QBE_NABV012@@Z 130536d0 f i aggregator_static:aggregator_impl.obj
 0001:00052710       ??9?$_Const_iterator@$00@?$list@U?$pair@QBDPAVCollectClient@AggregatorImpl@aggregator@tls@@@std@@V?$allocator@U?$pair@QBDPAVCollectClient@AggregatorImpl@aggregator@tls@@@std@@@2@@std@@QBE_NABV012@@Z 13053710 f i aggregator_static:aggregator_impl.obj
 0001:00052750       ??0?$GetSetParamImpl@PAURPCInvokeParam@aggregator@tls@@@aggregator@tls@@QAE@PAURPCInvokeParam@12@PBDI1I1I1I1I1I@Z 13053750 f i aggregator_static:aggregator_impl.obj
 0001:000527c0       ?SetResult@?$GetSetParamImpl@PAURPCInvokeParam@aggregator@tls@@@aggregator@tls@@UAEXIIPBDI@Z 130537c0 f i aggregator_static:aggregator_impl.obj
 0001:000528e0       ?GetCondition@?$GetSetParamImpl@PAURPCInvokeParam@aggregator@tls@@@aggregator@tls@@UBEPBDIPAI@Z 130538e0 f i aggregator_static:aggregator_impl.obj
 0001:00052920       ??0?$_Iterator@$00@?$list@URPCInvokeNode@AggregatorImpl@aggregator@tls@@V?$allocator@URPCInvokeNode@AggregatorImpl@aggregator@tls@@@std@@@std@@QAE@XZ 13053920 f i aggregator_static:aggregator_impl.obj
 0001:00052950       ??D?$_Iterator@$00@?$list@URPCInvokeNode@AggregatorImpl@aggregator@tls@@V?$allocator@URPCInvokeNode@AggregatorImpl@aggregator@tls@@@std@@@std@@QBEAAURPCInvokeNode@AggregatorImpl@aggregator@tls@@XZ 13053950 f i aggregator_static:aggregator_impl.obj
 0001:00052980       ??E?$_Iterator@$00@?$list@URPCInvokeNode@AggregatorImpl@aggregator@tls@@V?$allocator@URPCInvokeNode@AggregatorImpl@aggregator@tls@@@std@@@std@@QAEAAV012@XZ 13053980 f i aggregator_static:aggregator_impl.obj
 0001:000529b0       ??9?$_Const_iterator@$00@?$list@URPCInvokeNode@AggregatorImpl@aggregator@tls@@V?$allocator@URPCInvokeNode@AggregatorImpl@aggregator@tls@@@std@@@std@@QBE_NABV012@@Z 130539b0 f i aggregator_static:aggregator_impl.obj
 0001:000529f0       ??_E?$PoolThreadSafe@VDBConnImpl@aggregator@tls@@PBUst_db_conn_str@@@base@tls@@UAEPAXI@Z 130539f0 f i aggregator_static:aggregator_impl.obj
 0001:000529f0       ??_G?$PoolThreadSafe@VDBConnImpl@aggregator@tls@@PBUst_db_conn_str@@@base@tls@@UAEPAXI@Z 130539f0 f i aggregator_static:aggregator_impl.obj
 0001:00052a30       ??1?$_List_val@IV?$allocator@I@std@@@std@@QAE@XZ 13053a30 f i aggregator_static:aggregator_impl.obj
 0001:00052a60       ??1?$pair@V?$_Iterator@$00@?$list@U?$pair@QBDPAVCollectClient@AggregatorImpl@aggregator@tls@@@std@@V?$allocator@U?$pair@QBDPAVCollectClient@AggregatorImpl@aggregator@tls@@@std@@@2@@std@@_N@std@@QAE@XZ 13053a60 f i aggregator_static:aggregator_impl.obj
 0001:00052a90       ??1?$_Hmap_traits@PBDPAVCollectClient@AggregatorImpl@aggregator@tls@@Uchar_t_hash@base@4@V?$allocator@U?$pair@QBDPAVCollectClient@AggregatorImpl@aggregator@tls@@@std@@@std@@$0A@@stdext@@QAE@XZ 13053a90 f i aggregator_static:aggregator_impl.obj
 0001:00052ac0       ??_E?$PoolNoThreadSafe@VCollectClient@AggregatorImpl@aggregator@tls@@PBD@base@tls@@UAEPAXI@Z 13053ac0 f i aggregator_static:aggregator_impl.obj
 0001:00052ac0       ??_G?$PoolNoThreadSafe@VCollectClient@AggregatorImpl@aggregator@tls@@PBD@base@tls@@UAEPAXI@Z 13053ac0 f i aggregator_static:aggregator_impl.obj
 0001:00052b00       ??_G?$Pool@VCollectClient@AggregatorImpl@aggregator@tls@@PBDU?$PoolDefaultAllocator@VCollectClient@AggregatorImpl@aggregator@tls@@PBD@base@4@U?$PoolDefaultDeletor@VCollectClient@AggregatorImpl@aggregator@tls@@@64@@base@tls@@UAEPAXI@Z 13053b00 f i aggregator_static:aggregator_impl.obj
 0001:00052b00       ??_E?$Pool@VCollectClient@AggregatorImpl@aggregator@tls@@PBDU?$PoolDefaultAllocator@VCollectClient@AggregatorImpl@aggregator@tls@@PBD@base@4@U?$PoolDefaultDeletor@VCollectClient@AggregatorImpl@aggregator@tls@@@64@@base@tls@@UAEPAXI@Z 13053b00 f i aggregator_static:aggregator_impl.obj
 0001:00052b40       ??1?$_Const_iterator@$00@?$list@PAVCollectClient@AggregatorImpl@aggregator@tls@@V?$allocator@PAVCollectClient@AggregatorImpl@aggregator@tls@@@std@@@std@@QAE@XZ 13053b40 f i aggregator_static:aggregator_impl.obj
 0001:00052b70       ??1?$_Iterator@$00@?$list@PAVCollectClient@AggregatorImpl@aggregator@tls@@V?$allocator@PAVCollectClient@AggregatorImpl@aggregator@tls@@@std@@@std@@QAE@XZ 13053b70 f i aggregator_static:aggregator_impl.obj
 0001:00052ba0       ??4?$_Const_iterator@$00@?$list@PAVCollectClient@AggregatorImpl@aggregator@tls@@V?$allocator@PAVCollectClient@AggregatorImpl@aggregator@tls@@@std@@@std@@QAEAAV012@ABV012@@Z 13053ba0 f i aggregator_static:aggregator_impl.obj
 0001:00052be0       ??1?$_Hmap_traits@IPAVRequestAndResponse@aggregator@tls@@V?$hash_compare@IU?$less@I@std@@@stdext@@V?$allocator@U?$pair@$$CBIPAVRequestAndResponse@aggregator@tls@@@std@@@std@@$0A@@stdext@@QAE@XZ 13053be0 f i aggregator_static:aggregator_impl.obj
 0001:00052c10       ??1?$_List_val@PAVRequestAndResponse@aggregator@tls@@V?$allocator@PAVRequestAndResponse@aggregator@tls@@@std@@@std@@QAE@XZ 13053c10 f i aggregator_static:aggregator_impl.obj
 0001:00052c40       ??1?$pair@V?$_Iterator@$00@?$list@U?$pair@$$CBIVatomic_count@base@tls@@@std@@V?$allocator@U?$pair@$$CBIVatomic_count@base@tls@@@std@@@2@@std@@_N@std@@QAE@XZ 13053c40 f i aggregator_static:aggregator_impl.obj
 0001:00052c70       ??1?$_Hmap_traits@IVatomic_count@base@tls@@V?$hash_compare@IU?$less@I@std@@@stdext@@V?$allocator@U?$pair@$$CBIVatomic_count@base@tls@@@std@@@std@@$0A@@stdext@@QAE@XZ 13053c70 f i aggregator_static:aggregator_impl.obj
 0001:00052ca0       ??1?$_List_val@Umodule_t@AggregatorImpl@aggregator@tls@@V?$allocator@Umodule_t@AggregatorImpl@aggregator@tls@@@std@@@std@@QAE@XZ 13053ca0 f i aggregator_static:aggregator_impl.obj
 0001:00052cd0       ??1?$_List_val@PAUIObject@tls@@V?$allocator@PAUIObject@tls@@@std@@@std@@QAE@XZ 13053cd0 f i aggregator_static:aggregator_impl.obj
 0001:00052d00       ??1?$_List_val@Ust_thread_param@AggregatorImpl@aggregator@tls@@V?$allocator@Ust_thread_param@AggregatorImpl@aggregator@tls@@@std@@@std@@QAE@XZ 13053d00 f i aggregator_static:aggregator_impl.obj
 0001:00052d30       ??1?$_Iterator@$00@?$list@Ust_thread_param@AggregatorImpl@aggregator@tls@@V?$allocator@Ust_thread_param@AggregatorImpl@aggregator@tls@@@std@@@std@@QAE@XZ 13053d30 f i aggregator_static:aggregator_impl.obj
 0001:00052d60       ??_GThread@base@tls@@QAEPAXI@Z 13053d60 f i aggregator_static:aggregator_impl.obj
 0001:00052da0       ??1?$_Iterator@$00@?$list@PAVThread@base@tls@@V?$allocator@PAVThread@base@tls@@@std@@@std@@QAE@XZ 13053da0 f i aggregator_static:aggregator_impl.obj
 0001:00052dd0       ??1?$pair@V?$_Iterator@$00@?$list@U?$pair@QBDPAV?$PoolThreadSafe@VDBConnImpl@aggregator@tls@@PBUst_db_conn_str@@@base@tls@@@std@@V?$allocator@U?$pair@QBDPAV?$PoolThreadSafe@VDBConnImpl@aggregator@tls@@PBUst_db_conn_str@@@base@tls@@@std@@@2@@std@@_N@std@@QAE@XZ 13053dd0 f i aggregator_static:aggregator_impl.obj
 0001:00052e00       ??1?$_Hmap_traits@PBDPAV?$PoolThreadSafe@VDBConnImpl@aggregator@tls@@PBUst_db_conn_str@@@base@tls@@Uchar_t_hash@23@V?$allocator@U?$pair@QBDPAV?$PoolThreadSafe@VDBConnImpl@aggregator@tls@@PBUst_db_conn_str@@@base@tls@@@std@@@std@@$0A@@stdext@@QAE@XZ 13053e00 f i aggregator_static:aggregator_impl.obj
 0001:00052e30       ??1?$_List_val@Ust_db_conn_str@@V?$allocator@Ust_db_conn_str@@@std@@@std@@QAE@XZ 13053e30 f i aggregator_static:aggregator_impl.obj
 0001:00052e60       ??1?$_Iterator@$00@?$list@Ust_db_conn_str@@V?$allocator@Ust_db_conn_str@@@std@@@std@@QAE@XZ 13053e60 f i aggregator_static:aggregator_impl.obj
 0001:00052e90       ??1?$_Vector_val@PBDV?$allocator@PBD@std@@@std@@QAE@XZ 13053e90 f i aggregator_static:aggregator_impl.obj
 0001:00052ec0       ??1?$_Vector_iterator@PBDV?$allocator@PBD@std@@@std@@QAE@XZ 13053ec0 f i aggregator_static:aggregator_impl.obj
 0001:00052ef0       ??1?$pair@V?$_Iterator@$00@?$list@U?$pair@$$CBIPAVLogTypeIdx@AggregatorImpl@aggregator@tls@@@std@@V?$allocator@U?$pair@$$CBIPAVLogTypeIdx@AggregatorImpl@aggregator@tls@@@std@@@2@@std@@_N@std@@QAE@XZ 13053ef0 f i aggregator_static:aggregator_impl.obj
 0001:00052f20       ??1?$_Hmap_traits@IPAVLogTypeIdx@AggregatorImpl@aggregator@tls@@V?$hash_compare@IU?$less@I@std@@@stdext@@V?$allocator@U?$pair@$$CBIPAVLogTypeIdx@AggregatorImpl@aggregator@tls@@@std@@@std@@$0A@@stdext@@QAE@XZ 13053f20 f i aggregator_static:aggregator_impl.obj
 0001:00052f50       ??1?$pair@V?$_Iterator@$00@?$list@U?$pair@QAUIFileIterator@aggregator@tls@@PAU123@@std@@V?$allocator@U?$pair@QAUIFileIterator@aggregator@tls@@PAU123@@std@@@2@@std@@_N@std@@QAE@XZ 13053f50 f i aggregator_static:aggregator_impl.obj
 0001:00052f80       ??1?$_Hmap_traits@PAUIFileIterator@aggregator@tls@@PAU123@V?$hash_compare@PAUIFileIterator@aggregator@tls@@U?$less@PAUIFileIterator@aggregator@tls@@@std@@@stdext@@V?$allocator@U?$pair@QAUIFileIterator@aggregator@tls@@PAU123@@std@@@std@@$0A@@stdext@@QAE@XZ 13053f80 f i aggregator_static:aggregator_impl.obj
 0001:00052fb0       ??1?$pair@V?$_Iterator@$00@?$list@U?$pair@QAUIFileIterator@aggregator@tls@@PAU123@@std@@V?$allocator@U?$pair@QAUIFileIterator@aggregator@tls@@PAU123@@std@@@2@@std@@V123@@std@@QAE@XZ 13053fb0 f i aggregator_static:aggregator_impl.obj
 0001:00052fe0       ??0?$_Iterator@$00@?$list@U?$pair@QAUIFileIterator@aggregator@tls@@PAU123@@std@@V?$allocator@U?$pair@QAUIFileIterator@aggregator@tls@@PAU123@@std@@@2@@std@@QAE@ABV012@@Z 13053fe0 f i aggregator_static:aggregator_impl.obj
 0001:00053010       ??1?$pair@V?$_Iterator@$00@?$list@U?$pair@QBDPAVFileContainerImpl@AggregatorImpl@aggregator@tls@@@std@@V?$allocator@U?$pair@QBDPAVFileContainerImpl@AggregatorImpl@aggregator@tls@@@std@@@2@@std@@_N@std@@QAE@XZ 13054010 f i aggregator_static:aggregator_impl.obj
 0001:00053040       ??1?$_Hmap_traits@PBDPAVFileContainerImpl@AggregatorImpl@aggregator@tls@@Uchar_t_hash@base@4@V?$allocator@U?$pair@QBDPAVFileContainerImpl@AggregatorImpl@aggregator@tls@@@std@@@std@@$0A@@stdext@@QAE@XZ 13054040 f i aggregator_static:aggregator_impl.obj
 0001:00053070       ??_G?$PoolThreadSafe@VFileIteratorImpl@aggregator@tls@@UFileIteratorParam_t@23@@base@tls@@UAEPAXI@Z 13054070 f i aggregator_static:aggregator_impl.obj
 0001:00053070       ??_E?$PoolThreadSafe@VFileIteratorImpl@aggregator@tls@@UFileIteratorParam_t@23@@base@tls@@UAEPAXI@Z 13054070 f i aggregator_static:aggregator_impl.obj
 0001:000530b0       ??_E?$Pool@VFileIteratorImpl@aggregator@tls@@UFileIteratorParam_t@23@U?$PoolDefaultAllocator@VFileIteratorImpl@aggregator@tls@@UFileIteratorParam_t@23@@base@3@U?$PoolDefaultDeletor@VFileIteratorImpl@aggregator@tls@@@63@@base@tls@@UAEPAXI@Z 130540b0 f i aggregator_static:aggregator_impl.obj
 0001:000530b0       ??_G?$Pool@VFileIteratorImpl@aggregator@tls@@UFileIteratorParam_t@23@U?$PoolDefaultAllocator@VFileIteratorImpl@aggregator@tls@@UFileIteratorParam_t@23@@base@3@U?$PoolDefaultDeletor@VFileIteratorImpl@aggregator@tls@@@63@@base@tls@@UAEPAXI@Z 130540b0 f i aggregator_static:aggregator_impl.obj
 0001:000530f0       ??1?$_Iterator@$00@?$list@PAVFileIteratorImpl@aggregator@tls@@V?$allocator@PAVFileIteratorImpl@aggregator@tls@@@std@@@std@@QAE@XZ 130540f0 f i aggregator_static:aggregator_impl.obj
 0001:00053120       ??4?$_Iterator@$00@?$list@PAVFileIteratorImpl@aggregator@tls@@V?$allocator@PAVFileIteratorImpl@aggregator@tls@@@std@@@std@@QAEAAV012@ABV012@@Z 13054120 f i aggregator_static:aggregator_impl.obj
 0001:00053150       ??1?$_List_val@URPCInvokeNode@AggregatorImpl@aggregator@tls@@V?$allocator@URPCInvokeNode@AggregatorImpl@aggregator@tls@@@std@@@std@@QAE@XZ 13054150 f i aggregator_static:aggregator_impl.obj
 0001:00053180       ??0?$_Bidit@U?$pair@QBDPAV?$PoolThreadSafe@VDBConnImpl@aggregator@tls@@PBUst_db_conn_str@@@base@tls@@@std@@HPBU12@ABU12@@std@@QAE@XZ 13054180 f i aggregator_static:aggregator_impl.obj
 0001:000531b0       ??0?$_Bidit@PAUIObject@tls@@HPBQAU12@ABQAU12@@std@@QAE@XZ 130541b0 f i aggregator_static:aggregator_impl.obj
 0001:000531e0       ??1?$PoolThreadSafe@VDBConnImpl@aggregator@tls@@PBUst_db_conn_str@@@base@tls@@UAE@XZ 130541e0 f i aggregator_static:aggregator_impl.obj
 0001:00053210       ??1?$Pool@VDBConnImpl@aggregator@tls@@PBUst_db_conn_str@@U?$PoolDefaultAllocator@VDBConnImpl@aggregator@tls@@PBUst_db_conn_str@@@base@3@U?$PoolDefaultDeletor@VDBConnImpl@aggregator@tls@@@63@@base@tls@@UAE@XZ 13054210 f i aggregator_static:aggregator_impl.obj
 0001:00053260       ??_E?$Pool@VDBConnImpl@aggregator@tls@@PBUst_db_conn_str@@U?$PoolDefaultAllocator@VDBConnImpl@aggregator@tls@@PBUst_db_conn_str@@@base@3@U?$PoolDefaultDeletor@VDBConnImpl@aggregator@tls@@@63@@base@tls@@UAEPAXI@Z 13054260 f i aggregator_static:aggregator_impl.obj
 0001:00053260       ??_G?$Pool@VDBConnImpl@aggregator@tls@@PBUst_db_conn_str@@U?$PoolDefaultAllocator@VDBConnImpl@aggregator@tls@@PBUst_db_conn_str@@@base@3@U?$PoolDefaultDeletor@VDBConnImpl@aggregator@tls@@@63@@base@tls@@UAEPAXI@Z 13054260 f i aggregator_static:aggregator_impl.obj
 0001:000532a0       ??1?$_List_ptr@IV?$allocator@I@std@@@std@@QAE@XZ 130542a0 f i aggregator_static:aggregator_impl.obj
 0001:000532d0       ??1?$_Bidit@PAVCollectClient@AggregatorImpl@aggregator@tls@@HPBQAV1234@ABQAV1234@@std@@QAE@XZ 130542d0 f i aggregator_static:aggregator_impl.obj
 0001:00053300       ??4?$_Bidit@PAVCollectClient@AggregatorImpl@aggregator@tls@@HPBQAV1234@ABQAV1234@@std@@QAEAAU01@ABU01@@Z 13054300 f i aggregator_static:aggregator_impl.obj
 0001:00053330       ??1?$_List_ptr@PAVRequestAndResponse@aggregator@tls@@V?$allocator@PAVRequestAndResponse@aggregator@tls@@@std@@@std@@QAE@XZ 13054330 f i aggregator_static:aggregator_impl.obj
 0001:00053360       ??1?$_List_ptr@Umodule_t@AggregatorImpl@aggregator@tls@@V?$allocator@Umodule_t@AggregatorImpl@aggregator@tls@@@std@@@std@@QAE@XZ 13054360 f i aggregator_static:aggregator_impl.obj
 0001:00053390       ??1?$_List_ptr@PAUIObject@tls@@V?$allocator@PAUIObject@tls@@@std@@@std@@QAE@XZ 13054390 f i aggregator_static:aggregator_impl.obj
 0001:000533c0       ??1?$_List_ptr@Ust_thread_param@AggregatorImpl@aggregator@tls@@V?$allocator@Ust_thread_param@AggregatorImpl@aggregator@tls@@@std@@@std@@QAE@XZ 130543c0 f i aggregator_static:aggregator_impl.obj
 0001:000533f0       ??1?$_Const_iterator@$00@?$list@Ust_thread_param@AggregatorImpl@aggregator@tls@@V?$allocator@Ust_thread_param@AggregatorImpl@aggregator@tls@@@std@@@std@@QAE@XZ 130543f0 f i aggregator_static:aggregator_impl.obj
 0001:00053420       ??1?$_Const_iterator@$00@?$list@PAVThread@base@tls@@V?$allocator@PAVThread@base@tls@@@std@@@std@@QAE@XZ 13054420 f i aggregator_static:aggregator_impl.obj
 0001:00053450       ??1?$_List_ptr@Ust_db_conn_str@@V?$allocator@Ust_db_conn_str@@@std@@@std@@QAE@XZ 13054450 f i aggregator_static:aggregator_impl.obj
 0001:00053480       ??1?$_Const_iterator@$00@?$list@Ust_db_conn_str@@V?$allocator@Ust_db_conn_str@@@std@@@std@@QAE@XZ 13054480 f i aggregator_static:aggregator_impl.obj
 0001:000534b0       ??1?$_Vector_const_iterator@PBDV?$allocator@PBD@std@@@std@@QAE@XZ 130544b0 f i aggregator_static:aggregator_impl.obj
 0001:000534e0       ??0?$_Const_iterator@$00@?$list@U?$pair@QAUIFileIterator@aggregator@tls@@PAU123@@std@@V?$allocator@U?$pair@QAUIFileIterator@aggregator@tls@@PAU123@@std@@@2@@std@@QAE@ABV012@@Z 130544e0 f i aggregator_static:aggregator_impl.obj
 0001:00053520       ??1?$_Const_iterator@$00@?$list@PAVFileIteratorImpl@aggregator@tls@@V?$allocator@PAVFileIteratorImpl@aggregator@tls@@@std@@@std@@QAE@XZ 13054520 f i aggregator_static:aggregator_impl.obj
 0001:00053550       ??4?$_Const_iterator@$00@?$list@PAVFileIteratorImpl@aggregator@tls@@V?$allocator@PAVFileIteratorImpl@aggregator@tls@@@std@@@std@@QAEAAV012@ABV012@@Z 13054550 f i aggregator_static:aggregator_impl.obj
 0001:00053590       ??1?$_List_ptr@URPCInvokeNode@AggregatorImpl@aggregator@tls@@V?$allocator@URPCInvokeNode@AggregatorImpl@aggregator@tls@@@std@@@std@@QAE@XZ 13054590 f i aggregator_static:aggregator_impl.obj
 0001:000535c0       ??1?$_List_nod@IV?$allocator@I@std@@@std@@QAE@XZ 130545c0 f i aggregator_static:aggregator_impl.obj
 0001:000535f0       ??1?$_List_nod@PAVRequestAndResponse@aggregator@tls@@V?$allocator@PAVRequestAndResponse@aggregator@tls@@@std@@@std@@QAE@XZ 130545f0 f i aggregator_static:aggregator_impl.obj
 0001:00053620       ??1?$_List_nod@Umodule_t@AggregatorImpl@aggregator@tls@@V?$allocator@Umodule_t@AggregatorImpl@aggregator@tls@@@std@@@std@@QAE@XZ 13054620 f i aggregator_static:aggregator_impl.obj
 0001:00053650       ??1?$_List_nod@PAUIObject@tls@@V?$allocator@PAUIObject@tls@@@std@@@std@@QAE@XZ 13054650 f i aggregator_static:aggregator_impl.obj
 0001:00053680       ??1?$_List_nod@Ust_thread_param@AggregatorImpl@aggregator@tls@@V?$allocator@Ust_thread_param@AggregatorImpl@aggregator@tls@@@std@@@std@@QAE@XZ 13054680 f i aggregator_static:aggregator_impl.obj
 0001:000536b0       ??1?$_Bidit@Ust_thread_param@AggregatorImpl@aggregator@tls@@HPBU1234@ABU1234@@std@@QAE@XZ 130546b0 f i aggregator_static:aggregator_impl.obj
 0001:000536e0       ??1?$_Bidit@PAVThread@base@tls@@HPBQAV123@ABQAV123@@std@@QAE@XZ 130546e0 f i aggregator_static:aggregator_impl.obj
 0001:00053710       ??1?$_List_nod@Ust_db_conn_str@@V?$allocator@Ust_db_conn_str@@@std@@@std@@QAE@XZ 13054710 f i aggregator_static:aggregator_impl.obj
 0001:00053740       ??1?$_Bidit@Ust_db_conn_str@@HPBU1@ABU1@@std@@QAE@XZ 13054740 f i aggregator_static:aggregator_impl.obj
 0001:00053770       ??1?$_Ranit@PBDHPBQBDABQBD@std@@QAE@XZ 13054770 f i aggregator_static:aggregator_impl.obj
 0001:000537a0       ??0?$_Bidit@U?$pair@QAUIFileIterator@aggregator@tls@@PAU123@@std@@HPBU12@ABU12@@std@@QAE@ABU01@@Z 130547a0 f i aggregator_static:aggregator_impl.obj
 0001:000537d0       ??1?$_Bidit@PAVFileIteratorImpl@aggregator@tls@@HPBQAV123@ABQAV123@@std@@QAE@XZ 130547d0 f i aggregator_static:aggregator_impl.obj
 0001:00053800       ??4?$_Bidit@PAVFileIteratorImpl@aggregator@tls@@HPBQAV123@ABQAV123@@std@@QAEAAU01@ABU01@@Z 13054800 f i aggregator_static:aggregator_impl.obj
 0001:00053830       ??1?$_List_nod@URPCInvokeNode@AggregatorImpl@aggregator@tls@@V?$allocator@URPCInvokeNode@AggregatorImpl@aggregator@tls@@@std@@@std@@QAE@XZ 13054830 f i aggregator_static:aggregator_impl.obj
 0001:00053860       ?find_last_of@?$basic_string@DU?$char_traits@D@std@@V?$allocator@D@2@@std@@QBEIPBDII@Z 13054860 f i aggregator_static:aggregator_impl.obj
 0001:00053930       ?find@?$char_traits@D@std@@SAPBDPBDIABD@Z 13054930 f i aggregator_static:aggregator_impl.obj
 0001:00053960       ??0?$Pool@VDBConnImpl@aggregator@tls@@PBUst_db_conn_str@@U?$PoolDefaultAllocator@VDBConnImpl@aggregator@tls@@PBUst_db_conn_str@@@base@3@U?$PoolDefaultDeletor@VDBConnImpl@aggregator@tls@@@63@@base@tls@@QAE@II@Z 13054960 f i aggregator_static:aggregator_impl.obj
 0001:000539c0       ?clear@?$Pool@VDBConnImpl@aggregator@tls@@PBUst_db_conn_str@@U?$PoolDefaultAllocator@VDBConnImpl@aggregator@tls@@PBUst_db_conn_str@@@base@3@U?$PoolDefaultDeletor@VDBConnImpl@aggregator@tls@@@63@@base@tls@@QAEXXZ 130549c0 f i aggregator_static:aggregator_impl.obj
 0001:00053b00       ?get_no_create@?$Pool@VDBConnImpl@aggregator@tls@@PBUst_db_conn_str@@U?$PoolDefaultAllocator@VDBConnImpl@aggregator@tls@@PBUst_db_conn_str@@@base@3@U?$PoolDefaultDeletor@VDBConnImpl@aggregator@tls@@@63@@base@tls@@QAEPAVDBConnImpl@aggregator@3@XZ 13054b00 f i aggregator_static:aggregator_impl.obj
 0001:00053b60       ?get@?$Pool@VDBConnImpl@aggregator@tls@@PBUst_db_conn_str@@U?$PoolDefaultAllocator@VDBConnImpl@aggregator@tls@@PBUst_db_conn_str@@@base@3@U?$PoolDefaultDeletor@VDBConnImpl@aggregator@tls@@@63@@base@tls@@QAEPAVDBConnImpl@aggregator@3@XZ 13054b60 f i aggregator_static:aggregator_impl.obj
 0001:00053c20       ?init_@?$Pool@VDBConnImpl@aggregator@tls@@PBUst_db_conn_str@@U?$PoolDefaultAllocator@VDBConnImpl@aggregator@tls@@PBUst_db_conn_str@@@base@3@U?$PoolDefaultDeletor@VDBConnImpl@aggregator@tls@@@63@@base@tls@@AAEXI@Z 13054c20 f i aggregator_static:aggregator_impl.obj
 0001:00053d10       ??1?$list@PAVDBConnImpl@aggregator@tls@@V?$allocator@PAVDBConnImpl@aggregator@tls@@@std@@@std@@QAE@XZ 13054d10 f i aggregator_static:aggregator_impl.obj
 0001:00053d40       ?size@?$list@PAVDBConnImpl@aggregator@tls@@V?$allocator@PAVDBConnImpl@aggregator@tls@@@std@@@std@@QBEIXZ 13054d40 f i aggregator_static:aggregator_impl.obj
 0001:00053d60       ??0?$list@PAVThread@base@tls@@V?$allocator@PAVThread@base@tls@@@std@@@std@@QAE@XZ 13054d60 f i aggregator_static:aggregator_impl.obj
 0001:00053db0       ??1?$list@PAVThread@base@tls@@V?$allocator@PAVThread@base@tls@@@std@@@std@@QAE@XZ 13054db0 f i aggregator_static:aggregator_impl.obj
 0001:00053de0       ?begin@?$list@PAVThread@base@tls@@V?$allocator@PAVThread@base@tls@@@std@@@std@@QAE?AV?$_Iterator@$00@12@XZ 13054de0 f i aggregator_static:aggregator_impl.obj
 0001:00053e20       ?end@?$list@PAVThread@base@tls@@V?$allocator@PAVThread@base@tls@@@std@@@std@@QAE?AV?$_Iterator@$00@12@XZ 13054e20 f i aggregator_static:aggregator_impl.obj
 0001:00053e60       ?push_back@?$list@PAVThread@base@tls@@V?$allocator@PAVThread@base@tls@@@std@@@std@@QAEXABQAVThread@base@tls@@@Z 13054e60 f i aggregator_static:aggregator_impl.obj
 0001:00053ea0       ?clear@?$list@PAVThread@base@tls@@V?$allocator@PAVThread@base@tls@@@std@@@std@@QAEXXZ 13054ea0 f i aggregator_static:aggregator_impl.obj
 0001:00053f70       ?Release@?$AutoRelease@PAUIHostContext@aggregator@tls@@@tls@@QAEXXZ 13054f70 f i aggregator_static:aggregator_impl.obj
 0001:00053fc0       ?_Buynode@?$list@IV?$allocator@I@std@@@std@@IAEPAU_Node@?$_List_nod@IV?$allocator@I@std@@@2@XZ 13054fc0 f i aggregator_static:aggregator_impl.obj
 0001:000540b0       ?_Tidy@?$list@IV?$allocator@I@std@@@std@@IAEXXZ 130550b0 f i aggregator_static:aggregator_impl.obj
 0001:00054130       ??0?$_List_val@IV?$allocator@I@std@@@std@@QAE@V?$allocator@I@1@@Z 13055130 f i aggregator_static:aggregator_impl.obj
 0001:00054180       ??0?$allocator@I@std@@QAE@XZ 13055180 f i aggregator_static:aggregator_impl.obj
 0001:000541a0       ??0?$_Hash@V?$_Hmap_traits@PBDPAVCollectClient@AggregatorImpl@aggregator@tls@@Uchar_t_hash@base@4@V?$allocator@U?$pair@QBDPAVCollectClient@AggregatorImpl@aggregator@tls@@@std@@@std@@$0A@@stdext@@@stdext@@QAE@ABUchar_t_hash@base@tls@@ABV?$allocator@U?$pair@QBDPAVCollectClient@AggregatorImpl@aggregator@tls@@@std@@@std@@@Z 130551a0 f i aggregator_static:aggregator_impl.obj
 0001:00054240       ?insert@?$_Hash@V?$_Hmap_traits@PBDPAVCollectClient@AggregatorImpl@aggregator@tls@@Uchar_t_hash@base@4@V?$allocator@U?$pair@QBDPAVCollectClient@AggregatorImpl@aggregator@tls@@@std@@@std@@$0A@@stdext@@@stdext@@QAE?AU?$pair@V?$_Iterator@$00@?$list@U?$pair@QBDPAVCollectClient@AggregatorImpl@aggregator@tls@@@std@@V?$allocator@U?$pair@QBDPAVCollectClient@AggregatorImpl@aggregator@tls@@@std@@@2@@std@@_N@std@@ABU?$pair@QBDPAVCollectClient@AggregatorImpl@aggregator@tls@@@4@@Z 13055240 f i aggregator_static:aggregator_impl.obj
 0001:00054830       ??Rchar_t_hash@base@tls@@QBEIPBD@Z 13055830 f i aggregator_static:aggregator_impl.obj
 0001:000548b0       ??Rchar_t_hash@base@tls@@QBE_NPBD0@Z 130558b0 f i aggregator_static:aggregator_impl.obj
 0001:00054910       ?lower_bound@?$_Hash@V?$_Hmap_traits@PBDPAVCollectClient@AggregatorImpl@aggregator@tls@@Uchar_t_hash@base@4@V?$allocator@U?$pair@QBDPAVCollectClient@AggregatorImpl@aggregator@tls@@@std@@@std@@$0A@@stdext@@@stdext@@QAE?AV?$_Iterator@$00@?$list@U?$pair@QBDPAVCollectClient@AggregatorImpl@aggregator@tls@@@std@@V?$allocator@U?$pair@QBDPAVCollectClient@AggregatorImpl@aggregator@tls@@@std@@@2@@std@@ABQBD@Z 13055910 f i aggregator_static:aggregator_impl.obj
 0001:00054ab0       ?_Hashval@?$_Hash@V?$_Hmap_traits@PBDPAVCollectClient@AggregatorImpl@aggregator@tls@@Uchar_t_hash@base@4@V?$allocator@U?$pair@QBDPAVCollectClient@AggregatorImpl@aggregator@tls@@@std@@@std@@$0A@@stdext@@@stdext@@IBEIABQBD@Z 13055ab0 f i aggregator_static:aggregator_impl.obj
 0001:00054b20       ?_Kfn@?$_Hmap_traits@PBDPAVCollectClient@AggregatorImpl@aggregator@tls@@Uchar_t_hash@base@4@V?$allocator@U?$pair@QBDPAVCollectClient@AggregatorImpl@aggregator@tls@@@std@@@std@@$0A@@stdext@@SAABQBDABU?$pair@QBDPAVCollectClient@AggregatorImpl@aggregator@tls@@@std@@@Z 13055b20 f i aggregator_static:aggregator_impl.obj
 0001:00054b30       ??0?$allocator@U?$pair@QBDPAVCollectClient@AggregatorImpl@aggregator@tls@@@std@@@std@@QAE@XZ 13055b30 f i aggregator_static:aggregator_impl.obj
 0001:00054b50       ??1?$list@U?$pair@QBDPAVCollectClient@AggregatorImpl@aggregator@tls@@@std@@V?$allocator@U?$pair@QBDPAVCollectClient@AggregatorImpl@aggregator@tls@@@std@@@2@@std@@QAE@XZ 13055b50 f i aggregator_static:aggregator_impl.obj
 0001:00054b80       ?begin@?$list@U?$pair@QBDPAVCollectClient@AggregatorImpl@aggregator@tls@@@std@@V?$allocator@U?$pair@QBDPAVCollectClient@AggregatorImpl@aggregator@tls@@@std@@@2@@std@@QAE?AV?$_Iterator@$00@12@XZ 13055b80 f i aggregator_static:aggregator_impl.obj
 0001:00054bc0       ?end@?$list@U?$pair@QBDPAVCollectClient@AggregatorImpl@aggregator@tls@@@std@@V?$allocator@U?$pair@QBDPAVCollectClient@AggregatorImpl@aggregator@tls@@@std@@@2@@std@@QAE?AV?$_Iterator@$00@12@XZ 13055bc0 f i aggregator_static:aggregator_impl.obj
 0001:00054c00       ?size@?$list@U?$pair@QBDPAVCollectClient@AggregatorImpl@aggregator@tls@@@std@@V?$allocator@U?$pair@QBDPAVCollectClient@AggregatorImpl@aggregator@tls@@@std@@@2@@std@@QBEIXZ 13055c00 f i aggregator_static:aggregator_impl.obj
 0001:00054c20       ?erase@?$list@U?$pair@QBDPAVCollectClient@AggregatorImpl@aggregator@tls@@@std@@V?$allocator@U?$pair@QBDPAVCollectClient@AggregatorImpl@aggregator@tls@@@std@@@2@@std@@QAE?AV?$_Iterator@$00@12@V312@@Z 13055c20 f i aggregator_static:aggregator_impl.obj
 0001:00054d50       ?clear@?$list@U?$pair@QBDPAVCollectClient@AggregatorImpl@aggregator@tls@@@std@@V?$allocator@U?$pair@QBDPAVCollectClient@AggregatorImpl@aggregator@tls@@@std@@@2@@std@@QAEXXZ 13055d50 f i aggregator_static:aggregator_impl.obj
 0001:00054e20       ??1?$vector@V?$_Iterator@$00@?$list@U?$pair@QBDPAVCollectClient@AggregatorImpl@aggregator@tls@@@std@@V?$allocator@U?$pair@QBDPAVCollectClient@AggregatorImpl@aggregator@tls@@@std@@@2@@std@@V?$allocator@V?$_Iterator@$00@?$list@U?$pair@QBDPAVCollectClient@AggregatorImpl@aggregator@tls@@@std@@V?$allocator@U?$pair@QBDPAVCollectClient@AggregatorImpl@aggregator@tls@@@std@@@2@@std@@@3@@std@@QAE@XZ 13055e20 f i aggregator_static:aggregator_impl.obj
 0001:00054e50       ??A?$vector@V?$_Iterator@$00@?$list@U?$pair@QBDPAVCollectClient@AggregatorImpl@aggregator@tls@@@std@@V?$allocator@U?$pair@QBDPAVCollectClient@AggregatorImpl@aggregator@tls@@@std@@@2@@std@@V?$allocator@V?$_Iterator@$00@?$list@U?$pair@QBDPAVCollectClient@AggregatorImpl@aggregator@tls@@@std@@V?$allocator@U?$pair@QBDPAVCollectClient@AggregatorImpl@aggregator@tls@@@std@@@2@@std@@@3@@std@@QAEAAV?$_Iterator@$00@?$list@U?$pair@QBDPAVCollectClient@AggregatorImpl@aggregator@tls@@@std@@V?$allocator@U?$pair@QBDPAVCollectClient@AggregatorImpl@aggregator@tls@@@std@@@2@@1@I@Z 13055e50 f i aggregator_static:aggregator_impl.obj
 0001:00054f40       ?assign@?$vector@V?$_Iterator@$00@?$list@U?$pair@QBDPAVCollectClient@AggregatorImpl@aggregator@tls@@@std@@V?$allocator@U?$pair@QBDPAVCollectClient@AggregatorImpl@aggregator@tls@@@std@@@2@@std@@V?$allocator@V?$_Iterator@$00@?$list@U?$pair@QBDPAVCollectClient@AggregatorImpl@aggregator@tls@@@std@@V?$allocator@U?$pair@QBDPAVCollectClient@AggregatorImpl@aggregator@tls@@@std@@@2@@std@@@3@@std@@QAEXIABV?$_Iterator@$00@?$list@U?$pair@QBDPAVCollectClient@AggregatorImpl@aggregator@tls@@@std@@V?$allocator@U?$pair@QBDPAVCollectClient@AggregatorImpl@aggregator@tls@@@std@@@2@@2@@Z 13055f40 f i aggregator_static:aggregator_impl.obj
 0001:00054f70       ??0?$Pool@VCollectClient@AggregatorImpl@aggregator@tls@@PBDU?$PoolDefaultAllocator@VCollectClient@AggregatorImpl@aggregator@tls@@PBD@base@4@U?$PoolDefaultDeletor@VCollectClient@AggregatorImpl@aggregator@tls@@@64@@base@tls@@QAE@II@Z 13055f70 f i aggregator_static:aggregator_impl.obj
 0001:00054fd0       ?clear@?$Pool@VCollectClient@AggregatorImpl@aggregator@tls@@PBDU?$PoolDefaultAllocator@VCollectClient@AggregatorImpl@aggregator@tls@@PBD@base@4@U?$PoolDefaultDeletor@VCollectClient@AggregatorImpl@aggregator@tls@@@64@@base@tls@@QAEXXZ 13055fd0 f i aggregator_static:aggregator_impl.obj
 0001:00055110       ?init_@?$Pool@VCollectClient@AggregatorImpl@aggregator@tls@@PBDU?$PoolDefaultAllocator@VCollectClient@AggregatorImpl@aggregator@tls@@PBD@base@4@U?$PoolDefaultDeletor@VCollectClient@AggregatorImpl@aggregator@tls@@@64@@base@tls@@AAEXI@Z 13056110 f i aggregator_static:aggregator_impl.obj
 0001:00055200       ??1?$list@PAVCollectClient@AggregatorImpl@aggregator@tls@@V?$allocator@PAVCollectClient@AggregatorImpl@aggregator@tls@@@std@@@std@@QAE@XZ 13056200 f i aggregator_static:aggregator_impl.obj
 0001:00055230       ?begin@?$list@PAVCollectClient@AggregatorImpl@aggregator@tls@@V?$allocator@PAVCollectClient@AggregatorImpl@aggregator@tls@@@std@@@std@@QAE?AV?$_Iterator@$00@12@XZ 13056230 f i aggregator_static:aggregator_impl.obj
 0001:00055270       ?end@?$list@PAVCollectClient@AggregatorImpl@aggregator@tls@@V?$allocator@PAVCollectClient@AggregatorImpl@aggregator@tls@@@std@@@std@@QAE?AV?$_Iterator@$00@12@XZ 13056270 f i aggregator_static:aggregator_impl.obj
 0001:000552b0       ?size@?$list@PAVCollectClient@AggregatorImpl@aggregator@tls@@V?$allocator@PAVCollectClient@AggregatorImpl@aggregator@tls@@@std@@@std@@QBEIXZ 130562b0 f i aggregator_static:aggregator_impl.obj
 0001:000552d0       ?empty@?$list@PAVCollectClient@AggregatorImpl@aggregator@tls@@V?$allocator@PAVCollectClient@AggregatorImpl@aggregator@tls@@@std@@@std@@QBE_NXZ 130562d0 f i aggregator_static:aggregator_impl.obj
 0001:000552f0       ?front@?$list@PAVCollectClient@AggregatorImpl@aggregator@tls@@V?$allocator@PAVCollectClient@AggregatorImpl@aggregator@tls@@@std@@@std@@QAEAAPAVCollectClient@AggregatorImpl@aggregator@tls@@XZ 130562f0 f i aggregator_static:aggregator_impl.obj
 0001:00055340       ?pop_front@?$list@PAVCollectClient@AggregatorImpl@aggregator@tls@@V?$allocator@PAVCollectClient@AggregatorImpl@aggregator@tls@@@std@@@std@@QAEXXZ 13056340 f i aggregator_static:aggregator_impl.obj
 0001:00055390       ?push_back@?$list@PAVCollectClient@AggregatorImpl@aggregator@tls@@V?$allocator@PAVCollectClient@AggregatorImpl@aggregator@tls@@@std@@@std@@QAEXABQAVCollectClient@AggregatorImpl@aggregator@tls@@@Z 13056390 f i aggregator_static:aggregator_impl.obj
 0001:000553d0       ??0?$_Hash@V?$_Hmap_traits@IPAVRequestAndResponse@aggregator@tls@@V?$hash_compare@IU?$less@I@std@@@stdext@@V?$allocator@U?$pair@$$CBIPAVRequestAndResponse@aggregator@tls@@@std@@@std@@$0A@@stdext@@@stdext@@QAE@ABV?$hash_compare@IU?$less@I@std@@@1@ABV?$allocator@U?$pair@$$CBIPAVRequestAndResponse@aggregator@tls@@@std@@@std@@@Z 130563d0 f i aggregator_static:aggregator_impl.obj
 0001:00055470       ??0?$allocator@U?$pair@$$CBIPAVRequestAndResponse@aggregator@tls@@@std@@@std@@QAE@XZ 13056470 f i aggregator_static:aggregator_impl.obj
 0001:00055490       ??0?$hash_compare@IU?$less@I@std@@@stdext@@QAE@XZ 13056490 f i aggregator_static:aggregator_impl.obj
 0001:000554b0       ??1?$list@U?$pair@$$CBIPAVRequestAndResponse@aggregator@tls@@@std@@V?$allocator@U?$pair@$$CBIPAVRequestAndResponse@aggregator@tls@@@std@@@2@@std@@QAE@XZ 130564b0 f i aggregator_static:aggregator_impl.obj
 0001:000554e0       ??1?$vector@V?$_Iterator@$00@?$list@U?$pair@$$CBIPAVRequestAndResponse@aggregator@tls@@@std@@V?$allocator@U?$pair@$$CBIPAVRequestAndResponse@aggregator@tls@@@std@@@2@@std@@V?$allocator@V?$_Iterator@$00@?$list@U?$pair@$$CBIPAVRequestAndResponse@aggregator@tls@@@std@@V?$allocator@U?$pair@$$CBIPAVRequestAndResponse@aggregator@tls@@@std@@@2@@std@@@3@@std@@QAE@XZ 130564e0 f i aggregator_static:aggregator_impl.obj
 0001:00055510       ?_Buynode@?$list@PAVRequestAndResponse@aggregator@tls@@V?$allocator@PAVRequestAndResponse@aggregator@tls@@@std@@@std@@IAEPAU_Node@?$_List_nod@PAVRequestAndResponse@aggregator@tls@@V?$allocator@PAVRequestAndResponse@aggregator@tls@@@std@@@2@XZ 13056510 f i aggregator_static:aggregator_impl.obj
 0001:00055600       ?_Tidy@?$list@PAVRequestAndResponse@aggregator@tls@@V?$allocator@PAVRequestAndResponse@aggregator@tls@@@std@@@std@@IAEXXZ 13056600 f i aggregator_static:aggregator_impl.obj
 0001:00055680       ??0?$_List_val@PAVRequestAndResponse@aggregator@tls@@V?$allocator@PAVRequestAndResponse@aggregator@tls@@@std@@@std@@QAE@V?$allocator@PAVRequestAndResponse@aggregator@tls@@@1@@Z 13056680 f i aggregator_static:aggregator_impl.obj
 0001:000556d0       ??0?$allocator@PAVRequestAndResponse@aggregator@tls@@@std@@QAE@XZ 130566d0 f i aggregator_static:aggregator_impl.obj
 0001:000556f0       ??0?$_Hash@V?$_Hmap_traits@IVatomic_count@base@tls@@V?$hash_compare@IU?$less@I@std@@@stdext@@V?$allocator@U?$pair@$$CBIVatomic_count@base@tls@@@std@@@std@@$0A@@stdext@@@stdext@@QAE@ABV?$hash_compare@IU?$less@I@std@@@1@ABV?$allocator@U?$pair@$$CBIVatomic_count@base@tls@@@std@@@std@@@Z 130566f0 f i aggregator_static:aggregator_impl.obj
 0001:00055790       ?insert@?$_Hash@V?$_Hmap_traits@IVatomic_count@base@tls@@V?$hash_compare@IU?$less@I@std@@@stdext@@V?$allocator@U?$pair@$$CBIVatomic_count@base@tls@@@std@@@std@@$0A@@stdext@@@stdext@@QAE?AU?$pair@V?$_Iterator@$00@?$list@U?$pair@$$CBIVatomic_count@base@tls@@@std@@V?$allocator@U?$pair@$$CBIVatomic_count@base@tls@@@std@@@2@@std@@_N@std@@ABU?$pair@$$CBIVatomic_count@base@tls@@@4@@Z 13056790 f i aggregator_static:aggregator_impl.obj
 0001:00055d70       ?lower_bound@?$_Hash@V?$_Hmap_traits@IVatomic_count@base@tls@@V?$hash_compare@IU?$less@I@std@@@stdext@@V?$allocator@U?$pair@$$CBIVatomic_count@base@tls@@@std@@@std@@$0A@@stdext@@@stdext@@QAE?AV?$_Iterator@$00@?$list@U?$pair@$$CBIVatomic_count@base@tls@@@std@@V?$allocator@U?$pair@$$CBIVatomic_count@base@tls@@@std@@@2@@std@@ABI@Z 13056d70 f i aggregator_static:aggregator_impl.obj
 0001:00055f00       ??0?$allocator@U?$pair@$$CBIVatomic_count@base@tls@@@std@@@std@@QAE@XZ 13056f00 f i aggregator_static:aggregator_impl.obj
 0001:00055f20       ??1?$list@U?$pair@$$CBIVatomic_count@base@tls@@@std@@V?$allocator@U?$pair@$$CBIVatomic_count@base@tls@@@std@@@2@@std@@QAE@XZ 13056f20 f i aggregator_static:aggregator_impl.obj
 0001:00055f50       ?begin@?$list@U?$pair@$$CBIVatomic_count@base@tls@@@std@@V?$allocator@U?$pair@$$CBIVatomic_count@base@tls@@@std@@@2@@std@@QAE?AV?$_Iterator@$00@12@XZ 13056f50 f i aggregator_static:aggregator_impl.obj
 0001:00055f90       ?end@?$list@U?$pair@$$CBIVatomic_count@base@tls@@@std@@V?$allocator@U?$pair@$$CBIVatomic_count@base@tls@@@std@@@2@@std@@QAE?AV?$_Iterator@$00@12@XZ 13056f90 f i aggregator_static:aggregator_impl.obj
 0001:00055fd0       ?clear@?$list@U?$pair@$$CBIVatomic_count@base@tls@@@std@@V?$allocator@U?$pair@$$CBIVatomic_count@base@tls@@@std@@@2@@std@@QAEXXZ 13056fd0 f i aggregator_static:aggregator_impl.obj
 0001:000560a0       ??1?$vector@V?$_Iterator@$00@?$list@U?$pair@$$CBIVatomic_count@base@tls@@@std@@V?$allocator@U?$pair@$$CBIVatomic_count@base@tls@@@std@@@2@@std@@V?$allocator@V?$_Iterator@$00@?$list@U?$pair@$$CBIVatomic_count@base@tls@@@std@@V?$allocator@U?$pair@$$CBIVatomic_count@base@tls@@@std@@@2@@std@@@3@@std@@QAE@XZ 130570a0 f i aggregator_static:aggregator_impl.obj
 0001:000560d0       ?assign@?$vector@V?$_Iterator@$00@?$list@U?$pair@$$CBIVatomic_count@base@tls@@@std@@V?$allocator@U?$pair@$$CBIVatomic_count@base@tls@@@std@@@2@@std@@V?$allocator@V?$_Iterator@$00@?$list@U?$pair@$$CBIVatomic_count@base@tls@@@std@@V?$allocator@U?$pair@$$CBIVatomic_count@base@tls@@@std@@@2@@std@@@3@@std@@QAEXIABV?$_Iterator@$00@?$list@U?$pair@$$CBIVatomic_count@base@tls@@@std@@V?$allocator@U?$pair@$$CBIVatomic_count@base@tls@@@std@@@2@@2@@Z 130570d0 f i aggregator_static:aggregator_impl.obj
 0001:00056100       ?_Nextnode@?$list@Umodule_t@AggregatorImpl@aggregator@tls@@V?$allocator@Umodule_t@AggregatorImpl@aggregator@tls@@@std@@@std@@KAAAPAU_Node@?$_List_nod@Umodule_t@AggregatorImpl@aggregator@tls@@V?$allocator@Umodule_t@AggregatorImpl@aggregator@tls@@@std@@@2@PAU342@@Z 13057100 f i aggregator_static:aggregator_impl.obj
 0001:00056110       ?_Prevnode@?$list@Umodule_t@AggregatorImpl@aggregator@tls@@V?$allocator@Umodule_t@AggregatorImpl@aggregator@tls@@@std@@@std@@KAAAPAU_Node@?$_List_nod@Umodule_t@AggregatorImpl@aggregator@tls@@V?$allocator@Umodule_t@AggregatorImpl@aggregator@tls@@@std@@@2@PAU342@@Z 13057110 f i aggregator_static:aggregator_impl.obj
 0001:00056120       ?_Insert@?$list@Umodule_t@AggregatorImpl@aggregator@tls@@V?$allocator@Umodule_t@AggregatorImpl@aggregator@tls@@@std@@@std@@QAEXV?$_Iterator@$00@12@ABUmodule_t@AggregatorImpl@aggregator@tls@@@Z 13057120 f i aggregator_static:aggregator_impl.obj
 0001:000561e0       ?_Buynode@?$list@Umodule_t@AggregatorImpl@aggregator@tls@@V?$allocator@Umodule_t@AggregatorImpl@aggregator@tls@@@std@@@std@@IAEPAU_Node@?$_List_nod@Umodule_t@AggregatorImpl@aggregator@tls@@V?$allocator@Umodule_t@AggregatorImpl@aggregator@tls@@@std@@@2@XZ 130571e0 f i aggregator_static:aggregator_impl.obj
 0001:000562d0       ?_Tidy@?$list@Umodule_t@AggregatorImpl@aggregator@tls@@V?$allocator@Umodule_t@AggregatorImpl@aggregator@tls@@@std@@@std@@IAEXXZ 130572d0 f i aggregator_static:aggregator_impl.obj
 0001:00056350       ?_Orphan_ptr@?$list@Umodule_t@AggregatorImpl@aggregator@tls@@V?$allocator@Umodule_t@AggregatorImpl@aggregator@tls@@@std@@@std@@IBEXAAV12@PAU_Node@?$_List_nod@Umodule_t@AggregatorImpl@aggregator@tls@@V?$allocator@Umodule_t@AggregatorImpl@aggregator@tls@@@std@@@2@@Z 13057350 f i aggregator_static:aggregator_impl.obj
 0001:00056420       ??0?$_List_val@Umodule_t@AggregatorImpl@aggregator@tls@@V?$allocator@Umodule_t@AggregatorImpl@aggregator@tls@@@std@@@std@@QAE@V?$allocator@Umodule_t@AggregatorImpl@aggregator@tls@@@1@@Z 13057420 f i aggregator_static:aggregator_impl.obj
 0001:00056470       ??0?$allocator@Umodule_t@AggregatorImpl@aggregator@tls@@@std@@QAE@XZ 13057470 f i aggregator_static:aggregator_impl.obj
 0001:00056490       ?deallocate@?$allocator@U_Node@?$_List_nod@Umodule_t@AggregatorImpl@aggregator@tls@@V?$allocator@Umodule_t@AggregatorImpl@aggregator@tls@@@std@@@std@@@std@@QAEXPAU_Node@?$_List_nod@Umodule_t@AggregatorImpl@aggregator@tls@@V?$allocator@Umodule_t@AggregatorImpl@aggregator@tls@@@std@@@2@I@Z 13057490 f i aggregator_static:aggregator_impl.obj
 0001:000564c0       ?destroy@?$allocator@U_Node@?$_List_nod@Umodule_t@AggregatorImpl@aggregator@tls@@V?$allocator@Umodule_t@AggregatorImpl@aggregator@tls@@@std@@@std@@@std@@QAEXPAU_Node@?$_List_nod@Umodule_t@AggregatorImpl@aggregator@tls@@V?$allocator@Umodule_t@AggregatorImpl@aggregator@tls@@@std@@@2@@Z 130574c0 f i aggregator_static:aggregator_impl.obj
 0001:000564f0       ?_Nextnode@?$list@PAUIObject@tls@@V?$allocator@PAUIObject@tls@@@std@@@std@@KAAAPAU_Node@?$_List_nod@PAUIObject@tls@@V?$allocator@PAUIObject@tls@@@std@@@2@PAU342@@Z 130574f0 f i aggregator_static:aggregator_impl.obj
 0001:00056500       ?_Prevnode@?$list@PAUIObject@tls@@V?$allocator@PAUIObject@tls@@@std@@@std@@KAAAPAU_Node@?$_List_nod@PAUIObject@tls@@V?$allocator@PAUIObject@tls@@@std@@@2@PAU342@@Z 13057500 f i aggregator_static:aggregator_impl.obj
 0001:00056510       ?_Myval@?$list@PAUIObject@tls@@V?$allocator@PAUIObject@tls@@@std@@@std@@KAAAPAUIObject@tls@@PAU_Node@?$_List_nod@PAUIObject@tls@@V?$allocator@PAUIObject@tls@@@std@@@2@@Z 13057510 f i aggregator_static:aggregator_impl.obj
 0001:00056520       ?_Insert@?$list@PAUIObject@tls@@V?$allocator@PAUIObject@tls@@@std@@@std@@QAEXV?$_Iterator@$00@12@ABQAUIObject@tls@@@Z 13057520 f i aggregator_static:aggregator_impl.obj
 0001:000565e0       ?_Buynode@?$list@PAUIObject@tls@@V?$allocator@PAUIObject@tls@@@std@@@std@@IAEPAU_Node@?$_List_nod@PAUIObject@tls@@V?$allocator@PAUIObject@tls@@@std@@@2@XZ 130575e0 f i aggregator_static:aggregator_impl.obj
 0001:000566d0       ?_Tidy@?$list@PAUIObject@tls@@V?$allocator@PAUIObject@tls@@@std@@@std@@IAEXXZ 130576d0 f i aggregator_static:aggregator_impl.obj
 0001:00056750       ?_Orphan_ptr@?$list@PAUIObject@tls@@V?$allocator@PAUIObject@tls@@@std@@@std@@IBEXAAV12@PAU_Node@?$_List_nod@PAUIObject@tls@@V?$allocator@PAUIObject@tls@@@std@@@2@@Z 13057750 f i aggregator_static:aggregator_impl.obj
 0001:00056820       ??0?$_List_val@PAUIObject@tls@@V?$allocator@PAUIObject@tls@@@std@@@std@@QAE@V?$allocator@PAUIObject@tls@@@1@@Z 13057820 f i aggregator_static:aggregator_impl.obj
 0001:00056870       ??0?$allocator@PAUIObject@tls@@@std@@QAE@XZ 13057870 f i aggregator_static:aggregator_impl.obj
 0001:00056890       ?deallocate@?$allocator@U_Node@?$_List_nod@PAUIObject@tls@@V?$allocator@PAUIObject@tls@@@std@@@std@@@std@@QAEXPAU_Node@?$_List_nod@PAUIObject@tls@@V?$allocator@PAUIObject@tls@@@std@@@2@I@Z 13057890 f i aggregator_static:aggregator_impl.obj
 0001:000568c0       ?destroy@?$allocator@U_Node@?$_List_nod@PAUIObject@tls@@V?$allocator@PAUIObject@tls@@@std@@@std@@@std@@QAEXPAU_Node@?$_List_nod@PAUIObject@tls@@V?$allocator@PAUIObject@tls@@@std@@@2@@Z 130578c0 f i aggregator_static:aggregator_impl.obj
 0001:000568f0       ?_Nextnode@?$list@Ust_thread_param@AggregatorImpl@aggregator@tls@@V?$allocator@Ust_thread_param@AggregatorImpl@aggregator@tls@@@std@@@std@@KAAAPAU_Node@?$_List_nod@Ust_thread_param@AggregatorImpl@aggregator@tls@@V?$allocator@Ust_thread_param@AggregatorImpl@aggregator@tls@@@std@@@2@PAU342@@Z 130578f0 f i aggregator_static:aggregator_impl.obj
 0001:00056900       ?_Prevnode@?$list@Ust_thread_param@AggregatorImpl@aggregator@tls@@V?$allocator@Ust_thread_param@AggregatorImpl@aggregator@tls@@@std@@@std@@KAAAPAU_Node@?$_List_nod@Ust_thread_param@AggregatorImpl@aggregator@tls@@V?$allocator@Ust_thread_param@AggregatorImpl@aggregator@tls@@@std@@@2@PAU342@@Z 13057900 f i aggregator_static:aggregator_impl.obj
 0001:00056910       ?end@?$list@Ust_thread_param@AggregatorImpl@aggregator@tls@@V?$allocator@Ust_thread_param@AggregatorImpl@aggregator@tls@@@std@@@std@@QAE?AV?$_Iterator@$00@12@XZ 13057910 f i aggregator_static:aggregator_impl.obj
 0001:00056950       ?_Insert@?$list@Ust_thread_param@AggregatorImpl@aggregator@tls@@V?$allocator@Ust_thread_param@AggregatorImpl@aggregator@tls@@@std@@@std@@QAEXV?$_Iterator@$00@12@ABUst_thread_param@AggregatorImpl@aggregator@tls@@@Z 13057950 f i aggregator_static:aggregator_impl.obj
 0001:00056a10       ?_Buynode@?$list@Ust_thread_param@AggregatorImpl@aggregator@tls@@V?$allocator@Ust_thread_param@AggregatorImpl@aggregator@tls@@@std@@@std@@IAEPAU_Node@?$_List_nod@Ust_thread_param@AggregatorImpl@aggregator@tls@@V?$allocator@Ust_thread_param@AggregatorImpl@aggregator@tls@@@std@@@2@XZ 13057a10 f i aggregator_static:aggregator_impl.obj
 0001:00056b00       ?_Tidy@?$list@Ust_thread_param@AggregatorImpl@aggregator@tls@@V?$allocator@Ust_thread_param@AggregatorImpl@aggregator@tls@@@std@@@std@@IAEXXZ 13057b00 f i aggregator_static:aggregator_impl.obj
 0001:00056b80       ?_Orphan_ptr@?$list@Ust_thread_param@AggregatorImpl@aggregator@tls@@V?$allocator@Ust_thread_param@AggregatorImpl@aggregator@tls@@@std@@@std@@IBEXAAV12@PAU_Node@?$_List_nod@Ust_thread_param@AggregatorImpl@aggregator@tls@@V?$allocator@Ust_thread_param@AggregatorImpl@aggregator@tls@@@std@@@2@@Z 13057b80 f i aggregator_static:aggregator_impl.obj
 0001:00056c50       ??0?$_List_val@Ust_thread_param@AggregatorImpl@aggregator@tls@@V?$allocator@Ust_thread_param@AggregatorImpl@aggregator@tls@@@std@@@std@@QAE@V?$allocator@Ust_thread_param@AggregatorImpl@aggregator@tls@@@1@@Z 13057c50 f i aggregator_static:aggregator_impl.obj
 0001:00056ca0       ??0?$allocator@Ust_thread_param@AggregatorImpl@aggregator@tls@@@std@@QAE@XZ 13057ca0 f i aggregator_static:aggregator_impl.obj
 0001:00056cc0       ?deallocate@?$allocator@U_Node@?$_List_nod@Ust_thread_param@AggregatorImpl@aggregator@tls@@V?$allocator@Ust_thread_param@AggregatorImpl@aggregator@tls@@@std@@@std@@@std@@QAEXPAU_Node@?$_List_nod@Ust_thread_param@AggregatorImpl@aggregator@tls@@V?$allocator@Ust_thread_param@AggregatorImpl@aggregator@tls@@@std@@@2@I@Z 13057cc0 f i aggregator_static:aggregator_impl.obj
 0001:00056cf0       ?destroy@?$allocator@U_Node@?$_List_nod@Ust_thread_param@AggregatorImpl@aggregator@tls@@V?$allocator@Ust_thread_param@AggregatorImpl@aggregator@tls@@@std@@@std@@@std@@QAEXPAU_Node@?$_List_nod@Ust_thread_param@AggregatorImpl@aggregator@tls@@V?$allocator@Ust_thread_param@AggregatorImpl@aggregator@tls@@@std@@@2@@Z 13057cf0 f i aggregator_static:aggregator_impl.obj
 0001:00056d20       ??0?$_Hash@V?$_Hmap_traits@PBDPAV?$PoolThreadSafe@VDBConnImpl@aggregator@tls@@PBUst_db_conn_str@@@base@tls@@Uchar_t_hash@23@V?$allocator@U?$pair@QBDPAV?$PoolThreadSafe@VDBConnImpl@aggregator@tls@@PBUst_db_conn_str@@@base@tls@@@std@@@std@@$0A@@stdext@@@stdext@@QAE@ABUchar_t_hash@base@tls@@ABV?$allocator@U?$pair@QBDPAV?$PoolThreadSafe@VDBConnImpl@aggregator@tls@@PBUst_db_conn_str@@@base@tls@@@std@@@std@@@Z 13057d20 f i aggregator_static:aggregator_impl.obj
 0001:00056dc0       ?insert@?$_Hash@V?$_Hmap_traits@PBDPAV?$PoolThreadSafe@VDBConnImpl@aggregator@tls@@PBUst_db_conn_str@@@base@tls@@Uchar_t_hash@23@V?$allocator@U?$pair@QBDPAV?$PoolThreadSafe@VDBConnImpl@aggregator@tls@@PBUst_db_conn_str@@@base@tls@@@std@@@std@@$0A@@stdext@@@stdext@@QAE?AU?$pair@V?$_Iterator@$00@?$list@U?$pair@QBDPAV?$PoolThreadSafe@VDBConnImpl@aggregator@tls@@PBUst_db_conn_str@@@base@tls@@@std@@V?$allocator@U?$pair@QBDPAV?$PoolThreadSafe@VDBConnImpl@aggregator@tls@@PBUst_db_conn_str@@@base@tls@@@std@@@2@@std@@_N@std@@ABU?$pair@QBDPAV?$PoolThreadSafe@VDBConnImpl@aggregator@tls@@PBUst_db_conn_str@@@base@tls@@@4@@Z 13057dc0 f i aggregator_static:aggregator_impl.obj
 0001:000573b0       ?lower_bound@?$_Hash@V?$_Hmap_traits@PBDPAV?$PoolThreadSafe@VDBConnImpl@aggregator@tls@@PBUst_db_conn_str@@@base@tls@@Uchar_t_hash@23@V?$allocator@U?$pair@QBDPAV?$PoolThreadSafe@VDBConnImpl@aggregator@tls@@PBUst_db_conn_str@@@base@tls@@@std@@@std@@$0A@@stdext@@@stdext@@QAE?AV?$_Iterator@$00@?$list@U?$pair@QBDPAV?$PoolThreadSafe@VDBConnImpl@aggregator@tls@@PBUst_db_conn_str@@@base@tls@@@std@@V?$allocator@U?$pair@QBDPAV?$PoolThreadSafe@VDBConnImpl@aggregator@tls@@PBUst_db_conn_str@@@base@tls@@@std@@@2@@std@@ABQBD@Z 130583b0 f i aggregator_static:aggregator_impl.obj
 0001:00057550       ??0?$allocator@U?$pair@QBDPAV?$PoolThreadSafe@VDBConnImpl@aggregator@tls@@PBUst_db_conn_str@@@base@tls@@@std@@@std@@QAE@XZ 13058550 f i aggregator_static:aggregator_impl.obj
 0001:00057570       ?_Nextnode@?$list@U?$pair@QBDPAV?$PoolThreadSafe@VDBConnImpl@aggregator@tls@@PBUst_db_conn_str@@@base@tls@@@std@@V?$allocator@U?$pair@QBDPAV?$PoolThreadSafe@VDBConnImpl@aggregator@tls@@PBUst_db_conn_str@@@base@tls@@@std@@@2@@std@@KAAAPAU_Node@?$_List_nod@U?$pair@QBDPAV?$PoolThreadSafe@VDBConnImpl@aggregator@tls@@PBUst_db_conn_str@@@base@tls@@@std@@V?$allocator@U?$pair@QBDPAV?$PoolThreadSafe@VDBConnImpl@aggregator@tls@@PBUst_db_conn_str@@@base@tls@@@std@@@2@@2@PAU342@@Z 13058570 f i aggregator_static:aggregator_impl.obj
 0001:00057580       ??1?$list@U?$pair@QBDPAV?$PoolThreadSafe@VDBConnImpl@aggregator@tls@@PBUst_db_conn_str@@@base@tls@@@std@@V?$allocator@U?$pair@QBDPAV?$PoolThreadSafe@VDBConnImpl@aggregator@tls@@PBUst_db_conn_str@@@base@tls@@@std@@@2@@std@@QAE@XZ 13058580 f i aggregator_static:aggregator_impl.obj
 0001:000575b0       ?begin@?$list@U?$pair@QBDPAV?$PoolThreadSafe@VDBConnImpl@aggregator@tls@@PBUst_db_conn_str@@@base@tls@@@std@@V?$allocator@U?$pair@QBDPAV?$PoolThreadSafe@VDBConnImpl@aggregator@tls@@PBUst_db_conn_str@@@base@tls@@@std@@@2@@std@@QAE?AV?$_Iterator@$00@12@XZ 130585b0 f i aggregator_static:aggregator_impl.obj
 0001:000575f0       ?begin@?$list@U?$pair@QBDPAV?$PoolThreadSafe@VDBConnImpl@aggregator@tls@@PBUst_db_conn_str@@@base@tls@@@std@@V?$allocator@U?$pair@QBDPAV?$PoolThreadSafe@VDBConnImpl@aggregator@tls@@PBUst_db_conn_str@@@base@tls@@@std@@@2@@std@@QBE?AV?$_Const_iterator@$00@12@XZ 130585f0 f i aggregator_static:aggregator_impl.obj
 0001:00057630       ?end@?$list@U?$pair@QBDPAV?$PoolThreadSafe@VDBConnImpl@aggregator@tls@@PBUst_db_conn_str@@@base@tls@@@std@@V?$allocator@U?$pair@QBDPAV?$PoolThreadSafe@VDBConnImpl@aggregator@tls@@PBUst_db_conn_str@@@base@tls@@@std@@@2@@std@@QAE?AV?$_Iterator@$00@12@XZ 13058630 f i aggregator_static:aggregator_impl.obj
 0001:00057670       ?end@?$list@U?$pair@QBDPAV?$PoolThreadSafe@VDBConnImpl@aggregator@tls@@PBUst_db_conn_str@@@base@tls@@@std@@V?$allocator@U?$pair@QBDPAV?$PoolThreadSafe@VDBConnImpl@aggregator@tls@@PBUst_db_conn_str@@@base@tls@@@std@@@2@@std@@QBE?AV?$_Const_iterator@$00@12@XZ 13058670 f i aggregator_static:aggregator_impl.obj
 0001:000576b0       ?clear@?$list@U?$pair@QBDPAV?$PoolThreadSafe@VDBConnImpl@aggregator@tls@@PBUst_db_conn_str@@@base@tls@@@std@@V?$allocator@U?$pair@QBDPAV?$PoolThreadSafe@VDBConnImpl@aggregator@tls@@PBUst_db_conn_str@@@base@tls@@@std@@@2@@std@@QAEXXZ 130586b0 f i aggregator_static:aggregator_impl.obj
 0001:00057780       ??1?$vector@V?$_Iterator@$00@?$list@U?$pair@QBDPAV?$PoolThreadSafe@VDBConnImpl@aggregator@tls@@PBUst_db_conn_str@@@base@tls@@@std@@V?$allocator@U?$pair@QBDPAV?$PoolThreadSafe@VDBConnImpl@aggregator@tls@@PBUst_db_conn_str@@@base@tls@@@std@@@2@@std@@V?$allocator@V?$_Iterator@$00@?$list@U?$pair@QBDPAV?$PoolThreadSafe@VDBConnImpl@aggregator@tls@@PBUst_db_conn_str@@@base@tls@@@std@@V?$allocator@U?$pair@QBDPAV?$PoolThreadSafe@VDBConnImpl@aggregator@tls@@PBUst_db_conn_str@@@base@tls@@@std@@@2@@std@@@3@@std@@QAE@XZ 13058780 f i aggregator_static:aggregator_impl.obj
 0001:000577b0       ?assign@?$vector@V?$_Iterator@$00@?$list@U?$pair@QBDPAV?$PoolThreadSafe@VDBConnImpl@aggregator@tls@@PBUst_db_conn_str@@@base@tls@@@std@@V?$allocator@U?$pair@QBDPAV?$PoolThreadSafe@VDBConnImpl@aggregator@tls@@PBUst_db_conn_str@@@base@tls@@@std@@@2@@std@@V?$allocator@V?$_Iterator@$00@?$list@U?$pair@QBDPAV?$PoolThreadSafe@VDBConnImpl@aggregator@tls@@PBUst_db_conn_str@@@base@tls@@@std@@V?$allocator@U?$pair@QBDPAV?$PoolThreadSafe@VDBConnImpl@aggregator@tls@@PBUst_db_conn_str@@@base@tls@@@std@@@2@@std@@@3@@std@@QAEXIABV?$_Iterator@$00@?$list@U?$pair@QBDPAV?$PoolThreadSafe@VDBConnImpl@aggregator@tls@@PBUst_db_conn_str@@@base@tls@@@std@@V?$allocator@U?$pair@QBDPAV?$PoolThreadSafe@VDBConnImpl@aggregator@tls@@PBUst_db_conn_str@@@base@tls@@@std@@@2@@2@@Z 130587b0 f i aggregator_static:aggregator_impl.obj
 0001:000577e0       ?end@?$list@Ust_db_conn_str@@V?$allocator@Ust_db_conn_str@@@std@@@std@@QAE?AV?$_Iterator@$00@12@XZ 130587e0 f i aggregator_static:aggregator_impl.obj
 0001:00057820       ?_Insert@?$list@Ust_db_conn_str@@V?$allocator@Ust_db_conn_str@@@std@@@std@@QAEXV?$_Iterator@$00@12@ABUst_db_conn_str@@@Z 13058820 f i aggregator_static:aggregator_impl.obj
 0001:000578e0       ?_Buynode@?$list@Ust_db_conn_str@@V?$allocator@Ust_db_conn_str@@@std@@@std@@IAEPAU_Node@?$_List_nod@Ust_db_conn_str@@V?$allocator@Ust_db_conn_str@@@std@@@2@XZ 130588e0 f i aggregator_static:aggregator_impl.obj
 0001:000579d0       ?_Tidy@?$list@Ust_db_conn_str@@V?$allocator@Ust_db_conn_str@@@std@@@std@@IAEXXZ 130589d0 f i aggregator_static:aggregator_impl.obj
 0001:00057a50       ??0?$_List_val@Ust_db_conn_str@@V?$allocator@Ust_db_conn_str@@@std@@@std@@QAE@V?$allocator@Ust_db_conn_str@@@1@@Z 13058a50 f i aggregator_static:aggregator_impl.obj
 0001:00057aa0       ??0?$allocator@Ust_db_conn_str@@@std@@QAE@XZ 13058aa0 f i aggregator_static:aggregator_impl.obj
 0001:00057ac0       ?_Construct_n@?$vector@PBDV?$allocator@PBD@std@@@std@@QAEXIABQBD@Z 13058ac0 f i aggregator_static:aggregator_impl.obj
 0001:00057b20       ?begin@?$vector@PBDV?$allocator@PBD@std@@@std@@QAE?AV?$_Vector_iterator@PBDV?$allocator@PBD@std@@@2@XZ 13058b20 f i aggregator_static:aggregator_impl.obj
 0001:00057b60       ?end@?$vector@PBDV?$allocator@PBD@std@@@std@@QAE?AV?$_Vector_iterator@PBDV?$allocator@PBD@std@@@2@XZ 13058b60 f i aggregator_static:aggregator_impl.obj
 0001:00057ba0       ?erase@?$vector@PBDV?$allocator@PBD@std@@@std@@QAE?AV?$_Vector_iterator@PBDV?$allocator@PBD@std@@@2@V32@0@Z 13058ba0 f i aggregator_static:aggregator_impl.obj
 0001:00057ca0       ?_Tidy@?$vector@PBDV?$allocator@PBD@std@@@std@@IAEXXZ 13058ca0 f i aggregator_static:aggregator_impl.obj
 0001:00057d30       ??0?$_Vector_val@PBDV?$allocator@PBD@std@@@std@@IAE@V?$allocator@PBD@1@@Z 13058d30 f i aggregator_static:aggregator_impl.obj
 0001:00057d70       ??0?$allocator@PBD@std@@QAE@XZ 13058d70 f i aggregator_static:aggregator_impl.obj
 0001:00057d90       ??0?$_Hash@V?$_Hmap_traits@IPAVLogTypeIdx@AggregatorImpl@aggregator@tls@@V?$hash_compare@IU?$less@I@std@@@stdext@@V?$allocator@U?$pair@$$CBIPAVLogTypeIdx@AggregatorImpl@aggregator@tls@@@std@@@std@@$0A@@stdext@@@stdext@@QAE@ABV?$hash_compare@IU?$less@I@std@@@1@ABV?$allocator@U?$pair@$$CBIPAVLogTypeIdx@AggregatorImpl@aggregator@tls@@@std@@@std@@@Z 13058d90 f i aggregator_static:aggregator_impl.obj
 0001:00057e30       ?insert@?$_Hash@V?$_Hmap_traits@IPAVLogTypeIdx@AggregatorImpl@aggregator@tls@@V?$hash_compare@IU?$less@I@std@@@stdext@@V?$allocator@U?$pair@$$CBIPAVLogTypeIdx@AggregatorImpl@aggregator@tls@@@std@@@std@@$0A@@stdext@@@stdext@@QAE?AU?$pair@V?$_Iterator@$00@?$list@U?$pair@$$CBIPAVLogTypeIdx@AggregatorImpl@aggregator@tls@@@std@@V?$allocator@U?$pair@$$CBIPAVLogTypeIdx@AggregatorImpl@aggregator@tls@@@std@@@2@@std@@_N@std@@ABU?$pair@$$CBIPAVLogTypeIdx@AggregatorImpl@aggregator@tls@@@4@@Z 13058e30 f i aggregator_static:aggregator_impl.obj
 0001:00058410       ?lower_bound@?$_Hash@V?$_Hmap_traits@IPAVLogTypeIdx@AggregatorImpl@aggregator@tls@@V?$hash_compare@IU?$less@I@std@@@stdext@@V?$allocator@U?$pair@$$CBIPAVLogTypeIdx@AggregatorImpl@aggregator@tls@@@std@@@std@@$0A@@stdext@@@stdext@@QAE?AV?$_Iterator@$00@?$list@U?$pair@$$CBIPAVLogTypeIdx@AggregatorImpl@aggregator@tls@@@std@@V?$allocator@U?$pair@$$CBIPAVLogTypeIdx@AggregatorImpl@aggregator@tls@@@std@@@2@@std@@ABI@Z 13059410 f i aggregator_static:aggregator_impl.obj
 0001:000585a0       ??0?$allocator@U?$pair@$$CBIPAVLogTypeIdx@AggregatorImpl@aggregator@tls@@@std@@@std@@QAE@XZ 130595a0 f i aggregator_static:aggregator_impl.obj
 0001:000585c0       ??1?$list@U?$pair@$$CBIPAVLogTypeIdx@AggregatorImpl@aggregator@tls@@@std@@V?$allocator@U?$pair@$$CBIPAVLogTypeIdx@AggregatorImpl@aggregator@tls@@@std@@@2@@std@@QAE@XZ 130595c0 f i aggregator_static:aggregator_impl.obj
 0001:000585f0       ?begin@?$list@U?$pair@$$CBIPAVLogTypeIdx@AggregatorImpl@aggregator@tls@@@std@@V?$allocator@U?$pair@$$CBIPAVLogTypeIdx@AggregatorImpl@aggregator@tls@@@std@@@2@@std@@QAE?AV?$_Iterator@$00@12@XZ 130595f0 f i aggregator_static:aggregator_impl.obj
 0001:00058630       ?end@?$list@U?$pair@$$CBIPAVLogTypeIdx@AggregatorImpl@aggregator@tls@@@std@@V?$allocator@U?$pair@$$CBIPAVLogTypeIdx@AggregatorImpl@aggregator@tls@@@std@@@2@@std@@QAE?AV?$_Iterator@$00@12@XZ 13059630 f i aggregator_static:aggregator_impl.obj
 0001:00058670       ?clear@?$list@U?$pair@$$CBIPAVLogTypeIdx@AggregatorImpl@aggregator@tls@@@std@@V?$allocator@U?$pair@$$CBIPAVLogTypeIdx@AggregatorImpl@aggregator@tls@@@std@@@2@@std@@QAEXXZ 13059670 f i aggregator_static:aggregator_impl.obj
 0001:00058740       ??1?$vector@V?$_Iterator@$00@?$list@U?$pair@$$CBIPAVLogTypeIdx@AggregatorImpl@aggregator@tls@@@std@@V?$allocator@U?$pair@$$CBIPAVLogTypeIdx@AggregatorImpl@aggregator@tls@@@std@@@2@@std@@V?$allocator@V?$_Iterator@$00@?$list@U?$pair@$$CBIPAVLogTypeIdx@AggregatorImpl@aggregator@tls@@@std@@V?$allocator@U?$pair@$$CBIPAVLogTypeIdx@AggregatorImpl@aggregator@tls@@@std@@@2@@std@@@3@@std@@QAE@XZ 13059740 f i aggregator_static:aggregator_impl.obj
 0001:00058770       ?assign@?$vector@V?$_Iterator@$00@?$list@U?$pair@$$CBIPAVLogTypeIdx@AggregatorImpl@aggregator@tls@@@std@@V?$allocator@U?$pair@$$CBIPAVLogTypeIdx@AggregatorImpl@aggregator@tls@@@std@@@2@@std@@V?$allocator@V?$_Iterator@$00@?$list@U?$pair@$$CBIPAVLogTypeIdx@AggregatorImpl@aggregator@tls@@@std@@V?$allocator@U?$pair@$$CBIPAVLogTypeIdx@AggregatorImpl@aggregator@tls@@@std@@@2@@std@@@3@@std@@QAEXIABV?$_Iterator@$00@?$list@U?$pair@$$CBIPAVLogTypeIdx@AggregatorImpl@aggregator@tls@@@std@@V?$allocator@U?$pair@$$CBIPAVLogTypeIdx@AggregatorImpl@aggregator@tls@@@std@@@2@@2@@Z 13059770 f i aggregator_static:aggregator_impl.obj
 0001:000587a0       ??0?$_Hash@V?$_Hmap_traits@PAUIFileIterator@aggregator@tls@@PAU123@V?$hash_compare@PAUIFileIterator@aggregator@tls@@U?$less@PAUIFileIterator@aggregator@tls@@@std@@@stdext@@V?$allocator@U?$pair@QAUIFileIterator@aggregator@tls@@PAU123@@std@@@std@@$0A@@stdext@@@stdext@@QAE@ABV?$hash_compare@PAUIFileIterator@aggregator@tls@@U?$less@PAUIFileIterator@aggregator@tls@@@std@@@1@ABV?$allocator@U?$pair@QAUIFileIterator@aggregator@tls@@PAU123@@std@@@std@@@Z 130597a0 f i aggregator_static:aggregator_impl.obj
 0001:00058840       ?insert@?$_Hash@V?$_Hmap_traits@PAUIFileIterator@aggregator@tls@@PAU123@V?$hash_compare@PAUIFileIterator@aggregator@tls@@U?$less@PAUIFileIterator@aggregator@tls@@@std@@@stdext@@V?$allocator@U?$pair@QAUIFileIterator@aggregator@tls@@PAU123@@std@@@std@@$0A@@stdext@@@stdext@@QAE?AU?$pair@V?$_Iterator@$00@?$list@U?$pair@QAUIFileIterator@aggregator@tls@@PAU123@@std@@V?$allocator@U?$pair@QAUIFileIterator@aggregator@tls@@PAU123@@std@@@2@@std@@_N@std@@ABU?$pair@QAUIFileIterator@aggregator@tls@@PAU123@@4@@Z 13059840 f i aggregator_static:aggregator_impl.obj
 0001:00058e20       ?erase@?$_Hash@V?$_Hmap_traits@PAUIFileIterator@aggregator@tls@@PAU123@V?$hash_compare@PAUIFileIterator@aggregator@tls@@U?$less@PAUIFileIterator@aggregator@tls@@@std@@@stdext@@V?$allocator@U?$pair@QAUIFileIterator@aggregator@tls@@PAU123@@std@@@std@@$0A@@stdext@@@stdext@@QAE?AV?$_Iterator@$00@?$list@U?$pair@QAUIFileIterator@aggregator@tls@@PAU123@@std@@V?$allocator@U?$pair@QAUIFileIterator@aggregator@tls@@PAU123@@std@@@2@@std@@V345@0@Z 13059e20 f i aggregator_static:aggregator_impl.obj
